((dp0
S'game-icf'
p1
S''
p2
sS'dist'
p3
NsS'csproj'
p4
g2
sS'module_path_append'
p5
NsS'global_path'
p6
S'c:\\marmalade\\7.5\\examples\\gametutorial\\cpp'
p7
sS'system_path'
p8
S'c:\\marmalade\\7.5\\s3e\\makefile_builder'
p9
sS'aarch64-arch-mod'
p10
g2
sS'no-emit'
p11
NsS'arm-float-abi'
p12
g2
sS'amd64'
p13
NsS'line-width'
p14
I80
sS'android-x86'
p15
NsS'x86_dbg_exe'
p16
S'c:/marmalade/7.5/s3e\\win32\\s3e_simulator_debug.exe'
p17
sS'disable-runtime-checks'
p18
NsS'release'
p19
NsS'no-make'
p20
NsS'xcode-x86-build-settings'
p21
g2
sS'optimise-size'
p22
NsS'fat'
p23
NsS'output-name-debug'
p24
g2
sS'arm-fpu'
p25
g2
sS'rvct-version'
p26
S'none'
p27
sS'compiler'
p28
g2
sS'execute'
p29
NsS'compile-static'
p30
NsS'msvc-project'
p31
I01
sS'buildenv'
p32
S'VC12_WP81TOOLSET'
p33
sS'quick'
p34
NsS'module_path'
p35
(lp36
S'c:/Marmalade/7.5/examples/GameTutorial/CPP/modules'
p37
asS'mkf_default'
p38
S's3e-default.mkf'
p39
sS'use-release-std-libs'
p40
NsS'using_perforce'
p41
I00
sS'tizen-x86'
p42
NsS'mips-s3e'
p43
NsS's3e-api-lib-name'
p44
S's3e_api_iwgl'
p45
sS'ios-no-pic'
p46
NsS'shared-arm-lib'
p47
NsS'arm-cpu'
p48
g2
sS'compile-thumb'
p49
NsS'no-ide'
p50
NsS'msvc-version'
p51
S'6.0'
p52
sS'arm'
p53
NsS'builddir'
p54
g2
sS'compile-debug-as-release'
p55
I0
sS'arm-arch'
p56
g2
sS'brief'
p57
NsS'dll'
p58
NsS'buildenv-toolset'
p59
S'WP81'
p60
sS'version'
p61
NsS'aarch64-arch'
p62
g2
sS'ccache'
p63
I0
sS'offline'
p64
NsS'ios-version'
p65
g2
sS'hub_data'
p66
g2
sS'fake_vc_call'
p67
NsS'jobs'
p68
I0
sS'linkflags'
p69
NsS'debug'
p70
NsS'xcode-build-order'
p71
g2
sS'done_defaults'
p72
I1
sS'path'
p73
NsS's3e-data-dir'
p74
S'c:/Marmalade/7.5/examples/GameTutorial/CPP/Stage4\\data'
p75
sS'enable-exceptions'
p76
NsS'osx-dll'
p77
NsS'extension'
p78
g2
sS'no-vc6'
p79
NsS'no-strip'
p80
NsS'win32-console'
p81
NsS'dist-format'
p82
g2
sS's3e-force-arch'
p83
NsS'dump_defines'
p84
NsS'use-shared-std-libs'
p85
NsS'gcc-version'
p86
g2
sS'arm-debugger'
p87
g2
sS'use_temp_extension'
p88
NsS'verbose'
p89
I0
sS'log'
p90
NsS'aarch64'
p91
NsS'rebuild'
p92
NsS'win32-simulator-dll'
p93
NsS'strict'
p94
NsS'xcode-aarch64-build-settings'
p95
g2
sS'enable-global-path'
p96
NsS'cflags'
p97
NsS'dist-dir'
p98
g2
sS'xcode-arm-build-settings'
p99
g2
sS'jflags'
p100
NsS'csprojSDKRefs'
p101
g2
sS'tizen_x86_rel_exe'
p102
S'c:\\marmalade\\7.5\\s3e\\makefile_builder\\tool_launcher.exe'
p103
sS'test-assets'
p104
g2
sS'distcc'
p105
NsS'external-compiler'
p106
NsS'no-distcc'
p107
NsS'preinclude'
p108
NsS'using_sdk'
p109
I01
sS'nologo'
p110
NsS'warn-level'
p111
I2
sS'mips_dbg_exe'
p112
g103
sS'mkb_in'
p113
S'c:/Marmalade/7.5/examples/GameTutorial/CPP/Stage4/Stage4.mkb'
p114
sS'tizen_x86_dbg_exe'
p115
g103
sS'arm_dbg_exe'
p116
S'c:/marmalade/7.5/s3e\\bin\\armdebug.exe'
p117
sS'csprojDLLRef'
p118
NsS'android_x86_dbg_exe'
p119
g103
sS'test-config'
p120
g2
sS'list-targets'
p121
NsS'arm_rel_exe'
p122
g103
sS'makedeps'
p123
NsS'android_x86_rel_exe'
p124
g103
sS'default-buildenv'
p125
S'vc12'
p126
sS'x86_rel_exe'
p127
g17
sS'preprocess-java'
p128
NsS'defines'
p129
NsS'lib'
p130
NsS'non-interactive'
p131
NsS'global_argv'
p132
(lp133
S'C:\\Marmalade\\7.5\\s3e\\makefile_builder\\mkb.py'
p134
aS'c:/Marmalade/7.5/examples/GameTutorial/CPP/Stage4/Stage4.mkb'
p135
aS'--buildenv=VC12'
p136
aS'--buildenv-toolset=WP81'
p137
aS'--default-buildenv=vc12'
p138
aS'--msvc-project'
p139
asS'make'
p140
NsS'optimise-speed'
p141
NsS'internal'
p142
NsS'enable-stdinc'
p143
NsS'deploy-only'
p144
NsS'x86'
p145
NsS'deploy'
p146
g2
sS'x86_run_exe'
p147
S'c:/marmalade/7.5/s3e\\win32\\s3e_console.exe'
p148
sS'cxxflags'
p149
NsS'mips'
p150
NsS'xcode-build-settings'
p151
g2
sS'incredibuild'
p152
NsS'strict-compile'
p153
NsS'use-auto-subdirs'
p154
NsS'mips_rel_exe'
p155
g103
sS'app-icf'
p156
g2
sS'deployargs'
p157
NsS'iosnativedebug'
p158
NsS'use_prebuilt'
p159
NsS'mkf_in'
p160
(lp161
S'c:\\marmalade\\7.5\\s3e\\s3e-default.mkf'
p162
aS'c:\\marmalade\\7.5\\modules\\iw2d\\iw2d.mkf'
p163
aS'c:\\marmalade\\7.5\\modules\\iwgx\\iwgx.mkf'
p164
aS'c:\\marmalade\\7.5\\modules\\iwgl\\iwgl.mkf'
p165
aS'c:\\marmalade\\7.5\\modules\\iwutil\\iwutil.mkf'
p166
aS'c:\\marmalade\\7.5\\modules\\third_party\\libjpeg\\libjpeg.mkf'
p167
aS'c:\\marmalade\\7.5\\modules\\third_party\\libpng\\libpng.mkf'
p168
aS'c:\\marmalade\\7.5\\modules\\third_party\\zlib\\zlib.mkf'
p169
aS'c:\\marmalade\\7.5\\modules\\iwgeom\\iwgeom.mkf'
p170
aS'c:\\marmalade\\7.5\\modules\\iwresmanager\\iwresmanager.mkf'
p171
aS'c:\\marmalade\\7.5\\extensions\\pvrtextool\\pvrtextool.mkf'
p172
aS'c:\\marmalade\\7.5\\modules\\iwgxfont\\iwgxfont.mkf'
p173
aS'c:\\marmalade\\7.5\\modules\\third_party\\tiniconv\\tiniconv.mkf'
p174
aS'c:\\marmalade\\7.5\\modules\\iw2dscenegraph\\iw2dscenegraph.mkf'
p175
aS'c:\\marmalade\\7.5\\modules\\iw2dscenegraphcore\\iw2dscenegraphcore.mkf'
p176
aS'c:\\marmalade\\7.5\\modules\\iwtween\\iwtween.mkf'
p177
aS'c:\\marmalade\\7.5\\examples\\gametutorial\\cpp\\modules\\soundengine\\soundengine.mkf'
p178
aS'c:\\marmalade\\7.5\\examples\\marmaladeexampleresources\\marmaladeexampleresources.mkf'
p179
asS'strict-mkb'
p180
NsS'executeargs'
p181
NsS'clean'
p182
NsS'no-asm'
p183
NsS'output-name'
p184
g2
sS'no-modules'
p185
NsS'find_define'
p186
g2
s(dp187
S'c:\\marmalade\\7.5\\s3e\\makefile_builder\\templates\\vc7_suo.pyc'
p188
F1422012890.0
sS'c:\\marmalade\\7.5\\s3e\\makefile_builder\\templates\\ws81_vcxproj.pyc'
p189
F1422012892.0
sS'c:\\marmalade\\7.5\\s3e\\makefile_builder\\plugins\\s3e_ws8.pyc'
p190
F1422012890.0
sS'c:\\marmalade\\7.5\\s3e\\makefile_builder\\templates'
p191
F1422040519.7924168
sS'c:\\marmalade\\7.5\\s3e\\makefile_builder\\templates\\qmake.py'
p192
F1422011718.0
sS'c:\\marmalade\\7.5\\s3e\\makefile_builder\\templates\\vc10_user.pyc'
p193
F1422012890.0
sS'c:\\marmalade\\7.5\\s3e\\makefile_builder\\plugins'
p194
F1422049226.122113
sS'c:\\marmalade\\7.5\\s3e\\makefile_builder\\mkb_main.pyc'
p195
F1422012890.0
sS'c:\\marmalade\\7.5\\s3e\\makefile_builder\\templates\\mips_linker_script'
p196
F1422011718.0
sS'c:\\marmalade\\7.5\\s3e\\makefile_builder\\plugins\\XcodeEmitter.py'
p197
F1422011718.0
sS'c:\\marmalade\\7.5\\s3e\\makefile_builder\\mkb.py'
p198
F1422011718.0
sS'c:\\marmalade\\7.5\\s3e\\makefile_builder\\templates\\ws81_ext_sln.pyc'
p199
F1422012892.0
sS'c:\\marmalade\\7.5\\s3e\\makefile_builder\\templates\\win32_dsp.pyc'
p200
F1422012890.0
sS'c:\\marmalade\\7.5\\s3e\\makefile_builder\\templates\\ws8_csproj.pyc'
p201
F1422012892.0
sS'c:\\marmalade\\7.5\\s3e\\makefile_builder\\deployment.pyc'
p202
F1422012890.0
sS'c:\\marmalade\\7.5\\s3e\\makefile_builder\\plugins\\win32_vc6.pyc'
p203
F1422012890.0
sS'c:\\marmalade\\7.5\\s3e\\makefile_builder\\plugins\\osx_xcode.pyc'
p204
F1422012890.0
sS'c:\\marmalade\\7.5\\s3e\\makefile_builder\\plugins\\null.pyc'
p205
F1422012890.0
sS'c:\\marmalade\\7.5\\s3e\\makefile_builder\\templates\\wp81_csproj.pyc'
p206
F1422012892.0
sS'c:\\marmalade\\7.5\\s3e\\makefile_builder\\templates\\qmake_user.py'
p207
F1422011718.0
sS'c:\\marmalade\\7.5\\s3e\\makefile_builder\\templates\\vc6_opt.pyc'
p208
F1422012890.0
sS'c:\\marmalade\\7.5\\s3e\\makefile_builder\\plugins\\vc7_utils.pyc'
p209
F1422012890.0
sS'c:\\marmalade\\7.5\\s3e\\makefile_builder\\templates\\wp81_vcxproj.pyc'
p210
F1422012892.0
sS'c:\\marmalade\\7.5\\s3e\\makefile_builder\\templates\\win32_vcxproj.pyc'
p211
F1422012890.0
sS'c:\\marmalade\\7.5\\s3e\\makefile_builder\\templates\\ws8_ext_sln.pyc'
p212
F1422012892.0
sS'c:\\marmalade\\7.5\\s3e\\makefile_builder\\templates\\ws8_ext_csproj.pyc'
p213
F1422012892.0
sS'c:\\marmalade\\7.5\\s3e\\makefile_builder\\templates\\wp8_ext_csproj.pyc'
p214
F1422012892.0
sS'c:\\marmalade\\7.5\\s3e\\makefile_builder\\plugins\\s3e_wp8.pyc'
p215
F1422012890.0
sS'c:\\marmalade\\7.5\\s3e\\makefile_builder\\templates\\ws81_csproj.pyc'
p216
F1422012892.0
sS'c:\\marmalade\\7.5\\s3e\\makefile_builder\\docs\\deprecated.options.txt'
p217
F1422011718.0
sS'c:\\marmalade\\7.5\\s3e\\makefile_builder\\plugins\\s3e_make.pyc'
p218
F1422012890.0
sS'c:\\marmalade\\7.5\\s3e\\makefile_builder\\templates\\win8_ext_csproj.pyc'
p219
F1422012892.0
sS'c:\\marmalade\\7.5\\s3e\\makefile_builder\\mkb_parser.pyc'
p220
F1422012890.0
sS'c:\\marmalade\\7.5\\s3e\\makefile_builder\\plugins\\s3e_web.pyc'
p221
F1422012890.0
sS'c:\\marmalade\\7.5\\s3e\\makefile_builder\\docs\\mkb.defines.txt'
p222
F1422011718.0
sS'c:\\marmalade\\7.5\\s3e\\makefile_builder\\plugins\\osx_scons.pyc'
p223
F1422012890.0
sS'c:\\marmalade\\7.5\\s3e\\makefile_builder\\plugins\\ws81_ws81.pyc'
p224
F1422012890.0
sS'c:\\marmalade\\7.5\\s3e\\makefile_builder\\plugins\\s3e_qmake.py'
p225
F1422011718.0
sS'c:\\marmalade\\7.5\\s3e\\makefile_builder\\templates\\win8_csproj.pyc'
p226
F1422012892.0
sS'c:\\marmalade\\7.5\\s3e\\makefile_builder\\plugins\\s3e_vc6.pyc'
p227
F1422012890.0
sS'c:\\marmalade\\7.5\\s3e\\makefile_builder\\plugins\\wp81_wp81.pyc'
p228
F1422012890.0
sS'c:\\marmalade\\7.5\\s3e\\makefile_builder\\templates\\wp81_csproj_user.pyc'
p229
F1422012892.0
sS'c:\\marmalade\\7.5\\s3e\\makefile_builder\\templates\\win32_dsw.pyc'
p230
F1422012890.0
sS'c:\\marmalade\\7.5\\s3e\\makefile_builder\\templates\\xcode4.xcscheme'
p231
F1422011718.0
sS'c:\\marmalade\\7.5\\s3e\\makefile_builder\\templates\\template.opt'
p232
F1422011718.0
sS'c:\\marmalade\\7.5\\s3e\\makefile_builder\\templates\\template.suo'
p233
F1422011718.0
sS'c:\\marmalade\\7.5\\s3e\\makefile_builder\\templates\\linker_script'
p234
F1422011718.0
sS'c:\\marmalade\\7.5\\s3e\\makefile_builder\\templates\\gdb_start.txt'
p235
F1422011718.0
sS'c:\\marmalade\\7.5\\s3e\\makefile_builder\\mkb_launcher.exe'
p236
F1422012030.0
sS'c:\\marmalade\\7.5\\s3e\\makefile_builder\\templates\\scons.pyc'
p237
F1422012890.0
sS'c:\\marmalade\\7.5\\s3e\\makefile_builder\\docs\\parse_options.pyc'
p238
F1422012892.0
sS'c:\\marmalade\\7.5\\s3e\\makefile_builder\\templates\\xcode4_arm.xcscheme'
p239
F1422011718.0
sS'c:\\marmalade\\7.5\\s3e\\makefile_builder\\plugins\\VisualStudioEmitter.pyc'
p240
F1422012890.0
sS'c:\\marmalade\\7.5\\s3e\\makefile_builder\\plugins\\s3e_xcode.pyc'
p241
F1422049226.1261024
sS'c:\\marmalade\\7.5\\s3e\\makefile_builder\\plugins\\Emitter.pyc'
p242
F1422012890.0
sS'c:\\marmalade\\7.5\\s3e\\makefile_builder\\templates\\ws8_sln.pyc'
p243
F1422012892.0
sS'c:\\marmalade\\7.5\\s3e\\makefile_builder\\tool_launcher.exe'
p244
F1422012030.0
sS'c:\\marmalade\\7.5\\s3e\\makefile_builder\\templates\\wp8_sln.pyc'
p245
F1422012892.0
sS'c:\\marmalade\\7.5\\s3e\\makefile_builder\\mkb_upstream.pyc'
p246
F1422012890.0
sS'c:\\marmalade\\7.5\\s3e\\makefile_builder\\templates\\ws81_csproj_user.pyc'
p247
F1422012892.0
sS'c:\\marmalade\\7.5\\s3e\\makefile_builder\\templates\\win32_sln.pyc'
p248
F1422012890.0
sS'c:\\marmalade\\7.5\\s3e\\makefile_builder\\templates\\xcode4_DeployTool.xcscheme'
p249
F1422011718.0
sS'c:\\marmalade\\7.5\\s3e\\makefile_builder\\plugins\\deploy.pyc'
p250
F1422012890.0
sS'c:\\marmalade\\7.5\\s3e\\makefile_builder\\plugins\\s3e_win8.pyc'
p251
F1422012890.0
sS'c:\\marmalade\\7.5\\s3e\\makefile_builder\\plugins\\iphone.pyc'
p252
F1422012890.0
sS'c:\\marmalade\\7.5\\s3e\\makefile_builder\\plugins\\Win8Emitter.pyc'
p253
F1422012890.0
sS'c:\\marmalade\\7.5\\s3e\\makefile_builder\\plugins\\s3e_qmake.pyc'
p254
F1422049225.7607005
sS'c:\\marmalade\\7.5\\s3e\\makefile_builder\\docs'
p255
F1422040519.867489
sS'c:\\marmalade\\7.5\\s3e\\makefile_builder\\mkb_globals.pyc'
p256
F1422012890.0
sS'c:\\marmalade\\7.5\\s3e\\makefile_builder\\plugins\\win8_utils.pyc'
p257
F1422012890.0
sS'c:\\marmalade\\7.5\\s3e\\makefile_builder\\plugins\\xcode4_schememanagement.py'
p258
F1422011718.0
sS'c:\\marmalade\\7.5\\s3e\\makefile_builder\\templates\\wp81_ext_sln.pyc'
p259
F1422012892.0
sS'c:\\marmalade\\7.5\\s3e\\makefile_builder\\templates\\make.py'
p260
F1422011718.0
sS'c:\\marmalade\\7.5\\s3e\\makefile_builder\\templates\\ws81_ext_csproj.pyc'
p261
F1422012892.0
sS'c:\\marmalade\\7.5\\s3e\\makefile_builder\\plugins\\s3e_xcode.py'
p262
F1422011718.0
sS'c:\\marmalade\\7.5\\s3e\\makefile_builder\\plugins\\XcodeEmitter.pyc'
p263
F1422049225.0825448
sS'c:\\marmalade\\7.5\\s3e\\makefile_builder\\docs\\deployment_options.txt'
p264
F1422011718.0
sS'c:\\marmalade\\7.5\\s3e\\makefile_builder\\templates\\win8_sln.pyc'
p265
F1422012892.0
sS'c:\\marmalade\\7.5\\s3e\\makefile_builder\\plugins\\java.pyc'
p266
F1422012890.0
sS'c:\\marmalade\\7.5\\s3e\\makefile_builder\\plugins\\xcode4_schememanagement.pyc'
p267
F1422049225.1608984
sS'c:\\marmalade\\7.5\\s3e\\makefile_builder\\plugins\\SConsEmitter.pyc'
p268
F1422012890.0
sS'c:\\marmalade\\7.5\\s3e\\makefile_builder\\templates\\win32_vcproj.pyc'
p269
F1422012890.0
sS'c:\\marmalade\\7.5\\s3e\\makefile_builder\\plugins\\wp8_wp8.pyc'
p270
F1422012890.0
sS'c:\\marmalade\\7.5\\s3e\\makefile_builder\\templates\\MainWindow.xib'
p271
F1422011718.0
sS'c:\\marmalade\\7.5\\s3e\\makefile_builder\\mkb_util.pyc'
p272
F1422012890.0
sS'c:\\marmalade\\7.5\\s3e\\makefile_builder\\templates\\vc8_user.pyc'
p273
F1422012890.0
sS'c:\\marmalade\\7.5\\s3e\\makefile_builder\\templates\\Info.plist'
p274
F1422011718.0
sS'c:\\marmalade\\7.5\\s3e\\makefile_builder\\templates\\wp8_csproj_user.pyc'
p275
F1422012892.0
sS'c:\\marmalade\\7.5\\s3e\\makefile_builder\\docs\\deprecated.defines.txt'
p276
F1422011718.0
sS'c:\\marmalade\\7.5\\s3e\\makefile_builder\\templates\\ws8_csproj_user.pyc'
p277
F1422012892.0
sS'c:\\marmalade\\7.5\\s3e\\makefile_builder\\plugins\\S3EEmitter.pyc'
p278
F1422012890.0
sS'c:\\marmalade\\7.5\\s3e\\makefile_builder\\templates\\rvct_linker_script'
p279
F1422011718.0
sS'c:\\marmalade\\7.5\\s3e\\makefile_builder\\templates\\xcode_pbxuser.py'
p280
F1422011718.0
sS'c:\\marmalade\\7.5\\s3e\\makefile_builder\\docs\\options.txt'
p281
F1422011718.0
sS'c:\\marmalade\\7.5\\s3e\\makefile_builder\\templates\\wp81_sln.pyc'
p282
F1422012892.0
sS'c:\\marmalade\\7.5\\s3e\\makefile_builder\\templates\\ws81_sln.pyc'
p283
F1422012892.0
sS'c:\\marmalade\\7.5\\s3e\\makefile_builder\\plugins\\vc6_utils.pyc'
p284
F1422012890.0
sS'c:\\marmalade\\7.5\\s3e\\makefile_builder\\templates\\wp81_ext_csproj.pyc'
p285
F1422012892.0
sS'c:\\marmalade\\7.5\\s3e\\makefile_builder\\plugins\\s3e_wp81.pyc'
p286
F1422012890.0
sS'c:\\marmalade\\7.5\\s3e\\makefile_builder\\templates\\aarch64_linker_script'
p287
F1422011718.0
sS'c:\\marmalade\\7.5\\s3e\\makefile_builder\\templates\\ws8_vcxproj.pyc'
p288
F1422012892.0
sS'c:\\marmalade\\7.5\\s3e\\makefile_builder\\plugins\\MakeEmitter.pyc'
p289
F1422012890.0
sS'c:\\marmalade\\7.5\\s3e\\makefile_builder\\templates\\win32_vcxproj_filters.pyc'
p290
F1422012890.0
sS'c:\\marmalade\\7.5\\s3e\\makefile_builder\\templates\\xcode.py'
p291
F1422011718.0
sS'c:\\marmalade\\7.5\\s3e\\makefile_builder\\plugins\\s3e_ws81.pyc'
p292
F1422012890.0
sS'c:\\marmalade\\7.5\\s3e\\makefile_builder\\plugins\\linux_scons.pyc'
p293
F1422012890.0
sS'c:\\marmalade\\7.5\\s3e\\makefile_builder\\templates\\win8_vcxproj.pyc'
p294
F1422012892.0
sS'c:\\marmalade\\7.5\\s3e\\makefile_builder\\plugins\\s3e_scons.pyc'
p295
F1422012890.0
sS'c:\\marmalade\\7.5\\s3e\\makefile_builder\\templates\\wp8_csproj.pyc'
p296
F1422012892.0
sS'c:\\marmalade\\7.5\\s3e\\makefile_builder\\templates\\win8_csproj_user.pyc'
p297
F1422012892.0
sS'c:\\marmalade\\7.5\\s3e\\makefile_builder\\plugins\\ws8_ws8.pyc'
p298
F1422012890.0
sS'c:\\marmalade\\7.5\\s3e\\makefile_builder\\templates\\wp8_vcxproj.pyc'
p299
F1422012892.0
sS'c:\\marmalade\\7.5\\s3e\\makefile_builder\\mkb_option.pyc'
p300
F1422012890.0
sccopy_reg
_reconstructor
p301
(cmkb_main
MkbFile
p302
c__builtin__
object
p303
Ntp304
Rp305
(dp306
g3
(lp307
sS'target_name'
p308
S'Stage4'
p309
sS'current_file'
p310
g114
sS'package_path'
p311
(lp312
sS'post_build'
p313
(lp314
(lp315
S'c:/marmalade/7.5/s3e/tools'
p316
aS'C:\\Marmalade\\7.5\\s3e\\python\\python.exe .\\process_map.py "$(TargetPath)"'
p317
aa(S'c:\\marmalade\\7.5\\s3e\\bin'
p318
S'"s3e_plink" -l "$(TargetPath)" -p WP81'
p319
g145
tp320
asS'librarys'
p321
(lp322
g301
(cmkb_main
Library
p323
g303
Ntp324
Rp325
(dp326
S'name'
p327
S'iw2d'
p328
sS'expand_name'
p329
I01
sS'include_spec_rvct_objs'
p330
(lp331
sS'include_all_objs'
p332
NsS'share_arm'
p333
NsS'arch'
p334
NsS'nodebug'
p335
I00
sg28
Nsbag301
(g323
g303
Ntp336
Rp337
(dp338
g327
S'ATI_Compress_MT_VC7.lib'
p339
sg329
I00
sg330
g331
sg332
Nsg333
Nsg334
S'x86'
p340
sg335
I00
sg28
Nsbag301
(g323
g303
Ntp341
Rp342
(dp343
g327
S'iwgx'
p344
sg329
I01
sg330
g331
sg332
Nsg333
Nsg334
Nsg335
I00
sg28
Nsbag301
(g323
g303
Ntp345
Rp346
(dp347
g327
S'iwgl'
p348
sg329
I01
sg330
g331
sg332
Nsg333
Nsg334
Nsg335
I00
sg28
Nsbag301
(g323
g303
Ntp349
Rp350
(dp351
g327
S'iwutil'
p352
sg329
I01
sg330
g331
sg332
Nsg333
Nsg334
Nsg335
I00
sg28
Nsbag301
(g323
g303
Ntp353
Rp354
(dp355
g327
S'jpeg'
p356
sg329
I01
sg330
g331
sg332
Nsg333
Nsg334
Nsg335
I00
sg28
Nsbag301
(g323
g303
Ntp357
Rp358
(dp359
g327
S'z'
p360
sg329
I01
sg330
g331
sg332
Nsg333
Nsg334
Nsg335
I00
sg28
Nsbag301
(g323
g303
Ntp361
Rp362
(dp363
g327
S'png'
p364
sg329
I01
sg330
g331
sg332
Nsg333
Nsg334
Nsg335
I00
sg28
Nsbag301
(g323
g303
Ntp365
Rp366
(dp367
g327
S'iwgeom'
p368
sg329
I01
sg330
g331
sg332
Nsg333
Nsg334
Nsg335
I00
sg28
Nsbag301
(g323
g303
Ntp369
Rp370
(dp371
g327
S'iwresmanager'
p372
sg329
I01
sg330
g331
sg332
Nsg333
Nsg334
Nsg335
I00
sg28
Nsbag301
(g323
g303
Ntp373
Rp374
(dp375
g327
S'iwgxfont'
p376
sg329
I01
sg330
g331
sg332
Nsg333
Nsg334
Nsg335
I00
sg28
Nsbag301
(g323
g303
Ntp377
Rp378
(dp379
g327
S'tiniconv'
p380
sg329
I01
sg330
g331
sg332
Nsg333
Nsg334
Nsg335
I00
sg28
Nsbag301
(g323
g303
Ntp381
Rp382
(dp383
g327
S's3e_cpp'
p384
sg329
I01
sg330
(lp385
sg332
I00
sg333
I00
sg334
Nsg335
I00
sg28
Nsbag301
(g323
g303
Ntp386
Rp387
(dp388
g327
S's3e'
p389
sg329
I01
sg330
(lp390
S'iwcrt.o'
p391
asg332
I00
sg333
I00
sg334
Nsg335
I00
sg28
Nsbag301
(g323
g303
Ntp392
Rp393
(dp394
g327
g45
sg329
I01
sg330
g385
sg332
I00
sg333
I00
sg334
S'x86'
p395
sg335
I01
sg28
Nsbag301
(g323
g303
Ntp396
Rp397
(dp398
g327
g45
sg329
I01
sg330
g385
sg332
I00
sg333
I00
sg334
S'!x86'
p399
sg335
I01
sg28
Nsbag301
(g323
g303
Ntp400
Rp401
(dp402
g327
S'stdc++'
p403
sg329
I00
sg330
g385
sg332
I00
sg333
I00
sg334
S'mips'
p404
sg335
I00
sg28
Nsbag301
(g323
g303
Ntp405
Rp406
(dp407
g327
S'c'
p408
sg329
I00
sg330
g385
sg332
I00
sg333
I00
sg334
S'mips'
p409
sg335
I00
sg28
Nsbag301
(g323
g303
Ntp410
Rp411
(dp412
g327
S'm'
p413
sg329
I00
sg330
g385
sg332
I00
sg333
I00
sg334
S'mips'
p414
sg335
I00
sg28
Nsbag301
(g323
g303
Ntp415
Rp416
(dp417
g327
S'gcc'
p418
sg329
I00
sg330
g385
sg332
I00
sg333
I00
sg334
S'mips'
p419
sg335
I00
sg28
Nsbag301
(g323
g303
Ntp420
Rp421
(dp422
g327
S'stdc++'
p423
sg329
I00
sg330
g385
sg332
I00
sg333
I00
sg334
S'gcc_x86_android'
p424
sg335
I00
sg28
Nsbag301
(g323
g303
Ntp425
Rp426
(dp427
g327
g408
sg329
I00
sg330
g385
sg332
I00
sg333
I00
sg334
S'gcc_x86_android'
p428
sg335
I00
sg28
Nsbag301
(g323
g303
Ntp429
Rp430
(dp431
g327
g413
sg329
I00
sg330
g385
sg332
I00
sg333
I00
sg334
S'gcc_x86_android'
p432
sg335
I00
sg28
Nsbag301
(g323
g303
Ntp433
Rp434
(dp435
g327
g418
sg329
I00
sg330
g385
sg332
I00
sg333
I00
sg334
S'gcc_x86_android'
p436
sg335
I00
sg28
NsbasS'library_paths'
p437
(lp438
g301
(cmkb_main
LibraryPath
p439
g303
Ntp440
Rp441
(dp442
S'expand_path'
p443
I01
sg327
S'c:/marmalade/7.5/modules/iw2d'
p444
sbag301
(g439
g303
Ntp445
Rp446
(dp447
g443
I00
sg327
S'c:/marmalade/7.5/modules/iwgx/atitools'
p448
sbag301
(g439
g303
Ntp449
Rp450
(dp451
g443
I01
sg327
S'c:/marmalade/7.5/modules/iwgx'
p452
sbag301
(g439
g303
Ntp453
Rp454
(dp455
g443
I01
sg327
S'c:/marmalade/7.5/modules/iwgl'
p456
sbag301
(g439
g303
Ntp457
Rp458
(dp459
g443
I01
sg327
S'c:/marmalade/7.5/modules/iwutil'
p460
sbag301
(g439
g303
Ntp461
Rp462
(dp463
g443
I01
sg327
S'c:/marmalade/7.5/modules/third_party/libjpeg'
p464
sbag301
(g439
g303
Ntp465
Rp466
(dp467
g443
I01
sg327
S'c:/marmalade/7.5/modules/third_party/zlib'
p468
sbag301
(g439
g303
Ntp469
Rp470
(dp471
g443
I01
sg327
S'c:/marmalade/7.5/modules/third_party/libpng'
p472
sbag301
(g439
g303
Ntp473
Rp474
(dp475
g443
I01
sg327
S'c:/marmalade/7.5/modules/iwgeom'
p476
sbag301
(g439
g303
Ntp477
Rp478
(dp479
g443
I01
sg327
S'c:/marmalade/7.5/modules/iwresmanager'
p480
sbag301
(g439
g303
Ntp481
Rp482
(dp483
g443
I01
sg327
S'c:/marmalade/7.5/modules/iwgxfont'
p484
sbag301
(g439
g303
Ntp485
Rp486
(dp487
g443
I01
sg327
S'c:/marmalade/7.5/modules/third_party/tiniconv'
p488
sbag301
(g439
g303
Ntp489
Rp490
(dp491
g443
I01
sg327
S'c:/marmalade/7.5/s3e'
p492
sbasS'macros'
p493
(dp494
S'IW_USE_CALLSTACK'
p495
NsS'IW_MKF_IWGEOM'
p496
NsS'I3D_PLATFORM_S3E'
p497
NsS'IW_TRACE_CHANNEL_PVRTEXTOOL_VERBOSE'
p498
S'2'
p499
sS'IW_MKF_LIBJPEG'
p500
NsS'I3D_OS_S3E'
p501
NsS'IW_MKF_PVRTEXTOOL'
p502
NsS'IW_MKF_TINICONV'
p503
NsS'IW_APP_VERSION'
p504
S'"1.0"'
p505
sS'__S3E__'
p506
NsS'IW_MKF_IWRESMANAGER'
p507
NsS'IW_MKF_IWUTIL'
p508
NsS'IW_PLATFORM_S3E'
p509
NsS'IW_ASSERTION_CHANNEL_2D'
p510
S'1'
p511
sS'IW_APP_NAME'
p512
S'"Stage4"'
p513
sS'IW_MKF_MARMALADEEXAMPLERESOURCES'
p514
NsS'IW_MKF_IWGXFONT'
p515
NsS'IW_MKF_IWTWEEN'
p516
NsS'IW_MKF_ZLIB'
p517
NsS'IW_MKF_S3E_DEFAULT'
p518
NsS'IW_MKF_IWGX'
p519
NsS'IW_MKF_IW2DSCENEGRAPH'
p520
NsS'IW_MKF_SOUNDENGINE'
p521
NsS'IW_USE_ASSERTIONS'
p522
NsS'_CRT_SECURE_NO_DEPRECATE'
p523
NsS'IW_MKF_IWGL'
p524
NsS'IW_MKF_LIBPNG'
p525
NsS'IW_TRACE_CHANNEL_IW_2DSCENEGRAPH'
p526
g511
sS'IW_DEBUG'
p527
NsS'IW_USE_TRACING'
p528
NsS'IW_ASSERTION_CHANNEL_IW_2DSCENEGRAPH'
p529
g511
sS'IW_TRACE_CHANNEL_PVRTEXTOOL'
p530
g511
sS'IW_SDK'
p531
NsS'S3E_INCLUDE_LEGACY'
p532
NsS'IW_MKF_IW2DSCENEGRAPHCORE'
p533
NsS'IW_MKF_IW2D'
p534
NsS'IW_ASSERTION_CHANNEL_PVRTEXTOOL'
p535
g511
ssS'done_warnings'
p536
(dp537
sS'subprojects'
p538
(dp539
g164
S'iwgx'
p540
sg173
S'iwgxfont'
p541
sg162
S's3e-default.mkf'
p542
sg176
S'../iw2dscenegraphcore'
p543
sg169
S'zlib'
p544
sg171
S'iwresmanager'
p545
sg174
S'tiniconv'
p546
sg167
S'libjpeg'
p547
sg163
S'iw2d'
p548
sg179
S'../../../MarmaladeExampleResources'
p549
sg166
S'iwutil'
p550
sg177
S'iwtween'
p551
sg168
S'libpng'
p552
sg175
S'iw2dscenegraph'
p553
sg178
S'SoundEngine'
p554
sg165
S'iwgl'
p555
sg170
S'iwgeom'
p556
sg172
S'PVRTexTool'
p557
ssS'deployments'
p558
(dp559
S'Default'
p560
g301
(cdeployment
Deployment
p561
g303
Ntp562
Rp563
(dp564
S'got_version'
p565
I0
sS'assets'
p566
g560
sS'mkb'
p567
g305
sS'target'
p568
Nsg334
(lp569
sS'options'
p570
(dp571
S'iphone-link-lib'
p572
(lp573
sS'game-icf'
p574
NsS'android-tm'
p575
NsS'winmobile-icon32'
p576
NsS'ws8-logo-image150x150'
p577
NsS'wp81-logo-image150x150'
p578
NsS'ws81-product-version'
p579
NsS'osx-ext-dll'
p580
(lp581
S'c:/marmalade/7.5/extensions/pvrtextool/lib/osx/libPVRTexTool.dylib'
p582
asS'iphone-provisioning-profile'
p583
NsS'win32-icon'
p584
NsS'ws8-splash-screen-image620x300'
p585
NsS'wp81-extra-pri'
p586
(lp587
sS'ws8-ext-capabilities'
p588
(lp589
sS'android-icon-hdpi'
p590
NsS'iphone-ipad-only'
p591
NsS'iphone-splash-full-orient'
p592
NsS'wp8-tile-fliptemplate-supports-large'
p593
NsS'iphone-show-status-bar'
p594
NsS'roku-requires-mkv'
p595
NsS'long-caption'
p596
NsS'android-pkgname'
p597
NsS'wp81-publisher-display-name'
p598
NsS'blackberry-permissions-read-device-identifying-information'
p599
NsS'ws81-certificate-end-date'
p600
NsS'psp-dlgcontentid'
p601
NsS'iphone-minimum-ios-version'
p602
NsS'target-folder'
p603
NsS'tizen-dist1-CA-path'
p604
NsS'symbian-icon2-format'
p605
NsS'tizen-author-key'
p606
NsS'firefoxos-icon-128X128'
p607
NsS'iphone-region'
p608
NsS'uiq3-icon3-mask'
p609
NsS'brew-encoding'
p610
NsS'android-x86'
p611
NsS'nds-initialcode'
p612
NsS'iphone-persistent-wifi'
p613
NsS'psp-snd0'
p614
NsS'roku-icon-focus-hd'
p615
NsS'osx-appid'
p616
NsS'winmobile-install-folder'
p617
NsS'android-external-res'
p618
(lp619
sS'ws8-product-version'
p620
NsS'brew-priviledges'
p621
NsS'iphone-info-plist-override'
p622
NsS'iphone-icon-ipad'
p623
NsS'iphone-skip-icon-generation'
p624
NsS'roku-hidden'
p625
NsS'psp-titlename'
p626
NsS'wp81-product-version'
p627
NsS'symbian-icon1-mask'
p628
NsS'psp-parentallevel'
p629
NsS'iphone-launch-storyboard'
p630
NsS'splashscreen-use-all'
p631
NsS'wp8-author'
p632
NsS'symbian-disable-ecompxl'
p633
NsS'splashscreen-auto-onblack'
p634
NsS'iphone-icon-dir'
p635
NsS'iphone-icon-extra'
p636
NsS'win32-ext-dll'
p637
(lp638
S'c:/marmalade/7.5/extensions/pvrtextool/lib/win32/PVRTexTool.dll'
p639
asS'iphone-development-key'
p640
NsS'winmobile-icon48'
p641
NsS'android-unsigned'
p642
NsS'osx-appstore-category'
p643
NsS'version-revision'
p644
NsS'roku-icon-focus-sd'
p645
NsS'android-keystore'
p646
NsS'winmobile-png90'
p647
NsS'iphone-icon-ipad-high-res'
p648
NsS'iphone-disable-ipad'
p649
NsS'ws81-splash-screen-background'
p650
NsS'wp8-ext-capabilities'
p651
(lp652
sS'brew-icon-large'
p653
NsS'symbian-icon1-mask-black'
p654
NsS'ws8-extra-res'
p655
(lp656
sS'iphone-bundle-localisations'
p657
NsS'winmobile-png60'
p658
NsS'blackberry-permissions-access-shared'
p659
NsS'blackberry-author'
p660
NsS'android-icon-xxxhdpi'
p661
NsS'olddeploytoolstyle'
p662
NsS'android_icon_gallery'
p663
NsS'wp81-splash-screen-background'
p664
NsS'winmobile-cab-compress'
p665
NsS'iphone-info-plist'
p666
NsS'ws81-ext-managed-dll'
p667
(lp668
sS'playbook-cskpass'
p669
NsS'ws8-distribution-pfx-password'
p670
NsS'symbian-key'
p671
NsS'app-icf'
p672
NsS'blackberry-storepass'
p673
NsS'wp8-tile-fliptemplate-back-title'
p674
NsS'brew-compress-loader'
p675
NsS'win32-pref-windowposy'
p676
NsS'win32-pref-windowposx'
p677
NsS'roku-requires-audiometadata'
p678
NsS'wp8-exclude-low-mem'
p679
NsS'iphone-icon-ipad-search-high-res'
p680
NsS'iphone-link-libdir'
p681
(lp682
sS'wp81-ext-capabilities'
p683
(lp684
sS'blackberry-permissions-read-geolocation'
p685
NsS'ws81-ext-device-capabilities'
p686
(lp687
sS'tizen-signed'
p688
NsS'android-extra-application-manifest'
p689
(lp690
sS'ws8-ext-native-dll'
p691
(lp692
sS'symbian-icon2-mask'
p693
NsS'iphone-launch-extra'
p694
NsS'webos-memory'
p695
NsS'android-keypass'
p696
NsS'name'
p697
NsS'uiq3-icon2-format'
p698
NsS'roku-splash-screen-sd'
p699
NsS'auto-derbh'
p700
NsS'roku-icon-side-sd'
p701
NsS'android-external-assets'
p702
(lp703
sS'nds-publicsavedatasize'
p704
NsS'splashscreen'
p705
S'c:/marmalade/7.5/examples/marmaladeexampleresources/resources/splashscreens'
p706
sS'brew-mif'
p707
NsS'iphone-icon-settings-high-res'
p708
NsS'android-manifest'
p709
NsS'ws81-splash-screen-image620x300'
p710
NsS'wp81-product-name'
p711
NsS's3e-compression'
p712
NsS'tizen-author-password'
p713
NsS'wp8-tile-fliptemplate-back-content'
p714
NsS'blackberry-extra-descriptor'
p715
(lp716
sS'symbian-icon1'
p717
NsS'symbian-icon2'
p718
NsS'nds-makercode'
p719
NsS'android-extra-styles-file'
p720
NsS'wp81-publisher-id'
p721
NsS'nds-bannertitle-jp'
p722
NsS'wp81-logo-image44x44'
p723
NsS'osx-sign-for-store'
p724
NsS'symbian7-uid'
p725
NsS'wp8-tile-fliptemplate-large-back-content'
p726
NsS'wp81-phone-publisher-id'
p727
NsS'nds-bannertitle-cn'
p728
NsS'iphone-distribution-key'
p729
NsS'android-icon-gallery'
p730
NsS'blackberry-keystore'
p731
NsS'iphone-nosign'
p732
NsS'caption'
p733
NsS'android-extra-manifest'
p734
(lp735
sS'wp81-ext-sdk-ref'
p736
(lp737
sS'android-icon-xxhdpi'
p738
NsS'version-minor'
p739
NsS'iphone-skip-launch-generation'
p740
NsS'iphone-link-libdirs'
p741
(lp742
sS'iphone-icon-large'
p743
NsS'symbian-keypwd'
p744
NsS'symbian8-uid'
p745
NsS'symbian-cert-key'
p746
NsS'winmobile-ampd-part-number'
p747
NsS'arch'
p748
NsS'nds-romheadertemplate'
p749
NsS'webos-icon'
p750
NsS'wp81-ext-device-capabilities'
p751
(lp752
sS'psp-dlgprotectdocument'
p753
NsS'ws8-splash-screen-background'
p754
NsS'android-icon-mdpi'
p755
NsS'nds-icon'
p756
NsS'ws8-custom-manifest-fill'
p757
NsS'iphone-development-cert'
p758
NsS'and'
p759
NsS'symbian-icon2-mask-black'
p760
NsS'blackberry-phone-icon'
p761
NsS'iphone-enable-4inch-retina'
p762
NsS'ws8-custom-manifest'
p763
NsS'version-major'
p764
NsS'wp8-genre-isgame'
p765
NsS'uiq3-uid'
p766
NsS'iphone-splash-retina-generate'
p767
NsS'tizen-hw-acceleration'
p768
NsS'iphone_bundle_localisations'
p769
NsS'tizen-dist1-key'
p770
NsS'wp81-custom-manifest-fill'
p771
NsS'wp8-custom-manifest'
p772
NsS'nds-bannertitle-ge'
p773
NsS'iphone-sign-for-distribution'
p774
NsS'wp8-tile-fliptemplate-medium-back-image'
p775
NsS'wp8-publisher-id'
p776
NsS'icon'
p777
S'c:/marmalade/7.5/examples/marmaladeexampleresources/resources/icons'
p778
sS'wp8-exclude-wxga'
p779
NsS'wp81-identity-name'
p780
NsS'uiq3-icon2-mask'
p781
NsS'iphone-splashscreen-portrait'
p782
NsS'iphone-icon-high-res'
p783
NsS'ws81-distribution-pfx-password'
p784
NsS'playbook-author'
p785
NsS'android-icon-xhdpi'
p786
NsS'linux-ext-lib'
p787
(lp788
sS'blackberry-permissions-access-internet'
p789
NsS'wp8-exclude-720p'
p790
NsS'lgtv-use-drm'
p791
NsS'symbian-platsecflags'
p792
NsS'ws8-description'
p793
NsS'blackberry-playbook-icon'
p794
NsS'copyright'
p795
NsS'win32-gles-directory'
p796
NsS'version'
p797
NsS'iphone-uiviewcontroller-based-status-bar'
p798
NsS'ws81-logo-image150x150'
p799
NsS'osx-signing-identity-app'
p800
NsS'tizen-project-url'
p801
NsS'symbian-icon-svg'
p802
NsS'android-aliasname'
p803
NsS'psp-dlgmanual'
p804
NsS'brew-uid'
p805
NsS'symbian-locationsupport'
p806
NsS'wp81-logo-image50x50'
p807
NsS'ws8-ext-managed-dll'
p808
(lp809
sS'nds-bannertitle-it'
p810
NsS'ws81-custom-manifest-fill'
p811
NsS'ws8-ext-sdk-manifest-part'
p812
(lp813
sS'uiq3-icon1-mask'
p814
NsS'winmobile-icon16'
p815
NsS'ws8-product-name'
p816
NsS'blackberry-cskpass'
p817
NsS'winmobile-start-menu-folder'
p818
NsS'brew-clsid'
p819
NsS'roku-requires-bluetooth'
p820
NsS'ws8-ext-device-capabilities'
p821
(lp822
sS'blackberry-permissions-use-camera'
p823
NsS'ws81-extra-pri'
p824
(lp825
sS'iphone-prerendered-icon'
p826
NsS'iphone-appid'
p827
NsS'ws8-identity-name'
p828
NsS'tizen-dist2-CA-path'
p829
NsS'android-external-jars'
p830
(lp831
sS'winmobile-icon64'
p832
NsS'blackberry-permissions-post-notification'
p833
NsS'winmobile-setup-dll'
p834
NsS'firefoxos-manifest'
p835
NsS'win8-winrt-extra-res'
p836
(lp837
sS'wp81-ext-sdk-manifest-part'
p838
(lp839
sS'symbian9-uid'
p840
NsS'iphone-icon-ipad-ios7'
p841
NsS'winmobile-trace-file'
p842
NsS'roku-splash-color'
p843
NsS'psp-appversion'
p844
NsS'ws8-publisher-id'
p845
NsS'android-supports-gl-texture'
p846
(lp847
sS'winmobile-png45'
p848
NsS'wp81-extra-res'
p849
(lp850
sS'android-storepass'
p851
NsS'osx-signing-identity-inst'
p852
NsS'android-custom-activity'
p853
NsS'psp-discversion'
p854
NsS'wp81-ext-managed-dll'
p855
(lp856
sS'psp-copyright'
p857
NsS'embed-icf'
p858
NsS'tizen-manifest'
p859
NsS'osx-icon'
p860
NsS'webos-appinfo'
p861
NsS'psp-dlghealthwarning'
p862
NsS'webos-appid'
p863
NsS'roku-icon-side-hd'
p864
NsS'iphone-icon-ipad-search-high-res-ios7'
p865
NsS'iphone-extra-plist'
p866
(lp867
sS'ws81-ext-sdk-manifest-part'
p868
(lp869
sS'loader_name_prefix'
p870
NsS'iphone-launch-dir'
p871
NsS'nds-titlename'
p872
NsS'ws81-logo-image50x50'
p873
NsS'wp81-custom-manifest'
p874
NsS'osx-entitlements-plist'
p875
NsS'psp-dlgicon0'
p876
NsS'winmobile-nouninstall'
p877
NsS'psp-discid'
p878
NsS'tizen-dist2-password'
p879
NsS'ws8-ext-sdk-ref'
p880
(lp881
sS'iphone-extra-string'
p882
(lp883
sS'version-string'
p884
NsS'iphone-icon-high-res-ios7'
p885
NsS'blackberry-permissions-record-audio'
p886
NsS'ws8-certificate-end-date'
p887
NsS'tizen-so'
p888
(lp889
sS'wp8-tile-fliptemplate-small-image'
p890
NsS'playbook-authorid'
p891
NsS'iphone-signing-identity'
p892
NsS'roku-persist-quota'
p893
NsS'nds-bannertitle-fr'
p894
NsS'ws8-distribution-pfx'
p895
NsS'ws8-publisher-display-name'
p896
NsS'brew-icon-small'
p897
NsS'psp-dlgpic2'
p898
NsS'psp-dlgpic0'
p899
NsS'psp-pic0'
p900
NsS'psp-pic1'
p901
NsS'win32-pref-windowtitle'
p902
NsS'psp-icon0'
p903
NsS'psp-icon1'
p904
NsS'ws81-identity-name'
p905
NsS'winmobile-icon'
p906
NsS'iphone-no-splash'
p907
NsS'iphone-splash'
p908
NsS'iphone-app-fonts'
p909
NsS'wp8-ext-native-dll'
p910
(lp911
sS'wp81-splash-screen-image480x800'
p912
NsS'ws81-distribution-cer'
p913
NsS'iphone-backgroundmode-audio'
p914
NsS'uiq3-icon2'
p915
NsS'uiq3-icon3'
p916
NsS'uiq3-icon1'
p917
NsS'uiq3-icon1-format'
p918
NsS'ws8-logo-image50x50'
p919
NsS'iphone-icon-ipad-search'
p920
NsS'symbian-run-on-install'
p921
NsS'wp81-description'
p922
NsS'ws81-publisher-display-name'
p923
NsS'firefoxos-xulrunner'
p924
NsS'symbian-soundrecordsupport'
p925
NsS'nds-bannertitle-sp'
p926
NsS'psp-producer'
p927
NsS'iphone-apple-wwdr-cert'
p928
NsS'android-icon-nonstandard'
p929
NsS'win32-pref-processtitle'
p930
NsS'nds-bannertitle-hn'
p931
NsS'tizen-dist2-key'
p932
NsS'brew-depends'
p933
NsS'ws81-custom-manifest'
p934
NsS'iphone-allow-launch-rotation'
p935
NsS'iphone-icon-ipad-search-ios7'
p936
NsS'brew-icon-medium'
p937
NsS'iphone-bundle-url-name'
p938
NsS'wp8-tile-fliptemplate-large-front-image'
p939
NsS'tizen-dist2-CA-root-path'
p940
NsS'ws81-description'
p941
NsS'uiq3-icon3-format'
p942
NsS'ws81-logo-image30x30'
p943
NsS'win8-phone-extra-res'
p944
(lp945
sS'iphone-signing-host'
p946
NsS'tizen-icon'
p947
NsS'osx-info-plist'
p948
NsS'symbian-icon1-format'
p949
NsS'ws81-distribution-pfx'
p950
NsS'blackberry-authorid'
p951
NsS'ws81-publisher-id'
p952
NsS'win8-store-extra-res'
p953
(lp954
sS'wp8-description'
p955
NsS'iphone-link-opts'
p956
(lp957
sS'ws81-ext-sdk-ref'
p958
(lp959
sS'roku-splash-min-time'
p960
NsS'wp8-tile-fliptemplate-medium-front-image'
p961
NsS'iphone-disable-launch-images'
p962
NsS'provider'
p963
NsS'playbook-keystore'
p964
NsS'tizen-appid'
p965
NsS'wp8-extra-res'
p966
(lp967
sS'symbian-osexecsupport'
p968
NsS'android-install-location'
p969
NsS'nds-privatesavedatasize'
p970
NsS'iphone-disable-testflight'
p971
NsS'playbook-storepass'
p972
NsS'android-icon-ldpi'
p973
NsS'manufacturer'
p974
NsS'itunes-artwork'
p975
NsS'iphone-extra-sections'
p976
NsS'ws81-product-name'
p977
NsS'ws81-ext-native-dll'
p978
(lp979
sS'ws8-extra-pri'
p980
(lp981
sS'wp8-product-id'
p982
NsS'ws8-logo-image30x30'
p983
NsS'wp8-ext-managed-dll'
p984
(lp985
sS'iphone-splashscreen-landscape'
p986
NsS'symbian-maxheapsize'
p987
NsS'android-extra-packages'
p988
(lp989
sS'priv-sign-key'
p990
NsS'networking'
p991
NsS'android-icon'
p992
NsS'iphone-icon-settings'
p993
NsS'wp81-phone-product-id'
p994
NsS'firefoxos-icon-60X60'
p995
NsS'iphone-distribution-cert'
p996
NsS'android_extra_strings'
p997
NsS'nds-bannertitle-en'
p998
NsS'wp8-tile-fliptemplate-title'
p999
NsS'android-so'
p1000
(lp1001
sS'wp8-higher-mem'
p1002
NsS'wp8-ext-sdk-ref'
p1003
(lp1004
sS'wp8-fast-resume-mode'
p1005
NsS'roku-splash-screen-hd'
p1006
NsS'iphone-bundle-url-schemes'
p1007
NsS'roku-screensaver-private'
p1008
NsS'osx-extra-res'
p1009
(lp1010
sS'ws81-extra-res'
p1011
(lp1012
sS'playbook-icon'
p1013
NsS'uid'
p1014
NsS'pkguid-as-uid'
p1015
NsS'wp81-ext-native-dll'
p1016
(lp1017
sS'tizen-dist1-password'
p1018
NsS'roku-screensaver-title'
p1019
NsS'osx-minimum-osx-version'
p1020
NsS'symbian-cert'
p1021
NsS'iphone-icon'
p1022
NsS'ws81-ext-capabilities'
p1023
(lp1024
sS'ws8-distribution-cer'
p1025
NsS'playbook-access-shared'
p1026
NsS'iphone-icon-ipad-high-res-ios7'
p1027
NsS'iphone-link-libs'
p1028
(lp1029
sS'wp8-exclude-wvga'
p1030
NsS'assets'
p1031
NsS'wp8-tile-fliptemplate-large-back-image'
p1032
NsS'wp8-custom-manifest-fill'
p1033
NsS'pub-sign-key'
p1034
NsS'android-extra-strings'
p1035
NsS'tizen-author-CA-path'
p1036
Nssg327
g560
sbssS'platform'
p1037
S'S3E'
p1038
sg61
S'1.0'
p1039
sS'arcade_platform'
p1040
g2
sS'extensions'
p1041
(dp1042
sS'source_groups_tree'
p1043
(dp1044
S'(libpng)'
p1045
(dp1046
S'h'
p1047
(dp1048
S'c:/marmalade/7.5/modules/third_party/libpng/h/png.h'
p1049
(lp1050
I1
a(dp1051
asS'c:/marmalade/7.5/modules/third_party/libpng/h/pngconf.h'
p1052
(lp1053
I1
ag1051
assS'c:/marmalade/7.5/modules/third_party/libpng/libpng.mkf'
p1054
(lp1055
I1
a(dp1056
assS'(libjpeg)'
p1057
(dp1058
S'c:/marmalade/7.5/modules/third_party/libjpeg/libjpeg.mkf'
p1059
(lp1060
I1
a(dp1061
asg1047
(dp1062
S'c:/marmalade/7.5/modules/third_party/libjpeg/h/jerror.h'
p1063
(lp1064
I1
a(dp1065
asS'c:/marmalade/7.5/modules/third_party/libjpeg/h/jdhuff.h'
p1066
(lp1067
I1
ag1065
asS'c:/marmalade/7.5/modules/third_party/libjpeg/h/cderror.h'
p1068
(lp1069
I1
ag1065
asS'c:/marmalade/7.5/modules/third_party/libjpeg/h/transupp.h'
p1070
(lp1071
I1
ag1065
asS'c:/marmalade/7.5/modules/third_party/libjpeg/h/jinclude.h'
p1072
(lp1073
I1
ag1065
asS'c:/marmalade/7.5/modules/third_party/libjpeg/h/jmorecfg.h'
p1074
(lp1075
I1
ag1065
asS'c:/marmalade/7.5/modules/third_party/libjpeg/h/jdct.h'
p1076
(lp1077
I1
ag1065
asS'c:/marmalade/7.5/modules/third_party/libjpeg/h/jmemsys.h'
p1078
(lp1079
I1
ag1065
asS'c:/marmalade/7.5/modules/third_party/libjpeg/h/jpegint.h'
p1080
(lp1081
I1
ag1065
asS'c:/marmalade/7.5/modules/third_party/libjpeg/h/jchuff.h'
p1082
(lp1083
I1
ag1065
asS'c:/marmalade/7.5/modules/third_party/libjpeg/h/cdjpeg.h'
p1084
(lp1085
I1
ag1065
asS'c:/marmalade/7.5/modules/third_party/libjpeg/h/jversion.h'
p1086
(lp1087
I1
ag1065
asS'c:/marmalade/7.5/modules/third_party/libjpeg/h/jconfig.h'
p1088
(lp1089
I1
ag1065
asS'c:/marmalade/7.5/modules/third_party/libjpeg/h/jpeglib.h'
p1090
(lp1091
I1
ag1065
asssS'(tiniconv)'
p1092
(dp1093
S'c:/marmalade/7.5/modules/third_party/tiniconv/tiniconv.mkf'
p1094
(lp1095
I1
a(dp1096
asS'c:/marmalade/7.5/modules/third_party/tiniconv/source/tiniconv_int.h'
p1097
(lp1098
I1
a(dp1099
asS'c:/marmalade/7.5/modules/third_party/tiniconv/source/tiniconv.h'
p1100
(lp1101
I1
ag1099
assS'(SoundEngine)'
p1102
(dp1103
S'c:/marmalade/7.5/examples/gametutorial/cpp/modules/soundengine/source/IwSoundGroup.cpp'
p1104
(lp1105
I1
a(dp1106
asS'c:/marmalade/7.5/examples/gametutorial/cpp/modules/soundengine/h/IwSoundADPCM.h'
p1107
(lp1108
I1
ag1106
asS'c:/marmalade/7.5/examples/gametutorial/cpp/modules/soundengine/source/IwResHandlerWAV.cpp'
p1109
(lp1110
I1
ag1106
asS'c:/marmalade/7.5/examples/gametutorial/cpp/modules/soundengine/h/IwResHandlerWAV.h'
p1111
(lp1112
I1
ag1106
asS'Docs'
p1113
(dp1114
S'c:/marmalade/7.5/examples/gametutorial/cpp/modules/soundengine/docs/iwsound.config.txt'
p1115
(lp1116
I1
ag1106
assS'c:/marmalade/7.5/examples/gametutorial/cpp/modules/soundengine/h/IwSoundInst.h'
p1117
(lp1118
I1
ag1106
asS'c:/marmalade/7.5/examples/gametutorial/cpp/modules/soundengine/source/IwSoundManager.cpp'
p1119
(lp1120
I1
ag1106
asS'c:/marmalade/7.5/examples/gametutorial/cpp/modules/soundengine/h/IwSoundSpec.h'
p1121
(lp1122
I1
ag1106
asS'c:/marmalade/7.5/examples/gametutorial/cpp/modules/soundengine/source/IwSoundParams.cpp'
p1123
(lp1124
I1
ag1106
asS'c:/marmalade/7.5/examples/gametutorial/cpp/modules/soundengine/h/IwSoundManager.h'
p1125
(lp1126
I1
ag1106
asS'c:/marmalade/7.5/examples/gametutorial/cpp/modules/soundengine/source/IwSoundPCM.cpp'
p1127
(lp1128
I1
ag1106
asS'c:/marmalade/7.5/examples/gametutorial/cpp/modules/soundengine/source/IwSoundWAV.cpp'
p1129
(lp1130
I1
ag1106
asS'c:/marmalade/7.5/examples/gametutorial/cpp/modules/soundengine/source/IwSoundInst.cpp'
p1131
(lp1132
I1
ag1106
asS'c:/marmalade/7.5/examples/gametutorial/cpp/modules/soundengine/h/IwSoundWAV.h'
p1133
(lp1134
I1
ag1106
asS'c:/marmalade/7.5/examples/gametutorial/cpp/modules/soundengine/source/IwSoundSpec.cpp'
p1135
(lp1136
I1
ag1106
asS'c:/marmalade/7.5/examples/gametutorial/cpp/modules/soundengine/h/IwSoundParams.h'
p1137
(lp1138
I1
ag1106
asS'c:/marmalade/7.5/examples/gametutorial/cpp/modules/soundengine/source/IwSoundADPCM.cpp'
p1139
(lp1140
I1
ag1106
asS'c:/marmalade/7.5/examples/gametutorial/cpp/modules/soundengine/h/IwSound.h'
p1141
(lp1142
I1
ag1106
asS'c:/marmalade/7.5/examples/gametutorial/cpp/modules/soundengine/source/IwSoundData.cpp'
p1143
(lp1144
I1
ag1106
asS'c:/marmalade/7.5/examples/gametutorial/cpp/modules/soundengine/h/IwSoundData.h'
p1145
(lp1146
I1
ag1106
asS'c:/marmalade/7.5/examples/gametutorial/cpp/modules/soundengine/h/IwSoundPCM.h'
p1147
(lp1148
I1
ag1106
asS'c:/marmalade/7.5/examples/gametutorial/cpp/modules/soundengine/soundengine.mkf'
p1149
(lp1150
I1
a(dp1151
asS'c:/marmalade/7.5/examples/gametutorial/cpp/modules/soundengine/h/IwSoundGroup.h'
p1152
(lp1153
I1
ag1106
assS'(MarmaladeExampleResources)'
p1154
(dp1155
S'c:/marmalade/7.5/examples/marmaladeexampleresources/marmaladeexampleresources.mkf'
p1156
(lp1157
I1
a(dp1158
assS'source'
p1159
(dp1160
S'c:/Marmalade/7.5/examples/GameTutorial/CPP/Stage4/source/main.cpp'
p1161
(lp1162
I1
a(dp1163
asS'c:/Marmalade/7.5/examples/GameTutorial/CPP/Stage4/source/pauseMenu.cpp'
p1164
(lp1165
I1
ag1163
asS'c:/Marmalade/7.5/examples/GameTutorial/CPP/Stage4/source/input.h'
p1166
(lp1167
I1
ag1163
asS'c:/Marmalade/7.5/examples/GameTutorial/CPP/Stage4/source/scene.h'
p1168
(lp1169
I1
ag1163
asS'c:/Marmalade/7.5/examples/GameTutorial/CPP/Stage4/source/scene.cpp'
p1170
(lp1171
I1
ag1163
asS'c:/Marmalade/7.5/examples/GameTutorial/CPP/Stage4/source/resources.h'
p1172
(lp1173
I1
ag1163
asS'c:/Marmalade/7.5/examples/GameTutorial/CPP/Stage4/source/main.h'
p1174
(lp1175
I1
ag1163
asS'c:/Marmalade/7.5/examples/GameTutorial/CPP/Stage4/source/pauseMenu.h'
p1176
(lp1177
I1
ag1163
asS'c:/Marmalade/7.5/examples/GameTutorial/CPP/Stage4/source/game.h'
p1178
(lp1179
I1
ag1163
asS'c:/Marmalade/7.5/examples/GameTutorial/CPP/Stage4/source/audio.h'
p1180
(lp1181
I1
ag1163
asS'c:/Marmalade/7.5/examples/GameTutorial/CPP/Stage4/source/audio.cpp'
p1182
(lp1183
I1
ag1163
asS'c:/Marmalade/7.5/examples/GameTutorial/CPP/Stage4/source/input.cpp'
p1184
(lp1185
I1
ag1163
asS'c:/Marmalade/7.5/examples/GameTutorial/CPP/Stage4/source/resources.cpp'
p1186
(lp1187
I1
ag1163
asS'c:/Marmalade/7.5/examples/GameTutorial/CPP/Stage4/source/mainMenu.cpp'
p1188
(lp1189
I1
ag1163
asS'c:/Marmalade/7.5/examples/GameTutorial/CPP/Stage4/source/game.cpp'
p1190
(lp1191
I1
ag1163
asS'c:/Marmalade/7.5/examples/GameTutorial/CPP/Stage4/source/mainMenu.h'
p1192
(lp1193
I1
ag1163
assS'Extensions'
p1194
(dp1195
S'PVRTexTool'
p1196
(dp1197
S'interface'
p1198
(dp1199
S'c:/marmalade/7.5/extensions/pvrtextool/interface/PVRTexTool.defines.txt'
p1200
(lp1201
I1
a(dp1202
asS'c:/marmalade/7.5/extensions/pvrtextool/interface/PVRTexTool_interface.cpp'
p1203
(lp1204
I1
ag1202
assS'c:/marmalade/7.5/extensions/pvrtextool/h/PVRTexTool.h'
p1205
(lp1206
I1
ag1202
asS'c:/marmalade/7.5/extensions/pvrtextool/pvrtextool.mkf'
p1207
(lp1208
I1
a(dp1209
asssS"'Marmalade Studio'"
p1210
(dp1211
S'iw2dscenegraph'
p1212
(dp1213
S'c:/marmalade/7.5/modules/iw2dscenegraph/source/Iw2DSceneGraph.cpp'
p1214
(lp1215
I1
a(dp1216
asS'c:/marmalade/7.5/modules/iw2dscenegraph/docs/iw2dscenegraph.defines.txt'
p1217
(lp1218
I1
ag1216
asS'c:/marmalade/7.5/modules/iw2dscenegraph/h/Iw2DSceneGraph.h'
p1219
(lp1220
I1
ag1216
asS'c:/marmalade/7.5/modules/iw2dscenegraph/iw2dscenegraph.mkf'
p1221
(lp1222
I1
a(dp1223
assS'iwgl'
p1224
(dp1225
S'c:/marmalade/7.5/modules/iwgl/iwgl.mkf'
p1226
(lp1227
I1
a(dp1228
asS'c:/marmalade/7.5/modules/iwgl/h/IwGL.h'
p1229
(lp1230
I1
a(dp1231
asS'c:/marmalade/7.5/modules/iwgl/docs/iwgl.config.txt'
p1232
(lp1233
I1
ag1231
asS'c:/marmalade/7.5/modules/iwgl/h/IwGLExt.h'
p1234
(lp1235
I1
ag1231
assS'iw2d'
p1236
(dp1237
S'c:/marmalade/7.5/modules/iw2d/docs/iw2d_public.defines.txt'
p1238
(lp1239
I1
a(dp1240
asS'c:/marmalade/7.5/modules/iw2d/docs/iw2d.config.txt'
p1241
(lp1242
I1
ag1240
asS'c:/marmalade/7.5/modules/iw2d/h/Iw2D.h'
p1243
(lp1244
I1
ag1240
asS'c:/marmalade/7.5/modules/iw2d/iw2d.mkf'
p1245
(lp1246
I1
a(dp1247
assS'iwgxfont'
p1248
(dp1249
S'c:/marmalade/7.5/modules/iwgxfont/h/IwGxFontGlyph.h'
p1250
(lp1251
I1
a(dp1252
asS'c:/marmalade/7.5/modules/iwgxfont/h/IwGxFontTypes.h'
p1253
(lp1254
I1
ag1252
asS'c:/marmalade/7.5/modules/iwgxfont/docs/iwgxfont.config.txt'
p1255
(lp1256
I1
ag1252
asS'c:/marmalade/7.5/modules/iwgxfont/h/IwGxFontState.h'
p1257
(lp1258
I1
ag1252
asS'c:/marmalade/7.5/modules/iwgxfont/h/IwGxFontContainer.h'
p1259
(lp1260
I1
ag1252
asS'c:/marmalade/7.5/modules/iwgxfont/iwgxfont.mkf'
p1261
(lp1262
I1
a(dp1263
asS'c:/marmalade/7.5/modules/iwgxfont/h/IwGxFontPreparedData.h'
p1264
(lp1265
I1
ag1252
asS'c:/marmalade/7.5/modules/iwgxfont/h/IwGxFont.h'
p1266
(lp1267
I1
ag1252
asS'c:/marmalade/7.5/modules/iwgxfont/docs/iwgxfont_public.defines.txt'
p1268
(lp1269
I1
ag1252
assS'iwgeom'
p1270
(dp1271
S'c:/marmalade/7.5/modules/iwgeom/h/IwGeomSVec2.h'
p1272
(lp1273
I1
a(dp1274
asS'c:/marmalade/7.5/modules/iwgeom/h/IwGeomSphere.h'
p1275
(lp1276
I1
ag1274
asS'c:/marmalade/7.5/modules/iwgeom/h/IwGeomSVec3.h'
p1277
(lp1278
I1
ag1274
asS'c:/marmalade/7.5/modules/iwgeom/iwgeom.mkf'
p1279
(lp1280
I1
a(dp1281
asS'c:/marmalade/7.5/modules/iwgeom/h/IwGeomSqrt.h'
p1282
(lp1283
I1
ag1274
asS'c:/marmalade/7.5/modules/iwgeom/h/IwGeomFQuat.h'
p1284
(lp1285
I1
ag1274
asS'c:/marmalade/7.5/modules/iwgeom/h/IwGeomQuat.h.tpl'
p1286
(lp1287
I1
ag1274
asS'c:/marmalade/7.5/modules/iwgeom/h/IwGeomVec2.h'
p1288
(lp1289
I1
ag1274
asS'c:/marmalade/7.5/modules/iwgeom/h/IwGeomMat.h'
p1290
(lp1291
I1
ag1274
asS'c:/marmalade/7.5/modules/iwgeom/h/IwGeomVec3.h'
p1292
(lp1293
I1
ag1274
asS'c:/marmalade/7.5/modules/iwgeom/h/IwGeomLegacy.h'
p1294
(lp1295
I1
ag1274
asS'c:/marmalade/7.5/modules/iwgeom/h/IwGeom.h'
p1296
(lp1297
I1
ag1274
asS'c:/marmalade/7.5/modules/iwgeom/h/IwGeomSQuat.h'
p1298
(lp1299
I1
ag1274
asS'c:/marmalade/7.5/modules/iwgeom/h/IwGeomFBBox.h'
p1300
(lp1301
I1
ag1274
asS'c:/marmalade/7.5/modules/iwgeom/h/IwGeomFMat.h'
p1302
(lp1303
I1
ag1274
asS'c:/marmalade/7.5/modules/iwgeom/h/IwGeomPlane.h'
p1304
(lp1305
I1
ag1274
asS'c:/marmalade/7.5/modules/iwgeom/h/IwGeomMat2D.h'
p1306
(lp1307
I1
ag1274
asS'c:/marmalade/7.5/modules/iwgeom/h/IwGeomFVec2.h'
p1308
(lp1309
I1
ag1274
asS'c:/marmalade/7.5/modules/iwgeom/h/IwGeomSVec4.h'
p1310
(lp1311
I1
ag1274
asS'c:/marmalade/7.5/modules/iwgeom/h/IwGeomVec4.h'
p1312
(lp1313
I1
ag1274
asS'c:/marmalade/7.5/modules/iwgeom/h/IwGeomCore.h'
p1314
(lp1315
I1
ag1274
asS'c:/marmalade/7.5/modules/iwgeom/h/IwGeomVec.h.tpl'
p1316
(lp1317
I1
ag1274
asS'c:/marmalade/7.5/modules/iwgeom/h/IwGeomVec.h'
p1318
(lp1319
I1
ag1274
asS'c:/marmalade/7.5/modules/iwgeom/h/IwGeomIntersect.h'
p1320
(lp1321
I1
ag1274
asS'c:/marmalade/7.5/modules/iwgeom/h/IwGeomFVec4.h'
p1322
(lp1323
I1
ag1274
asS'c:/marmalade/7.5/modules/iwgeom/h/IwGeomMat.h.tpl'
p1324
(lp1325
I1
ag1274
asS'c:/marmalade/7.5/modules/iwgeom/h/IwGeomMat2D.h.tpl'
p1326
(lp1327
I1
ag1274
asS'c:/marmalade/7.5/modules/iwgeom/h/IwGeomFMat2D.h'
p1328
(lp1329
I1
ag1274
asS'c:/marmalade/7.5/modules/iwgeom/h/IwGeomMenu.h'
p1330
(lp1331
I1
ag1274
asS'c:/marmalade/7.5/modules/iwgeom/h/IwGeomBBox.h'
p1332
(lp1333
I1
ag1274
asS'c:/marmalade/7.5/modules/iwgeom/h/IwGeomFSphere.h'
p1334
(lp1335
I1
ag1274
asS'c:/marmalade/7.5/modules/iwgeom/h/IwGeomFVec3.h'
p1336
(lp1337
I1
ag1274
asS'c:/marmalade/7.5/modules/iwgeom/h/IwGeomFPlane.h'
p1338
(lp1339
I1
ag1274
asS'c:/marmalade/7.5/modules/iwgeom/docs/iwgeom.config.txt'
p1340
(lp1341
I1
ag1274
asS'c:/marmalade/7.5/modules/iwgeom/h/IwGeomQuat.h'
p1342
(lp1343
I1
ag1274
asS'c:/marmalade/7.5/modules/iwgeom/h/IwGeomFIntersect.h'
p1344
(lp1345
I1
ag1274
assS'iwresmanager'
p1346
(dp1347
S'c:/marmalade/7.5/modules/iwresmanager/h/IwResHandlerITX.h'
p1348
(lp1349
I1
a(dp1350
asS'c:/marmalade/7.5/modules/iwresmanager/h/IwResSerialise.h'
p1351
(lp1352
I1
ag1350
asS'c:/marmalade/7.5/modules/iwresmanager/h/IwResManagerClass.h'
p1353
(lp1354
I1
ag1350
asS'c:/marmalade/7.5/modules/iwresmanager/h/IwResHandlerGROUP.h'
p1355
(lp1356
I1
ag1350
asS'c:/marmalade/7.5/modules/iwresmanager/h/IwResManager.h'
p1357
(lp1358
I1
ag1350
asS'c:/marmalade/7.5/modules/iwresmanager/iwresmanager.mkf'
p1359
(lp1360
I1
a(dp1361
asS'c:/marmalade/7.5/modules/iwresmanager/docs/iwresmanager.config.txt'
p1362
(lp1363
I1
ag1350
asS'c:/marmalade/7.5/modules/iwresmanager/h/IwResGroup.h'
p1364
(lp1365
I1
ag1350
asS'c:/marmalade/7.5/modules/iwresmanager/h/IwResHandler.h'
p1366
(lp1367
I1
ag1350
asS'c:/marmalade/7.5/modules/iwresmanager/h/IwResHandlerImage.h'
p1368
(lp1369
I1
ag1350
assS'iwgx'
p1370
(dp1371
S'c:/marmalade/7.5/modules/iwgx/h/IwDebugPrim.h'
p1372
(lp1373
I1
a(dp1374
asS'c:/marmalade/7.5/modules/iwgx/h/IwMatAnim.h'
p1375
(lp1376
I1
ag1374
asS'c:/marmalade/7.5/modules/iwgx/h/IwTexture.h'
p1377
(lp1378
I1
ag1374
asS'c:/marmalade/7.5/modules/iwgx/h/IwGxFuncTable.h'
p1379
(lp1380
I1
ag1374
asS'c:/marmalade/7.5/modules/iwgx/h/IwResHandlerMTL.h'
p1381
(lp1382
I1
ag1374
asS'c:/marmalade/7.5/modules/iwgx/h/IwGxPrint.h'
p1383
(lp1384
I1
ag1374
asS'c:/marmalade/7.5/modules/iwgx/h/IwGxStream.h'
p1385
(lp1386
I1
ag1374
asS'c:/marmalade/7.5/modules/iwgx/h/IwClip.h'
p1387
(lp1388
I1
ag1374
asS'c:/marmalade/7.5/modules/iwgx/h/IwGxSurface.h'
p1389
(lp1390
I1
ag1374
asS'c:/marmalade/7.5/modules/iwgx/h/IwGxError.h'
p1391
(lp1392
I1
ag1374
asS'c:/marmalade/7.5/modules/iwgx/h/IwGx.h'
p1393
(lp1394
I1
ag1374
asS'c:/marmalade/7.5/modules/iwgx/docs/iwgx_public.defines.txt'
p1395
(lp1396
I1
ag1374
asS'c:/marmalade/7.5/modules/iwgx/h/IwGxDebug.h'
p1397
(lp1398
I1
ag1374
asS'c:/marmalade/7.5/modules/iwgx/h/IwGxShaderTechnique.h'
p1399
(lp1400
I1
ag1374
asS'c:/marmalade/7.5/modules/iwgx/h/IwGxTransformSW.h'
p1401
(lp1402
I1
ag1374
asS'c:/marmalade/7.5/modules/iwgx/h/IwMaterial.h'
p1403
(lp1404
I1
ag1374
asS'c:/marmalade/7.5/modules/iwgx/h/IwGxMetrics.h'
p1405
(lp1406
I1
ag1374
asS'c:/marmalade/7.5/modules/iwgx/h/IwClip.inl'
p1407
(lp1408
I1
ag1374
asS'c:/marmalade/7.5/modules/iwgx/h/IwFColour.h'
p1409
(lp1410
I1
ag1374
asS'c:/marmalade/7.5/modules/iwgx/h/IwGxTypes.h'
p1411
(lp1412
I1
ag1374
asS'c:/marmalade/7.5/modules/iwgx/iwgx.mkf'
p1413
(lp1414
I1
a(dp1415
asS'c:/marmalade/7.5/modules/iwgx/docs/iwgx.config.txt'
p1416
(lp1417
I1
ag1374
asS'c:/marmalade/7.5/modules/iwgx/h/IwColour.h'
p1418
(lp1419
I1
ag1374
asS'c:/marmalade/7.5/modules/iwgx/h/IwGxState.h'
p1420
(lp1421
I1
ag1374
asS'c:/marmalade/7.5/modules/iwgx/h/IwTPage.h'
p1422
(lp1423
I1
ag1374
assS'iw2dscenegraphcore'
p1424
(dp1425
S'c:/marmalade/7.5/modules/iw2dscenegraphcore/iw2dscenegraphcore.mkf'
p1426
(lp1427
I1
a(dp1428
asS'c:/marmalade/7.5/modules/iw2dscenegraphcore/h/Iw2DSceneGraphCore.h'
p1429
(lp1430
I1
a(dp1431
asS'c:/marmalade/7.5/modules/iw2dscenegraphcore/source/Iw2DSceneGraphCore.cpp'
p1432
(lp1433
I1
ag1431
assS'iwutil'
p1434
(dp1435
S'c:/marmalade/7.5/modules/iwutil/h/IwSingleton.h'
p1436
(lp1437
I1
a(dp1438
asS'c:/marmalade/7.5/modules/iwutil/h/IwMath.h'
p1439
(lp1440
I1
ag1438
asS'c:/marmalade/7.5/modules/iwutil/h/IwBuffer.h'
p1441
(lp1442
I1
ag1438
asS'c:/marmalade/7.5/modules/iwutil/h/IwCore.h'
p1443
(lp1444
I1
ag1438
asS'c:/marmalade/7.5/modules/iwutil/h/IwDivide.h'
p1445
(lp1446
I1
ag1438
asS'c:/marmalade/7.5/modules/iwutil/h/IwMemory.h'
p1447
(lp1448
I1
ag1438
asS'c:/marmalade/7.5/modules/iwutil/h/IwImageHelper.h'
p1449
(lp1450
I1
ag1438
asS'c:/marmalade/7.5/modules/iwutil/h/IwManagedList.h'
p1451
(lp1452
I1
ag1438
asS'c:/marmalade/7.5/modules/iwutil/h/IwProfileMenu.h'
p1453
(lp1454
I1
ag1438
asS'c:/marmalade/7.5/modules/iwutil/h/IwClassFactory.h'
p1455
(lp1456
I1
ag1438
asS'c:/marmalade/7.5/modules/iwutil/h/IwDivTable.h'
p1457
(lp1458
I1
ag1438
asS'c:/marmalade/7.5/modules/iwutil/h/IwManaged.h'
p1459
(lp1460
I1
ag1438
asS'c:/marmalade/7.5/modules/iwutil/h/IwTextParseable.h'
p1461
(lp1462
I1
ag1438
asS'c:/marmalade/7.5/modules/iwutil/h/IwChar.h'
p1463
(lp1464
I1
ag1438
asS'c:/marmalade/7.5/modules/iwutil/h/IwRandom.h'
p1465
(lp1466
I1
ag1438
asS'c:/marmalade/7.5/modules/iwutil/h/IwDebug.h'
p1467
(lp1468
I1
ag1438
asS'c:/marmalade/7.5/modules/iwutil/h/IwUTF8.h'
p1469
(lp1470
I1
ag1438
asS'c:/marmalade/7.5/modules/iwutil/docs/iwutil.config.txt'
p1471
(lp1472
I1
ag1438
asS'c:/marmalade/7.5/modules/iwutil/h/IwAllocator.h'
p1473
(lp1474
I1
ag1438
asS'c:/marmalade/7.5/modules/iwutil/h/IwMemBucketHelpers.h'
p1475
(lp1476
I1
ag1438
asS'c:/marmalade/7.5/modules/iwutil/h/IwTextParserITX.h'
p1477
(lp1478
I1
ag1438
asS'c:/marmalade/7.5/modules/iwutil/h/IwKeymap.h'
p1479
(lp1480
I1
ag1438
asS'c:/marmalade/7.5/modules/iwutil/h/IwImage.h'
p1481
(lp1482
I1
ag1438
asS'c:/marmalade/7.5/modules/iwutil/h/IwOptimiseARM.h'
p1483
(lp1484
I1
ag1438
asS'c:/marmalade/7.5/modules/iwutil/h/IwMemBucket.h'
p1485
(lp1486
I1
ag1438
asS'c:/marmalade/7.5/modules/iwutil/h/IwOptimiseSize.h'
p1487
(lp1488
I1
ag1438
asS'c:/marmalade/7.5/modules/iwutil/h/IwRuntime.h'
p1489
(lp1490
I1
ag1438
asS'c:/marmalade/7.5/modules/iwutil/h/IwMemManagerDL.h'
p1491
(lp1492
I1
ag1438
asS'c:/marmalade/7.5/modules/iwutil/h/IwPath.h'
p1493
(lp1494
I1
ag1438
asS'c:/marmalade/7.5/modules/iwutil/h/IwOptimiseSpeed.h'
p1495
(lp1496
I1
ag1438
asS'c:/marmalade/7.5/modules/iwutil/h/IwList.h'
p1497
(lp1498
I1
ag1438
asS'c:/marmalade/7.5/modules/iwutil/h/IwAutoFile.h'
p1499
(lp1500
I1
ag1438
asS'c:/marmalade/7.5/modules/iwutil/h/IwVariableBitField.h'
p1501
(lp1502
I1
ag1438
asS'c:/marmalade/7.5/modules/iwutil/h/IwHashString.h'
p1503
(lp1504
I1
ag1438
asS'c:/marmalade/7.5/modules/iwutil/h/IwOptimiseThumb.h'
p1505
(lp1506
I1
ag1438
asS'c:/marmalade/7.5/modules/iwutil/iwutil.mkf'
p1507
(lp1508
I1
a(dp1509
asS'c:/marmalade/7.5/modules/iwutil/h/IwUtil.h'
p1510
(lp1511
I1
ag1438
asS'c:/marmalade/7.5/modules/iwutil/h/IwString.h'
p1512
(lp1513
I1
ag1438
asS'c:/marmalade/7.5/modules/iwutil/h/IwFile.h'
p1514
(lp1515
I1
ag1438
asS'c:/marmalade/7.5/modules/iwutil/h/IwUncopyable.h'
p1516
(lp1517
I1
ag1438
asS'c:/marmalade/7.5/modules/iwutil/h/IwTextParser.h'
p1518
(lp1519
I1
ag1438
asS'c:/marmalade/7.5/modules/iwutil/h/IwCopyingPtr.h'
p1520
(lp1521
I1
ag1438
asS'c:/marmalade/7.5/modules/iwutil/h/IwEvent.h'
p1522
(lp1523
I1
ag1438
asS'c:/marmalade/7.5/modules/iwutil/h/IwFibre.h'
p1524
(lp1525
I1
ag1438
asS'c:/marmalade/7.5/modules/iwutil/h/IwArray.h'
p1526
(lp1527
I1
ag1438
asS'c:/marmalade/7.5/modules/iwutil/h/IwMenu.h'
p1528
(lp1529
I1
ag1438
asS'c:/marmalade/7.5/modules/iwutil/h/IwTypes.h'
p1530
(lp1531
I1
ag1438
asS'c:/marmalade/7.5/modules/iwutil/h/IwUtilInitTerm.h'
p1532
(lp1533
I1
ag1438
asS'c:/marmalade/7.5/modules/iwutil/h/IwResource.h'
p1534
(lp1535
I1
ag1438
asS'c:/marmalade/7.5/modules/iwutil/h/IwSerialise.h'
p1536
(lp1537
I1
ag1438
asssS'(zlib)'
p1538
(dp1539
g1047
(dp1540
S'c:/marmalade/7.5/modules/third_party/zlib/h/zconf.h'
p1541
(lp1542
I1
a(dp1543
asS'c:/marmalade/7.5/modules/third_party/zlib/h/zlib.h'
p1544
(lp1545
I1
ag1543
assS'c:/marmalade/7.5/modules/third_party/zlib/zlib.mkf'
p1546
(lp1547
I1
a(dp1548
assS'(iwtween)'
p1549
(dp1550
S'c:/marmalade/7.5/modules/iwtween/h/IwTween.h'
p1551
(lp1552
I1
a(dp1553
asS'c:/marmalade/7.5/modules/iwtween/source/IwTween.cpp'
p1554
(lp1555
I1
ag1553
asS'c:/marmalade/7.5/modules/iwtween/iwtween.mkf'
p1556
(lp1557
I1
a(dp1558
assS'(s3e-default)'
p1559
(dp1560
S'c:/marmalade/7.5/s3e/s3e-default.mkf'
p1561
(lp1562
I1
a(dp1563
asssS'files'
p1564
(dp1565
S'IwGxFontPreparedData.h'
p1566
g301
(cmkb_main
File
p1567
g303
Ntp1568
Rp1569
(dp1570
S'flags'
p1571
g1252
sS'group'
p1572
(lp1573
S"'Marmalade Studio'"
p1574
ag1248
asg327
g1264
sbsS'iterator'
p1575
g301
(g1567
g303
Ntp1576
Rp1577
(dp1578
g1571
(dp1579
sg1572
(lp1580
S"'Marmalade System (S3E)'"
p1581
aS'stdc headers'
p1582
aS'c++'
p1583
asg327
S'c:/marmalade/7.5/s3e/h/std/c++/iterator'
p1584
sbsS'IwGL.h'
p1585
g301
(g1567
g303
Ntp1586
Rp1587
(dp1588
g1571
g1231
sg1572
(lp1589
S"'Marmalade Studio'"
p1590
ag1224
asg327
g1229
sbsS's3e.h'
p1591
g301
(g1567
g303
Ntp1592
Rp1593
(dp1594
g1571
g1579
sg1572
(lp1595
g1581
asg327
S'c:/marmalade/7.5/s3e/h/s3e.h'
p1596
sbsS'errno.h'
p1597
g301
(g1567
g303
Ntp1598
Rp1599
(dp1600
g1571
g1579
sg1572
(lp1601
g1581
aS'stdc headers'
p1602
asg327
S'c:/marmalade/7.5/s3e/h/std/errno.h'
p1603
sbsS'IwSingleton.h'
p1604
g301
(g1567
g303
Ntp1605
Rp1606
(dp1607
g1571
g1438
sg1572
(lp1608
S"'Marmalade Studio'"
p1609
ag1434
asg327
g1436
sbsS'dlfcn.h'
p1610
g301
(g1567
g303
Ntp1611
Rp1612
(dp1613
g1571
g1579
sg1572
g1601
sg327
S'c:/marmalade/7.5/s3e/h/std/dlfcn.h'
p1614
sbsS'IwSoundWAV.cpp'
p1615
g301
(g1567
g303
Ntp1616
Rp1617
(dp1618
g1571
g1106
sg1572
(lp1619
g1102
asg327
g1129
sbsS'sched.h'
p1620
g301
(g1567
g303
Ntp1621
Rp1622
(dp1623
g1571
g1579
sg1572
g1601
sg327
S'c:/marmalade/7.5/s3e/h/std/sched.h'
p1624
sbsS'IwSoundPCM.h'
p1625
g301
(g1567
g303
Ntp1626
Rp1627
(dp1628
g1571
g1106
sg1572
g1619
sg327
g1147
sbsS'IwGeomFMat2D.h'
p1629
g301
(g1567
g303
Ntp1630
Rp1631
(dp1632
g1571
g1274
sg1572
(lp1633
S"'Marmalade Studio'"
p1634
ag1270
asg327
g1328
sbsS'cassert'
p1635
g301
(g1567
g303
Ntp1636
Rp1637
(dp1638
g1571
g1579
sg1572
g1580
sg327
S'c:/marmalade/7.5/s3e/h/std/c++/cassert'
p1639
sbsS'grp.h'
p1640
g301
(g1567
g303
Ntp1641
Rp1642
(dp1643
g1571
g1579
sg1572
g1601
sg327
S'c:/marmalade/7.5/s3e/h/std/grp.h'
p1644
sbsS'list'
p1645
g301
(g1567
g303
Ntp1646
Rp1647
(dp1648
g1571
g1579
sg1572
g1580
sg327
S'c:/marmalade/7.5/s3e/h/std/c++/list'
p1649
sbsS'IwSoundSpec.cpp'
p1650
g301
(g1567
g303
Ntp1651
Rp1652
(dp1653
g1571
g1106
sg1572
g1619
sg327
g1135
sbsS'IwGeomMat.h.tpl'
p1654
g301
(g1567
g303
Ntp1655
Rp1656
(dp1657
g1571
g1274
sg1572
g1633
sg327
g1324
sbsS'istream'
p1658
g301
(g1567
g303
Ntp1659
Rp1660
(dp1661
g1571
g1579
sg1572
g1580
sg327
S'c:/marmalade/7.5/s3e/h/std/c++/istream'
p1662
sbsS'jpeglib.h'
p1663
g301
(g1567
g303
Ntp1664
Rp1665
(dp1666
g1571
g1065
sg1572
(lp1667
g1057
ag1047
asg327
g1090
sbsS'iw2d_public.defines.txt'
p1668
g301
(g1567
g303
Ntp1669
Rp1670
(dp1671
g1571
g1240
sg1572
(lp1672
S"'Marmalade Studio'"
p1673
ag1236
asg327
g1238
sbsS'iostream.h'
p1674
g301
(g1567
g303
Ntp1675
Rp1676
(dp1677
g1571
g1579
sg1572
g1580
sg327
S'c:/marmalade/7.5/s3e/h/std/c++/iostream.h'
p1678
sbsS'IwSoundADPCM.h'
p1679
g301
(g1567
g303
Ntp1680
Rp1681
(dp1682
g1571
g1106
sg1572
g1619
sg327
g1107
sbsS'string'
p1683
g301
(g1567
g303
Ntp1684
Rp1685
(dp1686
g1571
g1579
sg1572
g1580
sg327
S'c:/marmalade/7.5/s3e/h/std/c++/string'
p1687
sbsS'IwMemory.h'
p1688
g301
(g1567
g303
Ntp1689
Rp1690
(dp1691
g1571
g1438
sg1572
g1608
sg327
g1447
sbsS'IwGeomPlane.h'
p1692
g301
(g1567
g303
Ntp1693
Rp1694
(dp1695
g1571
g1274
sg1572
g1633
sg327
g1304
sbsS'iw2d.config.txt'
p1696
g301
(g1567
g303
Ntp1697
Rp1698
(dp1699
g1571
g1240
sg1572
g1672
sg327
g1241
sbsS'iomanip'
p1700
g301
(g1567
g303
Ntp1701
Rp1702
(dp1703
g1571
g1579
sg1572
g1580
sg327
S'c:/marmalade/7.5/s3e/h/std/c++/iomanip'
p1704
sbsS'iwgeom.mkf'
p1705
g301
(g1567
g303
Ntp1706
Rp1707
(dp1708
g1571
g1281
sg1572
g1633
sg327
g1279
sbsS'IwGxError.h'
p1709
g301
(g1567
g303
Ntp1710
Rp1711
(dp1712
g1571
g1374
sg1572
(lp1713
S"'Marmalade Studio'"
p1714
ag1370
asg327
g1391
sbsS'IwGeom.h'
p1715
g301
(g1567
g303
Ntp1716
Rp1717
(dp1718
g1571
g1274
sg1572
g1633
sg327
g1296
sbsS'scene.cpp'
p1719
g301
(g1567
g303
Ntp1720
Rp1721
(dp1722
g1571
g1163
sg1572
(lp1723
g1159
asg327
g1170
sbsS'IwGeomVec4.h'
p1724
g301
(g1567
g303
Ntp1725
Rp1726
(dp1727
g1571
g1274
sg1572
g1633
sg327
g1312
sbsS'dir.h'
p1728
g301
(g1567
g303
Ntp1729
Rp1730
(dp1731
g1571
g1579
sg1572
(lp1732
g1581
aS'stdc headers'
p1733
aS'sys'
p1734
asg327
S'c:/marmalade/7.5/s3e/h/std/sys/dir.h'
p1735
sbsS'locale.h'
p1736
g301
(g1567
g303
Ntp1737
Rp1738
(dp1739
g1571
g1579
sg1572
g1601
sg327
S'c:/marmalade/7.5/s3e/h/std/locale.h'
p1740
sbsS'vector'
p1741
g301
(g1567
g303
Ntp1742
Rp1743
(dp1744
g1571
g1579
sg1572
g1580
sg327
S'c:/marmalade/7.5/s3e/h/std/c++/vector'
p1745
sbsS'IwManaged.h'
p1746
g301
(g1567
g303
Ntp1747
Rp1748
(dp1749
g1571
g1438
sg1572
g1608
sg327
g1459
sbsS's3eCompass.h'
p1750
g301
(g1567
g303
Ntp1751
Rp1752
(dp1753
g1571
g1579
sg1572
g1595
sg327
S'c:/marmalade/7.5/s3e/h/s3eCompass.h'
p1754
sbsS'cderror.h'
p1755
g301
(g1567
g303
Ntp1756
Rp1757
(dp1758
g1571
g1065
sg1572
g1667
sg327
g1068
sbsS'climits'
p1759
g301
(g1567
g303
Ntp1760
Rp1761
(dp1762
g1571
g1579
sg1572
g1580
sg327
S'c:/marmalade/7.5/s3e/h/std/c++/climits'
p1763
sbsS'ipc.h'
p1764
g301
(g1567
g303
Ntp1765
Rp1766
(dp1767
g1571
g1579
sg1572
g1732
sg327
S'c:/marmalade/7.5/s3e/h/std/sys/ipc.h'
p1768
sbsS'jversion.h'
p1769
g301
(g1567
g303
Ntp1770
Rp1771
(dp1772
g1571
g1065
sg1572
g1667
sg327
g1086
sbsS'fnmatch.h'
p1773
g301
(g1567
g303
Ntp1774
Rp1775
(dp1776
g1571
g1579
sg1572
g1601
sg327
S'c:/marmalade/7.5/s3e/h/std/fnmatch.h'
p1777
sbsS'IwGxState.h'
p1778
g301
(g1567
g303
Ntp1779
Rp1780
(dp1781
g1571
g1374
sg1572
g1713
sg327
g1420
sbsS'rope'
p1782
g301
(g1567
g303
Ntp1783
Rp1784
(dp1785
g1571
g1579
sg1572
g1580
sg327
S'c:/marmalade/7.5/s3e/h/std/c++/rope'
p1786
sbsS's3eAudio.h'
p1787
g301
(g1567
g303
Ntp1788
Rp1789
(dp1790
g1571
g1579
sg1572
g1595
sg327
S'c:/marmalade/7.5/s3e/h/s3eAudio.h'
p1791
sbsS's3eSurface.h'
p1792
g301
(g1567
g303
Ntp1793
Rp1794
(dp1795
g1571
g1579
sg1572
g1595
sg327
S'c:/marmalade/7.5/s3e/h/s3eSurface.h'
p1796
sbsS'new'
p1797
g301
(g1567
g303
Ntp1798
Rp1799
(dp1800
g1571
g1579
sg1572
g1580
sg327
S'c:/marmalade/7.5/s3e/h/std/c++/new'
p1801
sbsS's3eWindow.h'
p1802
g301
(g1567
g303
Ntp1803
Rp1804
(dp1805
g1571
g1579
sg1572
(lp1806
g1581
aS'Extensions'
p1807
asg327
S'c:/marmalade/7.5/s3e/h/ext/s3eWindow.h'
p1808
sbsS'IwBuffer.h'
p1809
g301
(g1567
g303
Ntp1810
Rp1811
(dp1812
g1571
g1438
sg1572
g1608
sg327
g1441
sbsS'stdio_streambuf'
p1813
g301
(g1567
g303
Ntp1814
Rp1815
(dp1816
g1571
g1579
sg1572
g1580
sg327
S'c:/marmalade/7.5/s3e/h/std/c++/stdio_streambuf'
p1817
sbsS'IwGeomQuat.h.tpl'
p1818
g301
(g1567
g303
Ntp1819
Rp1820
(dp1821
g1571
g1274
sg1572
g1633
sg327
g1286
sbsS's3eOSExec.h'
p1822
g301
(g1567
g303
Ntp1823
Rp1824
(dp1825
g1571
g1579
sg1572
g1806
sg327
S'c:/marmalade/7.5/s3e/h/ext/s3eOSExec.h'
p1826
sbsS'IwGxTransformSW.h'
p1827
g301
(g1567
g303
Ntp1828
Rp1829
(dp1830
g1571
g1374
sg1572
g1713
sg327
g1401
sbsS'IwGxMetrics.h'
p1831
g301
(g1567
g303
Ntp1832
Rp1833
(dp1834
g1571
g1374
sg1572
g1713
sg327
g1405
sbsS'iwgxfont.config.txt'
p1835
g301
(g1567
g303
Ntp1836
Rp1837
(dp1838
g1571
g1252
sg1572
g1573
sg327
g1255
sbsS'gl2platform.h'
p1839
g301
(g1567
g303
Ntp1840
Rp1841
(dp1842
g1571
g1579
sg1572
(lp1843
g1581
aS'GL'
p1844
aS'GLES 2.0'
p1845
asg327
S'c:/marmalade/7.5/s3e/h/GLES2/gl2platform.h'
p1846
sbsS'IwResManagerClass.h'
p1847
g301
(g1567
g303
Ntp1848
Rp1849
(dp1850
g1571
g1350
sg1572
(lp1851
g1210
ag1346
asg327
g1353
sbsS'queue'
p1852
g301
(g1567
g303
Ntp1853
Rp1854
(dp1855
g1571
g1579
sg1572
g1580
sg327
S'c:/marmalade/7.5/s3e/h/std/c++/queue'
p1856
sbsS'time_1.h'
p1857
g301
(g1567
g303
Ntp1858
Rp1859
(dp1860
g1571
g1579
sg1572
g1732
sg327
S'c:/marmalade/7.5/s3e/h/std/sys/time.h'
p1861
sbsS'Iw2D.h'
p1862
g301
(g1567
g303
Ntp1863
Rp1864
(dp1865
g1571
g1240
sg1572
g1672
sg327
g1243
sbsS'IwGeomVec2.h'
p1866
g301
(g1567
g303
Ntp1867
Rp1868
(dp1869
g1571
g1274
sg1572
g1633
sg327
g1288
sbsS'sendfile.h'
p1870
g301
(g1567
g303
Ntp1871
Rp1872
(dp1873
g1571
g1579
sg1572
g1732
sg327
S'c:/marmalade/7.5/s3e/h/std/sys/sendfile.h'
p1874
sbsS'malloc.h'
p1875
g301
(g1567
g303
Ntp1876
Rp1877
(dp1878
g1571
g1579
sg1572
g1601
sg327
S'c:/marmalade/7.5/s3e/h/std/malloc.h'
p1879
sbsS'stdarg.h'
p1880
g301
(g1567
g303
Ntp1881
Rp1882
(dp1883
g1571
g1579
sg1572
g1601
sg327
S'c:/marmalade/7.5/s3e/h/std/stdarg.h'
p1884
sbsS'IwGeomCore.h'
p1885
g301
(g1567
g303
Ntp1886
Rp1887
(dp1888
g1571
g1274
sg1572
g1633
sg327
g1314
sbsS'Iw2DSceneGraph.h'
p1889
g301
(g1567
g303
Ntp1890
Rp1891
(dp1892
g1571
g1216
sg1572
(lp1893
S"'Marmalade Studio'"
p1894
ag1212
asg327
g1219
sbsS'endian.h'
p1895
g301
(g1567
g303
Ntp1896
Rp1897
(dp1898
g1571
g1579
sg1572
g1601
sg327
S'c:/marmalade/7.5/s3e/h/std/endian.h'
p1899
sbsS'gl3ext.h'
p1900
g301
(g1567
g303
Ntp1901
Rp1902
(dp1903
g1571
g1579
sg1572
(lp1904
g1581
aS'GL'
p1905
aS'GLES 3.0'
p1906
asg327
S'c:/marmalade/7.5/s3e/h/GLES3/gl3ext.h'
p1907
sbsS'glob.h'
p1908
g301
(g1567
g303
Ntp1909
Rp1910
(dp1911
g1571
g1579
sg1572
g1601
sg327
S'c:/marmalade/7.5/s3e/h/std/glob.h'
p1912
sbsS'fstream'
p1913
g301
(g1567
g303
Ntp1914
Rp1915
(dp1916
g1571
g1579
sg1572
g1580
sg327
S'c:/marmalade/7.5/s3e/h/std/c++/fstream'
p1917
sbsS's3eCamera.h'
p1918
g301
(g1567
g303
Ntp1919
Rp1920
(dp1921
g1571
g1579
sg1572
g1595
sg327
S'c:/marmalade/7.5/s3e/h/s3eCamera.h'
p1922
sbsS'jconfig.h'
p1923
g301
(g1567
g303
Ntp1924
Rp1925
(dp1926
g1571
g1065
sg1572
g1667
sg327
g1088
sbsS'memory'
p1927
g301
(g1567
g303
Ntp1928
Rp1929
(dp1930
g1571
g1579
sg1572
g1580
sg327
S'c:/marmalade/7.5/s3e/h/std/c++/memory'
p1931
sbsS'egl.h'
p1932
g301
(g1567
g303
Ntp1933
Rp1934
(dp1935
g1571
g1579
sg1572
(lp1936
g1581
aS'GL'
p1937
aS'EGL'
p1938
asg327
S'c:/marmalade/7.5/s3e/h/EGL/egl.h'
p1939
sbsS'egl_1.h'
p1940
g301
(g1567
g303
Ntp1941
Rp1942
(dp1943
g1571
g1579
sg1572
(lp1944
g1581
aS'GL'
p1945
aS'GLES 1.x'
p1946
asg327
S'c:/marmalade/7.5/s3e/h/GLES/egl.h'
p1947
sbsS'IwMemManagerDL.h'
p1948
g301
(g1567
g303
Ntp1949
Rp1950
(dp1951
g1571
g1438
sg1572
g1608
sg327
g1491
sbsS'deque'
p1952
g301
(g1567
g303
Ntp1953
Rp1954
(dp1955
g1571
g1579
sg1572
g1580
sg327
S'c:/marmalade/7.5/s3e/h/std/c++/deque'
p1956
sbsS'IwString.h'
p1957
g301
(g1567
g303
Ntp1958
Rp1959
(dp1960
g1571
g1438
sg1572
g1608
sg327
g1512
sbsS'cwchar'
p1961
g301
(g1567
g303
Ntp1962
Rp1963
(dp1964
g1571
g1579
sg1572
g1580
sg327
S'c:/marmalade/7.5/s3e/h/std/c++/cwchar'
p1965
sbsS'iwutil.mkf'
p1966
g301
(g1567
g303
Ntp1967
Rp1968
(dp1969
g1571
g1509
sg1572
g1608
sg327
g1507
sbsS'csignal'
p1970
g301
(g1567
g303
Ntp1971
Rp1972
(dp1973
g1571
g1579
sg1572
g1580
sg327
S'c:/marmalade/7.5/s3e/h/std/c++/csignal'
p1974
sbsS'float.h'
p1975
g301
(g1567
g303
Ntp1976
Rp1977
(dp1978
g1571
g1579
sg1572
g1601
sg327
S'c:/marmalade/7.5/s3e/h/std/float.h'
p1979
sbsS'pthread_alloc'
p1980
g301
(g1567
g303
Ntp1981
Rp1982
(dp1983
g1571
g1579
sg1572
g1580
sg327
S'c:/marmalade/7.5/s3e/h/std/c++/pthread_alloc'
p1984
sbsS'getopt.h'
p1985
g301
(g1567
g303
Ntp1986
Rp1987
(dp1988
g1571
g1579
sg1572
g1601
sg327
S'c:/marmalade/7.5/s3e/h/std/getopt.h'
p1989
sbsS'IwOptimiseARM.h'
p1990
g301
(g1567
g303
Ntp1991
Rp1992
(dp1993
g1571
g1438
sg1572
g1608
sg327
g1483
sbsS'times.h'
p1994
g301
(g1567
g303
Ntp1995
Rp1996
(dp1997
g1571
g1579
sg1572
g1732
sg327
S'c:/marmalade/7.5/s3e/h/std/sys/times.h'
p1998
sbsS'IwGeomFSphere.h'
p1999
g301
(g1567
g303
Ntp2000
Rp2001
(dp2002
g1571
g1274
sg1572
g1633
sg327
g1334
sbsS'game.h'
p2003
g301
(g1567
g303
Ntp2004
Rp2005
(dp2006
g1571
g1163
sg1572
g1723
sg327
g1178
sbsS'functional'
p2007
g301
(g1567
g303
Ntp2008
Rp2009
(dp2010
g1571
g1579
sg1572
g1580
sg327
S'c:/marmalade/7.5/s3e/h/std/c++/functional'
p2011
sbsS'IwTypes.h'
p2012
g301
(g1567
g303
Ntp2013
Rp2014
(dp2015
g1571
g1438
sg1572
g1608
sg327
g1530
sbsS'unistd.h'
p2016
g301
(g1567
g303
Ntp2017
Rp2018
(dp2019
g1571
g1579
sg1572
g1601
sg327
S'c:/marmalade/7.5/s3e/h/std/unistd.h'
p2020
sbsS'audio.cpp'
p2021
g301
(g1567
g303
Ntp2022
Rp2023
(dp2024
g1571
g1163
sg1572
g1723
sg327
g1182
sbsS's3eCompression.h'
p2025
g301
(g1567
g303
Ntp2026
Rp2027
(dp2028
g1571
g1579
sg1572
g1595
sg327
S'c:/marmalade/7.5/s3e/h/s3eCompression.h'
p2029
sbsS'langinfo.h'
p2030
g301
(g1567
g303
Ntp2031
Rp2032
(dp2033
g1571
g1579
sg1572
g1601
sg327
S'c:/marmalade/7.5/s3e/h/std/langinfo.h'
p2034
sbsS's3edebugHeap.h'
p2035
g301
(g1567
g303
Ntp2036
Rp2037
(dp2038
g1571
g1579
sg1572
g1806
sg327
S'c:/marmalade/7.5/s3e/h/ext/s3edebugHeap.h'
p2039
sbsS'AirplayVersion.h'
p2040
g301
(g1567
g303
Ntp2041
Rp2042
(dp2043
g1571
g1579
sg1572
g1595
sg327
S'c:/marmalade/7.5/s3e/h/AirplayVersion.h'
p2044
sbsS'gl2extimg.h'
p2045
g301
(g1567
g303
Ntp2046
Rp2047
(dp2048
g1571
g1579
sg1572
g1843
sg327
S'c:/marmalade/7.5/s3e/h/GLES2/gl2extimg.h'
p2049
sbsS'IwGeomSqrt.h'
p2050
g301
(g1567
g303
Ntp2051
Rp2052
(dp2053
g1571
g1274
sg1572
g1633
sg327
g1282
sbsS'tiniconv_int.h'
p2054
g301
(g1567
g303
Ntp2055
Rp2056
(dp2057
g1571
g1099
sg1572
(lp2058
g1092
asg327
g1097
sbsS'syslog.h'
p2059
g301
(g1567
g303
Ntp2060
Rp2061
(dp2062
g1571
g1579
sg1572
g1601
sg327
S'c:/marmalade/7.5/s3e/h/std/syslog.h'
p2063
sbsS'IwGxFontTypes.h'
p2064
g301
(g1567
g303
Ntp2065
Rp2066
(dp2067
g1571
g1252
sg1572
g1573
sg327
g1253
sbsS'IwGeomFIntersect.h'
p2068
g301
(g1567
g303
Ntp2069
Rp2070
(dp2071
g1571
g1274
sg1572
g1633
sg327
g1344
sbsS'hash_map'
p2072
g301
(g1567
g303
Ntp2073
Rp2074
(dp2075
g1571
g1579
sg1572
g1580
sg327
S'c:/marmalade/7.5/s3e/h/std/c++/hash_map'
p2076
sbsS's3e.mkf'
p2077
g301
(g1567
g303
Ntp2078
Rp2079
(dp2080
g1571
(dp2081
sg1572
g1595
sg327
S'c:/marmalade/7.5/s3e/s3e.mkf'
p2082
sbsS'IwGeomMat2D.h.tpl'
p2083
g301
(g1567
g303
Ntp2084
Rp2085
(dp2086
g1571
g1274
sg1572
g1633
sg327
g1326
sbsS's3eOSReadString.h'
p2087
g301
(g1567
g303
Ntp2088
Rp2089
(dp2090
g1571
g1579
sg1572
g1806
sg327
S'c:/marmalade/7.5/s3e/h/ext/s3eOSReadString.h'
p2091
sbsS'IwSound.h'
p2092
g301
(g1567
g303
Ntp2093
Rp2094
(dp2095
g1571
g1106
sg1572
g1619
sg327
g1141
sbsS'map'
p2096
g301
(g1567
g303
Ntp2097
Rp2098
(dp2099
g1571
g1579
sg1572
g1580
sg327
S'c:/marmalade/7.5/s3e/h/std/c++/map'
p2100
sbsS'iwtween.mkf'
p2101
g301
(g1567
g303
Ntp2102
Rp2103
(dp2104
g1571
g1558
sg1572
(lp2105
g1549
asg327
g1556
sbsS'IwOptimiseSpeed.h'
p2106
g301
(g1567
g303
Ntp2107
Rp2108
(dp2109
g1571
g1438
sg1572
g1608
sg327
g1495
sbsS'ostream'
p2110
g301
(g1567
g303
Ntp2111
Rp2112
(dp2113
g1571
g1579
sg1572
g1580
sg327
S'c:/marmalade/7.5/s3e/h/std/c++/ostream'
p2114
sbsS'msl_string.h'
p2115
g301
(g1567
g303
Ntp2116
Rp2117
(dp2118
g1571
g1579
sg1572
g1580
sg327
S'c:/marmalade/7.5/s3e/h/std/c++/msl_string.h'
p2119
sbsS'select.h'
p2120
g301
(g1567
g303
Ntp2121
Rp2122
(dp2123
g1571
g1579
sg1572
g1732
sg327
S'c:/marmalade/7.5/s3e/h/std/sys/select.h'
p2124
sbsS'zlib.mkf'
p2125
g301
(g1567
g303
Ntp2126
Rp2127
(dp2128
g1571
g1548
sg1572
(lp2129
g1538
asg327
g1546
sbsS'signal.h'
p2130
g301
(g1567
g303
Ntp2131
Rp2132
(dp2133
g1571
g1579
sg1572
g1601
sg327
S'c:/marmalade/7.5/s3e/h/std/signal.h'
p2134
sbsS'sigcontext.h'
p2135
g301
(g1567
g303
Ntp2136
Rp2137
(dp2138
g1571
g1579
sg1572
g1601
sg327
S'c:/marmalade/7.5/s3e/h/std/sigcontext.h'
p2139
sbsS'libpng.mkf'
p2140
g301
(g1567
g303
Ntp2141
Rp2142
(dp2143
g1571
g1056
sg1572
(lp2144
g1045
asg327
g1054
sbsS's3eClipboard.h'
p2145
g301
(g1567
g303
Ntp2146
Rp2147
(dp2148
g1571
g1579
sg1572
g1595
sg327
S'c:/marmalade/7.5/s3e/h/s3eClipboard.h'
p2149
sbsS'IwGxFuncTable.h'
p2150
g301
(g1567
g303
Ntp2151
Rp2152
(dp2153
g1571
g1374
sg1572
g1713
sg327
g1379
sbsS'IwResHandlerGROUP.h'
p2154
g301
(g1567
g303
Ntp2155
Rp2156
(dp2157
g1571
g1350
sg1572
g1851
sg327
g1355
sbsS's3eDebug.h'
p2158
g301
(g1567
g303
Ntp2159
Rp2160
(dp2161
g1571
g1579
sg1572
g1595
sg327
S'c:/marmalade/7.5/s3e/h/s3eDebug.h'
p2162
sbsS'socket.h'
p2163
g301
(g1567
g303
Ntp2164
Rp2165
(dp2166
g1571
g1579
sg1572
g1732
sg327
S'c:/marmalade/7.5/s3e/h/std/sys/socket.h'
p2167
sbsS'glext.h'
p2168
g301
(g1567
g303
Ntp2169
Rp2170
(dp2171
g1571
g1579
sg1572
g1944
sg327
S'c:/marmalade/7.5/s3e/h/GLES/glext.h'
p2172
sbsS'typeinfo.h'
p2173
g301
(g1567
g303
Ntp2174
Rp2175
(dp2176
g1571
g1579
sg1572
g1580
sg327
S'c:/marmalade/7.5/s3e/h/std/c++/typeinfo.h'
p2177
sbsS'typeinfo'
p2178
g301
(g1567
g303
Ntp2179
Rp2180
(dp2181
g1571
g1579
sg1572
g1580
sg327
S'c:/marmalade/7.5/s3e/h/std/c++/typeinfo'
p2182
sbsS'iwsound.config.txt'
p2183
g301
(g1567
g303
Ntp2184
Rp2185
(dp2186
g1571
g1106
sg1572
(lp2187
g1102
ag1113
asg327
g1115
sbsS'fstream.h'
p2188
g301
(g1567
g303
Ntp2189
Rp2190
(dp2191
g1571
g1579
sg1572
g1580
sg327
S'c:/marmalade/7.5/s3e/h/std/c++/fstream.h'
p2192
sbsS'IwGeomMat.h'
p2193
g301
(g1567
g303
Ntp2194
Rp2195
(dp2196
g1571
g1274
sg1572
g1633
sg327
g1290
sbsS's3ePointer.h'
p2197
g301
(g1567
g303
Ntp2198
Rp2199
(dp2200
g1571
g1579
sg1572
g1595
sg327
S'c:/marmalade/7.5/s3e/h/s3ePointer.h'
p2201
sbsS'IwMemBucket.h'
p2202
g301
(g1567
g303
Ntp2203
Rp2204
(dp2205
g1571
g1438
sg1572
g1608
sg327
g1485
sbsS'PVRTexTool.h'
p2206
g301
(g1567
g303
Ntp2207
Rp2208
(dp2209
g1571
g1202
sg1572
(lp2210
g1194
ag1196
asg327
g1205
sbsS's3eGL.h'
p2211
g301
(g1567
g303
Ntp2212
Rp2213
(dp2214
g1571
g1579
sg1572
g1595
sg327
S'c:/marmalade/7.5/s3e/h/s3eGL.h'
p2215
sbsS'IwGeomFVec2.h'
p2216
g301
(g1567
g303
Ntp2217
Rp2218
(dp2219
g1571
g1274
sg1572
g1633
sg327
g1308
sbsS'IwGeomSVec4.h'
p2220
g301
(g1567
g303
Ntp2221
Rp2222
(dp2223
g1571
g1274
sg1572
g1633
sg327
g1310
sbsS'poll.h'
p2224
g301
(g1567
g303
Ntp2225
Rp2226
(dp2227
g1571
g1579
sg1572
g1601
sg327
S'c:/marmalade/7.5/s3e/h/std/poll.h'
p2228
sbsS'IwMatAnim.h'
p2229
g301
(g1567
g303
Ntp2230
Rp2231
(dp2232
g1571
g1374
sg1572
g1713
sg327
g1375
sbsS'IwGeomFVec4.h'
p2233
g301
(g1567
g303
Ntp2234
Rp2235
(dp2236
g1571
g1274
sg1572
g1633
sg327
g1322
sbsS'IwGx.h'
p2237
g301
(g1567
g303
Ntp2238
Rp2239
(dp2240
g1571
g1374
sg1572
g1713
sg327
g1393
sbsS'valarray'
p2241
g301
(g1567
g303
Ntp2242
Rp2243
(dp2244
g1571
g1579
sg1572
g1580
sg327
S'c:/marmalade/7.5/s3e/h/std/c++/valarray'
p2245
sbsS'iosfwd'
p2246
g301
(g1567
g303
Ntp2247
Rp2248
(dp2249
g1571
g1579
sg1572
g1580
sg327
S'c:/marmalade/7.5/s3e/h/std/c++/iosfwd'
p2250
sbsS'gl2.h'
p2251
g301
(g1567
g303
Ntp2252
Rp2253
(dp2254
g1571
g1579
sg1572
g1843
sg327
S'c:/marmalade/7.5/s3e/h/GLES2/gl2.h'
p2255
sbsS'jpegint.h'
p2256
g301
(g1567
g303
Ntp2257
Rp2258
(dp2259
g1571
g1065
sg1572
g1667
sg327
g1080
sbsS'stdiostream.h'
p2260
g301
(g1567
g303
Ntp2261
Rp2262
(dp2263
g1571
g1579
sg1572
g1580
sg327
S'c:/marmalade/7.5/s3e/h/std/c++/stdiostream.h'
p2264
sbsS'mem.h'
p2265
g301
(g1567
g303
Ntp2266
Rp2267
(dp2268
g1571
g1579
sg1572
g1580
sg327
S'c:/marmalade/7.5/s3e/h/std/c++/mem.h'
p2269
sbsS'jerror.h'
p2270
g301
(g1567
g303
Ntp2271
Rp2272
(dp2273
g1571
g1065
sg1572
g1667
sg327
g1063
sbsS'zconf.h'
p2274
g301
(g1567
g303
Ntp2275
Rp2276
(dp2277
g1571
g1543
sg1572
(lp2278
g1538
ag1047
asg327
g1541
sbsS's3e.config.txt'
p2279
g301
(g1567
g303
Ntp2280
Rp2281
(dp2282
g1571
g1579
sg1572
g1595
sg327
S'c:/marmalade/7.5/s3e/s3e.config.txt'
p2283
sbsS'numeric'
p2284
g301
(g1567
g303
Ntp2285
Rp2286
(dp2287
g1571
g1579
sg1572
g1580
sg327
S'c:/marmalade/7.5/s3e/h/std/c++/numeric'
p2288
sbsS'utime.h'
p2289
g301
(g1567
g303
Ntp2290
Rp2291
(dp2292
g1571
g1579
sg1572
g1601
sg327
S'c:/marmalade/7.5/s3e/h/std/utime.h'
p2293
sbsS'jdhuff.h'
p2294
g301
(g1567
g303
Ntp2295
Rp2296
(dp2297
g1571
g1065
sg1572
g1667
sg327
g1066
sbsS'IwResHandlerWAV.cpp'
p2298
g301
(g1567
g303
Ntp2299
Rp2300
(dp2301
g1571
g1106
sg1572
g1619
sg327
g1109
sbsS'un.h'
p2302
g301
(g1567
g303
Ntp2303
Rp2304
(dp2305
g1571
g1579
sg1572
g1732
sg327
S'c:/marmalade/7.5/s3e/h/std/sys/un.h'
p2306
sbsS'IwImage.h'
p2307
g301
(g1567
g303
Ntp2308
Rp2309
(dp2310
g1571
g1438
sg1572
g1608
sg327
g1481
sbsS's3eImagePicker.h'
p2311
g301
(g1567
g303
Ntp2312
Rp2313
(dp2314
g1571
g1579
sg1572
g1806
sg327
S'c:/marmalade/7.5/s3e/h/ext/s3eImagePicker.h'
p2315
sbsS'stdlib.h'
p2316
g301
(g1567
g303
Ntp2317
Rp2318
(dp2319
g1571
g1579
sg1572
g1601
sg327
S'c:/marmalade/7.5/s3e/h/std/stdlib.h'
p2320
sbsS'IwCopyingPtr.h'
p2321
g301
(g1567
g303
Ntp2322
Rp2323
(dp2324
g1571
g1438
sg1572
g1608
sg327
g1520
sbsS'iostream'
p2325
g301
(g1567
g303
Ntp2326
Rp2327
(dp2328
g1571
g1579
sg1572
g1580
sg327
S'c:/marmalade/7.5/s3e/h/std/c++/iostream'
p2329
sbsS'png.h'
p2330
g301
(g1567
g303
Ntp2331
Rp2332
(dp2333
g1571
g1051
sg1572
(lp2334
g1045
ag1047
asg327
g1049
sbsS'stddef.h'
p2335
g301
(g1567
g303
Ntp2336
Rp2337
(dp2338
g1571
g1579
sg1572
g1601
sg327
S'c:/marmalade/7.5/s3e/h/std/stddef.h'
p2339
sbsS'setjmp_win32.h'
p2340
g301
(g1567
g303
Ntp2341
Rp2342
(dp2343
g1571
g1579
sg1572
g1601
sg327
S'c:/marmalade/7.5/s3e/h/std/setjmp_win32.h'
p2344
sbsS'pauseMenu.h'
p2345
g301
(g1567
g303
Ntp2346
Rp2347
(dp2348
g1571
g1163
sg1572
g1723
sg327
g1176
sbsS'IwGxPrint.h'
p2349
g301
(g1567
g303
Ntp2350
Rp2351
(dp2352
g1571
g1374
sg1572
g1713
sg327
g1383
sbsS'iwgx_public.defines.txt'
p2353
g301
(g1567
g303
Ntp2354
Rp2355
(dp2356
g1571
g1374
sg1572
g1713
sg327
g1395
sbsS'streambuf.h'
p2357
g301
(g1567
g303
Ntp2358
Rp2359
(dp2360
g1571
g1579
sg1572
g1580
sg327
S'c:/marmalade/7.5/s3e/h/std/c++/streambuf.h'
p2361
sbsS'resources.cpp'
p2362
g301
(g1567
g303
Ntp2363
Rp2364
(dp2365
g1571
g1163
sg1572
g1723
sg327
g1186
sbsS'IwGeomFPlane.h'
p2366
g301
(g1567
g303
Ntp2367
Rp2368
(dp2369
g1571
g1274
sg1572
g1633
sg327
g1338
sbsS'wchar.h'
p2370
g301
(g1567
g303
Ntp2371
Rp2372
(dp2373
g1571
g1579
sg1572
g1601
sg327
S'c:/marmalade/7.5/s3e/h/std/wchar.h'
p2374
sbsS's3eCameraCapture.h'
p2375
g301
(g1567
g303
Ntp2376
Rp2377
(dp2378
g1571
g1579
sg1572
g1806
sg327
S'c:/marmalade/7.5/s3e/h/ext/s3eCameraCapture.h'
p2379
sbsS'eglext.h'
p2380
g301
(g1567
g303
Ntp2381
Rp2382
(dp2383
g1571
g1579
sg1572
g1936
sg327
S'c:/marmalade/7.5/s3e/h/EGL/eglext.h'
p2384
sbsS'IwResHandlerImage.h'
p2385
g301
(g1567
g303
Ntp2386
Rp2387
(dp2388
g1571
g1350
sg1572
g1851
sg327
g1368
sbsS'strstream.h'
p2389
g301
(g1567
g303
Ntp2390
Rp2391
(dp2392
g1571
g1579
sg1572
g1580
sg327
S'c:/marmalade/7.5/s3e/h/std/c++/strstream.h'
p2393
sbsS'tiniconv.h'
p2394
g301
(g1567
g303
Ntp2395
Rp2396
(dp2397
g1571
g1099
sg1572
g2058
sg327
g1100
sbsS'IwGLExt.h'
p2398
g301
(g1567
g303
Ntp2399
Rp2400
(dp2401
g1571
g1231
sg1572
g1589
sg327
g1234
sbsS'app.icf'
p2402
g301
(g1567
g303
Ntp2403
Rp2404
(dp2405
g1571
(dp2406
sg1572
g2
sg327
S'c:/Marmalade/7.5/examples/GameTutorial/CPP/Stage4/data/app.icf'
p2407
sbsS'IwClassFactory.h'
p2408
g301
(g1567
g303
Ntp2409
Rp2410
(dp2411
g1571
g1438
sg1572
g1608
sg327
g1455
sbsS'file.h'
p2412
g301
(g1567
g303
Ntp2413
Rp2414
(dp2415
g1571
g1579
sg1572
g1732
sg327
S'c:/marmalade/7.5/s3e/h/std/sys/file.h'
p2416
sbsS'cstring'
p2417
g301
(g1567
g303
Ntp2418
Rp2419
(dp2420
g1571
g1579
sg1572
g1580
sg327
S'c:/marmalade/7.5/s3e/h/std/c++/cstring'
p2421
sbsS'IwSoundInst.cpp'
p2422
g301
(g1567
g303
Ntp2423
Rp2424
(dp2425
g1571
g1106
sg1572
g1619
sg327
g1131
sbsS'iwutil.config.txt'
p2426
g301
(g1567
g303
Ntp2427
Rp2428
(dp2429
g1571
g1438
sg1572
g1608
sg327
g1471
sbsS's3eSMS.h'
p2430
g301
(g1567
g303
Ntp2431
Rp2432
(dp2433
g1571
g1579
sg1572
g1806
sg327
S'c:/marmalade/7.5/s3e/h/ext/s3eSMS.h'
p2434
sbsS'limits.h'
p2435
g301
(g1567
g303
Ntp2436
Rp2437
(dp2438
g1571
g1579
sg1572
g1601
sg327
S'c:/marmalade/7.5/s3e/h/std/limits.h'
p2439
sbsS'scene.h'
p2440
g301
(g1567
g303
Ntp2441
Rp2442
(dp2443
g1571
g1163
sg1572
g1723
sg327
g1168
sbsS'IwMaterial.h'
p2444
g301
(g1567
g303
Ntp2445
Rp2446
(dp2447
g1571
g1374
sg1572
g1713
sg327
g1403
sbsS'PVRTexTool_interface.cpp'
p2448
g301
(g1567
g303
Ntp2449
Rp2450
(dp2451
g1571
g1202
sg1572
(lp2452
g1194
ag1196
ag1198
asg327
g1203
sbsS'IwGxSurface.h'
p2453
g301
(g1567
g303
Ntp2454
Rp2455
(dp2456
g1571
g1374
sg1572
g1713
sg327
g1389
sbsS's3eSocket.h'
p2457
g301
(g1567
g303
Ntp2458
Rp2459
(dp2460
g1571
g1579
sg1572
g1595
sg327
S'c:/marmalade/7.5/s3e/h/s3eSocket.h'
p2461
sbsS'IwAutoFile.h'
p2462
g301
(g1567
g303
Ntp2463
Rp2464
(dp2465
g1571
g1438
sg1572
g1608
sg327
g1499
sbsS's3eVibra.h'
p2466
g301
(g1567
g303
Ntp2467
Rp2468
(dp2469
g1571
g1579
sg1572
g1595
sg327
S'c:/marmalade/7.5/s3e/h/s3eVibra.h'
p2470
sbsS'poll_1.h'
p2471
g301
(g1567
g303
Ntp2472
Rp2473
(dp2474
g1571
g1579
sg1572
g1732
sg327
S'c:/marmalade/7.5/s3e/h/std/sys/poll.h'
p2475
sbsS's3eThread.h'
p2476
g301
(g1567
g303
Ntp2477
Rp2478
(dp2479
g1571
g1579
sg1572
g1595
sg327
S'c:/marmalade/7.5/s3e/h/s3eThread.h'
p2480
sbsS'ucontext.h'
p2481
g301
(g1567
g303
Ntp2482
Rp2483
(dp2484
g1571
g1579
sg1572
g1601
sg327
S'c:/marmalade/7.5/s3e/h/std/ucontext.h'
p2485
sbsS'time.h'
p2486
g301
(g1567
g303
Ntp2487
Rp2488
(dp2489
g1571
g1579
sg1572
g1601
sg327
S'c:/marmalade/7.5/s3e/h/std/time.h'
p2490
sbsS'jchuff.h'
p2491
g301
(g1567
g303
Ntp2492
Rp2493
(dp2494
g1571
g1065
sg1572
g1667
sg327
g1082
sbsS'IwSoundPCM.cpp'
p2495
g301
(g1567
g303
Ntp2496
Rp2497
(dp2498
g1571
g1106
sg1572
g1619
sg327
g1127
sbsS's3eSoundRecord.h'
p2499
g301
(g1567
g303
Ntp2500
Rp2501
(dp2502
g1571
g1579
sg1572
g1595
sg327
S'c:/marmalade/7.5/s3e/h/s3eSoundRecord.h'
p2503
sbsS'IwFibre.h'
p2504
g301
(g1567
g303
Ntp2505
Rp2506
(dp2507
g1571
g1438
sg1572
g1608
sg327
g1524
sbsS's3eVersion.h'
p2508
g301
(g1567
g303
Ntp2509
Rp2510
(dp2511
g1571
g1579
sg1572
g1595
sg327
S'c:/marmalade/7.5/s3e/h/s3eVersion.h'
p2512
sbsS'input.cpp'
p2513
g301
(g1567
g303
Ntp2514
Rp2515
(dp2516
g1571
g1163
sg1572
g1723
sg327
g1184
sbsS'IwSoundGroup.h'
p2517
g301
(g1567
g303
Ntp2518
Rp2519
(dp2520
g1571
g1106
sg1572
g1619
sg327
g1152
sbsS'IwSoundWAV.h'
p2521
g301
(g1567
g303
Ntp2522
Rp2523
(dp2524
g1571
g1106
sg1572
g1619
sg327
g1133
sbsS'IwGxFontGlyph.h'
p2525
g301
(g1567
g303
Ntp2526
Rp2527
(dp2528
g1571
g1252
sg1572
g1573
sg327
g1250
sbsS's3eTypes.h'
p2529
g301
(g1567
g303
Ntp2530
Rp2531
(dp2532
g1571
g1579
sg1572
g1595
sg327
S'c:/marmalade/7.5/s3e/h/s3eTypes.h'
p2533
sbsS'IwSoundSpec.h'
p2534
g301
(g1567
g303
Ntp2535
Rp2536
(dp2537
g1571
g1106
sg1572
g1619
sg327
g1121
sbsS'signal_2.h'
p2538
g301
(g1567
g303
Ntp2539
Rp2540
(dp2541
g1571
g1579
sg1572
g1580
sg327
S'c:/marmalade/7.5/s3e/h/std/c++/signal.h'
p2542
sbsS'termios.h'
p2543
g301
(g1567
g303
Ntp2544
Rp2545
(dp2546
g1571
g1579
sg1572
g1601
sg327
S'c:/marmalade/7.5/s3e/h/std/termios.h'
p2547
sbsS'iw2dscenegraph.mkf'
p2548
g301
(g1567
g303
Ntp2549
Rp2550
(dp2551
g1571
g1223
sg1572
g1893
sg327
g1221
sbsS'slist'
p2552
g301
(g1567
g303
Ntp2553
Rp2554
(dp2555
g1571
g1579
sg1572
g1580
sg327
S'c:/marmalade/7.5/s3e/h/std/c++/slist'
p2556
sbsS'cstdlib'
p2557
g301
(g1567
g303
Ntp2558
Rp2559
(dp2560
g1571
g1579
sg1572
g1580
sg327
S'c:/marmalade/7.5/s3e/h/std/c++/cstdlib'
p2561
sbsS's3eLocation.h'
p2562
g301
(g1567
g303
Ntp2563
Rp2564
(dp2565
g1571
g1579
sg1572
g1595
sg327
S'c:/marmalade/7.5/s3e/h/s3eLocation.h'
p2566
sbsS'IwMemBucketHelpers.h'
p2567
g301
(g1567
g303
Ntp2568
Rp2569
(dp2570
g1571
g1438
sg1572
g1608
sg327
g1475
sbsS's3eHash.h'
p2571
g301
(g1567
g303
Ntp2572
Rp2573
(dp2574
g1571
g1579
sg1572
g1595
sg327
S'c:/marmalade/7.5/s3e/h/s3eHash.h'
p2575
sbsS'IwSoundGroup.cpp'
p2576
g301
(g1567
g303
Ntp2577
Rp2578
(dp2579
g1571
g1106
sg1572
g1619
sg327
g1104
sbsS'IwGeomFMat.h'
p2580
g301
(g1567
g303
Ntp2581
Rp2582
(dp2583
g1571
g1274
sg1572
g1633
sg327
g1302
sbsS'type_traits.h'
p2584
g301
(g1567
g303
Ntp2585
Rp2586
(dp2587
g1571
g1579
sg1572
g1580
sg327
S'c:/marmalade/7.5/s3e/h/std/c++/type_traits.h'
p2588
sbsS's3eAtomic.h'
p2589
g301
(g1567
g303
Ntp2590
Rp2591
(dp2592
g1571
g1579
sg1572
g1595
sg327
S'c:/marmalade/7.5/s3e/h/s3eAtomic.h'
p2593
sbsS'IwMenu.h'
p2594
g301
(g1567
g303
Ntp2595
Rp2596
(dp2597
g1571
g1438
sg1572
g1608
sg327
g1528
sbsS'IwResHandlerITX.h'
p2598
g301
(g1567
g303
Ntp2599
Rp2600
(dp2601
g1571
g1350
sg1572
g1851
sg327
g1348
sbsS'IwSoundData.h'
p2602
g301
(g1567
g303
Ntp2603
Rp2604
(dp2605
g1571
g1106
sg1572
g1619
sg327
g1145
sbsS'IwArray.h'
p2606
g301
(g1567
g303
Ntp2607
Rp2608
(dp2609
g1571
g1438
sg1572
g1608
sg327
g1526
sbsS'IwUTF8.h'
p2610
g301
(g1567
g303
Ntp2611
Rp2612
(dp2613
g1571
g1438
sg1572
g1608
sg327
g1469
sbsS'math_rvct.h'
p2614
g301
(g1567
g303
Ntp2615
Rp2616
(dp2617
g1571
g1579
sg1572
g1601
sg327
S'c:/marmalade/7.5/s3e/h/std/math_rvct.h'
p2618
sbsS'IwUtil.h'
p2619
g301
(g1567
g303
Ntp2620
Rp2621
(dp2622
g1571
g1438
sg1572
g1608
sg327
g1510
sbsS'IwFColour.h'
p2623
g301
(g1567
g303
Ntp2624
Rp2625
(dp2626
g1571
g1374
sg1572
g1713
sg327
g1409
sbsS'wctype.h'
p2627
g301
(g1567
g303
Ntp2628
Rp2629
(dp2630
g1571
g1579
sg1572
g1601
sg327
S'c:/marmalade/7.5/s3e/h/std/wctype.h'
p2631
sbsS'mainMenu.h'
p2632
g301
(g1567
g303
Ntp2633
Rp2634
(dp2635
g1571
g1163
sg1572
g1723
sg327
g1192
sbsS'cstddef'
p2636
g301
(g1567
g303
Ntp2637
Rp2638
(dp2639
g1571
g1579
sg1572
g1580
sg327
S'c:/marmalade/7.5/s3e/h/std/c++/cstddef'
p2640
sbsS'assert.h'
p2641
g301
(g1567
g303
Ntp2642
Rp2643
(dp2644
g1571
g1579
sg1572
g1601
sg327
S'c:/marmalade/7.5/s3e/h/std/assert.h'
p2645
sbsS'mman.h'
p2646
g301
(g1567
g303
Ntp2647
Rp2648
(dp2649
g1571
g1579
sg1572
g1732
sg327
S'c:/marmalade/7.5/s3e/h/std/sys/mman.h'
p2650
sbsS'IwRandom.h'
p2651
g301
(g1567
g303
Ntp2652
Rp2653
(dp2654
g1571
g1438
sg1572
g1608
sg327
g1465
sbsS'libgen.h'
p2655
g301
(g1567
g303
Ntp2656
Rp2657
(dp2658
g1571
g1579
sg1572
g1601
sg327
S'c:/marmalade/7.5/s3e/h/std/libgen.h'
p2659
sbsS'utsname.h'
p2660
g301
(g1567
g303
Ntp2661
Rp2662
(dp2663
g1571
g1579
sg1572
g1732
sg327
S'c:/marmalade/7.5/s3e/h/std/sys/utsname.h'
p2664
sbsS'wait.h'
p2665
g301
(g1567
g303
Ntp2666
Rp2667
(dp2668
g1571
g1579
sg1572
g1732
sg327
S'c:/marmalade/7.5/s3e/h/std/sys/wait.h'
p2669
sbsS'param.h'
p2670
g301
(g1567
g303
Ntp2671
Rp2672
(dp2673
g1571
g1579
sg1572
g1732
sg327
S'c:/marmalade/7.5/s3e/h/std/sys/param.h'
p2674
sbsS'IwDivide.h'
p2675
g301
(g1567
g303
Ntp2676
Rp2677
(dp2678
g1571
g1438
sg1572
g1608
sg327
g1445
sbsS'Iw2DSceneGraphCore.cpp'
p2679
g301
(g1567
g303
Ntp2680
Rp2681
(dp2682
g1571
g1431
sg1572
(lp2683
S"'Marmalade Studio'"
p2684
ag1424
asg327
g1432
sbsS'IwResManager.h'
p2685
g301
(g1567
g303
Ntp2686
Rp2687
(dp2688
g1571
g1350
sg1572
g1851
sg327
g1357
sbsS'IwSoundManager.h'
p2689
g301
(g1567
g303
Ntp2690
Rp2691
(dp2692
g1571
g1106
sg1572
g1619
sg327
g1125
sbsS'cwctype'
p2693
g301
(g1567
g303
Ntp2694
Rp2695
(dp2696
g1571
g1579
sg1572
g1580
sg327
S'c:/marmalade/7.5/s3e/h/std/c++/cwctype'
p2697
sbsS'set'
p2698
g301
(g1567
g303
Ntp2699
Rp2700
(dp2701
g1571
g1579
sg1572
g1580
sg327
S'c:/marmalade/7.5/s3e/h/std/c++/set'
p2702
sbsS'IwGeomSQuat.h'
p2703
g301
(g1567
g303
Ntp2704
Rp2705
(dp2706
g1571
g1274
sg1572
g1633
sg327
g1298
sbsS'locale'
p2707
g301
(g1567
g303
Ntp2708
Rp2709
(dp2710
g1571
g1579
sg1572
g1580
sg327
S'c:/marmalade/7.5/s3e/h/std/c++/locale'
p2711
sbsS'cstdio'
p2712
g301
(g1567
g303
Ntp2713
Rp2714
(dp2715
g1571
g1579
sg1572
g1580
sg327
S'c:/marmalade/7.5/s3e/h/std/c++/cstdio'
p2716
sbsS'cdjpeg.h'
p2717
g301
(g1567
g303
Ntp2718
Rp2719
(dp2720
g1571
g1065
sg1572
g1667
sg327
g1084
sbsS'audio.h'
p2721
g301
(g1567
g303
Ntp2722
Rp2723
(dp2724
g1571
g1163
sg1572
g1723
sg327
g1180
sbsS'IwList.h'
p2725
g301
(g1567
g303
Ntp2726
Rp2727
(dp2728
g1571
g1438
sg1572
g1608
sg327
g1497
sbsS'pauseMenu.cpp'
p2729
g301
(g1567
g303
Ntp2730
Rp2731
(dp2732
g1571
g1163
sg1572
g1723
sg327
g1164
sbsS'inttypes.h'
p2733
g301
(g1567
g303
Ntp2734
Rp2735
(dp2736
g1571
g1579
sg1572
g1601
sg327
S'c:/marmalade/7.5/s3e/h/std/inttypes.h'
p2737
sbsS'dirent.h'
p2738
g301
(g1567
g303
Ntp2739
Rp2740
(dp2741
g1571
g1579
sg1572
g1601
sg327
S'c:/marmalade/7.5/s3e/h/std/dirent.h'
p2742
sbsS'IwGeomVec3.h'
p2743
g301
(g1567
g303
Ntp2744
Rp2745
(dp2746
g1571
g1274
sg1572
g1633
sg327
g1292
sbsS'transupp.h'
p2747
g301
(g1567
g303
Ntp2748
Rp2749
(dp2750
g1571
g1065
sg1572
g1667
sg327
g1070
sbsS'IwMath.h'
p2751
g301
(g1567
g303
Ntp2752
Rp2753
(dp2754
g1571
g1438
sg1572
g1608
sg327
g1439
sbsS'IwGeomQuat.h'
p2755
g301
(g1567
g303
Ntp2756
Rp2757
(dp2758
g1571
g1274
sg1572
g1633
sg327
g1342
sbsS'glplatform.h'
p2759
g301
(g1567
g303
Ntp2760
Rp2761
(dp2762
g1571
g1579
sg1572
g1944
sg327
S'c:/marmalade/7.5/s3e/h/GLES/glplatform.h'
p2763
sbsS's3e-default.mkf'
p2764
g301
(g1567
g303
Ntp2765
Rp2766
(dp2767
g1571
g1563
sg1572
(lp2768
g1559
asg327
g1561
sbsS'iwgl.config.txt'
p2769
g301
(g1567
g303
Ntp2770
Rp2771
(dp2772
g1571
g1231
sg1572
g1589
sg327
g1232
sbsS'bitset'
p2773
g301
(g1567
g303
Ntp2774
Rp2775
(dp2776
g1571
g1579
sg1572
g1580
sg327
S'c:/marmalade/7.5/s3e/h/std/c++/bitset'
p2777
sbsS'alloca.h'
p2778
g301
(g1567
g303
Ntp2779
Rp2780
(dp2781
g1571
g1579
sg1572
g1601
sg327
S'c:/marmalade/7.5/s3e/h/std/alloca.h'
p2782
sbsS'IwResHandler.h'
p2783
g301
(g1567
g303
Ntp2784
Rp2785
(dp2786
g1571
g1350
sg1572
g1851
sg327
g1366
sbsS'IwResHandlerMTL.h'
p2787
g301
(g1567
g303
Ntp2788
Rp2789
(dp2790
g1571
g1374
sg1572
g1713
sg327
g1381
sbsS'IwRuntime.h'
p2791
g301
(g1567
g303
Ntp2792
Rp2793
(dp2794
g1571
g1438
sg1572
g1608
sg327
g1489
sbsS'limits'
p2795
g301
(g1567
g303
Ntp2796
Rp2797
(dp2798
g1571
g1579
sg1572
g1580
sg327
S'c:/marmalade/7.5/s3e/h/std/c++/limits'
p2799
sbsS'IwGeomBBox.h'
p2800
g301
(g1567
g303
Ntp2801
Rp2802
(dp2803
g1571
g1274
sg1572
g1633
sg327
g1332
sbsS's3eContacts.h'
p2804
g301
(g1567
g303
Ntp2805
Rp2806
(dp2807
g1571
g1579
sg1572
g1595
sg327
S'c:/marmalade/7.5/s3e/h/s3eContacts.h'
p2808
sbsS's3eLicense.h'
p2809
g301
(g1567
g303
Ntp2810
Rp2811
(dp2812
g1571
g1579
sg1572
g1595
sg327
S'c:/marmalade/7.5/s3e/h/s3eLicense.h'
p2813
sbsS'iwgx.config.txt'
p2814
g301
(g1567
g303
Ntp2815
Rp2816
(dp2817
g1571
g1374
sg1572
g1713
sg327
g1416
sbsS'IwTextParser.h'
p2818
g301
(g1567
g303
Ntp2819
Rp2820
(dp2821
g1571
g1438
sg1572
g1608
sg327
g1518
sbsS's3eTimer.h'
p2822
g301
(g1567
g303
Ntp2823
Rp2824
(dp2825
g1571
g1579
sg1572
g1595
sg327
S'c:/marmalade/7.5/s3e/h/s3eTimer.h'
p2826
sbsS'IwGeomVec.h'
p2827
g301
(g1567
g303
Ntp2828
Rp2829
(dp2830
g1571
g1274
sg1572
g1633
sg327
g1318
sbsS'IwSerialise.h'
p2831
g301
(g1567
g303
Ntp2832
Rp2833
(dp2834
g1571
g1438
sg1572
g1608
sg327
g1536
sbsS'cstdarg'
p2835
g301
(g1567
g303
Ntp2836
Rp2837
(dp2838
g1571
g1579
sg1572
g1580
sg327
S'c:/marmalade/7.5/s3e/h/std/c++/cstdarg'
p2839
sbsS'gl2ext.h'
p2840
g301
(g1567
g303
Ntp2841
Rp2842
(dp2843
g1571
g1579
sg1572
g1843
sg327
S'c:/marmalade/7.5/s3e/h/GLES2/gl2ext.h'
p2844
sbsS'IwChar.h'
p2845
g301
(g1567
g303
Ntp2846
Rp2847
(dp2848
g1571
g1438
sg1572
g1608
sg327
g1463
sbsS's3eSound.h'
p2849
g301
(g1567
g303
Ntp2850
Rp2851
(dp2852
g1571
g1579
sg1572
g1595
sg327
S'c:/marmalade/7.5/s3e/h/s3eSound.h'
p2853
sbsS'IwVariableBitField.h'
p2854
g301
(g1567
g303
Ntp2855
Rp2856
(dp2857
g1571
g1438
sg1572
g1608
sg327
g1501
sbsS'exception.h'
p2858
g301
(g1567
g303
Ntp2859
Rp2860
(dp2861
g1571
g1579
sg1572
g1580
sg327
S'c:/marmalade/7.5/s3e/h/std/c++/exception.h'
p2862
sbsS'iwgeom.config.txt'
p2863
g301
(g1567
g303
Ntp2864
Rp2865
(dp2866
g1571
g1274
sg1572
g1633
sg327
g1340
sbsS'iwgx.mkf'
p2867
g301
(g1567
g303
Ntp2868
Rp2869
(dp2870
g1571
g1415
sg1572
g1713
sg327
g1413
sbsS'gl.h'
p2871
g301
(g1567
g303
Ntp2872
Rp2873
(dp2874
g1571
g1579
sg1572
g1944
sg327
S'c:/marmalade/7.5/s3e/h/GLES/gl.h'
p2875
sbsS'zlib.h'
p2876
g301
(g1567
g303
Ntp2877
Rp2878
(dp2879
g1571
g1543
sg1572
g2278
sg327
g1544
sbsS'temp_defines_release.h'
p2880
g301
(g1567
g303
Ntp2881
Rp2882
(dp2883
g1571
(lp2884
sg1572
(lp2885
S"'generated files'"
p2886
asg327
S'c:/Marmalade/7.5/examples/GameTutorial/CPP/Stage4/build_stage4_vc12_wp81toolset/temp_defines_release.h'
p2887
sbsS'iwgl.mkf'
p2888
g301
(g1567
g303
Ntp2889
Rp2890
(dp2891
g1571
g1228
sg1572
g1589
sg327
g1226
sbsS'IwColour.h'
p2892
g301
(g1567
g303
Ntp2893
Rp2894
(dp2895
g1571
g1374
sg1572
g1713
sg327
g1418
sbsS's3eLibrary.h'
p2896
g301
(g1567
g303
Ntp2897
Rp2898
(dp2899
g1571
g1579
sg1572
g1806
sg327
S'c:/marmalade/7.5/s3e/h/ext/s3eLibrary.h'
p2900
sbsS'types.h'
p2901
g301
(g1567
g303
Ntp2902
Rp2903
(dp2904
g1571
g1579
sg1572
g1732
sg327
S'c:/marmalade/7.5/s3e/h/std/sys/types.h'
p2905
sbsS'ifaddrs.h'
p2906
g301
(g1567
g303
Ntp2907
Rp2908
(dp2909
g1571
g1579
sg1572
g1601
sg327
S'c:/marmalade/7.5/s3e/h/std/ifaddrs.h'
p2910
sbsS'strstream'
p2911
g301
(g1567
g303
Ntp2912
Rp2913
(dp2914
g1571
g1579
sg1572
g1580
sg327
S'c:/marmalade/7.5/s3e/h/std/c++/strstream'
p2915
sbsS'IwTween.cpp'
p2916
g301
(g1567
g303
Ntp2917
Rp2918
(dp2919
g1571
g1553
sg1572
g2105
sg327
g1554
sbsS'exception'
p2920
g301
(g1567
g303
Ntp2921
Rp2922
(dp2923
g1571
g1579
sg1572
g1580
sg327
S'c:/marmalade/7.5/s3e/h/std/c++/exception'
p2924
sbsS'rlocks.h'
p2925
g301
(g1567
g303
Ntp2926
Rp2927
(dp2928
g1571
g1579
sg1572
g1580
sg327
S'c:/marmalade/7.5/s3e/h/std/c++/rlocks.h'
p2929
sbsS'ioctl.h'
p2930
g301
(g1567
g303
Ntp2931
Rp2932
(dp2933
g1571
g1579
sg1572
g1732
sg327
S'c:/marmalade/7.5/s3e/h/std/sys/ioctl.h'
p2934
sbsS'sem.h'
p2935
g301
(g1567
g303
Ntp2936
Rp2937
(dp2938
g1571
g1579
sg1572
g1732
sg327
S'c:/marmalade/7.5/s3e/h/std/sys/sem.h'
p2939
sbsS'jinclude.h'
p2940
g301
(g1567
g303
Ntp2941
Rp2942
(dp2943
g1571
g1065
sg1572
g1667
sg327
g1072
sbsS'IwEvent.h'
p2944
g301
(g1567
g303
Ntp2945
Rp2946
(dp2947
g1571
g1438
sg1572
g1608
sg327
g1522
sbsS'IwOptimiseSize.h'
p2948
g301
(g1567
g303
Ntp2949
Rp2950
(dp2951
g1571
g1438
sg1572
g1608
sg327
g1487
sbsS'iwgxfont_public.defines.txt'
p2952
g301
(g1567
g303
Ntp2953
Rp2954
(dp2955
g1571
g1252
sg1572
g1573
sg327
g1268
sbsS'iconv.h'
p2956
g301
(g1567
g303
Ntp2957
Rp2958
(dp2959
g1571
g1579
sg1572
g1601
sg327
S'c:/marmalade/7.5/s3e/h/std/iconv.h'
p2960
sbsS's3eDevice.h'
p2961
g301
(g1567
g303
Ntp2962
Rp2963
(dp2964
g1571
g1579
sg1572
g1595
sg327
S'c:/marmalade/7.5/s3e/h/s3eDevice.h'
p2965
sbsS'IwGeomSphere.h'
p2966
g301
(g1567
g303
Ntp2967
Rp2968
(dp2969
g1571
g1274
sg1572
g1633
sg327
g1275
sbsS'tiniconv.mkf'
p2970
g301
(g1567
g303
Ntp2971
Rp2972
(dp2973
g1571
g1096
sg1572
g2058
sg327
g1094
sbsS'iw2dscenegraph.defines.txt'
p2974
g301
(g1567
g303
Ntp2975
Rp2976
(dp2977
g1571
g1216
sg1572
g1893
sg327
g1217
sbsS'jdct.h'
p2978
g301
(g1567
g303
Ntp2979
Rp2980
(dp2981
g1571
g1065
sg1572
g1667
sg327
g1076
sbsS'cctype'
p2982
g301
(g1567
g303
Ntp2983
Rp2984
(dp2985
g1571
g1579
sg1572
g1580
sg327
S'c:/marmalade/7.5/s3e/h/std/c++/cctype'
p2986
sbsS'IwSoundADPCM.cpp'
p2987
g301
(g1567
g303
Ntp2988
Rp2989
(dp2990
g1571
g1106
sg1572
g1619
sg327
g1139
sbsS's3eConfig.h'
p2991
g301
(g1567
g303
Ntp2992
Rp2993
(dp2994
g1571
g1579
sg1572
g1595
sg327
S'c:/marmalade/7.5/s3e/h/s3eConfig.h'
p2995
sbsS'IwHashString.h'
p2996
g301
(g1567
g303
Ntp2997
Rp2998
(dp2999
g1571
g1438
sg1572
g1608
sg327
g1503
sbsS'stat.h'
p3000
g301
(g1567
g303
Ntp3001
Rp3002
(dp3003
g1571
g1579
sg1572
g1732
sg327
S'c:/marmalade/7.5/s3e/h/std/sys/stat.h'
p3004
sbsS'byteswap.h'
p3005
g301
(g1567
g303
Ntp3006
Rp3007
(dp3008
g1571
g1579
sg1572
g1601
sg327
S'c:/marmalade/7.5/s3e/h/std/byteswap.h'
p3009
sbsS'iwresmanager.mkf'
p3010
g301
(g1567
g303
Ntp3011
Rp3012
(dp3013
g1571
g1361
sg1572
g1851
sg327
g1359
sbsS'IwUtilInitTerm.h'
p3014
g301
(g1567
g303
Ntp3015
Rp3016
(dp3017
g1571
g1438
sg1572
g1608
sg327
g1532
sbsS'pthread_1.h'
p3018
g301
(g1567
g303
Ntp3019
Rp3020
(dp3021
g1571
g1579
sg1572
g1580
sg327
S'c:/marmalade/7.5/s3e/h/std/c++/pthread.h'
p3022
sbsS'iw2d.mkf'
p3023
g301
(g1567
g303
Ntp3024
Rp3025
(dp3026
g1571
g1247
sg1572
g1672
sg327
g1245
sbsS'complex'
p3027
g301
(g1567
g303
Ntp3028
Rp3029
(dp3030
g1571
g1579
sg1572
g1580
sg327
S'c:/marmalade/7.5/s3e/h/std/c++/complex'
p3031
sbsS'game.cpp'
p3032
g301
(g1567
g303
Ntp3033
Rp3034
(dp3035
g1571
g1163
sg1572
g1723
sg327
g1190
sbsS'algorithm'
p3036
g301
(g1567
g303
Ntp3037
Rp3038
(dp3039
g1571
g1579
sg1572
g1580
sg327
S'c:/marmalade/7.5/s3e/h/std/c++/algorithm'
p3040
sbsS's3e.icf'
p3041
g301
(g1567
g303
Ntp3042
Rp3043
(dp3044
g1571
g1579
sg1572
g1595
sg327
S'c:/marmalade/7.5/s3e/s3e.icf'
p3045
sbsS'resources.h'
p3046
g301
(g1567
g303
Ntp3047
Rp3048
(dp3049
g1571
g1163
sg1572
g1723
sg327
g1172
sbsS'IwGxFontState.h'
p3050
g301
(g1567
g303
Ntp3051
Rp3052
(dp3053
g1571
g1252
sg1572
g1573
sg327
g1257
sbsS'marmaladeexampleresources.mkf'
p3054
g301
(g1567
g303
Ntp3055
Rp3056
(dp3057
g1571
g1158
sg1572
(lp3058
g1154
asg327
g1156
sbsS'stdio.h'
p3059
g301
(g1567
g303
Ntp3060
Rp3061
(dp3062
g1571
g1579
sg1572
g1601
sg327
S'c:/marmalade/7.5/s3e/h/std/stdio.h'
p3063
sbsS'jmemsys.h'
p3064
g301
(g1567
g303
Ntp3065
Rp3066
(dp3067
g1571
g1065
sg1572
g1667
sg327
g1078
sbsS'ios'
p3068
g301
(g1567
g303
Ntp3069
Rp3070
(dp3071
g1571
g1579
sg1572
g1580
sg327
S'c:/marmalade/7.5/s3e/h/std/c++/ios'
p3072
sbsS'IwTween.h'
p3073
g301
(g1567
g303
Ntp3074
Rp3075
(dp3076
g1571
g1553
sg1572
g2105
sg327
g1551
sbsS'PVRTexTool.defines.txt'
p3077
g301
(g1567
g303
Ntp3078
Rp3079
(dp3080
g1571
g1202
sg1572
g2452
sg327
g1200
sbsS'stack'
p3081
g301
(g1567
g303
Ntp3082
Rp3083
(dp3084
g1571
g1579
sg1572
g1580
sg327
S'c:/marmalade/7.5/s3e/h/std/c++/stack'
p3085
sbsS'IwSoundParams.h'
p3086
g301
(g1567
g303
Ntp3087
Rp3088
(dp3089
g1571
g1106
sg1572
g1619
sg327
g1137
sbsS'new.h'
p3090
g301
(g1567
g303
Ntp3091
Rp3092
(dp3093
g1571
g1579
sg1572
g1580
sg327
S'c:/marmalade/7.5/s3e/h/std/c++/new.h'
p3094
sbsS's3eEMail.h'
p3095
g301
(g1567
g303
Ntp3096
Rp3097
(dp3098
g1571
g1579
sg1572
g1806
sg327
S'c:/marmalade/7.5/s3e/h/ext/s3eEMail.h'
p3099
sbsS's3eVideo.h'
p3100
g301
(g1567
g303
Ntp3101
Rp3102
(dp3103
g1571
g1579
sg1572
g1595
sg327
S'c:/marmalade/7.5/s3e/h/s3eVideo.h'
p3104
sbsS'pngconf.h'
p3105
g301
(g1567
g303
Ntp3106
Rp3107
(dp3108
g1571
g1051
sg1572
g2334
sg327
g1052
sbsS'pwd.h'
p3109
g301
(g1567
g303
Ntp3110
Rp3111
(dp3112
g1571
g1579
sg1572
g1601
sg327
S'c:/marmalade/7.5/s3e/h/std/pwd.h'
p3113
sbsS'IwOptimiseThumb.h'
p3114
g301
(g1567
g303
Ntp3115
Rp3116
(dp3117
g1571
g1438
sg1572
g1608
sg327
g1505
sbsS'gl3.h'
p3118
g301
(g1567
g303
Ntp3119
Rp3120
(dp3121
g1571
g1579
sg1572
g1904
sg327
S'c:/marmalade/7.5/s3e/h/GLES3/gl3.h'
p3122
sbsS'IwClip.h'
p3123
g301
(g1567
g303
Ntp3124
Rp3125
(dp3126
g1571
g1374
sg1572
g1713
sg327
g1387
sbsS'IwSoundInst.h'
p3127
g301
(g1567
g303
Ntp3128
Rp3129
(dp3130
g1571
g1106
sg1572
g1619
sg327
g1117
sbsS'iwresmanager.config.txt'
p3131
g301
(g1567
g303
Ntp3132
Rp3133
(dp3134
g1571
g1350
sg1572
g1851
sg327
g1362
sbsS'IwGxShaderTechnique.h'
p3135
g301
(g1567
g303
Ntp3136
Rp3137
(dp3138
g1571
g1374
sg1572
g1713
sg327
g1399
sbsS'IwCore.h'
p3139
g301
(g1567
g303
Ntp3140
Rp3141
(dp3142
g1571
g1438
sg1572
g1608
sg327
g1443
sbsS'cfloat'
p3143
g301
(g1567
g303
Ntp3144
Rp3145
(dp3146
g1571
g1579
sg1572
g1580
sg327
S'c:/marmalade/7.5/s3e/h/std/c++/cfloat'
p3147
sbsS'IwGeomMat2D.h'
p3148
g301
(g1567
g303
Ntp3149
Rp3150
(dp3151
g1571
g1274
sg1572
g1633
sg327
g1306
sbsS'IwAllocator.h'
p3152
g301
(g1567
g303
Ntp3153
Rp3154
(dp3155
g1571
g1438
sg1572
g1608
sg327
g1473
sbsS'IwPath.h'
p3156
g301
(g1567
g303
Ntp3157
Rp3158
(dp3159
g1571
g1438
sg1572
g1608
sg327
g1493
sbsS'iwgxfont.mkf'
p3160
g301
(g1567
g303
Ntp3161
Rp3162
(dp3163
g1571
g1263
sg1572
g1573
sg327
g1261
sbsS'IwTexture.h'
p3164
g301
(g1567
g303
Ntp3165
Rp3166
(dp3167
g1571
g1374
sg1572
g1713
sg327
g1377
sbsS'IwGeomVec.h.tpl'
p3168
g301
(g1567
g303
Ntp3169
Rp3170
(dp3171
g1571
g1274
sg1572
g1633
sg327
g1316
sbsS's3eAccelerometer.h'
p3172
g301
(g1567
g303
Ntp3173
Rp3174
(dp3175
g1571
g1579
sg1572
g1595
sg327
S'c:/marmalade/7.5/s3e/h/s3eAccelerometer.h'
p3176
sbsS'setjmp.h'
p3177
g301
(g1567
g303
Ntp3178
Rp3179
(dp3180
g1571
g1579
sg1572
g1601
sg327
S'c:/marmalade/7.5/s3e/h/std/setjmp.h'
p3181
sbsS'IwSoundParams.cpp'
p3182
g301
(g1567
g303
Ntp3183
Rp3184
(dp3185
g1571
g1106
sg1572
g1619
sg327
g1123
sbsS'IwFile.h'
p3186
g301
(g1567
g303
Ntp3187
Rp3188
(dp3189
g1571
g1438
sg1572
g1608
sg327
g1514
sbsS'IwTextParseable.h'
p3190
g301
(g1567
g303
Ntp3191
Rp3192
(dp3193
g1571
g1438
sg1572
g1608
sg327
g1461
sbsS'istream.h'
p3194
g301
(g1567
g303
Ntp3195
Rp3196
(dp3197
g1571
g1579
sg1572
g1580
sg327
S'c:/marmalade/7.5/s3e/h/std/c++/istream.h'
p3198
sbsS'stdint.h'
p3199
g301
(g1567
g303
Ntp3200
Rp3201
(dp3202
g1571
g1579
sg1572
g1601
sg327
S'c:/marmalade/7.5/s3e/h/std/stdint.h'
p3203
sbsS'semaphore.h'
p3204
g301
(g1567
g303
Ntp3205
Rp3206
(dp3207
g1571
g1579
sg1572
g1601
sg327
S'c:/marmalade/7.5/s3e/h/std/semaphore.h'
p3208
sbsS'ctime'
p3209
g301
(g1567
g303
Ntp3210
Rp3211
(dp3212
g1571
g1579
sg1572
g1580
sg327
S'c:/marmalade/7.5/s3e/h/std/c++/ctime'
p3213
sbsS'sstream'
p3214
g301
(g1567
g303
Ntp3215
Rp3216
(dp3217
g1571
g1579
sg1572
g1580
sg327
S'c:/marmalade/7.5/s3e/h/std/c++/sstream'
p3218
sbsS'IwGeomFBBox.h'
p3219
g301
(g1567
g303
Ntp3220
Rp3221
(dp3222
g1571
g1274
sg1572
g1633
sg327
g1300
sbsS'IwDebugPrim.h'
p3223
g301
(g1567
g303
Ntp3224
Rp3225
(dp3226
g1571
g1374
sg1572
g1713
sg327
g1372
sbsS'IwGxFontContainer.h'
p3227
g301
(g1567
g303
Ntp3228
Rp3229
(dp3230
g1571
g1252
sg1572
g1573
sg327
g1259
sbsS'IwGeomSVec3.h'
p3231
g301
(g1567
g303
Ntp3232
Rp3233
(dp3234
g1571
g1274
sg1572
g1633
sg327
g1277
sbsS'iw2dscenegraphcore.mkf'
p3235
g301
(g1567
g303
Ntp3236
Rp3237
(dp3238
g1571
g1428
sg1572
g2683
sg327
g1426
sbsS's3eExt.h'
p3239
g301
(g1567
g303
Ntp3240
Rp3241
(dp3242
g1571
g1579
sg1572
g1595
sg327
S'c:/marmalade/7.5/s3e/h/s3eExt.h'
p3243
sbsS'IwGeomFVec3.h'
p3244
g301
(g1567
g303
Ntp3245
Rp3246
(dp3247
g1571
g1274
sg1572
g1633
sg327
g1336
sbsS'streambuf'
p3248
g301
(g1567
g303
Ntp3249
Rp3250
(dp3251
g1571
g1579
sg1572
g1580
sg327
S'c:/marmalade/7.5/s3e/h/std/c++/streambuf'
p3252
sbsS's3eMetrics.h'
p3253
g301
(g1567
g303
Ntp3254
Rp3255
(dp3256
g1571
g1579
sg1572
g1806
sg327
S'c:/marmalade/7.5/s3e/h/ext/s3eMetrics.h'
p3257
sbsS'IwGxFont.h'
p3258
g301
(g1567
g303
Ntp3259
Rp3260
(dp3261
g1571
g1252
sg1572
g1573
sg327
g1266
sbsS's3eSecureStorage.h'
p3262
g301
(g1567
g303
Ntp3263
Rp3264
(dp3265
g1571
g1579
sg1572
g1595
sg327
S'c:/marmalade/7.5/s3e/h/s3eSecureStorage.h'
p3266
sbsS'string.h'
p3267
g301
(g1567
g303
Ntp3268
Rp3269
(dp3270
g1571
g1579
sg1572
g1601
sg327
S'c:/marmalade/7.5/s3e/h/std/string.h'
p3271
sbsS'IwResource.h'
p3272
g301
(g1567
g303
Ntp3273
Rp3274
(dp3275
g1571
g1438
sg1572
g1608
sg327
g1534
sbsS'IwGeomSVec2.h'
p3276
g301
(g1567
g303
Ntp3277
Rp3278
(dp3279
g1571
g1274
sg1572
g1633
sg327
g1272
sbsS'libjpeg.mkf'
p3280
g301
(g1567
g303
Ntp3281
Rp3282
(dp3283
g1571
g1061
sg1572
(lp3284
g1057
asg327
g1059
sbsS'IwGxDebug.h'
p3285
g301
(g1567
g303
Ntp3286
Rp3287
(dp3288
g1571
g1374
sg1572
g1713
sg327
g1397
sbsS'pthread_types.h'
p3289
g301
(g1567
g303
Ntp3290
Rp3291
(dp3292
g1571
g1579
sg1572
g1601
sg327
S'c:/marmalade/7.5/s3e/h/std/pthread_types.h'
p3293
sbsS'iomanip.h'
p3294
g301
(g1567
g303
Ntp3295
Rp3296
(dp3297
g1571
g1579
sg1572
g1580
sg327
S'c:/marmalade/7.5/s3e/h/std/c++/iomanip.h'
p3298
sbsS'IwKeymap.h'
p3299
g301
(g1567
g303
Ntp3300
Rp3301
(dp3302
g1571
g1438
sg1572
g1608
sg327
g1479
sbsS'IwDebug.h'
p3303
g301
(g1567
g303
Ntp3304
Rp3305
(dp3306
g1571
g1438
sg1572
g1608
sg327
g1467
sbsS's3eIOSBackgroundAudio.h'
p3307
g301
(g1567
g303
Ntp3308
Rp3309
(dp3310
g1571
g1579
sg1572
g1806
sg327
S'c:/marmalade/7.5/s3e/h/ext/s3eIOSBackgroundAudio.h'
p3311
sbsS'IwGeomMenu.h'
p3312
g301
(g1567
g303
Ntp3313
Rp3314
(dp3315
g1571
g1274
sg1572
g1633
sg327
g1330
sbsS'IwDivTable.h'
p3316
g301
(g1567
g303
Ntp3317
Rp3318
(dp3319
g1571
g1438
sg1572
g1608
sg327
g1457
sbsS'ctype.h'
p3320
g301
(g1567
g303
Ntp3321
Rp3322
(dp3323
g1571
g1579
sg1572
g1601
sg327
S'c:/marmalade/7.5/s3e/h/std/ctype.h'
p3324
sbsS'mainMenu.cpp'
p3325
g301
(g1567
g303
Ntp3326
Rp3327
(dp3328
g1571
g1163
sg1572
g1723
sg327
g1188
sbsS'IwResGroup.h'
p3329
g301
(g1567
g303
Ntp3330
Rp3331
(dp3332
g1571
g1350
sg1572
g1851
sg327
g1364
sbsS'signal_1.h'
p3333
g301
(g1567
g303
Ntp3334
Rp3335
(dp3336
g1571
g1579
sg1572
g1732
sg327
S'c:/marmalade/7.5/s3e/h/std/sys/signal.h'
p3337
sbsS'IwSoundData.cpp'
p3338
g301
(g1567
g303
Ntp3339
Rp3340
(dp3341
g1571
g1106
sg1572
g1619
sg327
g1143
sbsS'main.cpp'
p3342
g301
(g1567
g303
Ntp3343
Rp3344
(dp3345
g1571
g1163
sg1572
g1723
sg327
g1161
sbsS'shm.h'
p3346
g301
(g1567
g303
Ntp3347
Rp3348
(dp3349
g1571
g1579
sg1572
g1732
sg327
S'c:/marmalade/7.5/s3e/h/std/sys/shm.h'
p3350
sbsS'IwManagedList.h'
p3351
g301
(g1567
g303
Ntp3352
Rp3353
(dp3354
g1571
g1438
sg1572
g1608
sg327
g1451
sbsS'prctl.h'
p3355
g301
(g1567
g303
Ntp3356
Rp3357
(dp3358
g1571
g1579
sg1572
g1732
sg327
S'c:/marmalade/7.5/s3e/h/std/sys/prctl.h'
p3359
sbsS'IwGxStream.h'
p3360
g301
(g1567
g303
Ntp3361
Rp3362
(dp3363
g1571
g1374
sg1572
g1713
sg327
g1385
sbsS'temp_defines_debug.h'
p3364
g301
(g1567
g303
Ntp3365
Rp3366
(dp3367
g1571
(lp3368
sg1572
(lp3369
g2886
asg327
S'c:/Marmalade/7.5/examples/GameTutorial/CPP/Stage4/build_stage4_vc12_wp81toolset/temp_defines_debug.h'
p3370
sbsS'utility'
p3371
g301
(g1567
g303
Ntp3372
Rp3373
(dp3374
g1571
g1579
sg1572
g1580
sg327
S'c:/marmalade/7.5/s3e/h/std/c++/utility'
p3375
sbsS'input.h'
p3376
g301
(g1567
g303
Ntp3377
Rp3378
(dp3379
g1571
g1163
sg1572
g1723
sg327
g1166
sbsS'IwGeomLegacy.h'
p3380
g301
(g1567
g303
Ntp3381
Rp3382
(dp3383
g1571
g1274
sg1572
g1633
sg327
g1294
sbsS'IwTPage.h'
p3384
g301
(g1567
g303
Ntp3385
Rp3386
(dp3387
g1571
g1374
sg1572
g1713
sg327
g1422
sbsS'IwResSerialise.h'
p3388
g301
(g1567
g303
Ntp3389
Rp3390
(dp3391
g1571
g1350
sg1572
g1851
sg327
g1351
sbsS's3eCrypto.h'
p3392
g301
(g1567
g303
Ntp3393
Rp3394
(dp3395
g1571
g1579
sg1572
g1595
sg327
S'c:/marmalade/7.5/s3e/h/s3eCrypto.h'
p3396
sbsS's3eKeyboard.h'
p3397
g301
(g1567
g303
Ntp3398
Rp3399
(dp3400
g1571
g1579
sg1572
g1595
sg327
S'c:/marmalade/7.5/s3e/h/s3eKeyboard.h'
p3401
sbsS'fcntl.h'
p3402
g301
(g1567
g303
Ntp3403
Rp3404
(dp3405
g1571
g1579
sg1572
g1601
sg327
S'c:/marmalade/7.5/s3e/h/std/fcntl.h'
p3406
sbsS'Iw2DSceneGraphCore.h'
p3407
g301
(g1567
g303
Ntp3408
Rp3409
(dp3410
g1571
g1431
sg1572
g2683
sg327
g1429
sbsS'memory.h'
p3411
g301
(g1567
g303
Ntp3412
Rp3413
(dp3414
g1571
g1579
sg1572
g1601
sg327
S'c:/marmalade/7.5/s3e/h/std/memory.h'
p3415
sbsS'pthread.h'
p3416
g301
(g1567
g303
Ntp3417
Rp3418
(dp3419
g1571
g1579
sg1572
g1601
sg327
S'c:/marmalade/7.5/s3e/h/std/pthread.h'
p3420
sbsS'IwGeomIntersect.h'
p3421
g301
(g1567
g303
Ntp3422
Rp3423
(dp3424
g1571
g1274
sg1572
g1633
sg327
g1320
sbsS'IwTextParserITX.h'
p3425
g301
(g1567
g303
Ntp3426
Rp3427
(dp3428
g1571
g1438
sg1572
g1608
sg327
g1477
sbsS'IwClip.inl'
p3429
g301
(g1567
g303
Ntp3430
Rp3431
(dp3432
g1571
g1374
sg1572
g1713
sg327
g1407
sbsS'Iw2DSceneGraph.cpp'
p3433
g301
(g1567
g303
Ntp3434
Rp3435
(dp3436
g1571
g1216
sg1572
g1893
sg327
g1214
sbsS'ostream.h'
p3437
g301
(g1567
g303
Ntp3438
Rp3439
(dp3440
g1571
g1579
sg1572
g1580
sg327
S'c:/marmalade/7.5/s3e/h/std/c++/ostream.h'
p3441
sbsS'stl_user_config.h'
p3442
g301
(g1567
g303
Ntp3443
Rp3444
(dp3445
g1571
g1579
sg1572
g1580
sg327
S'c:/marmalade/7.5/s3e/h/std/c++/stl_user_config.h'
p3446
sbsS'IwProfileMenu.h'
p3447
g301
(g1567
g303
Ntp3448
Rp3449
(dp3450
g1571
g1438
sg1572
g1608
sg327
g1453
sbsS'MarmaladeVersion.h'
p3451
g301
(g1567
g303
Ntp3452
Rp3453
(dp3454
g1571
g1579
sg1572
g1595
sg327
S'c:/marmalade/7.5/s3e/h/MarmaladeVersion.h'
p3455
sbsS'IwResHandlerWAV.h'
p3456
g301
(g1567
g303
Ntp3457
Rp3458
(dp3459
g1571
g1106
sg1572
g1619
sg327
g1111
sbsS'gl3platform.h'
p3460
g301
(g1567
g303
Ntp3461
Rp3462
(dp3463
g1571
g1579
sg1572
g1904
sg327
S'c:/marmalade/7.5/s3e/h/GLES3/gl3platform.h'
p3464
sbsS'ios.h'
p3465
g301
(g1567
g303
Ntp3466
Rp3467
(dp3468
g1571
g1579
sg1572
g1580
sg327
S'c:/marmalade/7.5/s3e/h/std/c++/ios.h'
p3469
sbsS'IwImageHelper.h'
p3470
g301
(g1567
g303
Ntp3471
Rp3472
(dp3473
g1571
g1438
sg1572
g1608
sg327
g1449
sbsS'hash_set'
p3474
g301
(g1567
g303
Ntp3475
Rp3476
(dp3477
g1571
g1579
sg1572
g1580
sg327
S'c:/marmalade/7.5/s3e/h/std/c++/hash_set'
p3478
sbsS'IwGeomFQuat.h'
p3479
g301
(g1567
g303
Ntp3480
Rp3481
(dp3482
g1571
g1274
sg1572
g1633
sg327
g1284
sbsS'jmorecfg.h'
p3483
g301
(g1567
g303
Ntp3484
Rp3485
(dp3486
g1571
g1065
sg1572
g1667
sg327
g1074
sbsS'eglplatform.h'
p3487
g301
(g1567
g303
Ntp3488
Rp3489
(dp3490
g1571
g1579
sg1572
g1936
sg327
S'c:/marmalade/7.5/s3e/h/EGL/eglplatform.h'
p3491
sbsS'cmath'
p3492
g301
(g1567
g303
Ntp3493
Rp3494
(dp3495
g1571
g1579
sg1572
g1580
sg327
S'c:/marmalade/7.5/s3e/h/std/c++/cmath'
p3496
sbsS'math_gcc.h'
p3497
g301
(g1567
g303
Ntp3498
Rp3499
(dp3500
g1571
g1579
sg1572
g1601
sg327
S'c:/marmalade/7.5/s3e/h/std/math_gcc.h'
p3501
sbsS's3eMemory.h'
p3502
g301
(g1567
g303
Ntp3503
Rp3504
(dp3505
g1571
g1579
sg1572
g1595
sg327
S'c:/marmalade/7.5/s3e/h/s3eMemory.h'
p3506
sbsS'strings.h'
p3507
g301
(g1567
g303
Ntp3508
Rp3509
(dp3510
g1571
g1579
sg1572
g1601
sg327
S'c:/marmalade/7.5/s3e/h/std/strings.h'
p3511
sbsS's3eFile.h'
p3512
g301
(g1567
g303
Ntp3513
Rp3514
(dp3515
g1571
g1579
sg1572
g1595
sg327
S'c:/marmalade/7.5/s3e/h/s3eFile.h'
p3516
sbsS'IwGxTypes.h'
p3517
g301
(g1567
g303
Ntp3518
Rp3519
(dp3520
g1571
g1374
sg1572
g1713
sg327
g1411
sbsS'cerrno'
p3521
g301
(g1567
g303
Ntp3522
Rp3523
(dp3524
g1571
g1579
sg1572
g1580
sg327
S'c:/marmalade/7.5/s3e/h/std/c++/cerrno'
p3525
sbsS'IwSoundManager.cpp'
p3526
g301
(g1567
g303
Ntp3527
Rp3528
(dp3529
g1571
g1106
sg1572
g1619
sg327
g1119
sbsS'main.h'
p3530
g301
(g1567
g303
Ntp3531
Rp3532
(dp3533
g1571
g1163
sg1572
g1723
sg327
g1174
sbsS'soundengine.mkf'
p3534
g301
(g1567
g303
Ntp3535
Rp3536
(dp3537
g1571
g1151
sg1572
g1619
sg327
g1149
sbsS'resource.h'
p3538
g301
(g1567
g303
Ntp3539
Rp3540
(dp3541
g1571
g1579
sg1572
g1732
sg327
S'c:/marmalade/7.5/s3e/h/std/sys/resource.h'
p3542
sbsS'clocale'
p3543
g301
(g1567
g303
Ntp3544
Rp3545
(dp3546
g1571
g1579
sg1572
g1580
sg327
S'c:/marmalade/7.5/s3e/h/std/c++/clocale'
p3547
sbsS'pvrtextool.mkf'
p3548
g301
(g1567
g303
Ntp3549
Rp3550
(dp3551
g1571
g1209
sg1572
g2210
sg327
g1207
sbsS'csetjmp'
p3552
g301
(g1567
g303
Ntp3553
Rp3554
(dp3555
g1571
g1579
sg1572
g1580
sg327
S'c:/marmalade/7.5/s3e/h/std/c++/csetjmp'
p3556
sbsS'netdb.h'
p3557
g301
(g1567
g303
Ntp3558
Rp3559
(dp3560
g1571
g1579
sg1572
g1601
sg327
S'c:/marmalade/7.5/s3e/h/std/netdb.h'
p3561
sbsS's3eAndroidJNI.h'
p3562
g301
(g1567
g303
Ntp3563
Rp3564
(dp3565
g1571
g1579
sg1572
g1806
sg327
S'c:/marmalade/7.5/s3e/h/ext/s3eAndroidJNI.h'
p3566
sbsS'stdexcept'
p3567
g301
(g1567
g303
Ntp3568
Rp3569
(dp3570
g1571
g1579
sg1572
g1580
sg327
S'c:/marmalade/7.5/s3e/h/std/c++/stdexcept'
p3571
sbsS'math.h'
p3572
g301
(g1567
g303
Ntp3573
Rp3574
(dp3575
g1571
g1579
sg1572
g1601
sg327
S'c:/marmalade/7.5/s3e/h/std/math.h'
p3576
sbsS'stdbool.h'
p3577
g301
(g1567
g303
Ntp3578
Rp3579
(dp3580
g1571
g1579
sg1572
g1601
sg327
S'c:/marmalade/7.5/s3e/h/std/stdbool.h'
p3581
sbsS'uio.h'
p3582
g301
(g1567
g303
Ntp3583
Rp3584
(dp3585
g1571
g1579
sg1572
g1732
sg327
S'c:/marmalade/7.5/s3e/h/std/sys/uio.h'
p3586
sbsS'IwUncopyable.h'
p3587
g301
(g1567
g303
Ntp3588
Rp3589
(dp3590
g1571
g1438
sg1572
g1608
sg327
g1516
sbssS'juice_build_type'
p3591
g2
sS'tests'
p3592
(lp3593
sS'project_name'
p3594
g309
sS'root_file'
p3595
g114
sS'current_root'
p3596
S'c:/Marmalade/7.5/examples/GameTutorial/CPP/Stage4'
p3597
sS'dependencies'
p3598
(lp3599
sS'include_paths'
p3600
(lp3601
S'c:/marmalade/7.5/modules/iw2d/h'
p3602
aS'c:/marmalade/7.5/modules/iwgx/h'
p3603
aS'c:/marmalade/7.5/modules/iwgl/h'
p3604
aS'c:/marmalade/7.5/modules/iwutil/h'
p3605
aS'c:/marmalade/7.5/modules/third_party/libjpeg/h'
p3606
aS'c:/marmalade/7.5/modules/third_party/zlib/h'
p3607
aS'c:/marmalade/7.5/modules/third_party/libpng/h'
p3608
aS'c:/marmalade/7.5/modules/iwgeom/h'
p3609
aS'c:/marmalade/7.5/modules/iwresmanager/h'
p3610
aS'c:/marmalade/7.5/extensions/pvrtextool/h'
p3611
aS'c:/marmalade/7.5/modules/iwgxfont/h'
p3612
aS'c:/marmalade/7.5/modules/third_party/tiniconv/source'
p3613
aS'c:/marmalade/7.5/modules/iw2dscenegraph/h'
p3614
aS'c:/marmalade/7.5/modules/iw2dscenegraphcore/h'
p3615
aS'c:/marmalade/7.5/modules/iwtween/h'
p3616
aS'c:/marmalade/7.5/examples/gametutorial/cpp/modules/soundengine/h'
p3617
aS'c:/marmalade/7.5/examples/gametutorial/cpp/modules/soundengine/source'
p3618
aS'c:/marmalade/7.5/s3e/h'
p3619
aS'c:/marmalade/7.5/s3e/h/ext'
p3620
aS'c:/marmalade/7.5/s3e/h/std'
p3621
aS'c:/marmalade/7.5/s3e/h/std/c++'
p3622
aS'c:/marmalade/7.5/s3e/h/ext_legacy'
p3623
aS'c:/marmalade/7.5/s3e/h/legacy'
p3624
asS'weak_frameworks'
p3625
(lp3626
sS'extprojects'
p3627
(dp3628
sg566
(dp3629
g560
(lp3630
(S'c:/Marmalade/7.5/examples/GameTutorial/CPP/Stage4/data/audio'
p3631
S'audio'
p3632
I0
tp3633
a(S'c:/Marmalade/7.5/examples/GameTutorial/CPP/Stage4/data/textures'
p3634
S'textures'
p3635
I0
tp3636
a(S'c:/Marmalade/7.5/examples/GameTutorial/CPP/Stage4/data-ram/data-gles1,c:/Marmalade/7.5/examples/GameTutorial/CPP/Stage4/data'
p3637
S'.'
p3638
I0
tp3639
assS'macro_types'
p3640
(dp3641
g495
I1
sg496
I0
sg497
I0
sg498
I0
sg500
I0
sg501
I0
sg502
I0
sg503
I0
sg504
I0
sg506
I0
sg507
I0
sg508
I0
sg509
I0
sg510
I0
sg512
I0
sg514
I0
sg515
I0
sg516
I0
sg517
I0
sg518
I0
sg519
I0
sg520
I0
sg521
I0
sg522
I1
sg523
I0
sg524
I0
sg525
I0
sg526
I0
sg527
I01
sg528
I1
sg529
I0
sg530
I0
sg531
I0
sg532
I0
sg533
I0
sg534
I0
sg535
I0
ssS'commands'
p3642
(lp3643
sg568
(g1038
S'VC12_WP81TOOLSET'
p3644
S'X86ARMAARCH64'
p3645
tp3646
sS'build_libs'
p3647
(dp3648
sg570
g0
sS'frameworks'
p3649
(lp3650
sS'environ'
p3651
(dp3652
sS'target_name_debug'
p3653
g309
sS'builders'
p3654
(dp3655
g560
(dp3656
S'.S'
p3657
(dp3658
S'gcc_aarch64'
p3659
(lp3660
S'.obj'
p3661
aS'echo AARCH64 Assembling(GCC) ${SOURCE}...'
p3662
aS'c:/marmalade/7.5/s3e\\gcc\\win32\\aarch64\\bin\\aarch64-none-elf-gcc -c -o ${TARGET} ${SOURCE}'
p3663
asS'rvct'
p3664
(lp3665
g3661
aS'echo ARM Assembling(RVCT) ${SOURCE}...'
p3666
aS'c:/marmalade/7.5/s3e\\rvct\\bin\\armasm -o ${TARGET} ${SOURCE}'
p3667
asg418
(lp3668
g3661
aS'echo ARM Assembling(GCC) ${SOURCE}...'
p3669
aS'c:/marmalade/7.5/s3e\\gcc\\win32\\arm\\bin\\arm-none-eabi-gcc -c -o ${TARGET} ${SOURCE}'
p3670
asS'ppu'
p3671
(lp3672
S'.a'
p3673
aS'echo PPU Assembling(SNC) ${SOURCE}...'
p3674
aS'c:/marmalade/7.5/s3e\\rvct\\bin\\armasm -o ${TARGET} ${SOURCE}'
p3675
assS'.s'
p3676
g3658
sS'.vp'
p3677
(lp3678
NaS'"C:/Marmalade/7.5/s3e/python/python.exe" "c:/marmalade/7.5/modules/iwgx/tools/compile_shaders.py" ${SOURCE}'
p3679
asssS'extproject_names'
p3680
(lp3681
sbtp3682
.