	.file	"Iw2DSceneGraph.cpp"
	.text
.Ltext0:
	.section	.text._ZN4_STL14__copy_trivialEPKvS1_Pv,"axG",@progbits,_ZN4_STL14__copy_trivialEPKvS1_Pv,comdat
	.weak	_ZN4_STL14__copy_trivialEPKvS1_Pv
	.hidden	_ZN4_STL14__copy_trivialEPKvS1_Pv
	.type	_ZN4_STL14__copy_trivialEPKvS1_Pv, @function
_ZN4_STL14__copy_trivialEPKvS1_Pv:
.LFB50:
	.file 1 "c:/marmalade/7.5/s3e/h/std/c++/stl/_algobase.h"
	.loc 1 147 0
	.cfi_startproc
	pushl	%ebp
	.cfi_def_cfa_offset 8
	.cfi_offset 5, -8
	movl	%esp, %ebp
	.cfi_def_cfa_register 5
	pushl	%ebx
	leal	-20(%esp), %esp
	.cfi_offset 3, -12
	call	__x86.get_pc_thunk.bx
	addl	$_GLOBAL_OFFSET_TABLE_, %ebx
	.loc 1 150 0
	movl	12(%ebp), %eax
	cmpl	8(%ebp), %eax
	je	.L2
	.loc 1 149 0
	movl	12(%ebp), %edx
	movl	8(%ebp), %eax
	subl	%eax, %edx
	movl	%edx, %eax
	movl	%eax, 8(%esp)
	movl	8(%ebp), %eax
	movl	%eax, 4(%esp)
	movl	16(%ebp), %eax
	movl	%eax, (%esp)
	call	memmove@PLT
	.loc 1 150 0
	movl	12(%ebp), %ecx
	movl	8(%ebp), %edx
	subl	%edx, %ecx
	movl	%ecx, %edx
	addl	%edx, %eax
	jmp	.L3
.L2:
	.loc 1 150 0 is_stmt 0 discriminator 1
	movl	16(%ebp), %eax
.L3:
	.loc 1 151 0 is_stmt 1 discriminator 2
	leal	20(%esp), %esp
	popl	%ebx
	.cfi_restore 3
	popl	%ebp
	.cfi_restore 5
	.cfi_def_cfa 4, 4
	ret
	.cfi_endproc
.LFE50:
	.size	_ZN4_STL14__copy_trivialEPKvS1_Pv, .-_ZN4_STL14__copy_trivialEPKvS1_Pv
	.section	.text._ZnwjPv,"axG",@progbits,_ZnwjPv,comdat
	.weak	_ZnwjPv
	.hidden	_ZnwjPv
	.type	_ZnwjPv, @function
_ZnwjPv:
.LFB164:
	.file 2 "c:/marmalade/7.5/s3e/h/std/c++/new.h"
	.loc 2 52 0
	.cfi_startproc
	pushl	%ebp
	.cfi_def_cfa_offset 8
	.cfi_offset 5, -8
	leal	(%esp), %ebp
	.cfi_def_cfa_register 5
	.loc 2 52 0
	movl	12(%ebp), %eax
	popl	%ebp
	.cfi_restore 5
	.cfi_def_cfa 4, 4
	ret
	.cfi_endproc
.LFE164:
	.size	_ZnwjPv, .-_ZnwjPv
	.section	.text._ZN4_STL8_DestroyEPcS0_,"axG",@progbits,_ZN4_STL8_DestroyEPcS0_,comdat
	.weak	_ZN4_STL8_DestroyEPcS0_
	.hidden	_ZN4_STL8_DestroyEPcS0_
	.type	_ZN4_STL8_DestroyEPcS0_, @function
_ZN4_STL8_DestroyEPcS0_:
.LFB202:
	.file 3 "c:/marmalade/7.5/s3e/h/std/c++/stl/_construct.h"
	.loc 3 142 0
	.cfi_startproc
	pushl	%ebp
	.cfi_def_cfa_offset 8
	.cfi_offset 5, -8
	movl	%esp, %ebp
	.cfi_def_cfa_register 5
	.loc 3 142 0
	popl	%ebp
	.cfi_restore 5
	.cfi_def_cfa 4, 4
	ret
	.cfi_endproc
.LFE202:
	.size	_ZN4_STL8_DestroyEPcS0_, .-_ZN4_STL8_DestroyEPcS0_
	.section	.text._ZN4_STL18uninitialized_copyEPKcS1_Pc,"axG",@progbits,_ZN4_STL18uninitialized_copyEPKcS1_Pc,comdat
	.weak	_ZN4_STL18uninitialized_copyEPKcS1_Pc
	.hidden	_ZN4_STL18uninitialized_copyEPKcS1_Pc
	.type	_ZN4_STL18uninitialized_copyEPKcS1_Pc, @function
_ZN4_STL18uninitialized_copyEPKcS1_Pc:
.LFB241:
	.file 4 "c:/marmalade/7.5/s3e/h/std/c++/stl/_uninitialized.h"
	.loc 4 83 0
	.cfi_startproc
	pushl	%ebp
	.cfi_def_cfa_offset 8
	.cfi_offset 5, -8
	leal	(%esp), %ebp
	.cfi_def_cfa_register 5
	leal	-24(%esp), %esp
	.loc 4 84 0
	movl	16(%ebp), %eax
	movl	%eax, 8(%esp)
	movl	12(%ebp), %eax
	movl	%eax, 4(%esp)
	movl	8(%ebp), %eax
	movl	%eax, (%esp)
	call	_ZN4_STL14__copy_trivialEPKvS1_Pv
	.loc 4 85 0
	leave
	.cfi_restore 5
	.cfi_def_cfa 4, 4
	ret
	.cfi_endproc
.LFE241:
	.size	_ZN4_STL18uninitialized_copyEPKcS1_Pc, .-_ZN4_STL18uninitialized_copyEPKcS1_Pc
	.section	.text._ZN8CIwFVec2C2Eff,"axG",@progbits,_ZN8CIwFVec2C5Eff,comdat
	.align 2
	.weak	_ZN8CIwFVec2C2Eff
	.hidden	_ZN8CIwFVec2C2Eff
	.type	_ZN8CIwFVec2C2Eff, @function
_ZN8CIwFVec2C2Eff:
.LFB611:
	.file 5 "c:/marmalade/7.5/modules/iwgeom/h/IwGeomFVec2.h"
	.loc 5 72 0
	.cfi_startproc
	pushl	%ebp
	.cfi_def_cfa_offset 8
	.cfi_offset 5, -8
	leal	(%esp), %ebp
	.cfi_def_cfa_register 5
.LBB2:
	.loc 5 72 0
	movl	8(%ebp), %edx
	movl	12(%ebp), %eax
	movl	%eax, (%edx)
	movl	8(%ebp), %edx
	movl	16(%ebp), %eax
	movl	%eax, 4(%edx)
.LBE2:
	popl	%ebp
	.cfi_restore 5
	.cfi_def_cfa 4, 4
	ret
	.cfi_endproc
.LFE611:
	.size	_ZN8CIwFVec2C2Eff, .-_ZN8CIwFVec2C2Eff
	.weak	_ZN8CIwFVec2C1Eff
	.hidden	_ZN8CIwFVec2C1Eff
	.set	_ZN8CIwFVec2C1Eff,_ZN8CIwFVec2C2Eff
	.section	.text._ZN7CIwRectC2Essss,"axG",@progbits,_ZN7CIwRectC5Essss,comdat
	.align 2
	.weak	_ZN7CIwRectC2Essss
	.hidden	_ZN7CIwRectC2Essss
	.type	_ZN7CIwRectC2Essss, @function
_ZN7CIwRectC2Essss:
.LFB1990:
	.file 6 "c:/marmalade/7.5/modules/iwgx/h/IwGxTypes.h"
	.loc 6 93 0
	.cfi_startproc
	pushl	%ebp
	.cfi_def_cfa_offset 8
	.cfi_offset 5, -8
	movl	%esp, %ebp
	.cfi_def_cfa_register 5
	pushl	%esi
	leal	-16(%esp), %esp
	.cfi_offset 6, -12
	movl	12(%ebp), %esi
	movl	16(%ebp), %ecx
	movl	20(%ebp), %edx
	movl	24(%ebp), %eax
	movw	%si, -8(%ebp)
	movw	%cx, -12(%ebp)
	movw	%dx, -16(%ebp)
	movw	%ax, -20(%ebp)
.LBB3:
	.loc 6 93 0
	movl	8(%ebp), %eax
	movzwl	-8(%ebp), %edx
	movw	%dx, (%eax)
	movl	8(%ebp), %eax
	movzwl	-12(%ebp), %edx
	movw	%dx, 2(%eax)
	movl	8(%ebp), %eax
	movzwl	-16(%ebp), %edx
	movw	%dx, 4(%eax)
	movl	8(%ebp), %eax
	movzwl	-20(%ebp), %edx
	movw	%dx, 6(%eax)
.LBE3:
	leal	16(%esp), %esp
	popl	%esi
	.cfi_restore 6
	popl	%ebp
	.cfi_restore 5
	.cfi_def_cfa 4, 4
	ret
	.cfi_endproc
.LFE1990:
	.size	_ZN7CIwRectC2Essss, .-_ZN7CIwRectC2Essss
	.weak	_ZN7CIwRectC1Essss
	.hidden	_ZN7CIwRectC1Essss
	.set	_ZN7CIwRectC1Essss,_ZN7CIwRectC2Essss
	.section	.text._ZN4_STL11char_traitsIcE6lengthEPKc,"axG",@progbits,_ZN4_STL11char_traitsIcE6lengthEPKc,comdat
	.weak	_ZN4_STL11char_traitsIcE6lengthEPKc
	.hidden	_ZN4_STL11char_traitsIcE6lengthEPKc
	.type	_ZN4_STL11char_traitsIcE6lengthEPKc, @function
_ZN4_STL11char_traitsIcE6lengthEPKc:
.LFB2072:
	.file 7 "c:/marmalade/7.5/s3e/h/std/c++/stl/char_traits.h"
	.loc 7 238 0
	.cfi_startproc
	pushl	%ebp
	.cfi_def_cfa_offset 8
	.cfi_offset 5, -8
	movl	%esp, %ebp
	.cfi_def_cfa_register 5
	pushl	%ebx
	leal	-20(%esp), %esp
	.cfi_offset 3, -12
	call	__x86.get_pc_thunk.bx
	addl	$_GLOBAL_OFFSET_TABLE_, %ebx
	.loc 7 238 0
	movl	8(%ebp), %eax
	movl	%eax, (%esp)
	call	strlen@PLT
	leal	20(%esp), %esp
	popl	%ebx
	.cfi_restore 3
	popl	%ebp
	.cfi_restore 5
	.cfi_def_cfa 4, 4
	ret
	.cfi_endproc
.LFE2072:
	.size	_ZN4_STL11char_traitsIcE6lengthEPKc, .-_ZN4_STL11char_traitsIcE6lengthEPKc
	.section	.text._ZN4_STL11char_traitsIcE6assignERcRKc,"axG",@progbits,_ZN4_STL11char_traitsIcE6assignERcRKc,comdat
	.weak	_ZN4_STL11char_traitsIcE6assignERcRKc
	.hidden	_ZN4_STL11char_traitsIcE6assignERcRKc
	.type	_ZN4_STL11char_traitsIcE6assignERcRKc, @function
_ZN4_STL11char_traitsIcE6assignERcRKc:
.LFB2073:
	.loc 7 240 0
	.cfi_startproc
	pushl	%ebp
	.cfi_def_cfa_offset 8
	.cfi_offset 5, -8
	leal	(%esp), %ebp
	.cfi_def_cfa_register 5
	.loc 7 240 0
	movl	12(%ebp), %eax
	movzbl	(%eax), %edx
	movl	8(%ebp), %eax
	movb	%dl, (%eax)
	popl	%ebp
	.cfi_restore 5
	.cfi_def_cfa 4, 4
	ret
	.cfi_endproc
.LFE2073:
	.size	_ZN4_STL11char_traitsIcE6assignERcRKc, .-_ZN4_STL11char_traitsIcE6assignERcRKc
	.section	.text._ZN14Iw2DSceneGraph9CDrawableD2Ev,"axG",@progbits,_ZN14Iw2DSceneGraph9CDrawableD5Ev,comdat
	.align 2
	.weak	_ZN14Iw2DSceneGraph9CDrawableD2Ev
	.hidden	_ZN14Iw2DSceneGraph9CDrawableD2Ev
	.type	_ZN14Iw2DSceneGraph9CDrawableD2Ev, @function
_ZN14Iw2DSceneGraph9CDrawableD2Ev:
.LFB2441:
	.file 8 "c:/marmalade/7.5/modules/iw2dscenegraph/h/Iw2DSceneGraph.h"
	.loc 8 88 0
	.cfi_startproc
	pushl	%ebp
	.cfi_def_cfa_offset 8
	.cfi_offset 5, -8
	movl	%esp, %ebp
	.cfi_def_cfa_register 5
	pushl	%ebx
	leal	-20(%esp), %esp
	.cfi_offset 3, -12
	call	__x86.get_pc_thunk.bx
	addl	$_GLOBAL_OFFSET_TABLE_, %ebx
.LBB4:
	.loc 8 88 0
	movl	8(%ebp), %eax
	leal	8+_ZTVN14Iw2DSceneGraph9CDrawableE@GOTOFF(%ebx), %edx
	movl	%edx, (%eax)
	movl	8(%ebp), %eax
	movl	%eax, (%esp)
	call	_ZN18Iw2DSceneGraphCore5CNodeD2Ev@PLT
.LBE4:
	movl	$0, %eax
	testl	%eax, %eax
	je	.L15
	.loc 8 88 0 is_stmt 0 discriminator 1
	movl	8(%ebp), %eax
	movl	%eax, (%esp)
	call	_ZdlPv@PLT
.L15:
	.loc 8 88 0
	leal	20(%esp), %esp
	popl	%ebx
	.cfi_restore 3
	popl	%ebp
	.cfi_restore 5
	.cfi_def_cfa 4, 4
	ret
	.cfi_endproc
.LFE2441:
	.size	_ZN14Iw2DSceneGraph9CDrawableD2Ev, .-_ZN14Iw2DSceneGraph9CDrawableD2Ev
	.weak	_ZN14Iw2DSceneGraph9CDrawableD1Ev
	.hidden	_ZN14Iw2DSceneGraph9CDrawableD1Ev
	.set	_ZN14Iw2DSceneGraph9CDrawableD1Ev,_ZN14Iw2DSceneGraph9CDrawableD2Ev
	.section	.text._ZN14Iw2DSceneGraph9CDrawableD0Ev,"axG",@progbits,_ZN14Iw2DSceneGraph9CDrawableD0Ev,comdat
	.align 2
	.weak	_ZN14Iw2DSceneGraph9CDrawableD0Ev
	.hidden	_ZN14Iw2DSceneGraph9CDrawableD0Ev
	.type	_ZN14Iw2DSceneGraph9CDrawableD0Ev, @function
_ZN14Iw2DSceneGraph9CDrawableD0Ev:
.LFB2443:
	.loc 8 88 0 is_stmt 1
	.cfi_startproc
	pushl	%ebp
	.cfi_def_cfa_offset 8
	.cfi_offset 5, -8
	movl	%esp, %ebp
	.cfi_def_cfa_register 5
	pushl	%ebx
	leal	-20(%esp), %esp
	.cfi_offset 3, -12
	call	__x86.get_pc_thunk.bx
	addl	$_GLOBAL_OFFSET_TABLE_, %ebx
	.loc 8 88 0
	movl	8(%ebp), %eax
	movl	%eax, (%esp)
	call	_ZN14Iw2DSceneGraph9CDrawableD1Ev
	movl	8(%ebp), %eax
	movl	%eax, (%esp)
	call	_ZdlPv@PLT
	leal	20(%esp), %esp
	popl	%ebx
	.cfi_restore 3
	popl	%ebp
	.cfi_restore 5
	.cfi_def_cfa 4, 4
	ret
	.cfi_endproc
.LFE2443:
	.size	_ZN14Iw2DSceneGraph9CDrawableD0Ev, .-_ZN14Iw2DSceneGraph9CDrawableD0Ev
	.section	.text._ZN14Iw2DSceneGraph7CSpriteD2Ev,"axG",@progbits,_ZN14Iw2DSceneGraph7CSpriteD5Ev,comdat
	.align 2
	.weak	_ZN14Iw2DSceneGraph7CSpriteD2Ev
	.hidden	_ZN14Iw2DSceneGraph7CSpriteD2Ev
	.type	_ZN14Iw2DSceneGraph7CSpriteD2Ev, @function
_ZN14Iw2DSceneGraph7CSpriteD2Ev:
.LFB2444:
	.loc 8 120 0
	.cfi_startproc
	pushl	%ebp
	.cfi_def_cfa_offset 8
	.cfi_offset 5, -8
	movl	%esp, %ebp
	.cfi_def_cfa_register 5
	pushl	%ebx
	leal	-20(%esp), %esp
	.cfi_offset 3, -12
	call	__x86.get_pc_thunk.bx
	addl	$_GLOBAL_OFFSET_TABLE_, %ebx
.LBB5:
	.loc 8 120 0
	movl	8(%ebp), %eax
	leal	8+_ZTVN14Iw2DSceneGraph7CSpriteE@GOTOFF(%ebx), %edx
	movl	%edx, (%eax)
	movl	8(%ebp), %eax
	movl	%eax, (%esp)
	call	_ZN14Iw2DSceneGraph9CDrawableD2Ev
.LBE5:
	movl	$0, %eax
	testl	%eax, %eax
	je	.L20
	.loc 8 120 0 is_stmt 0 discriminator 1
	movl	8(%ebp), %eax
	movl	%eax, (%esp)
	call	_ZdlPv@PLT
.L20:
	.loc 8 120 0
	leal	20(%esp), %esp
	popl	%ebx
	.cfi_restore 3
	popl	%ebp
	.cfi_restore 5
	.cfi_def_cfa 4, 4
	ret
	.cfi_endproc
.LFE2444:
	.size	_ZN14Iw2DSceneGraph7CSpriteD2Ev, .-_ZN14Iw2DSceneGraph7CSpriteD2Ev
	.weak	_ZN14Iw2DSceneGraph7CSpriteD1Ev
	.hidden	_ZN14Iw2DSceneGraph7CSpriteD1Ev
	.set	_ZN14Iw2DSceneGraph7CSpriteD1Ev,_ZN14Iw2DSceneGraph7CSpriteD2Ev
	.section	.text._ZN14Iw2DSceneGraph7CSpriteD0Ev,"axG",@progbits,_ZN14Iw2DSceneGraph7CSpriteD0Ev,comdat
	.align 2
	.weak	_ZN14Iw2DSceneGraph7CSpriteD0Ev
	.hidden	_ZN14Iw2DSceneGraph7CSpriteD0Ev
	.type	_ZN14Iw2DSceneGraph7CSpriteD0Ev, @function
_ZN14Iw2DSceneGraph7CSpriteD0Ev:
.LFB2446:
	.loc 8 120 0 is_stmt 1
	.cfi_startproc
	pushl	%ebp
	.cfi_def_cfa_offset 8
	.cfi_offset 5, -8
	movl	%esp, %ebp
	.cfi_def_cfa_register 5
	pushl	%ebx
	leal	-20(%esp), %esp
	.cfi_offset 3, -12
	call	__x86.get_pc_thunk.bx
	addl	$_GLOBAL_OFFSET_TABLE_, %ebx
	.loc 8 120 0
	movl	8(%ebp), %eax
	movl	%eax, (%esp)
	call	_ZN14Iw2DSceneGraph7CSpriteD1Ev
	movl	8(%ebp), %eax
	movl	%eax, (%esp)
	call	_ZdlPv@PLT
	leal	20(%esp), %esp
	popl	%ebx
	.cfi_restore 3
	popl	%ebp
	.cfi_restore 5
	.cfi_def_cfa 4, 4
	ret
	.cfi_endproc
.LFE2446:
	.size	_ZN14Iw2DSceneGraph7CSpriteD0Ev, .-_ZN14Iw2DSceneGraph7CSpriteD0Ev
	.section	.text._ZN14Iw2DSceneGraph6CLabelD2Ev,"axG",@progbits,_ZN14Iw2DSceneGraph6CLabelD5Ev,comdat
	.align 2
	.weak	_ZN14Iw2DSceneGraph6CLabelD2Ev
	.hidden	_ZN14Iw2DSceneGraph6CLabelD2Ev
	.type	_ZN14Iw2DSceneGraph6CLabelD2Ev, @function
_ZN14Iw2DSceneGraph6CLabelD2Ev:
.LFB2448:
	.loc 8 142 0
	.cfi_startproc
	pushl	%ebp
	.cfi_def_cfa_offset 8
	.cfi_offset 5, -8
	movl	%esp, %ebp
	.cfi_def_cfa_register 5
	pushl	%ebx
	leal	-20(%esp), %esp
	.cfi_offset 3, -12
	call	__x86.get_pc_thunk.bx
	addl	$_GLOBAL_OFFSET_TABLE_, %ebx
.LBB6:
	.loc 8 142 0
	movl	8(%ebp), %eax
	leal	8+_ZTVN14Iw2DSceneGraph6CLabelE@GOTOFF(%ebx), %edx
	movl	%edx, (%eax)
	movl	8(%ebp), %eax
	addl	$140, %eax
	movl	%eax, (%esp)
	call	_ZN4_STL12basic_stringIcNS_11char_traitsIcEENS_9allocatorIcEEED1Ev
	movl	8(%ebp), %eax
	movl	%eax, (%esp)
	call	_ZN14Iw2DSceneGraph9CDrawableD2Ev
.LBE6:
	movl	$0, %eax
	testl	%eax, %eax
	je	.L25
	.loc 8 142 0 is_stmt 0 discriminator 1
	movl	8(%ebp), %eax
	movl	%eax, (%esp)
	call	_ZdlPv@PLT
.L25:
	.loc 8 142 0
	leal	20(%esp), %esp
	popl	%ebx
	.cfi_restore 3
	popl	%ebp
	.cfi_restore 5
	.cfi_def_cfa 4, 4
	ret
	.cfi_endproc
.LFE2448:
	.size	_ZN14Iw2DSceneGraph6CLabelD2Ev, .-_ZN14Iw2DSceneGraph6CLabelD2Ev
	.weak	_ZN14Iw2DSceneGraph6CLabelD1Ev
	.hidden	_ZN14Iw2DSceneGraph6CLabelD1Ev
	.set	_ZN14Iw2DSceneGraph6CLabelD1Ev,_ZN14Iw2DSceneGraph6CLabelD2Ev
	.section	.text._ZN14Iw2DSceneGraph6CLabelD0Ev,"axG",@progbits,_ZN14Iw2DSceneGraph6CLabelD0Ev,comdat
	.align 2
	.weak	_ZN14Iw2DSceneGraph6CLabelD0Ev
	.hidden	_ZN14Iw2DSceneGraph6CLabelD0Ev
	.type	_ZN14Iw2DSceneGraph6CLabelD0Ev, @function
_ZN14Iw2DSceneGraph6CLabelD0Ev:
.LFB2450:
	.loc 8 142 0 is_stmt 1
	.cfi_startproc
	pushl	%ebp
	.cfi_def_cfa_offset 8
	.cfi_offset 5, -8
	movl	%esp, %ebp
	.cfi_def_cfa_register 5
	pushl	%ebx
	leal	-20(%esp), %esp
	.cfi_offset 3, -12
	call	__x86.get_pc_thunk.bx
	addl	$_GLOBAL_OFFSET_TABLE_, %ebx
	.loc 8 142 0
	movl	8(%ebp), %eax
	movl	%eax, (%esp)
	call	_ZN14Iw2DSceneGraph6CLabelD1Ev
	movl	8(%ebp), %eax
	movl	%eax, (%esp)
	call	_ZdlPv@PLT
	leal	20(%esp), %esp
	popl	%ebx
	.cfi_restore 3
	popl	%ebp
	.cfi_restore 5
	.cfi_def_cfa 4, 4
	ret
	.cfi_endproc
.LFE2450:
	.size	_ZN14Iw2DSceneGraph6CLabelD0Ev, .-_ZN14Iw2DSceneGraph6CLabelD0Ev
	.text
	.align 2
	.globl	_ZN14Iw2DSceneGraph6CColorC2Ev
	.hidden	_ZN14Iw2DSceneGraph6CColorC2Ev
	.type	_ZN14Iw2DSceneGraph6CColorC2Ev, @function
_ZN14Iw2DSceneGraph6CColorC2Ev:
.LFB2455:
	.file 9 "c:/marmalade/7.5/modules/iw2dscenegraph/source/Iw2DSceneGraph.cpp"
	.loc 9 33 0
	.cfi_startproc
	pushl	%ebp
	.cfi_def_cfa_offset 8
	.cfi_offset 5, -8
	leal	(%esp), %ebp
	.cfi_def_cfa_register 5
.LBB7:
	.loc 9 35 0
	movl	8(%ebp), %eax
	movb	$-1, 3(%eax)
	movl	8(%ebp), %eax
	movzbl	3(%eax), %edx
	movl	8(%ebp), %eax
	movb	%dl, 2(%eax)
	movl	8(%ebp), %eax
	movzbl	2(%eax), %edx
	movl	8(%ebp), %eax
	movb	%dl, 1(%eax)
	movl	8(%ebp), %eax
	movzbl	1(%eax), %edx
	movl	8(%ebp), %eax
	movb	%dl, (%eax)
.LBE7:
	.loc 9 36 0
	popl	%ebp
	.cfi_restore 5
	.cfi_def_cfa 4, 4
	ret
	.cfi_endproc
.LFE2455:
	.size	_ZN14Iw2DSceneGraph6CColorC2Ev, .-_ZN14Iw2DSceneGraph6CColorC2Ev
	.globl	_ZN14Iw2DSceneGraph6CColorC1Ev
	.hidden	_ZN14Iw2DSceneGraph6CColorC1Ev
	.set	_ZN14Iw2DSceneGraph6CColorC1Ev,_ZN14Iw2DSceneGraph6CColorC2Ev
	.align 2
	.globl	_ZN14Iw2DSceneGraph6CColorC2Ehhhh
	.hidden	_ZN14Iw2DSceneGraph6CColorC2Ehhhh
	.type	_ZN14Iw2DSceneGraph6CColorC2Ehhhh, @function
_ZN14Iw2DSceneGraph6CColorC2Ehhhh:
.LFB2458:
	.loc 9 38 0
	.cfi_startproc
	pushl	%ebp
	.cfi_def_cfa_offset 8
	.cfi_offset 5, -8
	movl	%esp, %ebp
	.cfi_def_cfa_register 5
	pushl	%edi
	pushl	%esi
	leal	-16(%esp), %esp
	.cfi_offset 7, -12
	.cfi_offset 6, -16
	movl	12(%ebp), %esi
	movl	16(%ebp), %ecx
	movl	20(%ebp), %edx
	movl	24(%ebp), %edi
	movl	%esi, %eax
	movb	%al, -12(%ebp)
	movb	%cl, -16(%ebp)
	movb	%dl, -20(%ebp)
	movl	%edi, %eax
	movb	%al, -24(%ebp)
.LBB8:
	.loc 9 40 0
	movl	8(%ebp), %eax
	movzbl	-12(%ebp), %edx
	movb	%dl, (%eax)
	.loc 9 41 0
	movl	8(%ebp), %eax
	movzbl	-16(%ebp), %edx
	movb	%dl, 1(%eax)
	.loc 9 42 0
	movl	8(%ebp), %eax
	movzbl	-20(%ebp), %edx
	movb	%dl, 2(%eax)
	.loc 9 43 0
	movl	8(%ebp), %eax
	movzbl	-24(%ebp), %edx
	movb	%dl, 3(%eax)
.LBE8:
	.loc 9 44 0
	leal	16(%esp), %esp
	popl	%esi
	.cfi_restore 6
	popl	%edi
	.cfi_restore 7
	popl	%ebp
	.cfi_restore 5
	.cfi_def_cfa 4, 4
	ret
	.cfi_endproc
.LFE2458:
	.size	_ZN14Iw2DSceneGraph6CColorC2Ehhhh, .-_ZN14Iw2DSceneGraph6CColorC2Ehhhh
	.globl	_ZN14Iw2DSceneGraph6CColorC1Ehhhh
	.hidden	_ZN14Iw2DSceneGraph6CColorC1Ehhhh
	.set	_ZN14Iw2DSceneGraph6CColorC1Ehhhh,_ZN14Iw2DSceneGraph6CColorC2Ehhhh
	.align 2
	.globl	_ZN14Iw2DSceneGraph6CAtlasC2Ev
	.hidden	_ZN14Iw2DSceneGraph6CAtlasC2Ev
	.type	_ZN14Iw2DSceneGraph6CAtlasC2Ev, @function
_ZN14Iw2DSceneGraph6CAtlasC2Ev:
.LFB2461:
	.loc 9 49 0
	.cfi_startproc
	pushl	%ebp
	.cfi_def_cfa_offset 8
	.cfi_offset 5, -8
	leal	(%esp), %ebp
	.cfi_def_cfa_register 5
	leal	-40(%esp), %esp
.LBB9:
	.loc 9 49 0
	movl	8(%ebp), %eax
	movl	$0, (%eax)
	leal	-9(%ebp), %eax
	movl	%eax, (%esp)
	call	_ZN4_STL9allocatorI7CIwRectEC1Ev
	movl	8(%ebp), %eax
	movl	%eax, %edx
	addl	$4, %edx
	leal	-9(%ebp), %eax
	movl	%eax, 4(%esp)
	movl	%edx, (%esp)
	call	_ZN4_STL6vectorI7CIwRectNS_9allocatorIS1_EEEC1ERKS3_
	leal	-9(%ebp), %eax
	movl	%eax, (%esp)
	call	_ZN4_STL9allocatorI7CIwRectED1Ev
.LBE9:
	.loc 9 51 0
	leave
	.cfi_restore 5
	.cfi_def_cfa 4, 4
	ret
	.cfi_endproc
.LFE2461:
	.size	_ZN14Iw2DSceneGraph6CAtlasC2Ev, .-_ZN14Iw2DSceneGraph6CAtlasC2Ev
	.globl	_ZN14Iw2DSceneGraph6CAtlasC1Ev
	.hidden	_ZN14Iw2DSceneGraph6CAtlasC1Ev
	.set	_ZN14Iw2DSceneGraph6CAtlasC1Ev,_ZN14Iw2DSceneGraph6CAtlasC2Ev
	.align 2
	.globl	_ZN14Iw2DSceneGraph6CAtlasC2EiiiP10CIw2DImage
	.hidden	_ZN14Iw2DSceneGraph6CAtlasC2EiiiP10CIw2DImage
	.type	_ZN14Iw2DSceneGraph6CAtlasC2EiiiP10CIw2DImage, @function
_ZN14Iw2DSceneGraph6CAtlasC2EiiiP10CIw2DImage:
.LFB2464:
	.loc 9 53 0
	.cfi_startproc
	pushl	%ebp
	.cfi_def_cfa_offset 8
	.cfi_offset 5, -8
	movl	%esp, %ebp
	.cfi_def_cfa_register 5
	pushl	%esi
	leal	-68(%esp), %esp
	.cfi_offset 6, -12
.LBB10:
	.loc 9 53 0
	leal	-33(%ebp), %eax
	movl	%eax, (%esp)
	call	_ZN4_STL9allocatorI7CIwRectEC1Ev
	movl	8(%ebp), %eax
	movl	%eax, %edx
	addl	$4, %edx
	leal	-33(%ebp), %eax
	movl	%eax, 4(%esp)
	movl	%edx, (%esp)
	call	_ZN4_STL6vectorI7CIwRectNS_9allocatorIS1_EEEC1ERKS3_
	leal	-33(%ebp), %eax
	movl	%eax, (%esp)
	call	_ZN4_STL9allocatorI7CIwRectED1Ev
.LBB11:
	.loc 9 55 0
	movl	8(%ebp), %eax
	movl	24(%ebp), %edx
	movl	%edx, (%eax)
	.loc 9 56 0
	movl	8(%ebp), %eax
	movl	12(%ebp), %edx
	movl	%edx, 16(%eax)
	.loc 9 57 0
	movl	8(%ebp), %eax
	movl	16(%ebp), %edx
	movl	%edx, 20(%eax)
	.loc 9 60 0
	movl	24(%ebp), %eax
	movl	(%eax), %eax
	movl	(%eax), %eax
	movl	24(%ebp), %edx
	movl	%edx, (%esp)
	call	*%eax
	fstps	-44(%ebp)
	movl	-44(%ebp), %eax
	movd	%eax, %xmm0
	cvttss2si	%xmm0, %eax
	movl	%eax, -24(%ebp)
	.loc 9 61 0
	movl	$0, -12(%ebp)
	movl	$0, -16(%ebp)
.LBB12:
	.loc 9 62 0
	movl	$0, -20(%ebp)
	jmp	.L34
.L36:
	.loc 9 64 0
	movl	16(%ebp), %eax
	movswl	%ax, %esi
	movl	12(%ebp), %eax
	movswl	%ax, %ecx
	movl	-16(%ebp), %eax
	movswl	%ax, %edx
	movl	-12(%ebp), %eax
	cwtl
	movl	%esi, 16(%esp)
	movl	%ecx, 12(%esp)
	movl	%edx, 8(%esp)
	movl	%eax, 4(%esp)
	leal	-32(%ebp), %eax
	movl	%eax, (%esp)
	call	_ZN7CIwRectC1Essss
	movl	8(%ebp), %eax
	movl	%eax, %edx
	addl	$4, %edx
	leal	-32(%ebp), %eax
	movl	%eax, 4(%esp)
	movl	%edx, (%esp)
	call	_ZN4_STL6vectorI7CIwRectNS_9allocatorIS1_EEE9push_backERKS1_
	.loc 9 65 0
	movl	12(%ebp), %eax
	addl	%eax, -12(%ebp)
	.loc 9 66 0
	movl	-12(%ebp), %eax
	cmpl	-24(%ebp), %eax
	jl	.L35
	.loc 9 68 0
	movl	$0, -12(%ebp)
	.loc 9 69 0
	movl	16(%ebp), %eax
	addl	%eax, -16(%ebp)
.L35:
	.loc 9 62 0
	addl	$1, -20(%ebp)
.L34:
	.loc 9 62 0 is_stmt 0 discriminator 1
	movl	-20(%ebp), %eax
	cmpl	20(%ebp), %eax
	jl	.L36
.LBE12:
.LBE11:
.LBE10:
	.loc 9 72 0 is_stmt 1
	leal	68(%esp), %esp
	popl	%esi
	.cfi_restore 6
	popl	%ebp
	.cfi_restore 5
	.cfi_def_cfa 4, 4
	ret
	.cfi_endproc
.LFE2464:
	.size	_ZN14Iw2DSceneGraph6CAtlasC2EiiiP10CIw2DImage, .-_ZN14Iw2DSceneGraph6CAtlasC2EiiiP10CIw2DImage
	.globl	_ZN14Iw2DSceneGraph6CAtlasC1EiiiP10CIw2DImage
	.hidden	_ZN14Iw2DSceneGraph6CAtlasC1EiiiP10CIw2DImage
	.set	_ZN14Iw2DSceneGraph6CAtlasC1EiiiP10CIw2DImage,_ZN14Iw2DSceneGraph6CAtlasC2EiiiP10CIw2DImage
	.align 2
	.globl	_ZN14Iw2DSceneGraph6CAtlas8GetImageEv
	.hidden	_ZN14Iw2DSceneGraph6CAtlas8GetImageEv
	.type	_ZN14Iw2DSceneGraph6CAtlas8GetImageEv, @function
_ZN14Iw2DSceneGraph6CAtlas8GetImageEv:
.LFB2466:
	.loc 9 75 0
	.cfi_startproc
	pushl	%ebp
	.cfi_def_cfa_offset 8
	.cfi_offset 5, -8
	leal	(%esp), %ebp
	.cfi_def_cfa_register 5
	.loc 9 76 0
	movl	8(%ebp), %eax
	movl	(%eax), %eax
	.loc 9 77 0
	popl	%ebp
	.cfi_restore 5
	.cfi_def_cfa 4, 4
	ret
	.cfi_endproc
.LFE2466:
	.size	_ZN14Iw2DSceneGraph6CAtlas8GetImageEv, .-_ZN14Iw2DSceneGraph6CAtlas8GetImageEv
	.align 2
	.globl	_ZNK14Iw2DSceneGraph6CAtlas12GetNumFramesEv
	.hidden	_ZNK14Iw2DSceneGraph6CAtlas12GetNumFramesEv
	.type	_ZNK14Iw2DSceneGraph6CAtlas12GetNumFramesEv, @function
_ZNK14Iw2DSceneGraph6CAtlas12GetNumFramesEv:
.LFB2467:
	.loc 9 80 0
	.cfi_startproc
	pushl	%ebp
	.cfi_def_cfa_offset 8
	.cfi_offset 5, -8
	leal	(%esp), %ebp
	.cfi_def_cfa_register 5
	leal	-24(%esp), %esp
	.loc 9 81 0
	movl	8(%ebp), %eax
	addl	$4, %eax
	movl	%eax, (%esp)
	call	_ZNK4_STL6vectorI7CIwRectNS_9allocatorIS1_EEE4sizeEv
	.loc 9 82 0
	leave
	.cfi_restore 5
	.cfi_def_cfa 4, 4
	ret
	.cfi_endproc
.LFE2467:
	.size	_ZNK14Iw2DSceneGraph6CAtlas12GetNumFramesEv, .-_ZNK14Iw2DSceneGraph6CAtlas12GetNumFramesEv
	.align 2
	.globl	_ZNK14Iw2DSceneGraph6CAtlas13GetFrameWidthEv
	.hidden	_ZNK14Iw2DSceneGraph6CAtlas13GetFrameWidthEv
	.type	_ZNK14Iw2DSceneGraph6CAtlas13GetFrameWidthEv, @function
_ZNK14Iw2DSceneGraph6CAtlas13GetFrameWidthEv:
.LFB2468:
	.loc 9 85 0
	.cfi_startproc
	pushl	%ebp
	.cfi_def_cfa_offset 8
	.cfi_offset 5, -8
	leal	(%esp), %ebp
	.cfi_def_cfa_register 5
	.loc 9 86 0
	movl	8(%ebp), %eax
	movl	16(%eax), %eax
	.loc 9 87 0
	popl	%ebp
	.cfi_restore 5
	.cfi_def_cfa 4, 4
	ret
	.cfi_endproc
.LFE2468:
	.size	_ZNK14Iw2DSceneGraph6CAtlas13GetFrameWidthEv, .-_ZNK14Iw2DSceneGraph6CAtlas13GetFrameWidthEv
	.align 2
	.globl	_ZNK14Iw2DSceneGraph6CAtlas14GetFrameHeightEv
	.hidden	_ZNK14Iw2DSceneGraph6CAtlas14GetFrameHeightEv
	.type	_ZNK14Iw2DSceneGraph6CAtlas14GetFrameHeightEv, @function
_ZNK14Iw2DSceneGraph6CAtlas14GetFrameHeightEv:
.LFB2469:
	.loc 9 90 0
	.cfi_startproc
	pushl	%ebp
	.cfi_def_cfa_offset 8
	.cfi_offset 5, -8
	leal	(%esp), %ebp
	.cfi_def_cfa_register 5
	.loc 9 91 0
	movl	8(%ebp), %eax
	movl	20(%eax), %eax
	.loc 9 92 0
	popl	%ebp
	.cfi_restore 5
	.cfi_def_cfa 4, 4
	ret
	.cfi_endproc
.LFE2469:
	.size	_ZNK14Iw2DSceneGraph6CAtlas14GetFrameHeightEv, .-_ZNK14Iw2DSceneGraph6CAtlas14GetFrameHeightEv
	.align 2
	.globl	_ZNK14Iw2DSceneGraph6CAtlas8GetFrameEi
	.hidden	_ZNK14Iw2DSceneGraph6CAtlas8GetFrameEi
	.type	_ZNK14Iw2DSceneGraph6CAtlas8GetFrameEi, @function
_ZNK14Iw2DSceneGraph6CAtlas8GetFrameEi:
.LFB2470:
	.loc 9 95 0
	.cfi_startproc
	pushl	%ebp
	.cfi_def_cfa_offset 8
	.cfi_offset 5, -8
	leal	(%esp), %ebp
	.cfi_def_cfa_register 5
	leal	-24(%esp), %esp
	.loc 9 96 0
	movl	12(%ebp), %eax
	movl	8(%ebp), %edx
	addl	$4, %edx
	movl	%eax, 4(%esp)
	movl	%edx, (%esp)
	call	_ZNK4_STL6vectorI7CIwRectNS_9allocatorIS1_EEEixEj
	.loc 9 97 0
	leave
	.cfi_restore 5
	.cfi_def_cfa 4, 4
	ret
	.cfi_endproc
.LFE2470:
	.size	_ZNK14Iw2DSceneGraph6CAtlas8GetFrameEi, .-_ZNK14Iw2DSceneGraph6CAtlas8GetFrameEi
	.align 2
	.globl	_ZN14Iw2DSceneGraph9CDrawableC2Ev
	.hidden	_ZN14Iw2DSceneGraph9CDrawableC2Ev
	.type	_ZN14Iw2DSceneGraph9CDrawableC2Ev, @function
_ZN14Iw2DSceneGraph9CDrawableC2Ev:
.LFB2472:
	.loc 9 102 0
	.cfi_startproc
	pushl	%ebp
	.cfi_def_cfa_offset 8
	.cfi_offset 5, -8
	movl	%esp, %ebp
	.cfi_def_cfa_register 5
	pushl	%ebx
	leal	-20(%esp), %esp
	.cfi_offset 3, -12
	call	__x86.get_pc_thunk.bx
	addl	$_GLOBAL_OFFSET_TABLE_, %ebx
.LBB13:
	.loc 9 102 0
	movl	8(%ebp), %eax
	movl	%eax, (%esp)
	call	_ZN18Iw2DSceneGraphCore5CNodeC2Ev@PLT
	movl	8(%ebp), %eax
	leal	8+_ZTVN14Iw2DSceneGraph9CDrawableE@GOTOFF(%ebx), %edx
	movl	%edx, (%eax)
	movl	8(%ebp), %eax
	addl	$116, %eax
	movl	%eax, (%esp)
	call	_ZN14Iw2DSceneGraph6CColorC1Ev
	movl	8(%ebp), %eax
	addl	$120, %eax
	movl	%eax, (%esp)
	call	_ZN14Iw2DSceneGraph6CColorC1Ev
	.loc 9 104 0
	movl	8(%ebp), %eax
	movb	$0, 124(%eax)
	.loc 9 105 0
	movl	8(%ebp), %eax
	leal	120(%eax), %eax
	movl	$-8355712, (%eax)
.LBE13:
	.loc 9 106 0
	leal	20(%esp), %esp
	popl	%ebx
	.cfi_restore 3
	popl	%ebp
	.cfi_restore 5
	.cfi_def_cfa 4, 4
	ret
	.cfi_endproc
.LFE2472:
	.size	_ZN14Iw2DSceneGraph9CDrawableC2Ev, .-_ZN14Iw2DSceneGraph9CDrawableC2Ev
	.globl	_ZN14Iw2DSceneGraph9CDrawableC1Ev
	.hidden	_ZN14Iw2DSceneGraph9CDrawableC1Ev
	.set	_ZN14Iw2DSceneGraph9CDrawableC1Ev,_ZN14Iw2DSceneGraph9CDrawableC2Ev
	.align 2
	.globl	_ZN14Iw2DSceneGraph9CDrawable9PreRenderEv
	.hidden	_ZN14Iw2DSceneGraph9CDrawable9PreRenderEv
	.type	_ZN14Iw2DSceneGraph9CDrawable9PreRenderEv, @function
_ZN14Iw2DSceneGraph9CDrawable9PreRenderEv:
.LFB2474:
	.loc 9 109 0
	.cfi_startproc
	pushl	%ebp
	.cfi_def_cfa_offset 8
	.cfi_offset 5, -8
	movl	%esp, %ebp
	.cfi_def_cfa_register 5
	pushl	%ebx
	leal	-36(%esp), %esp
	.cfi_offset 3, -12
	call	__x86.get_pc_thunk.bx
	addl	$_GLOBAL_OFFSET_TABLE_, %ebx
.LBB14:
	.loc 9 111 0
	movl	8(%ebp), %eax
	addl	$92, %eax
	movl	%eax, (%esp)
	call	_Z22Iw2DSetTransformMatrixRK9CIwFMat2D@PLT
	.loc 9 114 0
	movl	8(%ebp), %eax
	movzbl	119(%eax), %eax
	movzbl	%al, %eax
	cvtsi2ss	%eax, %xmm0
	movl	8(%ebp), %eax
	movl	40(%eax), %eax
	movd	%eax, %xmm1
	mulss	%xmm0, %xmm1
	movd	%xmm1, %eax
	movd	%eax, %xmm2
	cvttss2si	%xmm2, %eax
	movb	%al, -9(%ebp)
	.loc 9 115 0
	movl	8(%ebp), %eax
	leal	116(%eax), %eax
	movl	(%eax), %eax
	andl	$16777215, %eax
	movl	%eax, %edx
	movzbl	-9(%ebp), %eax
	sall	$24, %eax
	addl	%edx, %eax
	movl	%eax, (%esp)
	call	_Z13Iw2DSetColourj@PLT
.LBE14:
	.loc 9 116 0
	leal	36(%esp), %esp
	popl	%ebx
	.cfi_restore 3
	popl	%ebp
	.cfi_restore 5
	.cfi_def_cfa 4, 4
	ret
	.cfi_endproc
.LFE2474:
	.size	_ZN14Iw2DSceneGraph9CDrawable9PreRenderEv, .-_ZN14Iw2DSceneGraph9CDrawable9PreRenderEv
	.align 2
	.globl	_ZN14Iw2DSceneGraph9CDrawable6UpdateEff
	.hidden	_ZN14Iw2DSceneGraph9CDrawable6UpdateEff
	.type	_ZN14Iw2DSceneGraph9CDrawable6UpdateEff, @function
_ZN14Iw2DSceneGraph9CDrawable6UpdateEff:
.LFB2475:
	.loc 9 119 0
	.cfi_startproc
	pushl	%ebp
	.cfi_def_cfa_offset 8
	.cfi_offset 5, -8
	movl	%esp, %ebp
	.cfi_def_cfa_register 5
	pushl	%ebx
	leal	-20(%esp), %esp
	.cfi_offset 3, -12
	call	__x86.get_pc_thunk.bx
	addl	$_GLOBAL_OFFSET_TABLE_, %ebx
	.loc 9 125 0
	movl	8(%ebp), %edx
	movl	16(%ebp), %eax
	movl	%eax, 8(%esp)
	movl	12(%ebp), %eax
	movl	%eax, 4(%esp)
	movl	%edx, (%esp)
	call	_ZN18Iw2DSceneGraphCore5CNode6UpdateEff@PLT
	.loc 9 126 0
	leal	20(%esp), %esp
	popl	%ebx
	.cfi_restore 3
	popl	%ebp
	.cfi_restore 5
	.cfi_def_cfa 4, 4
	ret
	.cfi_endproc
.LFE2475:
	.size	_ZN14Iw2DSceneGraph9CDrawable6UpdateEff, .-_ZN14Iw2DSceneGraph9CDrawable6UpdateEff
	.align 2
	.globl	_ZN14Iw2DSceneGraph9CDrawable6RenderEv
	.hidden	_ZN14Iw2DSceneGraph9CDrawable6RenderEv
	.type	_ZN14Iw2DSceneGraph9CDrawable6RenderEv, @function
_ZN14Iw2DSceneGraph9CDrawable6RenderEv:
.LFB2476:
	.loc 9 129 0
	.cfi_startproc
	pushl	%ebp
	.cfi_def_cfa_offset 8
	.cfi_offset 5, -8
	movl	%esp, %ebp
	.cfi_def_cfa_register 5
	pushl	%ebx
	leal	-36(%esp), %esp
	.cfi_offset 3, -12
	call	__x86.get_pc_thunk.bx
	addl	$_GLOBAL_OFFSET_TABLE_, %ebx
	.loc 9 130 0
	movl	8(%ebp), %eax
	movzbl	124(%eax), %eax
	testb	%al, %al
	je	.L51
	.loc 9 132 0
	movl	8(%ebp), %eax
	leal	120(%eax), %eax
	movl	(%eax), %eax
	movl	%eax, (%esp)
	call	_Z13Iw2DSetColourj@PLT
	.loc 9 133 0
	movl	8(%ebp), %eax
	movl	16(%eax), %edx
	movl	8(%ebp), %eax
	movl	12(%eax), %eax
	movl	%edx, 8(%esp)
	movl	%eax, 4(%esp)
	leal	-16(%ebp), %eax
	movl	%eax, (%esp)
	call	_ZN8CIwFVec2C1Eff
	movl	-16(%ebp), %eax
	movl	-12(%ebp), %edx
	movl	%eax, 8(%esp)
	movl	%edx, 12(%esp)
	movl	_ZN8CIwFVec26g_ZeroE@GOT(%ebx), %eax
	movl	4(%eax), %edx
	movl	(%eax), %eax
	movl	%eax, (%esp)
	movl	%edx, 4(%esp)
	call	_Z12Iw2DDrawRect8CIwFVec2S_@PLT
.L51:
	.loc 9 136 0
	movl	8(%ebp), %eax
	movl	%eax, (%esp)
	call	_ZN18Iw2DSceneGraphCore5CNode6RenderEv@PLT
	.loc 9 137 0
	leal	36(%esp), %esp
	popl	%ebx
	.cfi_restore 3
	popl	%ebp
	.cfi_restore 5
	.cfi_def_cfa 4, 4
	ret
	.cfi_endproc
.LFE2476:
	.size	_ZN14Iw2DSceneGraph9CDrawable6RenderEv, .-_ZN14Iw2DSceneGraph9CDrawable6RenderEv
	.align 2
	.globl	_ZN14Iw2DSceneGraph7CSpriteC2Ev
	.hidden	_ZN14Iw2DSceneGraph7CSpriteC2Ev
	.type	_ZN14Iw2DSceneGraph7CSpriteC2Ev, @function
_ZN14Iw2DSceneGraph7CSpriteC2Ev:
.LFB2478:
	.loc 9 142 0
	.cfi_startproc
	pushl	%ebp
	.cfi_def_cfa_offset 8
	.cfi_offset 5, -8
	movl	%esp, %ebp
	.cfi_def_cfa_register 5
	pushl	%ebx
	leal	-20(%esp), %esp
	.cfi_offset 3, -12
	call	__x86.get_pc_thunk.bx
	addl	$_GLOBAL_OFFSET_TABLE_, %ebx
.LBB15:
	.loc 9 142 0
	movl	8(%ebp), %eax
	movl	%eax, (%esp)
	call	_ZN14Iw2DSceneGraph9CDrawableC2Ev
	movl	8(%ebp), %eax
	leal	8+_ZTVN14Iw2DSceneGraph7CSpriteE@GOTOFF(%ebx), %edx
	movl	%edx, (%eax)
	.loc 9 144 0
	movl	8(%ebp), %eax
	movl	$0, 128(%eax)
	.loc 9 145 0
	movl	8(%ebp), %eax
	movl	$0, 132(%eax)
	.loc 9 146 0
	movl	8(%ebp), %edx
	movl	.LC0@GOTOFF(%ebx), %eax
	movl	%eax, 136(%edx)
	.loc 9 147 0
	movl	8(%ebp), %eax
	movl	$-1, 144(%eax)
	.loc 9 150 0
	movl	8(%ebp), %eax
	leal	120(%eax), %eax
	movl	$-16776961, (%eax)
.LBE15:
	.loc 9 151 0
	leal	20(%esp), %esp
	popl	%ebx
	.cfi_restore 3
	popl	%ebp
	.cfi_restore 5
	.cfi_def_cfa 4, 4
	ret
	.cfi_endproc
.LFE2478:
	.size	_ZN14Iw2DSceneGraph7CSpriteC2Ev, .-_ZN14Iw2DSceneGraph7CSpriteC2Ev
	.globl	_ZN14Iw2DSceneGraph7CSpriteC1Ev
	.hidden	_ZN14Iw2DSceneGraph7CSpriteC1Ev
	.set	_ZN14Iw2DSceneGraph7CSpriteC1Ev,_ZN14Iw2DSceneGraph7CSpriteC2Ev
	.align 2
	.globl	_ZN14Iw2DSceneGraph7CSprite8SetImageEP10CIw2DImage
	.hidden	_ZN14Iw2DSceneGraph7CSprite8SetImageEP10CIw2DImage
	.type	_ZN14Iw2DSceneGraph7CSprite8SetImageEP10CIw2DImage, @function
_ZN14Iw2DSceneGraph7CSprite8SetImageEP10CIw2DImage:
.LFB2480:
	.loc 9 154 0
	.cfi_startproc
	pushl	%ebp
	.cfi_def_cfa_offset 8
	.cfi_offset 5, -8
	leal	(%esp), %ebp
	.cfi_def_cfa_register 5
	leal	-24(%esp), %esp
	.loc 9 155 0
	movl	8(%ebp), %eax
	movl	12(%ebp), %edx
	movl	%edx, 128(%eax)
	.loc 9 156 0
	movl	12(%ebp), %eax
	movl	(%eax), %eax
	movl	(%eax), %eax
	movl	12(%ebp), %edx
	movl	%edx, (%esp)
	call	*%eax
	fstps	-12(%ebp)
	movl	-12(%ebp), %eax
	movl	8(%ebp), %edx
	movl	%eax, 12(%edx)
	.loc 9 157 0
	movl	12(%ebp), %eax
	movl	(%eax), %eax
	leal	4(%eax), %eax
	movl	(%eax), %eax
	movl	12(%ebp), %edx
	movl	%edx, (%esp)
	call	*%eax
	fstps	-12(%ebp)
	movl	-12(%ebp), %eax
	movl	8(%ebp), %edx
	movl	%eax, 16(%edx)
	.loc 9 158 0
	leave
	.cfi_restore 5
	.cfi_def_cfa 4, 4
	ret
	.cfi_endproc
.LFE2480:
	.size	_ZN14Iw2DSceneGraph7CSprite8SetImageEP10CIw2DImage, .-_ZN14Iw2DSceneGraph7CSprite8SetImageEP10CIw2DImage
	.align 2
	.globl	_ZN14Iw2DSceneGraph7CSprite8GetImageEv
	.hidden	_ZN14Iw2DSceneGraph7CSprite8GetImageEv
	.type	_ZN14Iw2DSceneGraph7CSprite8GetImageEv, @function
_ZN14Iw2DSceneGraph7CSprite8GetImageEv:
.LFB2481:
	.loc 9 161 0
	.cfi_startproc
	pushl	%ebp
	.cfi_def_cfa_offset 8
	.cfi_offset 5, -8
	leal	(%esp), %ebp
	.cfi_def_cfa_register 5
	.loc 9 162 0
	movl	8(%ebp), %eax
	movl	128(%eax), %eax
	.loc 9 163 0
	popl	%ebp
	.cfi_restore 5
	.cfi_def_cfa 4, 4
	ret
	.cfi_endproc
.LFE2481:
	.size	_ZN14Iw2DSceneGraph7CSprite8GetImageEv, .-_ZN14Iw2DSceneGraph7CSprite8GetImageEv
	.align 2
	.globl	_ZN14Iw2DSceneGraph7CSprite8SetAtlasEPNS_6CAtlasE
	.hidden	_ZN14Iw2DSceneGraph7CSprite8SetAtlasEPNS_6CAtlasE
	.type	_ZN14Iw2DSceneGraph7CSprite8SetAtlasEPNS_6CAtlasE, @function
_ZN14Iw2DSceneGraph7CSprite8SetAtlasEPNS_6CAtlasE:
.LFB2482:
	.loc 9 166 0
	.cfi_startproc
	pushl	%ebp
	.cfi_def_cfa_offset 8
	.cfi_offset 5, -8
	movl	%esp, %ebp
	.cfi_def_cfa_register 5
	pushl	%ebx
	leal	-4(%esp), %esp
	.cfi_offset 3, -12
	call	__x86.get_pc_thunk.bx
	addl	$_GLOBAL_OFFSET_TABLE_, %ebx
	.loc 9 167 0
	movl	8(%ebp), %eax
	movl	12(%ebp), %edx
	movl	%edx, 132(%eax)
	.loc 9 168 0
	movl	12(%ebp), %eax
	movl	%eax, (%esp)
	call	_ZN14Iw2DSceneGraph6CAtlas8GetImageEv
	movl	8(%ebp), %edx
	movl	%eax, 128(%edx)
	.loc 9 169 0
	movl	8(%ebp), %edx
	movl	.LC0@GOTOFF(%ebx), %eax
	movl	%eax, 136(%edx)
	.loc 9 170 0
	leal	4(%esp), %esp
	popl	%ebx
	.cfi_restore 3
	popl	%ebp
	.cfi_restore 5
	.cfi_def_cfa 4, 4
	ret
	.cfi_endproc
.LFE2482:
	.size	_ZN14Iw2DSceneGraph7CSprite8SetAtlasEPNS_6CAtlasE, .-_ZN14Iw2DSceneGraph7CSprite8SetAtlasEPNS_6CAtlasE
	.align 2
	.globl	_ZN14Iw2DSceneGraph7CSprite8GetAtlasEv
	.hidden	_ZN14Iw2DSceneGraph7CSprite8GetAtlasEv
	.type	_ZN14Iw2DSceneGraph7CSprite8GetAtlasEv, @function
_ZN14Iw2DSceneGraph7CSprite8GetAtlasEv:
.LFB2483:
	.loc 9 173 0
	.cfi_startproc
	pushl	%ebp
	.cfi_def_cfa_offset 8
	.cfi_offset 5, -8
	leal	(%esp), %ebp
	.cfi_def_cfa_register 5
	.loc 9 174 0
	movl	8(%ebp), %eax
	movl	132(%eax), %eax
	.loc 9 175 0
	popl	%ebp
	.cfi_restore 5
	.cfi_def_cfa 4, 4
	ret
	.cfi_endproc
.LFE2483:
	.size	_ZN14Iw2DSceneGraph7CSprite8GetAtlasEv, .-_ZN14Iw2DSceneGraph7CSprite8GetAtlasEv
	.align 2
	.globl	_ZN14Iw2DSceneGraph7CSprite15SetAnimDurationEf
	.hidden	_ZN14Iw2DSceneGraph7CSprite15SetAnimDurationEf
	.type	_ZN14Iw2DSceneGraph7CSprite15SetAnimDurationEf, @function
_ZN14Iw2DSceneGraph7CSprite15SetAnimDurationEf:
.LFB2484:
	.loc 9 178 0
	.cfi_startproc
	pushl	%ebp
	.cfi_def_cfa_offset 8
	.cfi_offset 5, -8
	leal	(%esp), %ebp
	.cfi_def_cfa_register 5
	call	__x86.get_pc_thunk.cx
	addl	$_GLOBAL_OFFSET_TABLE_, %ecx
	.loc 9 179 0
	movl	8(%ebp), %edx
	movl	12(%ebp), %eax
	movl	%eax, 140(%edx)
	.loc 9 180 0
	movl	8(%ebp), %edx
	movl	.LC0@GOTOFF(%ecx), %eax
	movl	%eax, 136(%edx)
	.loc 9 181 0
	popl	%ebp
	.cfi_restore 5
	.cfi_def_cfa 4, 4
	ret
	.cfi_endproc
.LFE2484:
	.size	_ZN14Iw2DSceneGraph7CSprite15SetAnimDurationEf, .-_ZN14Iw2DSceneGraph7CSprite15SetAnimDurationEf
	.align 2
	.globl	_ZN14Iw2DSceneGraph7CSprite13SetAnimRepeatEi
	.hidden	_ZN14Iw2DSceneGraph7CSprite13SetAnimRepeatEi
	.type	_ZN14Iw2DSceneGraph7CSprite13SetAnimRepeatEi, @function
_ZN14Iw2DSceneGraph7CSprite13SetAnimRepeatEi:
.LFB2485:
	.loc 9 184 0
	.cfi_startproc
	pushl	%ebp
	.cfi_def_cfa_offset 8
	.cfi_offset 5, -8
	leal	(%esp), %ebp
	.cfi_def_cfa_register 5
	.loc 9 185 0
	movl	8(%ebp), %eax
	movl	12(%ebp), %edx
	movl	%edx, 144(%eax)
	.loc 9 186 0
	popl	%ebp
	.cfi_restore 5
	.cfi_def_cfa 4, 4
	ret
	.cfi_endproc
.LFE2485:
	.size	_ZN14Iw2DSceneGraph7CSprite13SetAnimRepeatEi, .-_ZN14Iw2DSceneGraph7CSprite13SetAnimRepeatEi
	.align 2
	.globl	_ZN14Iw2DSceneGraph7CSprite6UpdateEff
	.hidden	_ZN14Iw2DSceneGraph7CSprite6UpdateEff
	.type	_ZN14Iw2DSceneGraph7CSprite6UpdateEff, @function
_ZN14Iw2DSceneGraph7CSprite6UpdateEff:
.LFB2486:
	.loc 9 189 0
	.cfi_startproc
	pushl	%ebp
	.cfi_def_cfa_offset 8
	.cfi_offset 5, -8
	leal	(%esp), %ebp
	.cfi_def_cfa_register 5
	leal	-24(%esp), %esp
	.loc 9 190 0
	movl	8(%ebp), %eax
	movl	132(%eax), %eax
	testl	%eax, %eax
	je	.L62
	.loc 9 190 0 is_stmt 0 discriminator 1
	movl	8(%ebp), %eax
	movl	144(%eax), %eax
	testl	%eax, %eax
	je	.L62
	.loc 9 192 0 is_stmt 1
	movl	8(%ebp), %eax
	movl	136(%eax), %eax
	movd	%eax, %xmm0
	addss	12(%ebp), %xmm0
	movd	%xmm0, %eax
	movl	8(%ebp), %edx
	movl	%eax, 136(%edx)
	.loc 9 193 0
	movl	8(%ebp), %eax
	movl	136(%eax), %eax
	movl	8(%ebp), %edx
	movl	140(%edx), %edx
	movd	%eax, %xmm2
	movd	%edx, %xmm3
	ucomiss	%xmm3, %xmm2
	jb	.L62
	.loc 9 195 0
	movl	8(%ebp), %eax
	movl	144(%eax), %eax
	testl	%eax, %eax
	jle	.L64
	.loc 9 196 0
	movl	8(%ebp), %eax
	movl	144(%eax), %eax
	movl	%eax, %edx
	subl	$1, %edx
	movl	8(%ebp), %eax
	movl	%edx, 144(%eax)
.L64:
	.loc 9 197 0
	jmp	.L65
.L66:
	.loc 9 198 0
	movl	8(%ebp), %eax
	movl	136(%eax), %eax
	movl	8(%ebp), %edx
	movl	140(%edx), %edx
	movd	%eax, %xmm1
	movd	%edx, %xmm4
	subss	%xmm4, %xmm1
	movd	%xmm1, %eax
	movl	8(%ebp), %edx
	movl	%eax, 136(%edx)
.L65:
	.loc 9 197 0 discriminator 1
	movl	8(%ebp), %eax
	movl	136(%eax), %eax
	movl	8(%ebp), %edx
	movl	140(%edx), %edx
	movd	%eax, %xmm5
	movd	%edx, %xmm6
	ucomiss	%xmm6, %xmm5
	jae	.L66
.L62:
	.loc 9 202 0
	movl	8(%ebp), %edx
	movl	16(%ebp), %eax
	movl	%eax, 8(%esp)
	movl	12(%ebp), %eax
	movl	%eax, 4(%esp)
	movl	%edx, (%esp)
	call	_ZN14Iw2DSceneGraph9CDrawable6UpdateEff
	.loc 9 203 0
	leave
	.cfi_restore 5
	.cfi_def_cfa 4, 4
	ret
	.cfi_endproc
.LFE2486:
	.size	_ZN14Iw2DSceneGraph7CSprite6UpdateEff, .-_ZN14Iw2DSceneGraph7CSprite6UpdateEff
	.align 2
	.globl	_ZN14Iw2DSceneGraph7CSprite6RenderEv
	.hidden	_ZN14Iw2DSceneGraph7CSprite6RenderEv
	.type	_ZN14Iw2DSceneGraph7CSprite6RenderEv, @function
_ZN14Iw2DSceneGraph7CSprite6RenderEv:
.LFB2487:
	.loc 9 206 0
	.cfi_startproc
	pushl	%ebp
	.cfi_def_cfa_offset 8
	.cfi_offset 5, -8
	movl	%esp, %ebp
	.cfi_def_cfa_register 5
	pushl	%esi
	pushl	%ebx
	leal	-64(%esp), %esp
	.cfi_offset 6, -12
	.cfi_offset 3, -16
	call	__x86.get_pc_thunk.bx
	addl	$_GLOBAL_OFFSET_TABLE_, %ebx
.LBB16:
	.loc 9 207 0
	movl	8(%ebp), %eax
	movzbl	44(%eax), %eax
	xorl	$1, %eax
	testb	%al, %al
	je	.L69
	.loc 9 208 0
	jmp	.L68
.L69:
	.loc 9 210 0
	movl	8(%ebp), %eax
	movl	(%eax), %eax
	leal	16(%eax), %eax
	movl	(%eax), %eax
	movl	8(%ebp), %edx
	movl	%edx, (%esp)
	call	*%eax
.LBB17:
	.loc 9 211 0
	movl	8(%ebp), %eax
	movl	132(%eax), %eax
	testl	%eax, %eax
	je	.L71
.LBB18:
	.loc 9 213 0
	movl	8(%ebp), %eax
	movl	136(%eax), %esi
	movl	8(%ebp), %eax
	movl	132(%eax), %eax
	movl	%eax, (%esp)
	call	_ZNK14Iw2DSceneGraph6CAtlas12GetNumFramesEv
	cvtsi2ss	%eax, %xmm0
	movd	%esi, %xmm1
	mulss	%xmm0, %xmm1
	movd	%xmm1, %eax
	movl	8(%ebp), %edx
	movl	140(%edx), %edx
	movd	%eax, %xmm2
	movd	%edx, %xmm3
	divss	%xmm3, %xmm2
	movd	%xmm2, %eax
	movd	%eax, %xmm4
	cvttss2si	%xmm4, %eax
	movl	%eax, -12(%ebp)
	.loc 9 214 0
	movl	8(%ebp), %eax
	movl	132(%eax), %eax
	movl	-12(%ebp), %edx
	movl	%edx, 4(%esp)
	movl	%eax, (%esp)
	call	_ZNK14Iw2DSceneGraph6CAtlas8GetFrameEi
	movl	%eax, -16(%ebp)
	.loc 9 215 0
	movl	-16(%ebp), %eax
	movzwl	4(%eax), %eax
	cwtl
	cvtsi2ss	%eax, %xmm5
	movd	%xmm5, %eax
	movl	8(%ebp), %edx
	movl	%eax, 12(%edx)
	.loc 9 216 0
	movl	-16(%ebp), %eax
	movzwl	6(%eax), %eax
	cwtl
	cvtsi2ss	%eax, %xmm6
	movd	%xmm6, %eax
	movl	8(%ebp), %edx
	movl	%eax, 16(%edx)
	.loc 9 217 0
	movl	-16(%ebp), %eax
	movzwl	6(%eax), %eax
	cwtl
	cvtsi2ss	%eax, %xmm7
	movd	%xmm7, %edx
	movl	-16(%ebp), %eax
	movzwl	4(%eax), %eax
	cwtl
	cvtsi2ss	%eax, %xmm0
	movd	%xmm0, %eax
	movl	%edx, 8(%esp)
	movl	%eax, 4(%esp)
	leal	-40(%ebp), %eax
	movl	%eax, (%esp)
	call	_ZN8CIwFVec2C1Eff
	movl	-16(%ebp), %eax
	movzwl	2(%eax), %eax
	cwtl
	cvtsi2ss	%eax, %xmm3
	movd	%xmm3, %edx
	movl	-16(%ebp), %eax
	movzwl	(%eax), %eax
	cwtl
	cvtsi2ss	%eax, %xmm4
	movd	%xmm4, %eax
	movl	%edx, 8(%esp)
	movl	%eax, 4(%esp)
	leal	-32(%ebp), %eax
	movl	%eax, (%esp)
	call	_ZN8CIwFVec2C1Eff
	movl	.LC0@GOTOFF(%ebx), %eax
	movl	%eax, 8(%esp)
	movl	.LC0@GOTOFF(%ebx), %eax
	movl	%eax, 4(%esp)
	leal	-24(%ebp), %eax
	movl	%eax, (%esp)
	call	_ZN8CIwFVec2C1Eff
	movl	8(%ebp), %eax
	movl	128(%eax), %ecx
	movl	-40(%ebp), %eax
	movl	-36(%ebp), %edx
	movl	%eax, 20(%esp)
	movl	%edx, 24(%esp)
	movl	-32(%ebp), %eax
	movl	-28(%ebp), %edx
	movl	%eax, 12(%esp)
	movl	%edx, 16(%esp)
	movl	-24(%ebp), %eax
	movl	-20(%ebp), %edx
	movl	%eax, 4(%esp)
	movl	%edx, 8(%esp)
	movl	%ecx, (%esp)
	call	_Z19Iw2DDrawImageRegionP10CIw2DImage8CIwFVec2S1_S1_@PLT
.LBE18:
	jmp	.L72
.L71:
	.loc 9 220 0
	movl	8(%ebp), %eax
	movl	128(%eax), %eax
	testl	%eax, %eax
	je	.L72
	.loc 9 221 0
	movl	8(%ebp), %eax
	movl	128(%eax), %ecx
	movl	_ZN8CIwFVec26g_ZeroE@GOT(%ebx), %eax
	movl	4(%eax), %edx
	movl	(%eax), %eax
	movl	%eax, 4(%esp)
	movl	%edx, 8(%esp)
	movl	%ecx, (%esp)
	call	_Z13Iw2DDrawImageP10CIw2DImage8CIwFVec2@PLT
.L72:
.LBE17:
	.loc 9 224 0
	movl	8(%ebp), %eax
	movl	%eax, (%esp)
	call	_ZN14Iw2DSceneGraph9CDrawable6RenderEv
.L68:
.LBE16:
	.loc 9 225 0
	leal	64(%esp), %esp
	popl	%ebx
	.cfi_restore 3
	popl	%esi
	.cfi_restore 6
	popl	%ebp
	.cfi_restore 5
	.cfi_def_cfa 4, 4
	ret
	.cfi_endproc
.LFE2487:
	.size	_ZN14Iw2DSceneGraph7CSprite6RenderEv, .-_ZN14Iw2DSceneGraph7CSprite6RenderEv
	.section	.rodata
.LC1:
	.string	""
	.text
	.align 2
	.globl	_ZN14Iw2DSceneGraph6CLabelC2Ev
	.hidden	_ZN14Iw2DSceneGraph6CLabelC2Ev
	.type	_ZN14Iw2DSceneGraph6CLabelC2Ev, @function
_ZN14Iw2DSceneGraph6CLabelC2Ev:
.LFB2489:
	.loc 9 230 0
	.cfi_startproc
	pushl	%ebp
	.cfi_def_cfa_offset 8
	.cfi_offset 5, -8
	movl	%esp, %ebp
	.cfi_def_cfa_register 5
	pushl	%ebx
	leal	-20(%esp), %esp
	.cfi_offset 3, -12
	call	__x86.get_pc_thunk.bx
	addl	$_GLOBAL_OFFSET_TABLE_, %ebx
.LBB19:
	.loc 9 230 0
	movl	8(%ebp), %eax
	movl	%eax, (%esp)
	call	_ZN14Iw2DSceneGraph9CDrawableC2Ev
	movl	8(%ebp), %eax
	leal	8+_ZTVN14Iw2DSceneGraph6CLabelE@GOTOFF(%ebx), %edx
	movl	%edx, (%eax)
	movl	8(%ebp), %eax
	addl	$140, %eax
	movl	%eax, (%esp)
	call	_ZN4_STL12basic_stringIcNS_11char_traitsIcEENS_9allocatorIcEEEC1Ev
	.loc 9 232 0
	movl	8(%ebp), %eax
	movl	$0, 128(%eax)
	.loc 9 233 0
	movl	8(%ebp), %eax
	movl	%eax, %edx
	addl	$140, %edx
	leal	.LC1@GOTOFF(%ebx), %eax
	movl	%eax, 4(%esp)
	movl	%edx, (%esp)
	call	_ZN4_STL12basic_stringIcNS_11char_traitsIcEENS_9allocatorIcEEEaSEPKc
	.loc 9 234 0
	movl	8(%ebp), %eax
	movl	$0, 132(%eax)
	.loc 9 235 0
	movl	8(%ebp), %eax
	movl	$0, 136(%eax)
	.loc 9 238 0
	movl	8(%ebp), %eax
	leal	120(%eax), %eax
	movl	$-16711936, (%eax)
.LBE19:
	.loc 9 239 0
	leal	20(%esp), %esp
	popl	%ebx
	.cfi_restore 3
	popl	%ebp
	.cfi_restore 5
	.cfi_def_cfa 4, 4
	ret
	.cfi_endproc
.LFE2489:
	.size	_ZN14Iw2DSceneGraph6CLabelC2Ev, .-_ZN14Iw2DSceneGraph6CLabelC2Ev
	.globl	_ZN14Iw2DSceneGraph6CLabelC1Ev
	.hidden	_ZN14Iw2DSceneGraph6CLabelC1Ev
	.set	_ZN14Iw2DSceneGraph6CLabelC1Ev,_ZN14Iw2DSceneGraph6CLabelC2Ev
	.align 2
	.globl	_ZN14Iw2DSceneGraph6CLabel6RenderEv
	.hidden	_ZN14Iw2DSceneGraph6CLabel6RenderEv
	.type	_ZN14Iw2DSceneGraph6CLabel6RenderEv, @function
_ZN14Iw2DSceneGraph6CLabel6RenderEv:
.LFB2491:
	.loc 9 242 0
	.cfi_startproc
	pushl	%ebp
	.cfi_def_cfa_offset 8
	.cfi_offset 5, -8
	movl	%esp, %ebp
	.cfi_def_cfa_register 5
	pushl	%edi
	pushl	%esi
	pushl	%ebx
	leal	-60(%esp), %esp
	.cfi_offset 7, -12
	.cfi_offset 6, -16
	.cfi_offset 3, -20
	call	__x86.get_pc_thunk.bx
	addl	$_GLOBAL_OFFSET_TABLE_, %ebx
	.loc 9 243 0
	movl	8(%ebp), %eax
	movzbl	44(%eax), %eax
	xorl	$1, %eax
	testb	%al, %al
	je	.L75
	.loc 9 244 0
	jmp	.L74
.L75:
	.loc 9 246 0
	movl	8(%ebp), %eax
	movl	128(%eax), %eax
	testl	%eax, %eax
	je	.L77
	.loc 9 246 0 is_stmt 0 discriminator 1
	movl	8(%ebp), %eax
	addl	$140, %eax
	movl	%eax, (%esp)
	call	_ZNK4_STL12basic_stringIcNS_11char_traitsIcEENS_9allocatorIcEEE4sizeEv
	testl	%eax, %eax
	je	.L77
	.loc 9 246 0 discriminator 3
	movl	$1, %eax
	jmp	.L78
.L77:
	.loc 9 246 0 discriminator 2
	movl	$0, %eax
.L78:
	.loc 9 246 0 discriminator 4
	testb	%al, %al
	je	.L79
	.loc 9 248 0 is_stmt 1
	movl	8(%ebp), %eax
	movl	128(%eax), %eax
	movl	%eax, (%esp)
	call	_Z11Iw2DSetFontP9CIw2DFont@PLT
	.loc 9 251 0
	movl	8(%ebp), %eax
	movl	12(%eax), %eax
	movl	.LC0@GOTOFF(%ebx), %edx
	movd	%eax, %xmm0
	movd	%edx, %xmm1
	ucomiss	%xmm1, %xmm0
	jp	.L80
	movl	.LC0@GOTOFF(%ebx), %edx
	movd	%eax, %xmm2
	movd	%edx, %xmm3
	ucomiss	%xmm3, %xmm2
	jne	.L80
	.loc 9 252 0
	movl	8(%ebp), %eax
	addl	$140, %eax
	movl	%eax, (%esp)
	call	_ZNK4_STL12basic_stringIcNS_11char_traitsIcEENS_9allocatorIcEEE5c_strEv
	movl	%eax, (%esp)
	call	_Z18Iw2DGetStringWidthPKc@PLT
	cvtsi2ss	%eax, %xmm4
	movd	%xmm4, %eax
	movl	8(%ebp), %edx
	movl	%eax, 12(%edx)
.L80:
	.loc 9 255 0
	movl	8(%ebp), %eax
	movl	16(%eax), %eax
	movl	.LC0@GOTOFF(%ebx), %edx
	movd	%eax, %xmm5
	movd	%edx, %xmm6
	ucomiss	%xmm6, %xmm5
	jp	.L82
	movl	.LC0@GOTOFF(%ebx), %edx
	movd	%eax, %xmm7
	movd	%edx, %xmm0
	ucomiss	%xmm0, %xmm7
	jne	.L82
	.loc 9 256 0
	movl	8(%ebp), %eax
	movl	128(%eax), %eax
	movl	(%eax), %eax
	movl	(%eax), %eax
	movl	8(%ebp), %edx
	movl	128(%edx), %edx
	movl	%edx, (%esp)
	call	*%eax
	cvtsi2ss	%eax, %xmm1
	movd	%xmm1, %eax
	movl	8(%ebp), %edx
	movl	%eax, 16(%edx)
.L82:
	.loc 9 258 0 discriminator 1
	movl	8(%ebp), %eax
	movl	(%eax), %eax
	leal	16(%eax), %eax
	movl	(%eax), %eax
	movl	8(%ebp), %edx
	movl	%edx, (%esp)
	call	*%eax
	.loc 9 261 0 discriminator 1
	movl	8(%ebp), %eax
	movl	136(%eax), %edi
	movl	8(%ebp), %eax
	movl	132(%eax), %esi
	movl	8(%ebp), %eax
	movl	16(%eax), %edx
	movl	8(%ebp), %eax
	movl	12(%eax), %eax
	movl	%edx, 8(%esp)
	movl	%eax, 4(%esp)
	leal	-32(%ebp), %eax
	movl	%eax, (%esp)
	call	_ZN8CIwFVec2C1Eff
	movl	8(%ebp), %eax
	addl	$140, %eax
	movl	%eax, (%esp)
	call	_ZNK4_STL12basic_stringIcNS_11char_traitsIcEENS_9allocatorIcEEE5c_strEv
	movl	%eax, %ecx
	movl	%edi, 24(%esp)
	movl	%esi, 20(%esp)
	movl	-32(%ebp), %eax
	movl	-28(%ebp), %edx
	movl	%eax, 12(%esp)
	movl	%edx, 16(%esp)
	movl	_ZN8CIwFVec26g_ZeroE@GOT(%ebx), %eax
	movl	4(%eax), %edx
	movl	(%eax), %eax
	movl	%eax, 4(%esp)
	movl	%edx, 8(%esp)
	movl	%ecx, (%esp)
	call	_Z14Iw2DDrawStringPKc8CIwFVec2S1_14CIw2DFontAlignS2_@PLT
.L79:
	.loc 9 264 0
	movl	8(%ebp), %eax
	movl	%eax, (%esp)
	call	_ZN14Iw2DSceneGraph9CDrawable6RenderEv
.L74:
	.loc 9 265 0
	leal	60(%esp), %esp
	popl	%ebx
	.cfi_restore 3
	popl	%esi
	.cfi_restore 6
	popl	%edi
	.cfi_restore 7
	popl	%ebp
	.cfi_restore 5
	.cfi_def_cfa 4, 4
	ret
	.cfi_endproc
.LFE2491:
	.size	_ZN14Iw2DSceneGraph6CLabel6RenderEv, .-_ZN14Iw2DSceneGraph6CLabel6RenderEv
	.section	.text._ZN4_STL12basic_stringIcNS_11char_traitsIcEENS_9allocatorIcEEED2Ev,"axG",@progbits,_ZN4_STL12basic_stringIcNS_11char_traitsIcEENS_9allocatorIcEEED5Ev,comdat
	.align 2
	.weak	_ZN4_STL12basic_stringIcNS_11char_traitsIcEENS_9allocatorIcEEED2Ev
	.hidden	_ZN4_STL12basic_stringIcNS_11char_traitsIcEENS_9allocatorIcEEED2Ev
	.type	_ZN4_STL12basic_stringIcNS_11char_traitsIcEENS_9allocatorIcEEED2Ev, @function
_ZN4_STL12basic_stringIcNS_11char_traitsIcEENS_9allocatorIcEEED2Ev:
.LFB2555:
	.file 10 "c:/marmalade/7.5/s3e/h/std/c++/stl/_string.h"
	.loc 10 305 0
	.cfi_startproc
	pushl	%ebp
	.cfi_def_cfa_offset 8
	.cfi_offset 5, -8
	leal	(%esp), %ebp
	.cfi_def_cfa_register 5
	leal	-24(%esp), %esp
.LBB20:
	.loc 10 305 0
	movl	8(%ebp), %eax
	movl	4(%eax), %eax
	movl	%eax, %edx
	addl	$1, %edx
	movl	8(%ebp), %eax
	movl	(%eax), %eax
	movl	%edx, 4(%esp)
	movl	%eax, (%esp)
	call	_ZN4_STL8_DestroyEPcS0_
	movl	8(%ebp), %eax
	movl	%eax, (%esp)
	call	_ZN4_STL12_String_baseIcNS_9allocatorIcEEED2Ev
.LBE20:
	leave
	.cfi_restore 5
	.cfi_def_cfa 4, 4
	ret
	.cfi_endproc
.LFE2555:
	.size	_ZN4_STL12basic_stringIcNS_11char_traitsIcEENS_9allocatorIcEEED2Ev, .-_ZN4_STL12basic_stringIcNS_11char_traitsIcEENS_9allocatorIcEEED2Ev
	.weak	_ZN4_STL12basic_stringIcNS_11char_traitsIcEENS_9allocatorIcEEED1Ev
	.hidden	_ZN4_STL12basic_stringIcNS_11char_traitsIcEENS_9allocatorIcEEED1Ev
	.set	_ZN4_STL12basic_stringIcNS_11char_traitsIcEENS_9allocatorIcEEED1Ev,_ZN4_STL12basic_stringIcNS_11char_traitsIcEENS_9allocatorIcEEED2Ev
	.section	.text._ZN4_STL12basic_stringIcNS_11char_traitsIcEENS_9allocatorIcEEEaSEPKc,"axG",@progbits,_ZN4_STL12basic_stringIcNS_11char_traitsIcEENS_9allocatorIcEEEaSEPKc,comdat
	.align 2
	.weak	_ZN4_STL12basic_stringIcNS_11char_traitsIcEENS_9allocatorIcEEEaSEPKc
	.hidden	_ZN4_STL12basic_stringIcNS_11char_traitsIcEENS_9allocatorIcEEEaSEPKc
	.type	_ZN4_STL12basic_stringIcNS_11char_traitsIcEENS_9allocatorIcEEEaSEPKc, @function
_ZN4_STL12basic_stringIcNS_11char_traitsIcEENS_9allocatorIcEEEaSEPKc:
.LFB2558:
	.loc 10 313 0
	.cfi_startproc
	pushl	%ebp
	.cfi_def_cfa_offset 8
	.cfi_offset 5, -8
	leal	(%esp), %ebp
	.cfi_def_cfa_register 5
	leal	-24(%esp), %esp
	.loc 10 315 0
	movl	12(%ebp), %eax
	movl	%eax, (%esp)
	call	_ZN4_STL11char_traitsIcE6lengthEPKc
	movl	12(%ebp), %edx
	addl	%edx, %eax
	movl	%eax, 8(%esp)
	movl	12(%ebp), %eax
	movl	%eax, 4(%esp)
	movl	8(%ebp), %eax
	movl	%eax, (%esp)
	call	_ZN4_STL12basic_stringIcNS_11char_traitsIcEENS_9allocatorIcEEE6assignEPKcS7_
	.loc 10 316 0
	leave
	.cfi_restore 5
	.cfi_def_cfa 4, 4
	ret
	.cfi_endproc
.LFE2558:
	.size	_ZN4_STL12basic_stringIcNS_11char_traitsIcEENS_9allocatorIcEEEaSEPKc, .-_ZN4_STL12basic_stringIcNS_11char_traitsIcEENS_9allocatorIcEEEaSEPKc
	.section	.text._ZN4_STL9allocatorI7CIwRectEC2Ev,"axG",@progbits,_ZN4_STL9allocatorI7CIwRectEC5Ev,comdat
	.align 2
	.weak	_ZN4_STL9allocatorI7CIwRectEC2Ev
	.hidden	_ZN4_STL9allocatorI7CIwRectEC2Ev
	.type	_ZN4_STL9allocatorI7CIwRectEC2Ev, @function
_ZN4_STL9allocatorI7CIwRectEC2Ev:
.LFB2560:
	.file 11 "c:/marmalade/7.5/s3e/h/std/c++/stl/_alloc.h"
	.loc 11 345 0
	.cfi_startproc
	pushl	%ebp
	.cfi_def_cfa_offset 8
	.cfi_offset 5, -8
	movl	%esp, %ebp
	.cfi_def_cfa_register 5
	.loc 11 345 0
	popl	%ebp
	.cfi_restore 5
	.cfi_def_cfa 4, 4
	ret
	.cfi_endproc
.LFE2560:
	.size	_ZN4_STL9allocatorI7CIwRectEC2Ev, .-_ZN4_STL9allocatorI7CIwRectEC2Ev
	.weak	_ZN4_STL9allocatorI7CIwRectEC1Ev
	.hidden	_ZN4_STL9allocatorI7CIwRectEC1Ev
	.set	_ZN4_STL9allocatorI7CIwRectEC1Ev,_ZN4_STL9allocatorI7CIwRectEC2Ev
	.section	.text._ZN4_STL9allocatorI7CIwRectED2Ev,"axG",@progbits,_ZN4_STL9allocatorI7CIwRectED5Ev,comdat
	.align 2
	.weak	_ZN4_STL9allocatorI7CIwRectED2Ev
	.hidden	_ZN4_STL9allocatorI7CIwRectED2Ev
	.type	_ZN4_STL9allocatorI7CIwRectED2Ev, @function
_ZN4_STL9allocatorI7CIwRectED2Ev:
.LFB2563:
	.loc 11 350 0
	.cfi_startproc
	pushl	%ebp
	.cfi_def_cfa_offset 8
	.cfi_offset 5, -8
	movl	%esp, %ebp
	.cfi_def_cfa_register 5
	.loc 11 350 0
	popl	%ebp
	.cfi_restore 5
	.cfi_def_cfa 4, 4
	ret
	.cfi_endproc
.LFE2563:
	.size	_ZN4_STL9allocatorI7CIwRectED2Ev, .-_ZN4_STL9allocatorI7CIwRectED2Ev
	.weak	_ZN4_STL9allocatorI7CIwRectED1Ev
	.hidden	_ZN4_STL9allocatorI7CIwRectED1Ev
	.set	_ZN4_STL9allocatorI7CIwRectED1Ev,_ZN4_STL9allocatorI7CIwRectED2Ev
	.section	.text._ZN4_STL6vectorI7CIwRectNS_9allocatorIS1_EEEC2ERKS3_,"axG",@progbits,_ZN4_STL6vectorI7CIwRectNS_9allocatorIS1_EEEC5ERKS3_,comdat
	.align 2
	.weak	_ZN4_STL6vectorI7CIwRectNS_9allocatorIS1_EEEC2ERKS3_
	.hidden	_ZN4_STL6vectorI7CIwRectNS_9allocatorIS1_EEEC2ERKS3_
	.type	_ZN4_STL6vectorI7CIwRectNS_9allocatorIS1_EEEC2ERKS3_, @function
_ZN4_STL6vectorI7CIwRectNS_9allocatorIS1_EEEC2ERKS3_:
.LFB2566:
	.file 12 "c:/marmalade/7.5/s3e/h/std/c++/stl/_vector.h"
	.loc 12 198 0
	.cfi_startproc
	pushl	%ebp
	.cfi_def_cfa_offset 8
	.cfi_offset 5, -8
	leal	(%esp), %ebp
	.cfi_def_cfa_register 5
	leal	-24(%esp), %esp
.LBB21:
	.loc 12 199 0
	movl	8(%ebp), %eax
	movl	12(%ebp), %edx
	movl	%edx, 4(%esp)
	movl	%eax, (%esp)
	call	_ZN4_STL12_Vector_baseI7CIwRectNS_9allocatorIS1_EEEC2ERKS3_
.LBE21:
	leave
	.cfi_restore 5
	.cfi_def_cfa 4, 4
	ret
	.cfi_endproc
.LFE2566:
	.size	_ZN4_STL6vectorI7CIwRectNS_9allocatorIS1_EEEC2ERKS3_, .-_ZN4_STL6vectorI7CIwRectNS_9allocatorIS1_EEEC2ERKS3_
	.weak	_ZN4_STL6vectorI7CIwRectNS_9allocatorIS1_EEEC1ERKS3_
	.hidden	_ZN4_STL6vectorI7CIwRectNS_9allocatorIS1_EEEC1ERKS3_
	.set	_ZN4_STL6vectorI7CIwRectNS_9allocatorIS1_EEEC1ERKS3_,_ZN4_STL6vectorI7CIwRectNS_9allocatorIS1_EEEC2ERKS3_
	.section	.text._ZN4_STL6vectorI7CIwRectNS_9allocatorIS1_EEE9push_backERKS1_,"axG",@progbits,_ZN4_STL6vectorI7CIwRectNS_9allocatorIS1_EEE9push_backERKS1_,comdat
	.align 2
	.weak	_ZN4_STL6vectorI7CIwRectNS_9allocatorIS1_EEE9push_backERKS1_
	.hidden	_ZN4_STL6vectorI7CIwRectNS_9allocatorIS1_EEE9push_backERKS1_
	.type	_ZN4_STL6vectorI7CIwRectNS_9allocatorIS1_EEE9push_backERKS1_, @function
_ZN4_STL6vectorI7CIwRectNS_9allocatorIS1_EEE9push_backERKS1_:
.LFB2571:
	.loc 12 331 0
	.cfi_startproc
	pushl	%ebp
	.cfi_def_cfa_offset 8
	.cfi_offset 5, -8
	leal	(%esp), %ebp
	.cfi_def_cfa_register 5
	leal	-56(%esp), %esp
	.loc 12 332 0
	movl	8(%ebp), %eax
	movl	4(%eax), %edx
	movl	8(%ebp), %eax
	movl	8(%eax), %eax
	cmpl	%eax, %edx
	je	.L95
	.loc 12 333 0
	movl	8(%ebp), %eax
	movl	4(%eax), %eax
	movl	12(%ebp), %edx
	movl	%edx, 4(%esp)
	movl	%eax, (%esp)
	call	_ZN4_STL10_ConstructI7CIwRectS1_EEvPT_RKT0_
	.loc 12 334 0
	movl	8(%ebp), %eax
	movl	4(%eax), %eax
	movl	%eax, %edx
	addl	$8, %edx
	movl	8(%ebp), %eax
	movl	%edx, 4(%eax)
	jmp	.L94
.L95:
	.loc 12 337 0
	movl	8(%ebp), %eax
	movl	4(%eax), %eax
	movl	$1, 20(%esp)
	movl	$1, 16(%esp)
	leal	-9(%ebp), %edx
	movl	%edx, 12(%esp)
	movl	12(%ebp), %edx
	movl	%edx, 8(%esp)
	movl	%eax, 4(%esp)
	movl	8(%ebp), %eax
	movl	%eax, (%esp)
	call	_ZN4_STL6vectorI7CIwRectNS_9allocatorIS1_EEE18_M_insert_overflowEPS1_RKS1_RKNS_12__false_typeEjb
.L94:
	.loc 12 338 0
	leave
	.cfi_restore 5
	.cfi_def_cfa 4, 4
	ret
	.cfi_endproc
.LFE2571:
	.size	_ZN4_STL6vectorI7CIwRectNS_9allocatorIS1_EEE9push_backERKS1_, .-_ZN4_STL6vectorI7CIwRectNS_9allocatorIS1_EEE9push_backERKS1_
	.section	.text._ZNK4_STL6vectorI7CIwRectNS_9allocatorIS1_EEE4sizeEv,"axG",@progbits,_ZNK4_STL6vectorI7CIwRectNS_9allocatorIS1_EEE4sizeEv,comdat
	.align 2
	.weak	_ZNK4_STL6vectorI7CIwRectNS_9allocatorIS1_EEE4sizeEv
	.hidden	_ZNK4_STL6vectorI7CIwRectNS_9allocatorIS1_EEE4sizeEv
	.type	_ZNK4_STL6vectorI7CIwRectNS_9allocatorIS1_EEE4sizeEv, @function
_ZNK4_STL6vectorI7CIwRectNS_9allocatorIS1_EEE4sizeEv:
.LFB2572:
	.loc 12 182 0
	.cfi_startproc
	pushl	%ebp
	.cfi_def_cfa_offset 8
	.cfi_offset 5, -8
	leal	(%esp), %ebp
	.cfi_def_cfa_register 5
	.loc 12 182 0
	movl	8(%ebp), %eax
	movl	4(%eax), %eax
	movl	%eax, %edx
	movl	8(%ebp), %eax
	movl	(%eax), %eax
	subl	%eax, %edx
	movl	%edx, %eax
	sarl	$3, %eax
	popl	%ebp
	.cfi_restore 5
	.cfi_def_cfa 4, 4
	ret
	.cfi_endproc
.LFE2572:
	.size	_ZNK4_STL6vectorI7CIwRectNS_9allocatorIS1_EEE4sizeEv, .-_ZNK4_STL6vectorI7CIwRectNS_9allocatorIS1_EEE4sizeEv
	.section	.text._ZNK4_STL6vectorI7CIwRectNS_9allocatorIS1_EEEixEj,"axG",@progbits,_ZNK4_STL6vectorI7CIwRectNS_9allocatorIS1_EEEixEj,comdat
	.align 2
	.weak	_ZNK4_STL6vectorI7CIwRectNS_9allocatorIS1_EEEixEj
	.hidden	_ZNK4_STL6vectorI7CIwRectNS_9allocatorIS1_EEEixEj
	.type	_ZNK4_STL6vectorI7CIwRectNS_9allocatorIS1_EEEixEj, @function
_ZNK4_STL6vectorI7CIwRectNS_9allocatorIS1_EEEixEj:
.LFB2573:
	.loc 12 188 0
	.cfi_startproc
	pushl	%ebp
	.cfi_def_cfa_offset 8
	.cfi_offset 5, -8
	leal	(%esp), %ebp
	.cfi_def_cfa_register 5
	leal	-24(%esp), %esp
	.loc 12 188 0
	movl	8(%ebp), %eax
	movl	%eax, (%esp)
	call	_ZNK4_STL6vectorI7CIwRectNS_9allocatorIS1_EEE5beginEv
	movl	12(%ebp), %edx
	sall	$3, %edx
	addl	%edx, %eax
	leave
	.cfi_restore 5
	.cfi_def_cfa 4, 4
	ret
	.cfi_endproc
.LFE2573:
	.size	_ZNK4_STL6vectorI7CIwRectNS_9allocatorIS1_EEEixEj, .-_ZNK4_STL6vectorI7CIwRectNS_9allocatorIS1_EEEixEj
	.section	.text._ZN4_STL12basic_stringIcNS_11char_traitsIcEENS_9allocatorIcEEEC2Ev,"axG",@progbits,_ZN4_STL12basic_stringIcNS_11char_traitsIcEENS_9allocatorIcEEEC5Ev,comdat
	.align 2
	.weak	_ZN4_STL12basic_stringIcNS_11char_traitsIcEENS_9allocatorIcEEEC2Ev
	.hidden	_ZN4_STL12basic_stringIcNS_11char_traitsIcEENS_9allocatorIcEEEC2Ev
	.type	_ZN4_STL12basic_stringIcNS_11char_traitsIcEENS_9allocatorIcEEEC2Ev, @function
_ZN4_STL12basic_stringIcNS_11char_traitsIcEENS_9allocatorIcEEEC2Ev:
.LFB2575:
	.file 13 "c:/marmalade/7.5/s3e/h/std/c++/stl/_string.c"
	.loc 13 540 0
	.cfi_startproc
	pushl	%ebp
	.cfi_def_cfa_offset 8
	.cfi_offset 5, -8
	movl	%esp, %ebp
	.cfi_def_cfa_register 5
	leal	-40(%esp), %esp
.LBB22:
	.loc 13 541 0
	leal	-9(%ebp), %eax
	movl	%eax, (%esp)
	call	_ZN4_STL9allocatorIcEC1Ev
	movl	8(%ebp), %eax
	leal	-9(%ebp), %edx
	movl	%edx, 4(%esp)
	movl	%eax, (%esp)
	call	_ZN4_STL12_String_baseIcNS_9allocatorIcEEEC2ERKS2_
	leal	-9(%ebp), %eax
	movl	%eax, (%esp)
	call	_ZN4_STL9allocatorIcED1Ev
	.loc 13 542 0
	movl	8(%ebp), %eax
	addl	$8, %eax
	movl	$0, 8(%esp)
	movl	$8, 4(%esp)
	movl	%eax, (%esp)
	call	_ZN4_STL9allocatorIcE8allocateEjPKv
	movl	8(%ebp), %edx
	movl	%eax, (%edx)
	.loc 13 543 0
	movl	8(%ebp), %eax
	movl	(%eax), %edx
	movl	8(%ebp), %eax
	movl	%edx, 4(%eax)
	.loc 13 544 0
	movl	8(%ebp), %eax
	movl	(%eax), %eax
	movl	%eax, %edx
	addl	$8, %edx
	movl	8(%ebp), %eax
	movl	%edx, 8(%eax)
	.loc 13 545 0
	movl	8(%ebp), %eax
	movl	%eax, (%esp)
	call	_ZN4_STL12basic_stringIcNS_11char_traitsIcEENS_9allocatorIcEEE19_M_terminate_stringEv
.LBE22:
	.loc 13 546 0
	leave
	.cfi_restore 5
	.cfi_def_cfa 4, 4
	ret
	.cfi_endproc
.LFE2575:
	.size	_ZN4_STL12basic_stringIcNS_11char_traitsIcEENS_9allocatorIcEEEC2Ev, .-_ZN4_STL12basic_stringIcNS_11char_traitsIcEENS_9allocatorIcEEEC2Ev
	.weak	_ZN4_STL12basic_stringIcNS_11char_traitsIcEENS_9allocatorIcEEEC1Ev
	.hidden	_ZN4_STL12basic_stringIcNS_11char_traitsIcEENS_9allocatorIcEEEC1Ev
	.set	_ZN4_STL12basic_stringIcNS_11char_traitsIcEENS_9allocatorIcEEEC1Ev,_ZN4_STL12basic_stringIcNS_11char_traitsIcEENS_9allocatorIcEEEC2Ev
	.section	.text._ZNK4_STL12basic_stringIcNS_11char_traitsIcEENS_9allocatorIcEEE4sizeEv,"axG",@progbits,_ZNK4_STL12basic_stringIcNS_11char_traitsIcEENS_9allocatorIcEEE4sizeEv,comdat
	.align 2
	.weak	_ZNK4_STL12basic_stringIcNS_11char_traitsIcEENS_9allocatorIcEEE4sizeEv
	.hidden	_ZNK4_STL12basic_stringIcNS_11char_traitsIcEENS_9allocatorIcEEE4sizeEv
	.type	_ZNK4_STL12basic_stringIcNS_11char_traitsIcEENS_9allocatorIcEEE4sizeEv, @function
_ZNK4_STL12basic_stringIcNS_11char_traitsIcEENS_9allocatorIcEEE4sizeEv:
.LFB2577:
	.loc 10 431 0
	.cfi_startproc
	pushl	%ebp
	.cfi_def_cfa_offset 8
	.cfi_offset 5, -8
	leal	(%esp), %ebp
	.cfi_def_cfa_register 5
	.loc 10 431 0
	movl	8(%ebp), %eax
	movl	4(%eax), %eax
	movl	%eax, %edx
	movl	8(%ebp), %eax
	movl	(%eax), %eax
	subl	%eax, %edx
	movl	%edx, %eax
	popl	%ebp
	.cfi_restore 5
	.cfi_def_cfa 4, 4
	ret
	.cfi_endproc
.LFE2577:
	.size	_ZNK4_STL12basic_stringIcNS_11char_traitsIcEENS_9allocatorIcEEE4sizeEv, .-_ZNK4_STL12basic_stringIcNS_11char_traitsIcEENS_9allocatorIcEEE4sizeEv
	.section	.text._ZNK4_STL12basic_stringIcNS_11char_traitsIcEENS_9allocatorIcEEE5c_strEv,"axG",@progbits,_ZNK4_STL12basic_stringIcNS_11char_traitsIcEENS_9allocatorIcEEE5c_strEv,comdat
	.align 2
	.weak	_ZNK4_STL12basic_stringIcNS_11char_traitsIcEENS_9allocatorIcEEE5c_strEv
	.hidden	_ZNK4_STL12basic_stringIcNS_11char_traitsIcEENS_9allocatorIcEEE5c_strEv
	.type	_ZNK4_STL12basic_stringIcNS_11char_traitsIcEENS_9allocatorIcEEE5c_strEv, @function
_ZNK4_STL12basic_stringIcNS_11char_traitsIcEENS_9allocatorIcEEE5c_strEv:
.LFB2578:
	.loc 10 1065 0
	.cfi_startproc
	pushl	%ebp
	.cfi_def_cfa_offset 8
	.cfi_offset 5, -8
	leal	(%esp), %ebp
	.cfi_def_cfa_register 5
	.loc 10 1065 0
	movl	8(%ebp), %eax
	movl	(%eax), %eax
	popl	%ebp
	.cfi_restore 5
	.cfi_def_cfa 4, 4
	ret
	.cfi_endproc
.LFE2578:
	.size	_ZNK4_STL12basic_stringIcNS_11char_traitsIcEENS_9allocatorIcEEE5c_strEv, .-_ZNK4_STL12basic_stringIcNS_11char_traitsIcEENS_9allocatorIcEEE5c_strEv
	.section	.text._ZN4_STL17_STLP_alloc_proxyIPccNS_9allocatorIcEEED2Ev,"axG",@progbits,_ZN4_STL17_STLP_alloc_proxyIPccNS_9allocatorIcEEED5Ev,comdat
	.align 2
	.weak	_ZN4_STL17_STLP_alloc_proxyIPccNS_9allocatorIcEEED2Ev
	.hidden	_ZN4_STL17_STLP_alloc_proxyIPccNS_9allocatorIcEEED2Ev
	.type	_ZN4_STL17_STLP_alloc_proxyIPccNS_9allocatorIcEEED2Ev, @function
_ZN4_STL17_STLP_alloc_proxyIPccNS_9allocatorIcEEED2Ev:
.LFB2604:
	.loc 11 481 0
	.cfi_startproc
	pushl	%ebp
	.cfi_def_cfa_offset 8
	.cfi_offset 5, -8
	leal	(%esp), %ebp
	.cfi_def_cfa_register 5
	leal	-24(%esp), %esp
.LBB23:
	.loc 11 481 0
	movl	8(%ebp), %eax
	movl	%eax, (%esp)
	call	_ZN4_STL9allocatorIcED2Ev
.LBE23:
	leave
	.cfi_restore 5
	.cfi_def_cfa 4, 4
	ret
	.cfi_endproc
.LFE2604:
	.size	_ZN4_STL17_STLP_alloc_proxyIPccNS_9allocatorIcEEED2Ev, .-_ZN4_STL17_STLP_alloc_proxyIPccNS_9allocatorIcEEED2Ev
	.weak	_ZN4_STL17_STLP_alloc_proxyIPccNS_9allocatorIcEEED1Ev
	.hidden	_ZN4_STL17_STLP_alloc_proxyIPccNS_9allocatorIcEEED1Ev
	.set	_ZN4_STL17_STLP_alloc_proxyIPccNS_9allocatorIcEEED1Ev,_ZN4_STL17_STLP_alloc_proxyIPccNS_9allocatorIcEEED2Ev
	.section	.text._ZN4_STL12_String_baseIcNS_9allocatorIcEEED2Ev,"axG",@progbits,_ZN4_STL12_String_baseIcNS_9allocatorIcEEED5Ev,comdat
	.align 2
	.weak	_ZN4_STL12_String_baseIcNS_9allocatorIcEEED2Ev
	.hidden	_ZN4_STL12_String_baseIcNS_9allocatorIcEEED2Ev
	.type	_ZN4_STL12_String_baseIcNS_9allocatorIcEEED2Ev, @function
_ZN4_STL12_String_baseIcNS_9allocatorIcEEED2Ev:
.LFB2606:
	.loc 10 135 0
	.cfi_startproc
	pushl	%ebp
	.cfi_def_cfa_offset 8
	.cfi_offset 5, -8
	leal	(%esp), %ebp
	.cfi_def_cfa_register 5
	leal	-24(%esp), %esp
.LBB24:
	.loc 10 135 0
	movl	8(%ebp), %eax
	movl	%eax, (%esp)
	call	_ZN4_STL12_String_baseIcNS_9allocatorIcEEE19_M_deallocate_blockEv
	movl	8(%ebp), %eax
	addl	$8, %eax
	movl	%eax, (%esp)
	call	_ZN4_STL17_STLP_alloc_proxyIPccNS_9allocatorIcEEED1Ev
.LBE24:
	leave
	.cfi_restore 5
	.cfi_def_cfa 4, 4
	ret
	.cfi_endproc
.LFE2606:
	.size	_ZN4_STL12_String_baseIcNS_9allocatorIcEEED2Ev, .-_ZN4_STL12_String_baseIcNS_9allocatorIcEEED2Ev
	.weak	_ZN4_STL12_String_baseIcNS_9allocatorIcEEED1Ev
	.hidden	_ZN4_STL12_String_baseIcNS_9allocatorIcEEED1Ev
	.set	_ZN4_STL12_String_baseIcNS_9allocatorIcEEED1Ev,_ZN4_STL12_String_baseIcNS_9allocatorIcEEED2Ev
	.section	.text._ZN4_STL12basic_stringIcNS_11char_traitsIcEENS_9allocatorIcEEE6assignEPKcS7_,"axG",@progbits,_ZN4_STL12basic_stringIcNS_11char_traitsIcEENS_9allocatorIcEEE6assignEPKcS7_,comdat
	.align 2
	.weak	_ZN4_STL12basic_stringIcNS_11char_traitsIcEENS_9allocatorIcEEE6assignEPKcS7_
	.hidden	_ZN4_STL12basic_stringIcNS_11char_traitsIcEENS_9allocatorIcEEE6assignEPKcS7_
	.type	_ZN4_STL12basic_stringIcNS_11char_traitsIcEENS_9allocatorIcEEE6assignEPKcS7_, @function
_ZN4_STL12basic_stringIcNS_11char_traitsIcEENS_9allocatorIcEEE6assignEPKcS7_:
.LFB2609:
	.loc 10 649 0
	.cfi_startproc
	pushl	%ebp
	.cfi_def_cfa_offset 8
	.cfi_offset 5, -8
	movl	%esp, %ebp
	.cfi_def_cfa_register 5
	pushl	%esi
	leal	-36(%esp), %esp
	.cfi_offset 6, -12
.LBB25:
	.loc 10 651 0
	movl	16(%ebp), %edx
	movl	12(%ebp), %eax
	subl	%eax, %edx
	movl	%edx, %eax
	movl	%eax, -12(%ebp)
	.loc 10 652 0
	movl	-12(%ebp), %esi
	movl	8(%ebp), %eax
	movl	%eax, (%esp)
	call	_ZNK4_STL12basic_stringIcNS_11char_traitsIcEENS_9allocatorIcEEE4sizeEv
	cmpl	%eax, %esi
	setbe	%al
	testb	%al, %al
	je	.L111
	.loc 10 653 0
	movl	-12(%ebp), %edx
	movl	8(%ebp), %eax
	movl	(%eax), %eax
	movl	%edx, 8(%esp)
	movl	12(%ebp), %edx
	movl	%edx, 4(%esp)
	movl	%eax, (%esp)
	call	_ZN4_STL18__char_traits_baseIciE4copyEPcPKcj
	.loc 10 654 0
	movl	8(%ebp), %eax
	movl	%eax, (%esp)
	call	_ZN4_STL12basic_stringIcNS_11char_traitsIcEENS_9allocatorIcEEE3endEv
	movl	%eax, %esi
	movl	8(%ebp), %eax
	movl	%eax, (%esp)
	call	_ZN4_STL12basic_stringIcNS_11char_traitsIcEENS_9allocatorIcEEE5beginEv
	movl	-12(%ebp), %edx
	addl	%edx, %eax
	movl	%esi, 8(%esp)
	movl	%eax, 4(%esp)
	movl	8(%ebp), %eax
	movl	%eax, (%esp)
	call	_ZN4_STL12basic_stringIcNS_11char_traitsIcEENS_9allocatorIcEEE5eraseEPcS6_
	jmp	.L112
.L111:
	.loc 10 657 0
	movl	8(%ebp), %eax
	movl	%eax, (%esp)
	call	_ZNK4_STL12basic_stringIcNS_11char_traitsIcEENS_9allocatorIcEEE4sizeEv
	movl	8(%ebp), %edx
	movl	(%edx), %edx
	movl	%eax, 8(%esp)
	movl	12(%ebp), %eax
	movl	%eax, 4(%esp)
	movl	%edx, (%esp)
	call	_ZN4_STL18__char_traits_baseIciE4copyEPcPKcj
	.loc 10 658 0
	movl	8(%ebp), %eax
	movl	%eax, (%esp)
	call	_ZNK4_STL12basic_stringIcNS_11char_traitsIcEENS_9allocatorIcEEE4sizeEv
	movl	12(%ebp), %edx
	addl	%eax, %edx
	movl	16(%ebp), %eax
	movl	%eax, 8(%esp)
	movl	%edx, 4(%esp)
	movl	8(%ebp), %eax
	movl	%eax, (%esp)
	call	_ZN4_STL12basic_stringIcNS_11char_traitsIcEENS_9allocatorIcEEE6appendIPKcEERS5_T_SA_
.L112:
	.loc 10 660 0
	movl	8(%ebp), %eax
.LBE25:
	.loc 10 661 0
	leal	36(%esp), %esp
	popl	%esi
	.cfi_restore 6
	popl	%ebp
	.cfi_restore 5
	.cfi_def_cfa 4, 4
	ret
	.cfi_endproc
.LFE2609:
	.size	_ZN4_STL12basic_stringIcNS_11char_traitsIcEENS_9allocatorIcEEE6assignEPKcS7_, .-_ZN4_STL12basic_stringIcNS_11char_traitsIcEENS_9allocatorIcEEE6assignEPKcS7_
	.section	.text._ZN4_STL12_Vector_baseI7CIwRectNS_9allocatorIS1_EEEC2ERKS3_,"axG",@progbits,_ZN4_STL12_Vector_baseI7CIwRectNS_9allocatorIS1_EEEC5ERKS3_,comdat
	.align 2
	.weak	_ZN4_STL12_Vector_baseI7CIwRectNS_9allocatorIS1_EEEC2ERKS3_
	.hidden	_ZN4_STL12_Vector_baseI7CIwRectNS_9allocatorIS1_EEEC2ERKS3_
	.type	_ZN4_STL12_Vector_baseI7CIwRectNS_9allocatorIS1_EEEC2ERKS3_, @function
_ZN4_STL12_Vector_baseI7CIwRectNS_9allocatorIS1_EEEC2ERKS3_:
.LFB2614:
	.loc 12 71 0
	.cfi_startproc
	pushl	%ebp
	.cfi_def_cfa_offset 8
	.cfi_offset 5, -8
	leal	(%esp), %ebp
	.cfi_def_cfa_register 5
	leal	-24(%esp), %esp
.LBB26:
	.loc 12 72 0
	movl	8(%ebp), %eax
	movl	$0, (%eax)
	movl	8(%ebp), %eax
	movl	$0, 4(%eax)
	movl	8(%ebp), %eax
	movl	%eax, %edx
	addl	$8, %edx
	movl	$0, 8(%esp)
	movl	12(%ebp), %eax
	movl	%eax, 4(%esp)
	movl	%edx, (%esp)
	call	_ZN4_STL17_STLP_alloc_proxyIP7CIwRectS1_NS_9allocatorIS1_EEEC1ERKS4_S2_
.LBE26:
	.loc 12 73 0
	leave
	.cfi_restore 5
	.cfi_def_cfa 4, 4
	ret
	.cfi_endproc
.LFE2614:
	.size	_ZN4_STL12_Vector_baseI7CIwRectNS_9allocatorIS1_EEEC2ERKS3_, .-_ZN4_STL12_Vector_baseI7CIwRectNS_9allocatorIS1_EEEC2ERKS3_
	.weak	_ZN4_STL12_Vector_baseI7CIwRectNS_9allocatorIS1_EEEC1ERKS3_
	.hidden	_ZN4_STL12_Vector_baseI7CIwRectNS_9allocatorIS1_EEEC1ERKS3_
	.set	_ZN4_STL12_Vector_baseI7CIwRectNS_9allocatorIS1_EEEC1ERKS3_,_ZN4_STL12_Vector_baseI7CIwRectNS_9allocatorIS1_EEEC2ERKS3_
	.section	.text._ZN4_STL8_DestroyIP7CIwRectEEvT_S3_,"axG",@progbits,_ZN4_STL8_DestroyIP7CIwRectEEvT_S3_,comdat
	.weak	_ZN4_STL8_DestroyIP7CIwRectEEvT_S3_
	.hidden	_ZN4_STL8_DestroyIP7CIwRectEEvT_S3_
	.type	_ZN4_STL8_DestroyIP7CIwRectEEvT_S3_, @function
_ZN4_STL8_DestroyIP7CIwRectEEvT_S3_:
.LFB2619:
	.loc 3 138 0
	.cfi_startproc
	pushl	%ebp
	.cfi_def_cfa_offset 8
	.cfi_offset 5, -8
	movl	%esp, %ebp
	.cfi_def_cfa_register 5
	leal	-24(%esp), %esp
	.loc 3 139 0
	movl	$0, 8(%esp)
	movl	12(%ebp), %eax
	movl	%eax, 4(%esp)
	movl	8(%ebp), %eax
	movl	%eax, (%esp)
	call	_ZN4_STL9__destroyIP7CIwRectS1_EEvT_S3_PT0_
	.loc 3 140 0
	leave
	.cfi_restore 5
	.cfi_def_cfa 4, 4
	ret
	.cfi_endproc
.LFE2619:
	.size	_ZN4_STL8_DestroyIP7CIwRectEEvT_S3_, .-_ZN4_STL8_DestroyIP7CIwRectEEvT_S3_
	.section	.text._ZN4_STL10_ConstructI7CIwRectS1_EEvPT_RKT0_,"axG",@progbits,_ZN4_STL10_ConstructI7CIwRectS1_EEvPT_RKT0_,comdat
	.weak	_ZN4_STL10_ConstructI7CIwRectS1_EEvPT_RKT0_
	.hidden	_ZN4_STL10_ConstructI7CIwRectS1_EEvPT_RKT0_
	.type	_ZN4_STL10_ConstructI7CIwRectS1_EEvPT_RKT0_, @function
_ZN4_STL10_ConstructI7CIwRectS1_EEvPT_RKT0_:
.LFB2620:
	.loc 3 93 0
	.cfi_startproc
	pushl	%ebp
	.cfi_def_cfa_offset 8
	.cfi_offset 5, -8
	leal	(%esp), %ebp
	.cfi_def_cfa_register 5
	leal	-24(%esp), %esp
	.loc 3 97 0
	movl	8(%ebp), %eax
	movl	%eax, 4(%esp)
	movl	$8, (%esp)
	call	_ZnwjPv
	leal	(%eax), %ecx
	movl	12(%ebp), %eax
	movl	4(%eax), %edx
	movl	(%eax), %eax
	movl	%eax, (%ecx)
	movl	%edx, 4(%ecx)
	.loc 3 98 0
	leave
	.cfi_restore 5
	.cfi_def_cfa 4, 4
	ret
	.cfi_endproc
.LFE2620:
	.size	_ZN4_STL10_ConstructI7CIwRectS1_EEvPT_RKT0_, .-_ZN4_STL10_ConstructI7CIwRectS1_EEvPT_RKT0_
	.section	.text._ZN4_STL6vectorI7CIwRectNS_9allocatorIS1_EEE18_M_insert_overflowEPS1_RKS1_RKNS_12__false_typeEjb,"axG",@progbits,_ZN4_STL6vectorI7CIwRectNS_9allocatorIS1_EEE18_M_insert_overflowEPS1_RKS1_RKNS_12__false_typeEjb,comdat
	.align 2
	.weak	_ZN4_STL6vectorI7CIwRectNS_9allocatorIS1_EEE18_M_insert_overflowEPS1_RKS1_RKNS_12__false_typeEjb
	.hidden	_ZN4_STL6vectorI7CIwRectNS_9allocatorIS1_EEE18_M_insert_overflowEPS1_RKS1_RKNS_12__false_typeEjb
	.type	_ZN4_STL6vectorI7CIwRectNS_9allocatorIS1_EEE18_M_insert_overflowEPS1_RKS1_RKNS_12__false_typeEjb, @function
_ZN4_STL6vectorI7CIwRectNS_9allocatorIS1_EEE18_M_insert_overflowEPS1_RKS1_RKNS_12__false_typeEjb:
.LFB2621:
	.loc 12 125 0
	.cfi_startproc
	pushl	%ebp
	.cfi_def_cfa_offset 8
	.cfi_offset 5, -8
	leal	(%esp), %ebp
	.cfi_def_cfa_register 5
	leal	-72(%esp), %esp
	movl	28(%ebp), %eax
	movb	%al, -44(%ebp)
.LBB27:
	.loc 12 127 0
	movl	8(%ebp), %eax
	movl	%eax, (%esp)
	call	_ZNK4_STL6vectorI7CIwRectNS_9allocatorIS1_EEE4sizeEv
	movl	%eax, -28(%ebp)
	.loc 12 128 0
	leal	24(%ebp), %eax
	movl	%eax, 4(%esp)
	leal	-28(%ebp), %eax
	movl	%eax, (%esp)
	call	_ZN4_STL3maxIjEERKT_S3_S3_
	movl	(%eax), %edx
	movl	-28(%ebp), %eax
	addl	%edx, %eax
	movl	%eax, -16(%ebp)
	.loc 12 130 0
	movl	8(%ebp), %eax
	movl	%eax, %edx
	addl	$8, %edx
	movl	$0, 8(%esp)
	movl	-16(%ebp), %eax
	movl	%eax, 4(%esp)
	movl	%edx, (%esp)
	call	_ZN4_STL9allocatorI7CIwRectE8allocateEjPKv
	movl	%eax, -20(%ebp)
	.loc 12 131 0
	movl	-20(%ebp), %eax
	movl	%eax, -12(%ebp)
	.loc 12 133 0
	movl	8(%ebp), %eax
	movl	(%eax), %eax
	leal	-23(%ebp), %edx
	movl	%edx, 12(%esp)
	movl	-20(%ebp), %edx
	movl	%edx, 8(%esp)
	movl	12(%ebp), %edx
	movl	%edx, 4(%esp)
	movl	%eax, (%esp)
	call	_ZN4_STL20__uninitialized_copyIP7CIwRectS2_EET0_T_S4_S3_RKNS_12__false_typeE
	movl	%eax, -12(%ebp)
	.loc 12 135 0
	movl	24(%ebp), %eax
	cmpl	$1, %eax
	jne	.L118
	.loc 12 136 0
	movl	16(%ebp), %eax
	movl	%eax, 4(%esp)
	movl	-12(%ebp), %eax
	movl	%eax, (%esp)
	call	_ZN4_STL10_ConstructI7CIwRectS1_EEvPT_RKT0_
	.loc 12 137 0
	addl	$8, -12(%ebp)
	jmp	.L119
.L118:
	.loc 12 139 0
	movl	24(%ebp), %eax
	leal	-22(%ebp), %edx
	movl	%edx, 12(%esp)
	movl	16(%ebp), %edx
	movl	%edx, 8(%esp)
	movl	%eax, 4(%esp)
	movl	-12(%ebp), %eax
	movl	%eax, (%esp)
	call	_ZN4_STL22__uninitialized_fill_nIP7CIwRectjS1_EET_S3_T0_RKT1_RKNS_12__false_typeE
	movl	%eax, -12(%ebp)
.L119:
	.loc 12 140 0
	movzbl	-44(%ebp), %eax
	xorl	$1, %eax
	testb	%al, %al
	je	.L120
	.loc 12 142 0
	movl	8(%ebp), %eax
	movl	4(%eax), %eax
	leal	-21(%ebp), %edx
	movl	%edx, 12(%esp)
	movl	-12(%ebp), %edx
	movl	%edx, 8(%esp)
	movl	%eax, 4(%esp)
	movl	12(%ebp), %eax
	movl	%eax, (%esp)
	call	_ZN4_STL20__uninitialized_copyIP7CIwRectS2_EET0_T_S4_S3_RKNS_12__false_typeE
	movl	%eax, -12(%ebp)
.L120:
	.loc 12 146 0
	movl	8(%ebp), %eax
	movl	%eax, (%esp)
	call	_ZN4_STL6vectorI7CIwRectNS_9allocatorIS1_EEE8_M_clearEv
	.loc 12 147 0
	movl	-16(%ebp), %eax
	movl	%eax, %edx
	sall	$3, %edx
	movl	-20(%ebp), %eax
	addl	%edx, %eax
	movl	%eax, 12(%esp)
	movl	-12(%ebp), %eax
	movl	%eax, 8(%esp)
	movl	-20(%ebp), %eax
	movl	%eax, 4(%esp)
	movl	8(%ebp), %eax
	movl	%eax, (%esp)
	call	_ZN4_STL6vectorI7CIwRectNS_9allocatorIS1_EEE6_M_setEPS1_S5_S5_
.LBE27:
	.loc 12 148 0
	leave
	.cfi_restore 5
	.cfi_def_cfa 4, 4
	ret
	.cfi_endproc
.LFE2621:
	.size	_ZN4_STL6vectorI7CIwRectNS_9allocatorIS1_EEE18_M_insert_overflowEPS1_RKS1_RKNS_12__false_typeEjb, .-_ZN4_STL6vectorI7CIwRectNS_9allocatorIS1_EEE18_M_insert_overflowEPS1_RKS1_RKNS_12__false_typeEjb
	.section	.text._ZNK4_STL6vectorI7CIwRectNS_9allocatorIS1_EEE5beginEv,"axG",@progbits,_ZNK4_STL6vectorI7CIwRectNS_9allocatorIS1_EEE5beginEv,comdat
	.align 2
	.weak	_ZNK4_STL6vectorI7CIwRectNS_9allocatorIS1_EEE5beginEv
	.hidden	_ZNK4_STL6vectorI7CIwRectNS_9allocatorIS1_EEE5beginEv
	.type	_ZNK4_STL6vectorI7CIwRectNS_9allocatorIS1_EEE5beginEv, @function
_ZNK4_STL6vectorI7CIwRectNS_9allocatorIS1_EEE5beginEv:
.LFB2622:
	.loc 12 173 0
	.cfi_startproc
	pushl	%ebp
	.cfi_def_cfa_offset 8
	.cfi_offset 5, -8
	leal	(%esp), %ebp
	.cfi_def_cfa_register 5
	.loc 12 173 0
	movl	8(%ebp), %eax
	movl	(%eax), %eax
	popl	%ebp
	.cfi_restore 5
	.cfi_def_cfa 4, 4
	ret
	.cfi_endproc
.LFE2622:
	.size	_ZNK4_STL6vectorI7CIwRectNS_9allocatorIS1_EEE5beginEv, .-_ZNK4_STL6vectorI7CIwRectNS_9allocatorIS1_EEE5beginEv
	.section	.text._ZN4_STL9allocatorIcEC2Ev,"axG",@progbits,_ZN4_STL9allocatorIcEC5Ev,comdat
	.align 2
	.weak	_ZN4_STL9allocatorIcEC2Ev
	.hidden	_ZN4_STL9allocatorIcEC2Ev
	.type	_ZN4_STL9allocatorIcEC2Ev, @function
_ZN4_STL9allocatorIcEC2Ev:
.LFB2624:
	.loc 11 345 0
	.cfi_startproc
	pushl	%ebp
	.cfi_def_cfa_offset 8
	.cfi_offset 5, -8
	movl	%esp, %ebp
	.cfi_def_cfa_register 5
	.loc 11 345 0
	popl	%ebp
	.cfi_restore 5
	.cfi_def_cfa 4, 4
	ret
	.cfi_endproc
.LFE2624:
	.size	_ZN4_STL9allocatorIcEC2Ev, .-_ZN4_STL9allocatorIcEC2Ev
	.weak	_ZN4_STL9allocatorIcEC1Ev
	.hidden	_ZN4_STL9allocatorIcEC1Ev
	.set	_ZN4_STL9allocatorIcEC1Ev,_ZN4_STL9allocatorIcEC2Ev
	.section	.text._ZN4_STL9allocatorIcED2Ev,"axG",@progbits,_ZN4_STL9allocatorIcED5Ev,comdat
	.align 2
	.weak	_ZN4_STL9allocatorIcED2Ev
	.hidden	_ZN4_STL9allocatorIcED2Ev
	.type	_ZN4_STL9allocatorIcED2Ev, @function
_ZN4_STL9allocatorIcED2Ev:
.LFB2627:
	.loc 11 350 0
	.cfi_startproc
	pushl	%ebp
	.cfi_def_cfa_offset 8
	.cfi_offset 5, -8
	movl	%esp, %ebp
	.cfi_def_cfa_register 5
	.loc 11 350 0
	popl	%ebp
	.cfi_restore 5
	.cfi_def_cfa 4, 4
	ret
	.cfi_endproc
.LFE2627:
	.size	_ZN4_STL9allocatorIcED2Ev, .-_ZN4_STL9allocatorIcED2Ev
	.weak	_ZN4_STL9allocatorIcED1Ev
	.hidden	_ZN4_STL9allocatorIcED1Ev
	.set	_ZN4_STL9allocatorIcED1Ev,_ZN4_STL9allocatorIcED2Ev
	.section	.text._ZN4_STL12_String_baseIcNS_9allocatorIcEEEC2ERKS2_,"axG",@progbits,_ZN4_STL12_String_baseIcNS_9allocatorIcEEEC5ERKS2_,comdat
	.align 2
	.weak	_ZN4_STL12_String_baseIcNS_9allocatorIcEEEC2ERKS2_
	.hidden	_ZN4_STL12_String_baseIcNS_9allocatorIcEEEC2ERKS2_
	.type	_ZN4_STL12_String_baseIcNS_9allocatorIcEEEC2ERKS2_, @function
_ZN4_STL12_String_baseIcNS_9allocatorIcEEEC2ERKS2_:
.LFB2630:
	.loc 10 128 0
	.cfi_startproc
	pushl	%ebp
	.cfi_def_cfa_offset 8
	.cfi_offset 5, -8
	leal	(%esp), %ebp
	.cfi_def_cfa_register 5
	leal	-24(%esp), %esp
.LBB28:
	.loc 10 129 0
	movl	8(%ebp), %eax
	movl	$0, (%eax)
	movl	8(%ebp), %eax
	movl	$0, 4(%eax)
	movl	8(%ebp), %eax
	movl	%eax, %edx
	addl	$8, %edx
	movl	$0, 8(%esp)
	movl	12(%ebp), %eax
	movl	%eax, 4(%esp)
	movl	%edx, (%esp)
	call	_ZN4_STL17_STLP_alloc_proxyIPccNS_9allocatorIcEEEC1ERKS3_S1_
.LBE28:
	leave
	.cfi_restore 5
	.cfi_def_cfa 4, 4
	ret
	.cfi_endproc
.LFE2630:
	.size	_ZN4_STL12_String_baseIcNS_9allocatorIcEEEC2ERKS2_, .-_ZN4_STL12_String_baseIcNS_9allocatorIcEEEC2ERKS2_
	.weak	_ZN4_STL12_String_baseIcNS_9allocatorIcEEEC1ERKS2_
	.hidden	_ZN4_STL12_String_baseIcNS_9allocatorIcEEEC1ERKS2_
	.set	_ZN4_STL12_String_baseIcNS_9allocatorIcEEEC1ERKS2_,_ZN4_STL12_String_baseIcNS_9allocatorIcEEEC2ERKS2_
	.section	.text._ZN4_STL9allocatorIcE8allocateEjPKv,"axG",@progbits,_ZN4_STL9allocatorIcE8allocateEjPKv,comdat
	.align 2
	.weak	_ZN4_STL9allocatorIcE8allocateEjPKv
	.hidden	_ZN4_STL9allocatorIcE8allocateEjPKv
	.type	_ZN4_STL9allocatorIcE8allocateEjPKv, @function
_ZN4_STL9allocatorIcE8allocateEjPKv:
.LFB2632:
	.loc 11 354 0
	.cfi_startproc
	pushl	%ebp
	.cfi_def_cfa_offset 8
	.cfi_offset 5, -8
	leal	(%esp), %ebp
	.cfi_def_cfa_register 5
	leal	-24(%esp), %esp
	.loc 11 355 0
	cmpl	$0, 12(%ebp)
	je	.L128
	.loc 11 355 0 is_stmt 0 discriminator 1
	movl	12(%ebp), %eax
	movl	%eax, (%esp)
	call	_ZN4_STL14__malloc_allocILi0EE8allocateEj
	jmp	.L129
.L128:
	.loc 11 355 0 discriminator 2
	movl	$0, %eax
.L129:
	.loc 11 356 0 is_stmt 1 discriminator 3
	leave
	.cfi_restore 5
	.cfi_def_cfa 4, 4
	ret
	.cfi_endproc
.LFE2632:
	.size	_ZN4_STL9allocatorIcE8allocateEjPKv, .-_ZN4_STL9allocatorIcE8allocateEjPKv
	.section	.text._ZN4_STL12basic_stringIcNS_11char_traitsIcEENS_9allocatorIcEEE19_M_terminate_stringEv,"axG",@progbits,_ZN4_STL12basic_stringIcNS_11char_traitsIcEENS_9allocatorIcEEE19_M_terminate_stringEv,comdat
	.align 2
	.weak	_ZN4_STL12basic_stringIcNS_11char_traitsIcEENS_9allocatorIcEEE19_M_terminate_stringEv
	.hidden	_ZN4_STL12basic_stringIcNS_11char_traitsIcEENS_9allocatorIcEEE19_M_terminate_stringEv
	.type	_ZN4_STL12basic_stringIcNS_11char_traitsIcEENS_9allocatorIcEEE19_M_terminate_stringEv, @function
_ZN4_STL12basic_stringIcNS_11char_traitsIcEENS_9allocatorIcEEE19_M_terminate_stringEv:
.LFB2633:
	.loc 10 354 0
	.cfi_startproc
	pushl	%ebp
	.cfi_def_cfa_offset 8
	.cfi_offset 5, -8
	movl	%esp, %ebp
	.cfi_def_cfa_register 5
	leal	-40(%esp), %esp
	.loc 10 355 0
	leal	-9(%ebp), %eax
	movl	%eax, 4(%esp)
	movl	8(%ebp), %eax
	movl	%eax, (%esp)
	call	_ZN4_STL12basic_stringIcNS_11char_traitsIcEENS_9allocatorIcEEE23_M_terminate_string_auxERKNS_11__true_typeE
	.loc 10 356 0
	leave
	.cfi_restore 5
	.cfi_def_cfa 4, 4
	ret
	.cfi_endproc
.LFE2633:
	.size	_ZN4_STL12basic_stringIcNS_11char_traitsIcEENS_9allocatorIcEEE19_M_terminate_stringEv, .-_ZN4_STL12basic_stringIcNS_11char_traitsIcEENS_9allocatorIcEEE19_M_terminate_stringEv
	.section	.text._ZN4_STL12_String_baseIcNS_9allocatorIcEEE19_M_deallocate_blockEv,"axG",@progbits,_ZN4_STL12_String_baseIcNS_9allocatorIcEEE19_M_deallocate_blockEv,comdat
	.align 2
	.weak	_ZN4_STL12_String_baseIcNS_9allocatorIcEEE19_M_deallocate_blockEv
	.hidden	_ZN4_STL12_String_baseIcNS_9allocatorIcEEE19_M_deallocate_blockEv
	.type	_ZN4_STL12_String_baseIcNS_9allocatorIcEEE19_M_deallocate_blockEv, @function
_ZN4_STL12_String_baseIcNS_9allocatorIcEEE19_M_deallocate_blockEv:
.LFB2642:
	.loc 10 123 0
	.cfi_startproc
	pushl	%ebp
	.cfi_def_cfa_offset 8
	.cfi_offset 5, -8
	leal	(%esp), %ebp
	.cfi_def_cfa_register 5
	leal	-24(%esp), %esp
	.loc 10 124 0
	movl	8(%ebp), %eax
	movl	8(%eax), %eax
	movl	%eax, %edx
	movl	8(%ebp), %eax
	movl	(%eax), %eax
	subl	%eax, %edx
	movl	%edx, %eax
	movl	%eax, %edx
	movl	8(%ebp), %eax
	movl	(%eax), %eax
	movl	8(%ebp), %ecx
	addl	$8, %ecx
	movl	%edx, 8(%esp)
	movl	%eax, 4(%esp)
	movl	%ecx, (%esp)
	call	_ZN4_STL9allocatorIcE10deallocateEPcj
	leave
	.cfi_restore 5
	.cfi_def_cfa 4, 4
	ret
	.cfi_endproc
.LFE2642:
	.size	_ZN4_STL12_String_baseIcNS_9allocatorIcEEE19_M_deallocate_blockEv, .-_ZN4_STL12_String_baseIcNS_9allocatorIcEEE19_M_deallocate_blockEv
	.section	.text._ZN4_STL18__char_traits_baseIciE4copyEPcPKcj,"axG",@progbits,_ZN4_STL18__char_traits_baseIciE4copyEPcPKcj,comdat
	.weak	_ZN4_STL18__char_traits_baseIciE4copyEPcPKcj
	.hidden	_ZN4_STL18__char_traits_baseIciE4copyEPcPKcj
	.type	_ZN4_STL18__char_traits_baseIciE4copyEPcPKcj, @function
_ZN4_STL18__char_traits_baseIciE4copyEPcPKcj:
.LFB2644:
	.loc 7 169 0
	.cfi_startproc
	pushl	%ebp
	.cfi_def_cfa_offset 8
	.cfi_offset 5, -8
	movl	%esp, %ebp
	.cfi_def_cfa_register 5
	pushl	%ebx
	leal	-20(%esp), %esp
	.cfi_offset 3, -12
	call	__x86.get_pc_thunk.bx
	addl	$_GLOBAL_OFFSET_TABLE_, %ebx
	.loc 7 171 0
	cmpl	$0, 16(%ebp)
	je	.L134
	.loc 7 171 0 is_stmt 0 discriminator 1
	movl	16(%ebp), %eax
	movl	%eax, 8(%esp)
	movl	12(%ebp), %eax
	movl	%eax, 4(%esp)
	movl	8(%ebp), %eax
	movl	%eax, (%esp)
	call	memcpy@PLT
	jmp	.L135
.L134:
	.loc 7 171 0 discriminator 2
	movl	8(%ebp), %eax
.L135:
	.loc 7 172 0 is_stmt 1 discriminator 3
	leal	20(%esp), %esp
	popl	%ebx
	.cfi_restore 3
	popl	%ebp
	.cfi_restore 5
	.cfi_def_cfa 4, 4
	ret
	.cfi_endproc
.LFE2644:
	.size	_ZN4_STL18__char_traits_baseIciE4copyEPcPKcj, .-_ZN4_STL18__char_traits_baseIciE4copyEPcPKcj
	.section	.text._ZN4_STL12basic_stringIcNS_11char_traitsIcEENS_9allocatorIcEEE5beginEv,"axG",@progbits,_ZN4_STL12basic_stringIcNS_11char_traitsIcEENS_9allocatorIcEEE5beginEv,comdat
	.align 2
	.weak	_ZN4_STL12basic_stringIcNS_11char_traitsIcEENS_9allocatorIcEEE5beginEv
	.hidden	_ZN4_STL12basic_stringIcNS_11char_traitsIcEENS_9allocatorIcEEE5beginEv
	.type	_ZN4_STL12basic_stringIcNS_11char_traitsIcEENS_9allocatorIcEEE5beginEv, @function
_ZN4_STL12basic_stringIcNS_11char_traitsIcEENS_9allocatorIcEEE5beginEv:
.LFB2645:
	.loc 10 416 0
	.cfi_startproc
	pushl	%ebp
	.cfi_def_cfa_offset 8
	.cfi_offset 5, -8
	leal	(%esp), %ebp
	.cfi_def_cfa_register 5
	.loc 10 416 0
	movl	8(%ebp), %eax
	movl	(%eax), %eax
	popl	%ebp
	.cfi_restore 5
	.cfi_def_cfa 4, 4
	ret
	.cfi_endproc
.LFE2645:
	.size	_ZN4_STL12basic_stringIcNS_11char_traitsIcEENS_9allocatorIcEEE5beginEv, .-_ZN4_STL12basic_stringIcNS_11char_traitsIcEENS_9allocatorIcEEE5beginEv
	.section	.text._ZN4_STL12basic_stringIcNS_11char_traitsIcEENS_9allocatorIcEEE3endEv,"axG",@progbits,_ZN4_STL12basic_stringIcNS_11char_traitsIcEENS_9allocatorIcEEE3endEv,comdat
	.align 2
	.weak	_ZN4_STL12basic_stringIcNS_11char_traitsIcEENS_9allocatorIcEEE3endEv
	.hidden	_ZN4_STL12basic_stringIcNS_11char_traitsIcEENS_9allocatorIcEEE3endEv
	.type	_ZN4_STL12basic_stringIcNS_11char_traitsIcEENS_9allocatorIcEEE3endEv, @function
_ZN4_STL12basic_stringIcNS_11char_traitsIcEENS_9allocatorIcEEE3endEv:
.LFB2646:
	.loc 10 417 0
	.cfi_startproc
	pushl	%ebp
	.cfi_def_cfa_offset 8
	.cfi_offset 5, -8
	leal	(%esp), %ebp
	.cfi_def_cfa_register 5
	.loc 10 417 0
	movl	8(%ebp), %eax
	movl	4(%eax), %eax
	popl	%ebp
	.cfi_restore 5
	.cfi_def_cfa 4, 4
	ret
	.cfi_endproc
.LFE2646:
	.size	_ZN4_STL12basic_stringIcNS_11char_traitsIcEENS_9allocatorIcEEE3endEv, .-_ZN4_STL12basic_stringIcNS_11char_traitsIcEENS_9allocatorIcEEE3endEv
	.section	.text._ZN4_STL12basic_stringIcNS_11char_traitsIcEENS_9allocatorIcEEE5eraseEPcS6_,"axG",@progbits,_ZN4_STL12basic_stringIcNS_11char_traitsIcEENS_9allocatorIcEEE5eraseEPcS6_,comdat
	.align 2
	.weak	_ZN4_STL12basic_stringIcNS_11char_traitsIcEENS_9allocatorIcEEE5eraseEPcS6_
	.hidden	_ZN4_STL12basic_stringIcNS_11char_traitsIcEENS_9allocatorIcEEE5eraseEPcS6_
	.type	_ZN4_STL12basic_stringIcNS_11char_traitsIcEENS_9allocatorIcEEE5eraseEPcS6_, @function
_ZN4_STL12basic_stringIcNS_11char_traitsIcEENS_9allocatorIcEEE5eraseEPcS6_:
.LFB2647:
	.loc 10 862 0
	.cfi_startproc
	pushl	%ebp
	.cfi_def_cfa_offset 8
	.cfi_offset 5, -8
	leal	(%esp), %ebp
	.cfi_def_cfa_register 5
	leal	-40(%esp), %esp
.LBB29:
.LBB30:
	.loc 10 863 0
	movl	12(%ebp), %eax
	cmpl	16(%ebp), %eax
	je	.L142
.LBB31:
	.loc 10 865 0
	movl	8(%ebp), %eax
	movl	4(%eax), %eax
	movl	%eax, %edx
	movl	16(%ebp), %eax
	subl	%eax, %edx
	movl	%edx, %eax
	addl	$1, %eax
	movl	%eax, 8(%esp)
	movl	16(%ebp), %eax
	movl	%eax, 4(%esp)
	movl	12(%ebp), %eax
	movl	%eax, (%esp)
	call	_ZN4_STL18__char_traits_baseIciE4moveEPcPKcj
	.loc 10 866 0
	movl	8(%ebp), %eax
	movl	4(%eax), %eax
	movl	16(%ebp), %ecx
	movl	12(%ebp), %edx
	subl	%edx, %ecx
	movl	%ecx, %edx
	negl	%edx
	addl	%edx, %eax
	movl	%eax, -12(%ebp)
	.loc 10 867 0
	movl	8(%ebp), %eax
	movl	4(%eax), %eax
	movl	%eax, %edx
	addl	$1, %edx
	movl	-12(%ebp), %eax
	addl	$1, %eax
	movl	%edx, 4(%esp)
	movl	%eax, (%esp)
	call	_ZN4_STL8_DestroyEPcS0_
	.loc 10 868 0
	movl	8(%ebp), %eax
	movl	-12(%ebp), %edx
	movl	%edx, 4(%eax)
.L142:
.LBE31:
.LBE30:
	.loc 10 870 0
	movl	12(%ebp), %eax
.LBE29:
	.loc 10 871 0
	leave
	.cfi_restore 5
	.cfi_def_cfa 4, 4
	ret
	.cfi_endproc
.LFE2647:
	.size	_ZN4_STL12basic_stringIcNS_11char_traitsIcEENS_9allocatorIcEEE5eraseEPcS6_, .-_ZN4_STL12basic_stringIcNS_11char_traitsIcEENS_9allocatorIcEEE5eraseEPcS6_
	.section	.text._ZN4_STL12basic_stringIcNS_11char_traitsIcEENS_9allocatorIcEEE6appendIPKcEERS5_T_SA_,"axG",@progbits,_ZN4_STL12basic_stringIcNS_11char_traitsIcEENS_9allocatorIcEEE6appendIPKcEERS5_T_SA_,comdat
	.align 2
	.weak	_ZN4_STL12basic_stringIcNS_11char_traitsIcEENS_9allocatorIcEEE6appendIPKcEERS5_T_SA_
	.hidden	_ZN4_STL12basic_stringIcNS_11char_traitsIcEENS_9allocatorIcEEE6appendIPKcEERS5_T_SA_
	.type	_ZN4_STL12basic_stringIcNS_11char_traitsIcEENS_9allocatorIcEEE6appendIPKcEERS5_T_SA_, @function
_ZN4_STL12basic_stringIcNS_11char_traitsIcEENS_9allocatorIcEEE6appendIPKcEERS5_T_SA_:
.LFB2648:
	.loc 10 506 0
	.cfi_startproc
	pushl	%ebp
	.cfi_def_cfa_offset 8
	.cfi_offset 5, -8
	movl	%esp, %ebp
	.cfi_def_cfa_register 5
	leal	-40(%esp), %esp
.LBB32:
	.loc 10 508 0
	leal	-9(%ebp), %eax
	movl	%eax, 12(%esp)
	movl	16(%ebp), %eax
	movl	%eax, 8(%esp)
	movl	12(%ebp), %eax
	movl	%eax, 4(%esp)
	movl	8(%ebp), %eax
	movl	%eax, (%esp)
	call	_ZN4_STL12basic_stringIcNS_11char_traitsIcEENS_9allocatorIcEEE18_M_append_dispatchIPKcEERS5_T_SA_RKNS_12__false_typeE
.LBE32:
	.loc 10 509 0
	leave
	.cfi_restore 5
	.cfi_def_cfa 4, 4
	ret
	.cfi_endproc
.LFE2648:
	.size	_ZN4_STL12basic_stringIcNS_11char_traitsIcEENS_9allocatorIcEEE6appendIPKcEERS5_T_SA_, .-_ZN4_STL12basic_stringIcNS_11char_traitsIcEENS_9allocatorIcEEE6appendIPKcEERS5_T_SA_
	.section	.text._ZN4_STL17_STLP_alloc_proxyIP7CIwRectS1_NS_9allocatorIS1_EEEC2ERKS4_S2_,"axG",@progbits,_ZN4_STL17_STLP_alloc_proxyIP7CIwRectS1_NS_9allocatorIS1_EEEC5ERKS4_S2_,comdat
	.align 2
	.weak	_ZN4_STL17_STLP_alloc_proxyIP7CIwRectS1_NS_9allocatorIS1_EEEC2ERKS4_S2_
	.hidden	_ZN4_STL17_STLP_alloc_proxyIP7CIwRectS1_NS_9allocatorIS1_EEEC2ERKS4_S2_
	.type	_ZN4_STL17_STLP_alloc_proxyIP7CIwRectS1_NS_9allocatorIS1_EEEC2ERKS4_S2_, @function
_ZN4_STL17_STLP_alloc_proxyIP7CIwRectS1_NS_9allocatorIS1_EEEC2ERKS4_S2_:
.LFB2650:
	.loc 11 487 0
	.cfi_startproc
	pushl	%ebp
	.cfi_def_cfa_offset 8
	.cfi_offset 5, -8
	leal	(%esp), %ebp
	.cfi_def_cfa_register 5
	leal	-24(%esp), %esp
.LBB33:
	.loc 11 487 0
	movl	12(%ebp), %eax
	movl	%eax, 4(%esp)
	movl	8(%ebp), %eax
	movl	%eax, (%esp)
	call	_ZN4_STL9allocatorI7CIwRectEC2ERKS2_
	movl	8(%ebp), %eax
	movl	16(%ebp), %edx
	movl	%edx, (%eax)
.LBE33:
	leave
	.cfi_restore 5
	.cfi_def_cfa 4, 4
	ret
	.cfi_endproc
.LFE2650:
	.size	_ZN4_STL17_STLP_alloc_proxyIP7CIwRectS1_NS_9allocatorIS1_EEEC2ERKS4_S2_, .-_ZN4_STL17_STLP_alloc_proxyIP7CIwRectS1_NS_9allocatorIS1_EEEC2ERKS4_S2_
	.weak	_ZN4_STL17_STLP_alloc_proxyIP7CIwRectS1_NS_9allocatorIS1_EEEC1ERKS4_S2_
	.hidden	_ZN4_STL17_STLP_alloc_proxyIP7CIwRectS1_NS_9allocatorIS1_EEEC1ERKS4_S2_
	.set	_ZN4_STL17_STLP_alloc_proxyIP7CIwRectS1_NS_9allocatorIS1_EEEC1ERKS4_S2_,_ZN4_STL17_STLP_alloc_proxyIP7CIwRectS1_NS_9allocatorIS1_EEEC2ERKS4_S2_
	.section	.text._ZN4_STL9allocatorI7CIwRectE10deallocateEPS1_j,"axG",@progbits,_ZN4_STL9allocatorI7CIwRectE10deallocateEPS1_j,comdat
	.align 2
	.weak	_ZN4_STL9allocatorI7CIwRectE10deallocateEPS1_j
	.hidden	_ZN4_STL9allocatorI7CIwRectE10deallocateEPS1_j
	.type	_ZN4_STL9allocatorI7CIwRectE10deallocateEPS1_j, @function
_ZN4_STL9allocatorI7CIwRectE10deallocateEPS1_j:
.LFB2652:
	.loc 11 358 0
	.cfi_startproc
	pushl	%ebp
	.cfi_def_cfa_offset 8
	.cfi_offset 5, -8
	leal	(%esp), %ebp
	.cfi_def_cfa_register 5
	leal	-24(%esp), %esp
	.loc 11 360 0
	cmpl	$0, 12(%ebp)
	je	.L147
	.loc 11 360 0 is_stmt 0 discriminator 1
	movl	16(%ebp), %eax
	sall	$3, %eax
	movl	%eax, 4(%esp)
	movl	12(%ebp), %eax
	movl	%eax, (%esp)
	call	_ZN4_STL14__malloc_allocILi0EE10deallocateEPvj
.L147:
	.loc 11 361 0 is_stmt 1
	leave
	.cfi_restore 5
	.cfi_def_cfa 4, 4
	ret
	.cfi_endproc
.LFE2652:
	.size	_ZN4_STL9allocatorI7CIwRectE10deallocateEPS1_j, .-_ZN4_STL9allocatorI7CIwRectE10deallocateEPS1_j
	.section	.text._ZN4_STL9__destroyIP7CIwRectS1_EEvT_S3_PT0_,"axG",@progbits,_ZN4_STL9__destroyIP7CIwRectS1_EEvT_S3_PT0_,comdat
	.weak	_ZN4_STL9__destroyIP7CIwRectS1_EEvT_S3_PT0_
	.hidden	_ZN4_STL9__destroyIP7CIwRectS1_EEvT_S3_PT0_
	.type	_ZN4_STL9__destroyIP7CIwRectS1_EEvT_S3_PT0_, @function
_ZN4_STL9__destroyIP7CIwRectS1_EEvT_S3_PT0_:
.LFB2653:
	.loc 3 132 0
	.cfi_startproc
	pushl	%ebp
	.cfi_def_cfa_offset 8
	.cfi_offset 5, -8
	movl	%esp, %ebp
	.cfi_def_cfa_register 5
	leal	-40(%esp), %esp
.LBB34:
	.loc 3 134 0
	leal	-9(%ebp), %eax
	movl	%eax, 8(%esp)
	movl	12(%ebp), %eax
	movl	%eax, 4(%esp)
	movl	8(%ebp), %eax
	movl	%eax, (%esp)
	call	_ZN4_STL13__destroy_auxIP7CIwRectEEvT_S3_RKNS_12__false_typeE
.LBE34:
	.loc 3 135 0
	leave
	.cfi_restore 5
	.cfi_def_cfa 4, 4
	ret
	.cfi_endproc
.LFE2653:
	.size	_ZN4_STL9__destroyIP7CIwRectS1_EEvT_S3_PT0_, .-_ZN4_STL9__destroyIP7CIwRectS1_EEvT_S3_PT0_
	.section	.text._ZN4_STL3maxIjEERKT_S3_S3_,"axG",@progbits,_ZN4_STL3maxIjEERKT_S3_S3_,comdat
	.weak	_ZN4_STL3maxIjEERKT_S3_S3_
	.hidden	_ZN4_STL3maxIjEERKT_S3_S3_
	.type	_ZN4_STL3maxIjEERKT_S3_S3_, @function
_ZN4_STL3maxIjEERKT_S3_S3_:
.LFB2654:
	.loc 1 79 0
	.cfi_startproc
	pushl	%ebp
	.cfi_def_cfa_offset 8
	.cfi_offset 5, -8
	leal	(%esp), %ebp
	.cfi_def_cfa_register 5
	.loc 1 79 0
	movl	8(%ebp), %eax
	movl	(%eax), %edx
	movl	12(%ebp), %eax
	movl	(%eax), %eax
	cmpl	%eax, %edx
	jae	.L151
	.loc 1 79 0 is_stmt 0 discriminator 1
	movl	12(%ebp), %eax
	jmp	.L152
.L151:
	.loc 1 79 0 discriminator 2
	movl	8(%ebp), %eax
.L152:
	.loc 1 79 0 discriminator 3
	popl	%ebp
	.cfi_restore 5
	.cfi_def_cfa 4, 4
	ret
	.cfi_endproc
.LFE2654:
	.size	_ZN4_STL3maxIjEERKT_S3_S3_, .-_ZN4_STL3maxIjEERKT_S3_S3_
	.section	.text._ZN4_STL9allocatorI7CIwRectE8allocateEjPKv,"axG",@progbits,_ZN4_STL9allocatorI7CIwRectE8allocateEjPKv,comdat
	.align 2
	.weak	_ZN4_STL9allocatorI7CIwRectE8allocateEjPKv
	.hidden	_ZN4_STL9allocatorI7CIwRectE8allocateEjPKv
	.type	_ZN4_STL9allocatorI7CIwRectE8allocateEjPKv, @function
_ZN4_STL9allocatorI7CIwRectE8allocateEjPKv:
.LFB2655:
	.loc 11 354 0 is_stmt 1
	.cfi_startproc
	pushl	%ebp
	.cfi_def_cfa_offset 8
	.cfi_offset 5, -8
	leal	(%esp), %ebp
	.cfi_def_cfa_register 5
	leal	-24(%esp), %esp
	.loc 11 355 0
	cmpl	$0, 12(%ebp)
	je	.L155
	.loc 11 355 0 is_stmt 0 discriminator 1
	movl	12(%ebp), %eax
	sall	$3, %eax
	movl	%eax, (%esp)
	call	_ZN4_STL14__malloc_allocILi0EE8allocateEj
	jmp	.L156
.L155:
	.loc 11 355 0 discriminator 2
	movl	$0, %eax
.L156:
	.loc 11 356 0 is_stmt 1 discriminator 3
	leave
	.cfi_restore 5
	.cfi_def_cfa 4, 4
	ret
	.cfi_endproc
.LFE2655:
	.size	_ZN4_STL9allocatorI7CIwRectE8allocateEjPKv, .-_ZN4_STL9allocatorI7CIwRectE8allocateEjPKv
	.section	.text._ZN4_STL20__uninitialized_copyIP7CIwRectS2_EET0_T_S4_S3_RKNS_12__false_typeE,"axG",@progbits,_ZN4_STL20__uninitialized_copyIP7CIwRectS2_EET0_T_S4_S3_RKNS_12__false_typeE,comdat
	.weak	_ZN4_STL20__uninitialized_copyIP7CIwRectS2_EET0_T_S4_S3_RKNS_12__false_typeE
	.hidden	_ZN4_STL20__uninitialized_copyIP7CIwRectS2_EET0_T_S4_S3_RKNS_12__false_typeE
	.type	_ZN4_STL20__uninitialized_copyIP7CIwRectS2_EET0_T_S4_S3_RKNS_12__false_typeE, @function
_ZN4_STL20__uninitialized_copyIP7CIwRectS2_EET0_T_S4_S3_RKNS_12__false_typeE:
.LFB2656:
	.loc 4 61 0
	.cfi_startproc
	pushl	%ebp
	.cfi_def_cfa_offset 8
	.cfi_offset 5, -8
	leal	(%esp), %ebp
	.cfi_def_cfa_register 5
	leal	-40(%esp), %esp
.LBB35:
	.loc 4 64 0
	movl	16(%ebp), %eax
	movl	%eax, -12(%ebp)
	.loc 4 66 0
	jmp	.L159
.L160:
	.loc 4 67 0 discriminator 2
	movl	8(%ebp), %eax
	movl	%eax, 4(%esp)
	movl	-12(%ebp), %eax
	movl	%eax, (%esp)
	call	_ZN4_STL10_ConstructI7CIwRectS1_EEvPT_RKT0_
	.loc 4 66 0 discriminator 2
	addl	$8, 8(%ebp)
	addl	$8, -12(%ebp)
.L159:
	.loc 4 66 0 is_stmt 0 discriminator 1
	movl	8(%ebp), %eax
	cmpl	12(%ebp), %eax
	jne	.L160
	.loc 4 68 0 is_stmt 1
	movl	-12(%ebp), %eax
.LBE35:
	.loc 4 74 0
	leave
	.cfi_restore 5
	.cfi_def_cfa 4, 4
	ret
	.cfi_endproc
.LFE2656:
	.size	_ZN4_STL20__uninitialized_copyIP7CIwRectS2_EET0_T_S4_S3_RKNS_12__false_typeE, .-_ZN4_STL20__uninitialized_copyIP7CIwRectS2_EET0_T_S4_S3_RKNS_12__false_typeE
	.section	.text._ZN4_STL22__uninitialized_fill_nIP7CIwRectjS1_EET_S3_T0_RKT1_RKNS_12__false_typeE,"axG",@progbits,_ZN4_STL22__uninitialized_fill_nIP7CIwRectjS1_EET_S3_T0_RKT1_RKNS_12__false_typeE,comdat
	.weak	_ZN4_STL22__uninitialized_fill_nIP7CIwRectjS1_EET_S3_T0_RKT1_RKNS_12__false_typeE
	.hidden	_ZN4_STL22__uninitialized_fill_nIP7CIwRectjS1_EET_S3_T0_RKT1_RKNS_12__false_typeE
	.type	_ZN4_STL22__uninitialized_fill_nIP7CIwRectjS1_EET_S3_T0_RKT1_RKNS_12__false_typeE, @function
_ZN4_STL22__uninitialized_fill_nIP7CIwRectjS1_EET_S3_T0_RKT1_RKNS_12__false_typeE:
.LFB2657:
	.loc 4 190 0
	.cfi_startproc
	pushl	%ebp
	.cfi_def_cfa_offset 8
	.cfi_offset 5, -8
	leal	(%esp), %ebp
	.cfi_def_cfa_register 5
	leal	-40(%esp), %esp
.LBB36:
	.loc 4 193 0
	movl	8(%ebp), %eax
	movl	%eax, -12(%ebp)
	.loc 4 195 0
	jmp	.L163
.L164:
	.loc 4 196 0 discriminator 2
	movl	16(%ebp), %eax
	movl	%eax, 4(%esp)
	movl	-12(%ebp), %eax
	movl	%eax, (%esp)
	call	_ZN4_STL10_ConstructI7CIwRectS1_EEvPT_RKT0_
	.loc 4 195 0 discriminator 2
	subl	$1, 12(%ebp)
	addl	$8, -12(%ebp)
.L163:
	.loc 4 195 0 is_stmt 0 discriminator 1
	cmpl	$0, 12(%ebp)
	jne	.L164
	.loc 4 197 0 is_stmt 1
	movl	-12(%ebp), %eax
.LBE36:
	.loc 4 203 0
	leave
	.cfi_restore 5
	.cfi_def_cfa 4, 4
	ret
	.cfi_endproc
.LFE2657:
	.size	_ZN4_STL22__uninitialized_fill_nIP7CIwRectjS1_EET_S3_T0_RKT1_RKNS_12__false_typeE, .-_ZN4_STL22__uninitialized_fill_nIP7CIwRectjS1_EET_S3_T0_RKT1_RKNS_12__false_typeE
	.section	.text._ZN4_STL6vectorI7CIwRectNS_9allocatorIS1_EEE8_M_clearEv,"axG",@progbits,_ZN4_STL6vectorI7CIwRectNS_9allocatorIS1_EEE8_M_clearEv,comdat
	.align 2
	.weak	_ZN4_STL6vectorI7CIwRectNS_9allocatorIS1_EEE8_M_clearEv
	.hidden	_ZN4_STL6vectorI7CIwRectNS_9allocatorIS1_EEE8_M_clearEv
	.type	_ZN4_STL6vectorI7CIwRectNS_9allocatorIS1_EEE8_M_clearEv, @function
_ZN4_STL6vectorI7CIwRectNS_9allocatorIS1_EEE8_M_clearEv:
.LFB2658:
	.loc 12 493 0
	.cfi_startproc
	pushl	%ebp
	.cfi_def_cfa_offset 8
	.cfi_offset 5, -8
	leal	(%esp), %ebp
	.cfi_def_cfa_register 5
	leal	-24(%esp), %esp
	.loc 12 495 0
	movl	8(%ebp), %eax
	movl	4(%eax), %edx
	movl	8(%ebp), %eax
	movl	(%eax), %eax
	movl	%edx, 4(%esp)
	movl	%eax, (%esp)
	call	_ZN4_STL8_DestroyIP7CIwRectEEvT_S3_
	.loc 12 496 0
	movl	8(%ebp), %eax
	movl	8(%eax), %eax
	movl	%eax, %edx
	movl	8(%ebp), %eax
	movl	(%eax), %eax
	subl	%eax, %edx
	movl	%edx, %eax
	sarl	$3, %eax
	movl	%eax, %edx
	movl	8(%ebp), %eax
	movl	(%eax), %eax
	movl	8(%ebp), %ecx
	addl	$8, %ecx
	movl	%edx, 8(%esp)
	movl	%eax, 4(%esp)
	movl	%ecx, (%esp)
	call	_ZN4_STL9allocatorI7CIwRectE10deallocateEPS1_j
	.loc 12 498 0
	leave
	.cfi_restore 5
	.cfi_def_cfa 4, 4
	ret
	.cfi_endproc
.LFE2658:
	.size	_ZN4_STL6vectorI7CIwRectNS_9allocatorIS1_EEE8_M_clearEv, .-_ZN4_STL6vectorI7CIwRectNS_9allocatorIS1_EEE8_M_clearEv
	.section	.text._ZN4_STL6vectorI7CIwRectNS_9allocatorIS1_EEE6_M_setEPS1_S5_S5_,"axG",@progbits,_ZN4_STL6vectorI7CIwRectNS_9allocatorIS1_EEE6_M_setEPS1_S5_S5_,comdat
	.align 2
	.weak	_ZN4_STL6vectorI7CIwRectNS_9allocatorIS1_EEE6_M_setEPS1_S5_S5_
	.hidden	_ZN4_STL6vectorI7CIwRectNS_9allocatorIS1_EEE6_M_setEPS1_S5_S5_
	.type	_ZN4_STL6vectorI7CIwRectNS_9allocatorIS1_EEE6_M_setEPS1_S5_S5_, @function
_ZN4_STL6vectorI7CIwRectNS_9allocatorIS1_EEE6_M_setEPS1_S5_S5_:
.LFB2659:
	.loc 12 500 0
	.cfi_startproc
	pushl	%ebp
	.cfi_def_cfa_offset 8
	.cfi_offset 5, -8
	leal	(%esp), %ebp
	.cfi_def_cfa_register 5
	.loc 12 501 0
	movl	8(%ebp), %eax
	movl	12(%ebp), %edx
	movl	%edx, (%eax)
	.loc 12 502 0
	movl	8(%ebp), %eax
	movl	16(%ebp), %edx
	movl	%edx, 4(%eax)
	.loc 12 503 0
	movl	8(%ebp), %eax
	movl	20(%ebp), %edx
	movl	%edx, 8(%eax)
	.loc 12 504 0
	popl	%ebp
	.cfi_restore 5
	.cfi_def_cfa 4, 4
	ret
	.cfi_endproc
.LFE2659:
	.size	_ZN4_STL6vectorI7CIwRectNS_9allocatorIS1_EEE6_M_setEPS1_S5_S5_, .-_ZN4_STL6vectorI7CIwRectNS_9allocatorIS1_EEE6_M_setEPS1_S5_S5_
	.section	.text._ZN4_STL17_STLP_alloc_proxyIPccNS_9allocatorIcEEEC2ERKS3_S1_,"axG",@progbits,_ZN4_STL17_STLP_alloc_proxyIPccNS_9allocatorIcEEEC5ERKS3_S1_,comdat
	.align 2
	.weak	_ZN4_STL17_STLP_alloc_proxyIPccNS_9allocatorIcEEEC2ERKS3_S1_
	.hidden	_ZN4_STL17_STLP_alloc_proxyIPccNS_9allocatorIcEEEC2ERKS3_S1_
	.type	_ZN4_STL17_STLP_alloc_proxyIPccNS_9allocatorIcEEEC2ERKS3_S1_, @function
_ZN4_STL17_STLP_alloc_proxyIPccNS_9allocatorIcEEEC2ERKS3_S1_:
.LFB2661:
	.loc 11 487 0
	.cfi_startproc
	pushl	%ebp
	.cfi_def_cfa_offset 8
	.cfi_offset 5, -8
	leal	(%esp), %ebp
	.cfi_def_cfa_register 5
	leal	-24(%esp), %esp
.LBB37:
	.loc 11 487 0
	movl	12(%ebp), %eax
	movl	%eax, 4(%esp)
	movl	8(%ebp), %eax
	movl	%eax, (%esp)
	call	_ZN4_STL9allocatorIcEC2ERKS1_
	movl	8(%ebp), %eax
	movl	16(%ebp), %edx
	movl	%edx, (%eax)
.LBE37:
	leave
	.cfi_restore 5
	.cfi_def_cfa 4, 4
	ret
	.cfi_endproc
.LFE2661:
	.size	_ZN4_STL17_STLP_alloc_proxyIPccNS_9allocatorIcEEEC2ERKS3_S1_, .-_ZN4_STL17_STLP_alloc_proxyIPccNS_9allocatorIcEEEC2ERKS3_S1_
	.weak	_ZN4_STL17_STLP_alloc_proxyIPccNS_9allocatorIcEEEC1ERKS3_S1_
	.hidden	_ZN4_STL17_STLP_alloc_proxyIPccNS_9allocatorIcEEEC1ERKS3_S1_
	.set	_ZN4_STL17_STLP_alloc_proxyIPccNS_9allocatorIcEEEC1ERKS3_S1_,_ZN4_STL17_STLP_alloc_proxyIPccNS_9allocatorIcEEEC2ERKS3_S1_
	.section	.text._ZN4_STL14__malloc_allocILi0EE8allocateEj,"axG",@progbits,_ZN4_STL14__malloc_allocILi0EE8allocateEj,comdat
	.weak	_ZN4_STL14__malloc_allocILi0EE8allocateEj
	.hidden	_ZN4_STL14__malloc_allocILi0EE8allocateEj
	.type	_ZN4_STL14__malloc_allocILi0EE8allocateEj, @function
_ZN4_STL14__malloc_allocILi0EE8allocateEj:
.LFB2663:
	.loc 11 109 0
	.cfi_startproc
	pushl	%ebp
	.cfi_def_cfa_offset 8
	.cfi_offset 5, -8
	movl	%esp, %ebp
	.cfi_def_cfa_register 5
	pushl	%ebx
	leal	-36(%esp), %esp
	.cfi_offset 3, -12
	call	__x86.get_pc_thunk.bx
	addl	$_GLOBAL_OFFSET_TABLE_, %ebx
.LBB38:
	.loc 11 110 0
	movl	8(%ebp), %eax
	movl	%eax, (%esp)
	call	malloc@PLT
	movl	%eax, -12(%ebp)
	.loc 11 111 0
	cmpl	$0, -12(%ebp)
	jne	.L170
	.loc 11 111 0 is_stmt 0 discriminator 1
	movl	8(%ebp), %eax
	movl	%eax, (%esp)
	call	_ZN4_STL14__malloc_allocILi0EE13_S_oom_mallocEj@PLT
	movl	%eax, -12(%ebp)
.L170:
	.loc 11 112 0 is_stmt 1
	movl	-12(%ebp), %eax
.LBE38:
	.loc 11 113 0
	leal	36(%esp), %esp
	popl	%ebx
	.cfi_restore 3
	popl	%ebp
	.cfi_restore 5
	.cfi_def_cfa 4, 4
	ret
	.cfi_endproc
.LFE2663:
	.size	_ZN4_STL14__malloc_allocILi0EE8allocateEj, .-_ZN4_STL14__malloc_allocILi0EE8allocateEj
	.section	.text._ZN4_STL12basic_stringIcNS_11char_traitsIcEENS_9allocatorIcEEE23_M_terminate_string_auxERKNS_11__true_typeE,"axG",@progbits,_ZN4_STL12basic_stringIcNS_11char_traitsIcEENS_9allocatorIcEEE23_M_terminate_string_auxERKNS_11__true_typeE,comdat
	.align 2
	.weak	_ZN4_STL12basic_stringIcNS_11char_traitsIcEENS_9allocatorIcEEE23_M_terminate_string_auxERKNS_11__true_typeE
	.hidden	_ZN4_STL12basic_stringIcNS_11char_traitsIcEENS_9allocatorIcEEE23_M_terminate_string_auxERKNS_11__true_typeE
	.type	_ZN4_STL12basic_stringIcNS_11char_traitsIcEENS_9allocatorIcEEE23_M_terminate_string_auxERKNS_11__true_typeE, @function
_ZN4_STL12basic_stringIcNS_11char_traitsIcEENS_9allocatorIcEEE23_M_terminate_string_auxERKNS_11__true_typeE:
.LFB2664:
	.loc 10 350 0
	.cfi_startproc
	pushl	%ebp
	.cfi_def_cfa_offset 8
	.cfi_offset 5, -8
	leal	(%esp), %ebp
	.cfi_def_cfa_register 5
	.loc 10 351 0
	movl	8(%ebp), %eax
	movl	4(%eax), %eax
	movb	$0, (%eax)
	.loc 10 352 0
	popl	%ebp
	.cfi_restore 5
	.cfi_def_cfa 4, 4
	ret
	.cfi_endproc
.LFE2664:
	.size	_ZN4_STL12basic_stringIcNS_11char_traitsIcEENS_9allocatorIcEEE23_M_terminate_string_auxERKNS_11__true_typeE, .-_ZN4_STL12basic_stringIcNS_11char_traitsIcEENS_9allocatorIcEEE23_M_terminate_string_auxERKNS_11__true_typeE
	.section	.text._ZN4_STL9allocatorIcE10deallocateEPcj,"axG",@progbits,_ZN4_STL9allocatorIcE10deallocateEPcj,comdat
	.align 2
	.weak	_ZN4_STL9allocatorIcE10deallocateEPcj
	.hidden	_ZN4_STL9allocatorIcE10deallocateEPcj
	.type	_ZN4_STL9allocatorIcE10deallocateEPcj, @function
_ZN4_STL9allocatorIcE10deallocateEPcj:
.LFB2669:
	.loc 11 358 0
	.cfi_startproc
	pushl	%ebp
	.cfi_def_cfa_offset 8
	.cfi_offset 5, -8
	leal	(%esp), %ebp
	.cfi_def_cfa_register 5
	leal	-24(%esp), %esp
	.loc 11 360 0
	cmpl	$0, 12(%ebp)
	je	.L173
	.loc 11 360 0 is_stmt 0 discriminator 1
	movl	16(%ebp), %eax
	movl	%eax, 4(%esp)
	movl	12(%ebp), %eax
	movl	%eax, (%esp)
	call	_ZN4_STL14__malloc_allocILi0EE10deallocateEPvj
.L173:
	.loc 11 361 0 is_stmt 1
	leave
	.cfi_restore 5
	.cfi_def_cfa 4, 4
	ret
	.cfi_endproc
.LFE2669:
	.size	_ZN4_STL9allocatorIcE10deallocateEPcj, .-_ZN4_STL9allocatorIcE10deallocateEPcj
	.section	.text._ZN4_STL18__char_traits_baseIciE4moveEPcPKcj,"axG",@progbits,_ZN4_STL18__char_traits_baseIciE4moveEPcPKcj,comdat
	.weak	_ZN4_STL18__char_traits_baseIciE4moveEPcPKcj
	.hidden	_ZN4_STL18__char_traits_baseIciE4moveEPcPKcj
	.type	_ZN4_STL18__char_traits_baseIciE4moveEPcPKcj, @function
_ZN4_STL18__char_traits_baseIciE4moveEPcPKcj:
.LFB2671:
	.loc 7 165 0
	.cfi_startproc
	pushl	%ebp
	.cfi_def_cfa_offset 8
	.cfi_offset 5, -8
	movl	%esp, %ebp
	.cfi_def_cfa_register 5
	pushl	%ebx
	leal	-20(%esp), %esp
	.cfi_offset 3, -12
	call	__x86.get_pc_thunk.bx
	addl	$_GLOBAL_OFFSET_TABLE_, %ebx
	.loc 7 166 0
	cmpl	$0, 16(%ebp)
	je	.L176
	.loc 7 166 0 is_stmt 0 discriminator 1
	movl	16(%ebp), %eax
	movl	%eax, 8(%esp)
	movl	12(%ebp), %eax
	movl	%eax, 4(%esp)
	movl	8(%ebp), %eax
	movl	%eax, (%esp)
	call	memmove@PLT
	jmp	.L177
.L176:
	.loc 7 166 0 discriminator 2
	movl	8(%ebp), %eax
.L177:
	.loc 7 167 0 is_stmt 1 discriminator 3
	leal	20(%esp), %esp
	popl	%ebx
	.cfi_restore 3
	popl	%ebp
	.cfi_restore 5
	.cfi_def_cfa 4, 4
	ret
	.cfi_endproc
.LFE2671:
	.size	_ZN4_STL18__char_traits_baseIciE4moveEPcPKcj, .-_ZN4_STL18__char_traits_baseIciE4moveEPcPKcj
	.section	.text._ZN4_STL12basic_stringIcNS_11char_traitsIcEENS_9allocatorIcEEE18_M_append_dispatchIPKcEERS5_T_SA_RKNS_12__false_typeE,"axG",@progbits,_ZN4_STL12basic_stringIcNS_11char_traitsIcEENS_9allocatorIcEEE18_M_append_dispatchIPKcEERS5_T_SA_RKNS_12__false_typeE,comdat
	.align 2
	.weak	_ZN4_STL12basic_stringIcNS_11char_traitsIcEENS_9allocatorIcEEE18_M_append_dispatchIPKcEERS5_T_SA_RKNS_12__false_typeE
	.hidden	_ZN4_STL12basic_stringIcNS_11char_traitsIcEENS_9allocatorIcEEE18_M_append_dispatchIPKcEERS5_T_SA_RKNS_12__false_typeE
	.type	_ZN4_STL12basic_stringIcNS_11char_traitsIcEENS_9allocatorIcEEE18_M_append_dispatchIPKcEERS5_T_SA_RKNS_12__false_typeE, @function
_ZN4_STL12basic_stringIcNS_11char_traitsIcEENS_9allocatorIcEEE18_M_append_dispatchIPKcEERS5_T_SA_RKNS_12__false_typeE:
.LFB2672:
	.loc 10 586 0
	.cfi_startproc
	pushl	%ebp
	.cfi_def_cfa_offset 8
	.cfi_offset 5, -8
	movl	%esp, %ebp
	.cfi_def_cfa_register 5
	leal	-40(%esp), %esp
	.loc 10 588 0
	leal	-9(%ebp), %eax
	movl	%eax, 12(%esp)
	movl	16(%ebp), %eax
	movl	%eax, 8(%esp)
	movl	12(%ebp), %eax
	movl	%eax, 4(%esp)
	movl	8(%ebp), %eax
	movl	%eax, (%esp)
	call	_ZN4_STL12basic_stringIcNS_11char_traitsIcEENS_9allocatorIcEEE6appendIPKcEERS5_T_SA_RKNS_20forward_iterator_tagE
	.loc 10 589 0
	leave
	.cfi_restore 5
	.cfi_def_cfa 4, 4
	ret
	.cfi_endproc
.LFE2672:
	.size	_ZN4_STL12basic_stringIcNS_11char_traitsIcEENS_9allocatorIcEEE18_M_append_dispatchIPKcEERS5_T_SA_RKNS_12__false_typeE, .-_ZN4_STL12basic_stringIcNS_11char_traitsIcEENS_9allocatorIcEEE18_M_append_dispatchIPKcEERS5_T_SA_RKNS_12__false_typeE
	.section	.text._ZN4_STL9allocatorI7CIwRectEC2ERKS2_,"axG",@progbits,_ZN4_STL9allocatorI7CIwRectEC5ERKS2_,comdat
	.align 2
	.weak	_ZN4_STL9allocatorI7CIwRectEC2ERKS2_
	.hidden	_ZN4_STL9allocatorI7CIwRectEC2ERKS2_
	.type	_ZN4_STL9allocatorI7CIwRectEC2ERKS2_, @function
_ZN4_STL9allocatorI7CIwRectEC2ERKS2_:
.LFB2674:
	.loc 11 349 0
	.cfi_startproc
	pushl	%ebp
	.cfi_def_cfa_offset 8
	.cfi_offset 5, -8
	movl	%esp, %ebp
	.cfi_def_cfa_register 5
	.loc 11 349 0
	popl	%ebp
	.cfi_restore 5
	.cfi_def_cfa 4, 4
	ret
	.cfi_endproc
.LFE2674:
	.size	_ZN4_STL9allocatorI7CIwRectEC2ERKS2_, .-_ZN4_STL9allocatorI7CIwRectEC2ERKS2_
	.weak	_ZN4_STL9allocatorI7CIwRectEC1ERKS2_
	.hidden	_ZN4_STL9allocatorI7CIwRectEC1ERKS2_
	.set	_ZN4_STL9allocatorI7CIwRectEC1ERKS2_,_ZN4_STL9allocatorI7CIwRectEC2ERKS2_
	.section	.text._ZN4_STL14__malloc_allocILi0EE10deallocateEPvj,"axG",@progbits,_ZN4_STL14__malloc_allocILi0EE10deallocateEPvj,comdat
	.weak	_ZN4_STL14__malloc_allocILi0EE10deallocateEPvj
	.hidden	_ZN4_STL14__malloc_allocILi0EE10deallocateEPvj
	.type	_ZN4_STL14__malloc_allocILi0EE10deallocateEPvj, @function
_ZN4_STL14__malloc_allocILi0EE10deallocateEPvj:
.LFB2676:
	.loc 11 114 0
	.cfi_startproc
	pushl	%ebp
	.cfi_def_cfa_offset 8
	.cfi_offset 5, -8
	movl	%esp, %ebp
	.cfi_def_cfa_register 5
	pushl	%ebx
	leal	-20(%esp), %esp
	.cfi_offset 3, -12
	call	__x86.get_pc_thunk.bx
	addl	$_GLOBAL_OFFSET_TABLE_, %ebx
	.loc 11 114 0
	movl	8(%ebp), %eax
	movl	%eax, (%esp)
	call	free@PLT
	leal	20(%esp), %esp
	popl	%ebx
	.cfi_restore 3
	popl	%ebp
	.cfi_restore 5
	.cfi_def_cfa 4, 4
	ret
	.cfi_endproc
.LFE2676:
	.size	_ZN4_STL14__malloc_allocILi0EE10deallocateEPvj, .-_ZN4_STL14__malloc_allocILi0EE10deallocateEPvj
	.section	.text._ZN4_STL13__destroy_auxIP7CIwRectEEvT_S3_RKNS_12__false_typeE,"axG",@progbits,_ZN4_STL13__destroy_auxIP7CIwRectEEvT_S3_RKNS_12__false_typeE,comdat
	.weak	_ZN4_STL13__destroy_auxIP7CIwRectEEvT_S3_RKNS_12__false_typeE
	.hidden	_ZN4_STL13__destroy_auxIP7CIwRectEEvT_S3_RKNS_12__false_typeE
	.type	_ZN4_STL13__destroy_auxIP7CIwRectEEvT_S3_RKNS_12__false_typeE, @function
_ZN4_STL13__destroy_auxIP7CIwRectEEvT_S3_RKNS_12__false_typeE:
.LFB2677:
	.loc 3 122 0
	.cfi_startproc
	pushl	%ebp
	.cfi_def_cfa_offset 8
	.cfi_offset 5, -8
	movl	%esp, %ebp
	.cfi_def_cfa_register 5
	leal	-24(%esp), %esp
	.loc 3 123 0
	jmp	.L184
.L185:
	.loc 3 124 0 discriminator 2
	movl	8(%ebp), %eax
	movl	%eax, (%esp)
	call	_ZN4_STL8_DestroyI7CIwRectEEvPT_
	.loc 3 123 0 discriminator 2
	addl	$8, 8(%ebp)
.L184:
	.loc 3 123 0 is_stmt 0 discriminator 1
	movl	8(%ebp), %eax
	cmpl	12(%ebp), %eax
	jne	.L185
	.loc 3 125 0 is_stmt 1
	leave
	.cfi_restore 5
	.cfi_def_cfa 4, 4
	ret
	.cfi_endproc
.LFE2677:
	.size	_ZN4_STL13__destroy_auxIP7CIwRectEEvT_S3_RKNS_12__false_typeE, .-_ZN4_STL13__destroy_auxIP7CIwRectEEvT_S3_RKNS_12__false_typeE
	.section	.text._ZN4_STL9allocatorIcEC2ERKS1_,"axG",@progbits,_ZN4_STL9allocatorIcEC5ERKS1_,comdat
	.align 2
	.weak	_ZN4_STL9allocatorIcEC2ERKS1_
	.hidden	_ZN4_STL9allocatorIcEC2ERKS1_
	.type	_ZN4_STL9allocatorIcEC2ERKS1_, @function
_ZN4_STL9allocatorIcEC2ERKS1_:
.LFB2679:
	.loc 11 349 0
	.cfi_startproc
	pushl	%ebp
	.cfi_def_cfa_offset 8
	.cfi_offset 5, -8
	movl	%esp, %ebp
	.cfi_def_cfa_register 5
	.loc 11 349 0
	popl	%ebp
	.cfi_restore 5
	.cfi_def_cfa 4, 4
	ret
	.cfi_endproc
.LFE2679:
	.size	_ZN4_STL9allocatorIcEC2ERKS1_, .-_ZN4_STL9allocatorIcEC2ERKS1_
	.weak	_ZN4_STL9allocatorIcEC1ERKS1_
	.hidden	_ZN4_STL9allocatorIcEC1ERKS1_
	.set	_ZN4_STL9allocatorIcEC1ERKS1_,_ZN4_STL9allocatorIcEC2ERKS1_
	.section	.text._ZN4_STL12basic_stringIcNS_11char_traitsIcEENS_9allocatorIcEEE6appendIPKcEERS5_T_SA_RKNS_20forward_iterator_tagE,"axG",@progbits,_ZN4_STL12basic_stringIcNS_11char_traitsIcEENS_9allocatorIcEEE6appendIPKcEERS5_T_SA_RKNS_20forward_iterator_tagE,comdat
	.align 2
	.weak	_ZN4_STL12basic_stringIcNS_11char_traitsIcEENS_9allocatorIcEEE6appendIPKcEERS5_T_SA_RKNS_20forward_iterator_tagE
	.hidden	_ZN4_STL12basic_stringIcNS_11char_traitsIcEENS_9allocatorIcEEE6appendIPKcEERS5_T_SA_RKNS_20forward_iterator_tagE
	.type	_ZN4_STL12basic_stringIcNS_11char_traitsIcEENS_9allocatorIcEEE6appendIPKcEERS5_T_SA_RKNS_20forward_iterator_tagE, @function
_ZN4_STL12basic_stringIcNS_11char_traitsIcEENS_9allocatorIcEEE6appendIPKcEERS5_T_SA_RKNS_20forward_iterator_tagE:
.LFB2686:
	.loc 10 542 0
	.cfi_startproc
	pushl	%ebp
	.cfi_def_cfa_offset 8
	.cfi_offset 5, -8
	movl	%esp, %ebp
	.cfi_def_cfa_register 5
	pushl	%esi
	leal	-52(%esp), %esp
	.cfi_offset 6, -12
.LBB39:
.LBB40:
	.loc 10 544 0
	movl	12(%ebp), %edx
	movl	16(%ebp), %eax
	cmpl	%eax, %edx
	je	.L188
.LBB41:
	.loc 10 545 0
	movl	8(%ebp), %eax
	movl	%eax, (%esp)
	call	_ZNK4_STL12basic_stringIcNS_11char_traitsIcEENS_9allocatorIcEEE4sizeEv
	movl	%eax, -36(%ebp)
	.loc 10 546 0
	leal	16(%ebp), %eax
	movl	%eax, 4(%esp)
	leal	12(%ebp), %eax
	movl	%eax, (%esp)
	call	_ZN4_STL8distanceIPKcEENS_15iterator_traitsIT_E15difference_typeERKS4_S8_
	movl	%eax, -12(%ebp)
	.loc 10 547 0
	movl	-12(%ebp), %esi
	movl	8(%ebp), %eax
	movl	%eax, (%esp)
	call	_ZNK4_STL12basic_stringIcNS_11char_traitsIcEENS_9allocatorIcEEE8max_sizeEv
	cmpl	%eax, %esi
	ja	.L189
	.loc 10 547 0 is_stmt 0 discriminator 2
	movl	8(%ebp), %eax
	movl	%eax, (%esp)
	call	_ZNK4_STL12basic_stringIcNS_11char_traitsIcEENS_9allocatorIcEEE8max_sizeEv
	movl	-12(%ebp), %edx
	subl	%edx, %eax
	movl	%eax, %edx
	movl	-36(%ebp), %eax
	cmpl	%eax, %edx
	jae	.L190
.L189:
	.loc 10 547 0 discriminator 1
	movl	$1, %eax
	jmp	.L191
.L190:
	.loc 10 547 0 discriminator 3
	movl	$0, %eax
.L191:
	.loc 10 547 0 discriminator 4
	testb	%al, %al
	je	.L192
	.loc 10 548 0 is_stmt 1
	movl	8(%ebp), %eax
	movl	%eax, (%esp)
	call	_ZNK4_STL12_String_baseIcNS_9allocatorIcEEE21_M_throw_length_errorEv
.L192:
.LBB42:
	.loc 10 549 0
	movl	-36(%ebp), %edx
	movl	-12(%ebp), %eax
	movl	%edx, %esi
	addl	%eax, %esi
	movl	8(%ebp), %eax
	movl	%eax, (%esp)
	call	_ZNK4_STL12basic_stringIcNS_11char_traitsIcEENS_9allocatorIcEEE8capacityEv
	cmpl	%eax, %esi
	seta	%al
	testb	%al, %al
	je	.L193
.LBB43:
	.loc 10 551 0
	movl	-12(%ebp), %eax
	movl	%eax, -32(%ebp)
	leal	-32(%ebp), %eax
	movl	%eax, 4(%esp)
	leal	-36(%ebp), %eax
	movl	%eax, (%esp)
	call	_ZN4_STL3maxIjEERKT_S3_S3_
	movl	(%eax), %edx
	movl	-36(%ebp), %eax
	addl	%edx, %eax
	addl	$1, %eax
	movl	%eax, -16(%ebp)
	.loc 10 552 0
	movl	8(%ebp), %eax
	movl	%eax, %edx
	addl	$8, %edx
	movl	$0, 8(%esp)
	movl	-16(%ebp), %eax
	movl	%eax, 4(%esp)
	movl	%edx, (%esp)
	call	_ZN4_STL9allocatorIcE8allocateEjPKv
	movl	%eax, -20(%ebp)
	.loc 10 553 0
	movl	-20(%ebp), %eax
	movl	%eax, -24(%ebp)
	.loc 10 555 0
	movl	8(%ebp), %eax
	movl	4(%eax), %edx
	movl	8(%ebp), %eax
	movl	(%eax), %eax
	movl	-20(%ebp), %ecx
	movl	%ecx, 8(%esp)
	movl	%edx, 4(%esp)
	movl	%eax, (%esp)
	call	_ZN4_STL18uninitialized_copyIPcS1_EET0_T_S3_S2_
	movl	%eax, -24(%ebp)
	.loc 10 556 0
	movl	16(%ebp), %edx
	movl	12(%ebp), %eax
	movl	-24(%ebp), %ecx
	movl	%ecx, 8(%esp)
	movl	%edx, 4(%esp)
	movl	%eax, (%esp)
	call	_ZN4_STL18uninitialized_copyEPKcS1_Pc
	movl	%eax, -24(%ebp)
	.loc 10 557 0
	movl	-24(%ebp), %eax
	movl	%eax, 4(%esp)
	movl	8(%ebp), %eax
	movl	%eax, (%esp)
	call	_ZN4_STL12basic_stringIcNS_11char_traitsIcEENS_9allocatorIcEEE17_M_construct_nullEPc
	.loc 10 561 0
	movl	8(%ebp), %eax
	movl	4(%eax), %eax
	movl	%eax, %edx
	addl	$1, %edx
	movl	8(%ebp), %eax
	movl	(%eax), %eax
	movl	%edx, 4(%esp)
	movl	%eax, (%esp)
	call	_ZN4_STL8_DestroyEPcS0_
	.loc 10 562 0
	movl	8(%ebp), %eax
	movl	%eax, (%esp)
	call	_ZN4_STL12_String_baseIcNS_9allocatorIcEEE19_M_deallocate_blockEv
	.loc 10 563 0
	movl	8(%ebp), %eax
	movl	-20(%ebp), %edx
	movl	%edx, (%eax)
	.loc 10 564 0
	movl	8(%ebp), %eax
	movl	-24(%ebp), %edx
	movl	%edx, 4(%eax)
	.loc 10 565 0
	movl	-16(%ebp), %eax
	movl	-20(%ebp), %edx
	addl	%eax, %edx
	movl	8(%ebp), %eax
	movl	%edx, 8(%eax)
.LBE43:
	jmp	.L188
.L193:
.LBB44:
	.loc 10 568 0
	movl	12(%ebp), %eax
	movl	%eax, -28(%ebp)
	.loc 10 569 0
	addl	$1, -28(%ebp)
	.loc 10 570 0
	movl	8(%ebp), %eax
	movl	4(%eax), %eax
	movl	%eax, %edx
	addl	$1, %edx
	movl	16(%ebp), %eax
	movl	%edx, 8(%esp)
	movl	%eax, 4(%esp)
	movl	-28(%ebp), %eax
	movl	%eax, (%esp)
	call	_ZN4_STL18uninitialized_copyEPKcS1_Pc
	.loc 10 572 0
	movl	8(%ebp), %eax
	movl	4(%eax), %edx
	movl	-12(%ebp), %eax
	addl	%edx, %eax
	movl	%eax, 4(%esp)
	movl	8(%ebp), %eax
	movl	%eax, (%esp)
	call	_ZN4_STL12basic_stringIcNS_11char_traitsIcEENS_9allocatorIcEEE17_M_construct_nullEPc
	.loc 10 575 0
	movl	12(%ebp), %esi
	movl	8(%ebp), %eax
	movl	%eax, (%esp)
	call	_ZN4_STL12basic_stringIcNS_11char_traitsIcEENS_9allocatorIcEEE3endEv
	movl	%esi, 4(%esp)
	movl	%eax, (%esp)
	call	_ZN4_STL11char_traitsIcE6assignERcRKc
	.loc 10 576 0
	movl	8(%ebp), %eax
	movl	4(%eax), %edx
	movl	-12(%ebp), %eax
	addl	%eax, %edx
	movl	8(%ebp), %eax
	movl	%edx, 4(%eax)
.L188:
.LBE44:
.LBE42:
.LBE41:
.LBE40:
	.loc 10 579 0
	movl	8(%ebp), %eax
.LBE39:
	.loc 10 580 0
	leal	52(%esp), %esp
	popl	%esi
	.cfi_restore 6
	popl	%ebp
	.cfi_restore 5
	.cfi_def_cfa 4, 4
	ret
	.cfi_endproc
.LFE2686:
	.size	_ZN4_STL12basic_stringIcNS_11char_traitsIcEENS_9allocatorIcEEE6appendIPKcEERS5_T_SA_RKNS_20forward_iterator_tagE, .-_ZN4_STL12basic_stringIcNS_11char_traitsIcEENS_9allocatorIcEEE6appendIPKcEERS5_T_SA_RKNS_20forward_iterator_tagE
	.section	.text._ZN4_STL8_DestroyI7CIwRectEEvPT_,"axG",@progbits,_ZN4_STL8_DestroyI7CIwRectEEvPT_,comdat
	.weak	_ZN4_STL8_DestroyI7CIwRectEEvPT_
	.hidden	_ZN4_STL8_DestroyI7CIwRectEEvPT_
	.type	_ZN4_STL8_DestroyI7CIwRectEEvPT_, @function
_ZN4_STL8_DestroyI7CIwRectEEvPT_:
.LFB2687:
	.loc 3 56 0
	.cfi_startproc
	pushl	%ebp
	.cfi_def_cfa_offset 8
	.cfi_offset 5, -8
	movl	%esp, %ebp
	.cfi_def_cfa_register 5
	.loc 3 73 0
	popl	%ebp
	.cfi_restore 5
	.cfi_def_cfa 4, 4
	ret
	.cfi_endproc
.LFE2687:
	.size	_ZN4_STL8_DestroyI7CIwRectEEvPT_, .-_ZN4_STL8_DestroyI7CIwRectEEvPT_
	.section	.text._ZN4_STL8distanceIPKcEENS_15iterator_traitsIT_E15difference_typeERKS4_S8_,"axG",@progbits,_ZN4_STL8distanceIPKcEENS_15iterator_traitsIT_E15difference_typeERKS4_S8_,comdat
	.weak	_ZN4_STL8distanceIPKcEENS_15iterator_traitsIT_E15difference_typeERKS4_S8_
	.hidden	_ZN4_STL8distanceIPKcEENS_15iterator_traitsIT_E15difference_typeERKS4_S8_
	.type	_ZN4_STL8distanceIPKcEENS_15iterator_traitsIT_E15difference_typeERKS4_S8_, @function
_ZN4_STL8distanceIPKcEENS_15iterator_traitsIT_E15difference_typeERKS4_S8_:
.LFB2690:
	.file 14 "c:/marmalade/7.5/s3e/h/std/c++/stl/_iterator_base.h"
	.loc 14 368 0
	.cfi_startproc
	pushl	%ebp
	.cfi_def_cfa_offset 8
	.cfi_offset 5, -8
	movl	%esp, %ebp
	.cfi_def_cfa_register 5
	leal	-40(%esp), %esp
	.loc 14 369 0
	leal	-9(%ebp), %eax
	movl	%eax, 8(%esp)
	movl	12(%ebp), %eax
	movl	%eax, 4(%esp)
	movl	8(%ebp), %eax
	movl	%eax, (%esp)
	call	_ZN4_STL10__distanceIPKcEENS_15iterator_traitsIT_E15difference_typeERKS4_S8_RKNS_26random_access_iterator_tagE
	.loc 14 370 0
	leave
	.cfi_restore 5
	.cfi_def_cfa 4, 4
	ret
	.cfi_endproc
.LFE2690:
	.size	_ZN4_STL8distanceIPKcEENS_15iterator_traitsIT_E15difference_typeERKS4_S8_, .-_ZN4_STL8distanceIPKcEENS_15iterator_traitsIT_E15difference_typeERKS4_S8_
	.section	.text._ZNK4_STL12basic_stringIcNS_11char_traitsIcEENS_9allocatorIcEEE8max_sizeEv,"axG",@progbits,_ZNK4_STL12basic_stringIcNS_11char_traitsIcEENS_9allocatorIcEEE8max_sizeEv,comdat
	.align 2
	.weak	_ZNK4_STL12basic_stringIcNS_11char_traitsIcEENS_9allocatorIcEEE8max_sizeEv
	.hidden	_ZNK4_STL12basic_stringIcNS_11char_traitsIcEENS_9allocatorIcEEE8max_sizeEv
	.type	_ZNK4_STL12basic_stringIcNS_11char_traitsIcEENS_9allocatorIcEEE8max_sizeEv, @function
_ZNK4_STL12basic_stringIcNS_11char_traitsIcEENS_9allocatorIcEEE8max_sizeEv:
.LFB2691:
	.loc 10 434 0
	.cfi_startproc
	pushl	%ebp
	.cfi_def_cfa_offset 8
	.cfi_offset 5, -8
	leal	(%esp), %ebp
	.cfi_def_cfa_register 5
	leal	-24(%esp), %esp
	.loc 10 434 0
	movl	8(%ebp), %eax
	movl	%eax, (%esp)
	call	_ZNK4_STL12_String_baseIcNS_9allocatorIcEEE8max_sizeEv
	leave
	.cfi_restore 5
	.cfi_def_cfa 4, 4
	ret
	.cfi_endproc
.LFE2691:
	.size	_ZNK4_STL12basic_stringIcNS_11char_traitsIcEENS_9allocatorIcEEE8max_sizeEv, .-_ZNK4_STL12basic_stringIcNS_11char_traitsIcEENS_9allocatorIcEEE8max_sizeEv
	.section	.rodata
.LC2:
	.string	"basic_string"
	.section	.text._ZNK4_STL12_String_baseIcNS_9allocatorIcEEE21_M_throw_length_errorEv,"axG",@progbits,_ZNK4_STL12_String_baseIcNS_9allocatorIcEEE21_M_throw_length_errorEv,comdat
	.align 2
	.weak	_ZNK4_STL12_String_baseIcNS_9allocatorIcEEE21_M_throw_length_errorEv
	.hidden	_ZNK4_STL12_String_baseIcNS_9allocatorIcEEE21_M_throw_length_errorEv
	.type	_ZNK4_STL12_String_baseIcNS_9allocatorIcEEE21_M_throw_length_errorEv, @function
_ZNK4_STL12_String_baseIcNS_9allocatorIcEEE21_M_throw_length_errorEv:
.LFB2692:
	.loc 13 522 0
	.cfi_startproc
	pushl	%ebp
	.cfi_def_cfa_offset 8
	.cfi_offset 5, -8
	movl	%esp, %ebp
	.cfi_def_cfa_register 5
	pushl	%ebx
	leal	-20(%esp), %esp
	.cfi_offset 3, -12
	call	__x86.get_pc_thunk.bx
	addl	$_GLOBAL_OFFSET_TABLE_, %ebx
	.loc 13 523 0
	leal	.LC2@GOTOFF(%ebx), %eax
	movl	%eax, (%esp)
	call	_ZN4_STL24__stl_throw_length_errorEPKc@PLT
	.loc 13 524 0
	leal	20(%esp), %esp
	popl	%ebx
	.cfi_restore 3
	popl	%ebp
	.cfi_restore 5
	.cfi_def_cfa 4, 4
	ret
	.cfi_endproc
.LFE2692:
	.size	_ZNK4_STL12_String_baseIcNS_9allocatorIcEEE21_M_throw_length_errorEv, .-_ZNK4_STL12_String_baseIcNS_9allocatorIcEEE21_M_throw_length_errorEv
	.section	.text._ZNK4_STL12basic_stringIcNS_11char_traitsIcEENS_9allocatorIcEEE8capacityEv,"axG",@progbits,_ZNK4_STL12basic_stringIcNS_11char_traitsIcEENS_9allocatorIcEEE8capacityEv,comdat
	.align 2
	.weak	_ZNK4_STL12basic_stringIcNS_11char_traitsIcEENS_9allocatorIcEEE8capacityEv
	.hidden	_ZNK4_STL12basic_stringIcNS_11char_traitsIcEENS_9allocatorIcEEE8capacityEv
	.type	_ZNK4_STL12basic_stringIcNS_11char_traitsIcEENS_9allocatorIcEEE8capacityEv, @function
_ZNK4_STL12basic_stringIcNS_11char_traitsIcEENS_9allocatorIcEEE8capacityEv:
.LFB2693:
	.loc 10 447 0
	.cfi_startproc
	pushl	%ebp
	.cfi_def_cfa_offset 8
	.cfi_offset 5, -8
	leal	(%esp), %ebp
	.cfi_def_cfa_register 5
	.loc 10 447 0
	movl	8(%ebp), %eax
	movl	8(%eax), %eax
	movl	%eax, %edx
	movl	8(%ebp), %eax
	movl	(%eax), %eax
	subl	%eax, %edx
	movl	%edx, %eax
	subl	$1, %eax
	popl	%ebp
	.cfi_restore 5
	.cfi_def_cfa 4, 4
	ret
	.cfi_endproc
.LFE2693:
	.size	_ZNK4_STL12basic_stringIcNS_11char_traitsIcEENS_9allocatorIcEEE8capacityEv, .-_ZNK4_STL12basic_stringIcNS_11char_traitsIcEENS_9allocatorIcEEE8capacityEv
	.section	.text._ZN4_STL18uninitialized_copyIPcS1_EET0_T_S3_S2_,"axG",@progbits,_ZN4_STL18uninitialized_copyIPcS1_EET0_T_S3_S2_,comdat
	.weak	_ZN4_STL18uninitialized_copyIPcS1_EET0_T_S3_S2_
	.hidden	_ZN4_STL18uninitialized_copyIPcS1_EET0_T_S3_S2_
	.type	_ZN4_STL18uninitialized_copyIPcS1_EET0_T_S3_S2_, @function
_ZN4_STL18uninitialized_copyIPcS1_EET0_T_S3_S2_:
.LFB2694:
	.loc 4 78 0
	.cfi_startproc
	pushl	%ebp
	.cfi_def_cfa_offset 8
	.cfi_offset 5, -8
	movl	%esp, %ebp
	.cfi_def_cfa_register 5
	leal	-40(%esp), %esp
	.loc 4 79 0
	leal	-9(%ebp), %eax
	movl	%eax, 12(%esp)
	movl	16(%ebp), %eax
	movl	%eax, 8(%esp)
	movl	12(%ebp), %eax
	movl	%eax, 4(%esp)
	movl	8(%ebp), %eax
	movl	%eax, (%esp)
	call	_ZN4_STL20__uninitialized_copyIPcS1_EET0_T_S3_S2_RKNS_11__true_typeE
	.loc 4 80 0
	leave
	.cfi_restore 5
	.cfi_def_cfa 4, 4
	ret
	.cfi_endproc
.LFE2694:
	.size	_ZN4_STL18uninitialized_copyIPcS1_EET0_T_S3_S2_, .-_ZN4_STL18uninitialized_copyIPcS1_EET0_T_S3_S2_
	.section	.text._ZN4_STL12basic_stringIcNS_11char_traitsIcEENS_9allocatorIcEEE17_M_construct_nullEPc,"axG",@progbits,_ZN4_STL12basic_stringIcNS_11char_traitsIcEENS_9allocatorIcEEE17_M_construct_nullEPc,comdat
	.align 2
	.weak	_ZN4_STL12basic_stringIcNS_11char_traitsIcEENS_9allocatorIcEEE17_M_construct_nullEPc
	.hidden	_ZN4_STL12basic_stringIcNS_11char_traitsIcEENS_9allocatorIcEEE17_M_construct_nullEPc
	.type	_ZN4_STL12basic_stringIcNS_11char_traitsIcEENS_9allocatorIcEEE17_M_construct_nullEPc, @function
_ZN4_STL12basic_stringIcNS_11char_traitsIcEENS_9allocatorIcEEE17_M_construct_nullEPc:
.LFB2695:
	.loc 10 335 0
	.cfi_startproc
	pushl	%ebp
	.cfi_def_cfa_offset 8
	.cfi_offset 5, -8
	movl	%esp, %ebp
	.cfi_def_cfa_register 5
	leal	-40(%esp), %esp
	.loc 10 336 0
	leal	-9(%ebp), %eax
	movl	%eax, 8(%esp)
	movl	12(%ebp), %eax
	movl	%eax, 4(%esp)
	movl	8(%ebp), %eax
	movl	%eax, (%esp)
	call	_ZN4_STL12basic_stringIcNS_11char_traitsIcEENS_9allocatorIcEEE21_M_construct_null_auxEPcRKNS_11__true_typeE
	.loc 10 337 0
	leave
	.cfi_restore 5
	.cfi_def_cfa 4, 4
	ret
	.cfi_endproc
.LFE2695:
	.size	_ZN4_STL12basic_stringIcNS_11char_traitsIcEENS_9allocatorIcEEE17_M_construct_nullEPc, .-_ZN4_STL12basic_stringIcNS_11char_traitsIcEENS_9allocatorIcEEE17_M_construct_nullEPc
	.section	.text._ZN4_STL10__distanceIPKcEENS_15iterator_traitsIT_E15difference_typeERKS4_S8_RKNS_26random_access_iterator_tagE,"axG",@progbits,_ZN4_STL10__distanceIPKcEENS_15iterator_traitsIT_E15difference_typeERKS4_S8_RKNS_26random_access_iterator_tagE,comdat
	.weak	_ZN4_STL10__distanceIPKcEENS_15iterator_traitsIT_E15difference_typeERKS4_S8_RKNS_26random_access_iterator_tagE
	.hidden	_ZN4_STL10__distanceIPKcEENS_15iterator_traitsIT_E15difference_typeERKS4_S8_RKNS_26random_access_iterator_tagE
	.type	_ZN4_STL10__distanceIPKcEENS_15iterator_traitsIT_E15difference_typeERKS4_S8_RKNS_26random_access_iterator_tagE, @function
_ZN4_STL10__distanceIPKcEENS_15iterator_traitsIT_E15difference_typeERKS4_S8_RKNS_26random_access_iterator_tagE:
.LFB2697:
	.loc 14 361 0
	.cfi_startproc
	pushl	%ebp
	.cfi_def_cfa_offset 8
	.cfi_offset 5, -8
	leal	(%esp), %ebp
	.cfi_def_cfa_register 5
	.loc 14 363 0
	movl	12(%ebp), %eax
	movl	(%eax), %eax
	movl	%eax, %edx
	movl	8(%ebp), %eax
	movl	(%eax), %eax
	subl	%eax, %edx
	movl	%edx, %eax
	.loc 14 364 0
	popl	%ebp
	.cfi_restore 5
	.cfi_def_cfa 4, 4
	ret
	.cfi_endproc
.LFE2697:
	.size	_ZN4_STL10__distanceIPKcEENS_15iterator_traitsIT_E15difference_typeERKS4_S8_RKNS_26random_access_iterator_tagE, .-_ZN4_STL10__distanceIPKcEENS_15iterator_traitsIT_E15difference_typeERKS4_S8_RKNS_26random_access_iterator_tagE
	.section	.text._ZNK4_STL12_String_baseIcNS_9allocatorIcEEE8max_sizeEv,"axG",@progbits,_ZNK4_STL12_String_baseIcNS_9allocatorIcEEE8max_sizeEv,comdat
	.align 2
	.weak	_ZNK4_STL12_String_baseIcNS_9allocatorIcEEE8max_sizeEv
	.hidden	_ZNK4_STL12_String_baseIcNS_9allocatorIcEEE8max_sizeEv
	.type	_ZNK4_STL12_String_baseIcNS_9allocatorIcEEE8max_sizeEv, @function
_ZNK4_STL12_String_baseIcNS_9allocatorIcEEE8max_sizeEv:
.LFB2698:
	.loc 10 126 0
	.cfi_startproc
	pushl	%ebp
	.cfi_def_cfa_offset 8
	.cfi_offset 5, -8
	movl	%esp, %ebp
	.cfi_def_cfa_register 5
	.loc 10 126 0
	movl	$-2, %eax
	popl	%ebp
	.cfi_restore 5
	.cfi_def_cfa 4, 4
	ret
	.cfi_endproc
.LFE2698:
	.size	_ZNK4_STL12_String_baseIcNS_9allocatorIcEEE8max_sizeEv, .-_ZNK4_STL12_String_baseIcNS_9allocatorIcEEE8max_sizeEv
	.section	.text._ZN4_STL20__uninitialized_copyIPcS1_EET0_T_S3_S2_RKNS_11__true_typeE,"axG",@progbits,_ZN4_STL20__uninitialized_copyIPcS1_EET0_T_S3_S2_RKNS_11__true_typeE,comdat
	.weak	_ZN4_STL20__uninitialized_copyIPcS1_EET0_T_S3_S2_RKNS_11__true_typeE
	.hidden	_ZN4_STL20__uninitialized_copyIPcS1_EET0_T_S3_S2_RKNS_11__true_typeE
	.type	_ZN4_STL20__uninitialized_copyIPcS1_EET0_T_S3_S2_RKNS_11__true_typeE, @function
_ZN4_STL20__uninitialized_copyIPcS1_EET0_T_S3_S2_RKNS_11__true_typeE:
.LFB2699:
	.loc 4 53 0
	.cfi_startproc
	pushl	%ebp
	.cfi_def_cfa_offset 8
	.cfi_offset 5, -8
	movl	%esp, %ebp
	.cfi_def_cfa_register 5
	leal	-56(%esp), %esp
	.loc 4 55 0
	leal	-25(%ebp), %eax
	movl	%eax, (%esp)
	call	_ZN4_STL12_BothPtrTypeIPcS1_E4_RetEv
	leal	-4(%esp), %esp
	leal	-9(%ebp), %eax
	movl	%eax, 12(%esp)
	movl	16(%ebp), %eax
	movl	%eax, 8(%esp)
	movl	12(%ebp), %eax
	movl	%eax, 4(%esp)
	movl	8(%ebp), %eax
	movl	%eax, (%esp)
	call	_ZN4_STL10__copy_auxIPcS1_EET0_T_S3_S2_RKNS_11__true_typeE
	.loc 4 56 0
	leave
	.cfi_restore 5
	.cfi_def_cfa 4, 4
	ret
	.cfi_endproc
.LFE2699:
	.size	_ZN4_STL20__uninitialized_copyIPcS1_EET0_T_S3_S2_RKNS_11__true_typeE, .-_ZN4_STL20__uninitialized_copyIPcS1_EET0_T_S3_S2_RKNS_11__true_typeE
	.section	.text._ZN4_STL12basic_stringIcNS_11char_traitsIcEENS_9allocatorIcEEE21_M_construct_null_auxEPcRKNS_11__true_typeE,"axG",@progbits,_ZN4_STL12basic_stringIcNS_11char_traitsIcEENS_9allocatorIcEEE21_M_construct_null_auxEPcRKNS_11__true_typeE,comdat
	.align 2
	.weak	_ZN4_STL12basic_stringIcNS_11char_traitsIcEENS_9allocatorIcEEE21_M_construct_null_auxEPcRKNS_11__true_typeE
	.hidden	_ZN4_STL12basic_stringIcNS_11char_traitsIcEENS_9allocatorIcEEE21_M_construct_null_auxEPcRKNS_11__true_typeE
	.type	_ZN4_STL12basic_stringIcNS_11char_traitsIcEENS_9allocatorIcEEE21_M_construct_null_auxEPcRKNS_11__true_typeE, @function
_ZN4_STL12basic_stringIcNS_11char_traitsIcEENS_9allocatorIcEEE21_M_construct_null_auxEPcRKNS_11__true_typeE:
.LFB2700:
	.loc 10 331 0
	.cfi_startproc
	pushl	%ebp
	.cfi_def_cfa_offset 8
	.cfi_offset 5, -8
	leal	(%esp), %ebp
	.cfi_def_cfa_register 5
	.loc 10 332 0
	movl	12(%ebp), %eax
	movb	$0, (%eax)
	.loc 10 333 0
	popl	%ebp
	.cfi_restore 5
	.cfi_def_cfa 4, 4
	ret
	.cfi_endproc
.LFE2700:
	.size	_ZN4_STL12basic_stringIcNS_11char_traitsIcEENS_9allocatorIcEEE21_M_construct_null_auxEPcRKNS_11__true_typeE, .-_ZN4_STL12basic_stringIcNS_11char_traitsIcEENS_9allocatorIcEEE21_M_construct_null_auxEPcRKNS_11__true_typeE
	.section	.text._ZN4_STL12_BothPtrTypeIPcS1_E4_RetEv,"axG",@progbits,_ZN4_STL12_BothPtrTypeIPcS1_E4_RetEv,comdat
	.weak	_ZN4_STL12_BothPtrTypeIPcS1_E4_RetEv
	.hidden	_ZN4_STL12_BothPtrTypeIPcS1_E4_RetEv
	.type	_ZN4_STL12_BothPtrTypeIPcS1_E4_RetEv, @function
_ZN4_STL12_BothPtrTypeIPcS1_E4_RetEv:
.LFB2702:
	.file 15 "c:/marmalade/7.5/s3e/h/std/c++/stl/type_traits.h"
	.loc 15 234 0
	.cfi_startproc
	pushl	%ebp
	.cfi_def_cfa_offset 8
	.cfi_offset 5, -8
	leal	(%esp), %ebp
	.cfi_def_cfa_register 5
	.loc 15 234 0
	nop
	movl	8(%ebp), %eax
	popl	%ebp
	.cfi_restore 5
	.cfi_def_cfa 4, 4
	ret	$4
	.cfi_endproc
.LFE2702:
	.size	_ZN4_STL12_BothPtrTypeIPcS1_E4_RetEv, .-_ZN4_STL12_BothPtrTypeIPcS1_E4_RetEv
	.section	.text._ZN4_STL10__copy_auxIPcS1_EET0_T_S3_S2_RKNS_11__true_typeE,"axG",@progbits,_ZN4_STL10__copy_auxIPcS1_EET0_T_S3_S2_RKNS_11__true_typeE,comdat
	.weak	_ZN4_STL10__copy_auxIPcS1_EET0_T_S3_S2_RKNS_11__true_typeE
	.hidden	_ZN4_STL10__copy_auxIPcS1_EET0_T_S3_S2_RKNS_11__true_typeE
	.type	_ZN4_STL10__copy_auxIPcS1_EET0_T_S3_S2_RKNS_11__true_typeE, @function
_ZN4_STL10__copy_auxIPcS1_EET0_T_S3_S2_RKNS_11__true_typeE:
.LFB2703:
	.loc 1 201 0
	.cfi_startproc
	pushl	%ebp
	.cfi_def_cfa_offset 8
	.cfi_offset 5, -8
	movl	%esp, %ebp
	.cfi_def_cfa_register 5
	leal	-56(%esp), %esp
	.loc 1 204 0
	leal	-25(%ebp), %eax
	movl	$0, 8(%esp)
	movl	$0, 4(%esp)
	movl	%eax, (%esp)
	call	_ZN4_STL13_IsOKToMemCpyIccEENS_11_OKToMemCpyIT_T0_EEPS2_PS3_
	leal	-4(%esp), %esp
	leal	-25(%ebp), %eax
	movl	%eax, (%esp)
	call	_ZN4_STL11_OKToMemCpyIccE4_RetEv
	leal	-4(%esp), %esp
	leal	-9(%ebp), %eax
	movl	%eax, 12(%esp)
	movl	16(%ebp), %eax
	movl	%eax, 8(%esp)
	movl	12(%ebp), %eax
	movl	%eax, 4(%esp)
	movl	8(%ebp), %eax
	movl	%eax, (%esp)
	call	_ZN4_STL11__copy_ptrsIPcS1_EET0_T_S3_S2_RKNS_11__true_typeE
	.loc 1 205 0
	leave
	.cfi_restore 5
	.cfi_def_cfa 4, 4
	ret
	.cfi_endproc
.LFE2703:
	.size	_ZN4_STL10__copy_auxIPcS1_EET0_T_S3_S2_RKNS_11__true_typeE, .-_ZN4_STL10__copy_auxIPcS1_EET0_T_S3_S2_RKNS_11__true_typeE
	.section	.text._ZN4_STL13_IsOKToMemCpyIccEENS_11_OKToMemCpyIT_T0_EEPS2_PS3_,"axG",@progbits,_ZN4_STL13_IsOKToMemCpyIccEENS_11_OKToMemCpyIT_T0_EEPS2_PS3_,comdat
	.weak	_ZN4_STL13_IsOKToMemCpyIccEENS_11_OKToMemCpyIT_T0_EEPS2_PS3_
	.hidden	_ZN4_STL13_IsOKToMemCpyIccEENS_11_OKToMemCpyIT_T0_EEPS2_PS3_
	.type	_ZN4_STL13_IsOKToMemCpyIccEENS_11_OKToMemCpyIT_T0_EEPS2_PS3_, @function
_ZN4_STL13_IsOKToMemCpyIccEENS_11_OKToMemCpyIT_T0_EEPS2_PS3_:
.LFB2704:
	.loc 15 365 0
	.cfi_startproc
	pushl	%ebp
	.cfi_def_cfa_offset 8
	.cfi_offset 5, -8
	leal	(%esp), %ebp
	.cfi_def_cfa_register 5
	.loc 15 366 0
	nop
	.loc 15 367 0
	movl	8(%ebp), %eax
	popl	%ebp
	.cfi_restore 5
	.cfi_def_cfa 4, 4
	ret	$4
	.cfi_endproc
.LFE2704:
	.size	_ZN4_STL13_IsOKToMemCpyIccEENS_11_OKToMemCpyIT_T0_EEPS2_PS3_, .-_ZN4_STL13_IsOKToMemCpyIccEENS_11_OKToMemCpyIT_T0_EEPS2_PS3_
	.section	.text._ZN4_STL11_OKToMemCpyIccE4_RetEv,"axG",@progbits,_ZN4_STL11_OKToMemCpyIccE4_RetEv,comdat
	.weak	_ZN4_STL11_OKToMemCpyIccE4_RetEv
	.hidden	_ZN4_STL11_OKToMemCpyIccE4_RetEv
	.type	_ZN4_STL11_OKToMemCpyIccE4_RetEv, @function
_ZN4_STL11_OKToMemCpyIccE4_RetEv:
.LFB2705:
	.loc 15 361 0
	.cfi_startproc
	pushl	%ebp
	.cfi_def_cfa_offset 8
	.cfi_offset 5, -8
	leal	(%esp), %ebp
	.cfi_def_cfa_register 5
	.loc 15 361 0
	nop
	movl	8(%ebp), %eax
	popl	%ebp
	.cfi_restore 5
	.cfi_def_cfa 4, 4
	ret	$4
	.cfi_endproc
.LFE2705:
	.size	_ZN4_STL11_OKToMemCpyIccE4_RetEv, .-_ZN4_STL11_OKToMemCpyIccE4_RetEv
	.section	.text._ZN4_STL11__copy_ptrsIPcS1_EET0_T_S3_S2_RKNS_11__true_typeE,"axG",@progbits,_ZN4_STL11__copy_ptrsIPcS1_EET0_T_S3_S2_RKNS_11__true_typeE,comdat
	.weak	_ZN4_STL11__copy_ptrsIPcS1_EET0_T_S3_S2_RKNS_11__true_typeE
	.hidden	_ZN4_STL11__copy_ptrsIPcS1_EET0_T_S3_S2_RKNS_11__true_typeE
	.type	_ZN4_STL11__copy_ptrsIPcS1_EET0_T_S3_S2_RKNS_11__true_typeE, @function
_ZN4_STL11__copy_ptrsIPcS1_EET0_T_S3_S2_RKNS_11__true_typeE:
.LFB2706:
	.loc 1 194 0
	.cfi_startproc
	pushl	%ebp
	.cfi_def_cfa_offset 8
	.cfi_offset 5, -8
	leal	(%esp), %ebp
	.cfi_def_cfa_register 5
	leal	-24(%esp), %esp
	.loc 1 197 0
	movl	16(%ebp), %eax
	movl	%eax, 8(%esp)
	movl	12(%ebp), %eax
	movl	%eax, 4(%esp)
	movl	8(%ebp), %eax
	movl	%eax, (%esp)
	call	_ZN4_STL14__copy_trivialEPKvS1_Pv
	.loc 1 198 0
	leave
	.cfi_restore 5
	.cfi_def_cfa 4, 4
	ret
	.cfi_endproc
.LFE2706:
	.size	_ZN4_STL11__copy_ptrsIPcS1_EET0_T_S3_S2_RKNS_11__true_typeE, .-_ZN4_STL11__copy_ptrsIPcS1_EET0_T_S3_S2_RKNS_11__true_typeE
	.hidden	_ZTVN14Iw2DSceneGraph6CLabelE
	.weak	_ZTVN14Iw2DSceneGraph6CLabelE
	.section	.data.rel.ro._ZTVN14Iw2DSceneGraph6CLabelE,"awG",@progbits,_ZTVN14Iw2DSceneGraph6CLabelE,comdat
	.align 8
	.type	_ZTVN14Iw2DSceneGraph6CLabelE, @object
	.size	_ZTVN14Iw2DSceneGraph6CLabelE, 28
_ZTVN14Iw2DSceneGraph6CLabelE:
	.long	0
	.long	_ZTIN14Iw2DSceneGraph6CLabelE
	.long	_ZN14Iw2DSceneGraph6CLabelD1Ev
	.long	_ZN14Iw2DSceneGraph6CLabelD0Ev
	.long	_ZN14Iw2DSceneGraph9CDrawable6UpdateEff
	.long	_ZN14Iw2DSceneGraph6CLabel6RenderEv
	.long	_ZN14Iw2DSceneGraph9CDrawable9PreRenderEv
	.hidden	_ZTVN14Iw2DSceneGraph7CSpriteE
	.weak	_ZTVN14Iw2DSceneGraph7CSpriteE
	.section	.data.rel.ro._ZTVN14Iw2DSceneGraph7CSpriteE,"awG",@progbits,_ZTVN14Iw2DSceneGraph7CSpriteE,comdat
	.align 8
	.type	_ZTVN14Iw2DSceneGraph7CSpriteE, @object
	.size	_ZTVN14Iw2DSceneGraph7CSpriteE, 28
_ZTVN14Iw2DSceneGraph7CSpriteE:
	.long	0
	.long	_ZTIN14Iw2DSceneGraph7CSpriteE
	.long	_ZN14Iw2DSceneGraph7CSpriteD1Ev
	.long	_ZN14Iw2DSceneGraph7CSpriteD0Ev
	.long	_ZN14Iw2DSceneGraph7CSprite6UpdateEff
	.long	_ZN14Iw2DSceneGraph7CSprite6RenderEv
	.long	_ZN14Iw2DSceneGraph9CDrawable9PreRenderEv
	.hidden	_ZTVN14Iw2DSceneGraph9CDrawableE
	.weak	_ZTVN14Iw2DSceneGraph9CDrawableE
	.section	.data.rel.ro._ZTVN14Iw2DSceneGraph9CDrawableE,"awG",@progbits,_ZTVN14Iw2DSceneGraph9CDrawableE,comdat
	.align 8
	.type	_ZTVN14Iw2DSceneGraph9CDrawableE, @object
	.size	_ZTVN14Iw2DSceneGraph9CDrawableE, 28
_ZTVN14Iw2DSceneGraph9CDrawableE:
	.long	0
	.long	_ZTIN14Iw2DSceneGraph9CDrawableE
	.long	_ZN14Iw2DSceneGraph9CDrawableD1Ev
	.long	_ZN14Iw2DSceneGraph9CDrawableD0Ev
	.long	_ZN14Iw2DSceneGraph9CDrawable6UpdateEff
	.long	_ZN14Iw2DSceneGraph9CDrawable6RenderEv
	.long	_ZN14Iw2DSceneGraph9CDrawable9PreRenderEv
	.hidden	_ZTIN14Iw2DSceneGraph6CLabelE
	.weak	_ZTIN14Iw2DSceneGraph6CLabelE
	.section	.data.rel.ro._ZTIN14Iw2DSceneGraph6CLabelE,"awG",@progbits,_ZTIN14Iw2DSceneGraph6CLabelE,comdat
	.align 4
	.type	_ZTIN14Iw2DSceneGraph6CLabelE, @object
	.size	_ZTIN14Iw2DSceneGraph6CLabelE, 12
_ZTIN14Iw2DSceneGraph6CLabelE:
	.long	_ZTVN10__cxxabiv120__si_class_type_infoE+8
	.long	_ZTSN14Iw2DSceneGraph6CLabelE
	.long	_ZTIN14Iw2DSceneGraph9CDrawableE
	.hidden	_ZTSN14Iw2DSceneGraph6CLabelE
	.weak	_ZTSN14Iw2DSceneGraph6CLabelE
	.section	.rodata._ZTSN14Iw2DSceneGraph6CLabelE,"aG",@progbits,_ZTSN14Iw2DSceneGraph6CLabelE,comdat
	.type	_ZTSN14Iw2DSceneGraph6CLabelE, @object
	.size	_ZTSN14Iw2DSceneGraph6CLabelE, 26
_ZTSN14Iw2DSceneGraph6CLabelE:
	.string	"N14Iw2DSceneGraph6CLabelE"
	.hidden	_ZTIN14Iw2DSceneGraph7CSpriteE
	.weak	_ZTIN14Iw2DSceneGraph7CSpriteE
	.section	.data.rel.ro._ZTIN14Iw2DSceneGraph7CSpriteE,"awG",@progbits,_ZTIN14Iw2DSceneGraph7CSpriteE,comdat
	.align 4
	.type	_ZTIN14Iw2DSceneGraph7CSpriteE, @object
	.size	_ZTIN14Iw2DSceneGraph7CSpriteE, 12
_ZTIN14Iw2DSceneGraph7CSpriteE:
	.long	_ZTVN10__cxxabiv120__si_class_type_infoE+8
	.long	_ZTSN14Iw2DSceneGraph7CSpriteE
	.long	_ZTIN14Iw2DSceneGraph9CDrawableE
	.hidden	_ZTSN14Iw2DSceneGraph7CSpriteE
	.weak	_ZTSN14Iw2DSceneGraph7CSpriteE
	.section	.rodata._ZTSN14Iw2DSceneGraph7CSpriteE,"aG",@progbits,_ZTSN14Iw2DSceneGraph7CSpriteE,comdat
	.type	_ZTSN14Iw2DSceneGraph7CSpriteE, @object
	.size	_ZTSN14Iw2DSceneGraph7CSpriteE, 27
_ZTSN14Iw2DSceneGraph7CSpriteE:
	.string	"N14Iw2DSceneGraph7CSpriteE"
	.hidden	_ZTIN14Iw2DSceneGraph9CDrawableE
	.weak	_ZTIN14Iw2DSceneGraph9CDrawableE
	.section	.data.rel.ro._ZTIN14Iw2DSceneGraph9CDrawableE,"awG",@progbits,_ZTIN14Iw2DSceneGraph9CDrawableE,comdat
	.align 4
	.type	_ZTIN14Iw2DSceneGraph9CDrawableE, @object
	.size	_ZTIN14Iw2DSceneGraph9CDrawableE, 12
_ZTIN14Iw2DSceneGraph9CDrawableE:
	.long	_ZTVN10__cxxabiv120__si_class_type_infoE+8
	.long	_ZTSN14Iw2DSceneGraph9CDrawableE
	.long	_ZTIN18Iw2DSceneGraphCore5CNodeE
	.hidden	_ZTSN14Iw2DSceneGraph9CDrawableE
	.weak	_ZTSN14Iw2DSceneGraph9CDrawableE
	.section	.rodata._ZTSN14Iw2DSceneGraph9CDrawableE,"aG",@progbits,_ZTSN14Iw2DSceneGraph9CDrawableE,comdat
	.type	_ZTSN14Iw2DSceneGraph9CDrawableE, @object
	.size	_ZTSN14Iw2DSceneGraph9CDrawableE, 29
_ZTSN14Iw2DSceneGraph9CDrawableE:
	.string	"N14Iw2DSceneGraph9CDrawableE"
	.section	.rodata
	.align 4
.LC0:
	.long	0
	.section	.text.__x86.get_pc_thunk.cx,"axG",@progbits,__x86.get_pc_thunk.cx,comdat
	.globl	__x86.get_pc_thunk.cx
	.hidden	__x86.get_pc_thunk.cx
	.type	__x86.get_pc_thunk.cx, @function
__x86.get_pc_thunk.cx:
.LFB2783:
	.cfi_startproc
	nop
	nop
	nop
	nop
	nop
	nop
	nop
	nop
	movl	(%esp), %ecx
	ret
	.cfi_endproc
.LFE2783:
	.section	.text.__x86.get_pc_thunk.bx,"axG",@progbits,__x86.get_pc_thunk.bx,comdat
	.globl	__x86.get_pc_thunk.bx
	.hidden	__x86.get_pc_thunk.bx
	.type	__x86.get_pc_thunk.bx, @function
__x86.get_pc_thunk.bx:
.LFB2784:
	.cfi_startproc
	nop
	nop
	nop
	nop
	nop
	nop
	nop
	nop
	movl	(%esp), %ebx
	ret
	.cfi_endproc
.LFE2784:
	.text
.Letext0:
	.file 16 "c:/marmalade/7.5/s3e/h/std/c++/typeinfo.h"
	.file 17 "c:/marmalade/7.5/s3e/h/std/c++/cstddef"
	.file 18 "c:/marmalade/7.5/s3e/h/std/c++/using/cstring"
	.file 19 "c:/marmalade/7.5/s3e/h/std/c++/cstdlib"
	.file 20 "c:/marmalade/7.5/s3e/h/std/c++/cstdio"
	.file 21 "c:/marmalade/7.5/s3e/h/std/c++/exception"
	.file 22 "c:/marmalade/7.5/s3e/h/std/c++/typeinfo"
	.file 23 "c:/marmalade/7.5/s3e/h/std/c++/cwchar"
	.file 24 "c:/marmalade/7.5/s3e/h/std/c++/stl/_string_fwd.h"
	.file 25 "c:/marmalade/7.5/s3e/h/std/c++/stl/_vector.c"
	.file 26 "c:/marmalade/7.5/s3e/h/std/c++/stl/_config.h"
	.file 27 "c:/marmalade/7.5/s3e/h/ext/../std/stddef.h"
	.file 28 "c:/marmalade/7.5/s3e/h/s3eTypes.h"
	.file 29 "c:/marmalade/7.5/s3e/h/ext/../std/string.h"
	.file 30 "c:/marmalade/7.5/s3e/h/ext/../std/stdlib.h"
	.file 31 "c:/marmalade/7.5/s3e/h/ext/../std/stdio.h"
	.file 32 "c:/marmalade/7.5/s3e/h/std/stdarg.h"
	.file 33 "c:/marmalade/7.5/modules/iwgeom/h/IwGeomCore.h"
	.file 34 "c:/marmalade/7.5/s3e/h/s3eFile.h"
	.file 35 "c:/marmalade/7.5/modules/iwutil/h/IwSerialise.h"
	.file 36 "c:/marmalade/7.5/modules/iwgeom/h/IwGeomSVec2.h"
	.file 37 "c:/marmalade/7.5/modules/iwgeom/h/IwGeomVec2.h"
	.file 38 "c:/marmalade/7.5/modules/iw2dscenegraphcore/h/Iw2DSceneGraphCore.h"
	.file 39 "c:/marmalade/7.5/modules/iwgx/h/IwColour.h"
	.file 40 "c:/marmalade/7.5/modules/iwutil/h/IwTypes.h"
	.file 41 "c:/marmalade/7.5/s3e/h/s3eDebug.h"
	.file 42 "c:/marmalade/7.5/modules/iwutil/h/IwEvent.h"
	.file 43 "c:/marmalade/7.5/modules/iw2d/h/Iw2D.h"
	.file 44 "c:/marmalade/7.5/s3e/h/std/time.h"
	.file 45 "c:/marmalade/7.5/s3e/h/ext/../std/wchar.h"
	.file 46 "c:/marmalade/7.5/modules/iwgeom/h/IwGeomSqrt.h"
	.file 47 "c:/marmalade/7.5/modules/iwutil/h/IwMenu.h"
	.file 48 "c:/marmalade/7.5/modules/iwutil/h/IwTextParserITX.h"
	.file 49 "<built-in>"
	.section	.note.GNU-stack,"",@progbits
