	.file	"Iw2DSceneGraphCore.cpp"
	.text
.Ltext0:
	.section	.text._ZN4_STL14__copy_trivialEPKvS1_Pv,"axG",@progbits,_ZN4_STL14__copy_trivialEPKvS1_Pv,comdat
	.weak	_ZN4_STL14__copy_trivialEPKvS1_Pv
	.hidden	_ZN4_STL14__copy_trivialEPKvS1_Pv
	.type	_ZN4_STL14__copy_trivialEPKvS1_Pv, @function
_ZN4_STL14__copy_trivialEPKvS1_Pv:
.LFB50:
	.file 1 "c:/marmalade/7.5/s3e/h/std/c++/stl/_algobase.h"
	.loc 1 147 0
	.cfi_startproc
	pushl	%ebp
	.cfi_def_cfa_offset 8
	.cfi_offset 5, -8
	movl	%esp, %ebp
	.cfi_def_cfa_register 5
	pushl	%ebx
	leal	-20(%esp), %esp
	.cfi_offset 3, -12
	call	__x86.get_pc_thunk.bx
	addl	$_GLOBAL_OFFSET_TABLE_, %ebx
	.loc 1 150 0
	movl	12(%ebp), %eax
	cmpl	8(%ebp), %eax
	je	.L2
	.loc 1 149 0
	movl	12(%ebp), %edx
	movl	8(%ebp), %eax
	subl	%eax, %edx
	movl	%edx, %eax
	movl	%eax, 8(%esp)
	movl	8(%ebp), %eax
	movl	%eax, 4(%esp)
	movl	16(%ebp), %eax
	movl	%eax, (%esp)
	call	memmove@PLT
	.loc 1 150 0
	movl	12(%ebp), %ecx
	movl	8(%ebp), %edx
	subl	%edx, %ecx
	movl	%ecx, %edx
	addl	%edx, %eax
	jmp	.L3
.L2:
	.loc 1 150 0 is_stmt 0 discriminator 1
	movl	16(%ebp), %eax
.L3:
	.loc 1 151 0 is_stmt 1 discriminator 2
	leal	20(%esp), %esp
	popl	%ebx
	.cfi_restore 3
	popl	%ebp
	.cfi_restore 5
	.cfi_def_cfa 4, 4
	ret
	.cfi_endproc
.LFE50:
	.size	_ZN4_STL14__copy_trivialEPKvS1_Pv, .-_ZN4_STL14__copy_trivialEPKvS1_Pv
	.section	.text._ZnwjPv,"axG",@progbits,_ZnwjPv,comdat
	.weak	_ZnwjPv
	.hidden	_ZnwjPv
	.type	_ZnwjPv, @function
_ZnwjPv:
.LFB164:
	.file 2 "c:/marmalade/7.5/s3e/h/std/c++/new.h"
	.loc 2 52 0
	.cfi_startproc
	pushl	%ebp
	.cfi_def_cfa_offset 8
	.cfi_offset 5, -8
	leal	(%esp), %ebp
	.cfi_def_cfa_register 5
	.loc 2 52 0
	movl	12(%ebp), %eax
	popl	%ebp
	.cfi_restore 5
	.cfi_def_cfa 4, 4
	ret
	.cfi_endproc
.LFE164:
	.size	_ZnwjPv, .-_ZnwjPv
	.text
	.type	_ZL11IwDebugExitv, @function
_ZL11IwDebugExitv:
.LFB440:
	.file 3 "c:/marmalade/7.5/modules/iwutil/h/IwDebug.h"
	.loc 3 348 0
	.cfi_startproc
	pushl	%ebp
	.cfi_def_cfa_offset 8
	.cfi_offset 5, -8
	movl	%esp, %ebp
	.cfi_def_cfa_register 5
	pushl	%ebx
	leal	-4(%esp), %esp
	.cfi_offset 3, -12
	call	__x86.get_pc_thunk.bx
	addl	$_GLOBAL_OFFSET_TABLE_, %ebx
	.loc 3 349 0
	call	abort@PLT
	.cfi_endproc
.LFE440:
	.size	_ZL11IwDebugExitv, .-_ZL11IwDebugExitv
	.section	.text._ZN8CIwFVec2C2Ev,"axG",@progbits,_ZN8CIwFVec2C5Ev,comdat
	.align 2
	.weak	_ZN8CIwFVec2C2Ev
	.hidden	_ZN8CIwFVec2C2Ev
	.type	_ZN8CIwFVec2C2Ev, @function
_ZN8CIwFVec2C2Ev:
.LFB608:
	.file 4 "c:/marmalade/7.5/modules/iwgeom/h/IwGeomFVec2.h"
	.loc 4 65 0
	.cfi_startproc
	pushl	%ebp
	.cfi_def_cfa_offset 8
	.cfi_offset 5, -8
	movl	%esp, %ebp
	.cfi_def_cfa_register 5
	.loc 4 65 0
	popl	%ebp
	.cfi_restore 5
	.cfi_def_cfa 4, 4
	ret
	.cfi_endproc
.LFE608:
	.size	_ZN8CIwFVec2C2Ev, .-_ZN8CIwFVec2C2Ev
	.weak	_ZN8CIwFVec2C1Ev
	.hidden	_ZN8CIwFVec2C1Ev
	.set	_ZN8CIwFVec2C1Ev,_ZN8CIwFVec2C2Ev
	.section	.text._ZN8CIwFVec2C2Eff,"axG",@progbits,_ZN8CIwFVec2C5Eff,comdat
	.align 2
	.weak	_ZN8CIwFVec2C2Eff
	.hidden	_ZN8CIwFVec2C2Eff
	.type	_ZN8CIwFVec2C2Eff, @function
_ZN8CIwFVec2C2Eff:
.LFB611:
	.loc 4 72 0
	.cfi_startproc
	pushl	%ebp
	.cfi_def_cfa_offset 8
	.cfi_offset 5, -8
	leal	(%esp), %ebp
	.cfi_def_cfa_register 5
.LBB2:
	.loc 4 72 0
	movl	8(%ebp), %edx
	movl	12(%ebp), %eax
	movl	%eax, (%edx)
	movl	8(%ebp), %edx
	movl	16(%ebp), %eax
	movl	%eax, 4(%edx)
.LBE2:
	popl	%ebp
	.cfi_restore 5
	.cfi_def_cfa 4, 4
	ret
	.cfi_endproc
.LFE611:
	.size	_ZN8CIwFVec2C2Eff, .-_ZN8CIwFVec2C2Eff
	.weak	_ZN8CIwFVec2C1Eff
	.hidden	_ZN8CIwFVec2C1Eff
	.set	_ZN8CIwFVec2C1Eff,_ZN8CIwFVec2C2Eff
	.section	.text._ZN8CIwFVec2aSERKS_,"axG",@progbits,_ZN8CIwFVec2aSERKS_,comdat
	.align 2
	.weak	_ZN8CIwFVec2aSERKS_
	.hidden	_ZN8CIwFVec2aSERKS_
	.type	_ZN8CIwFVec2aSERKS_, @function
_ZN8CIwFVec2aSERKS_:
.LFB615:
	.loc 4 285 0
	.cfi_startproc
	pushl	%ebp
	.cfi_def_cfa_offset 8
	.cfi_offset 5, -8
	leal	(%esp), %ebp
	.cfi_def_cfa_register 5
	.loc 4 286 0
	movl	12(%ebp), %eax
	movl	(%eax), %eax
	movl	8(%ebp), %edx
	movl	%eax, (%edx)
	.loc 4 287 0
	movl	12(%ebp), %eax
	movl	4(%eax), %eax
	movl	8(%ebp), %edx
	movl	%eax, 4(%edx)
	.loc 4 288 0
	movl	8(%ebp), %eax
	.loc 4 289 0
	popl	%ebp
	.cfi_restore 5
	.cfi_def_cfa 4, 4
	ret
	.cfi_endproc
.LFE615:
	.size	_ZN8CIwFVec2aSERKS_, .-_ZN8CIwFVec2aSERKS_
	.section	.text._ZN8CIwFVec2mIERKS_,"axG",@progbits,_ZN8CIwFVec2mIERKS_,comdat
	.align 2
	.weak	_ZN8CIwFVec2mIERKS_
	.hidden	_ZN8CIwFVec2mIERKS_
	.type	_ZN8CIwFVec2mIERKS_, @function
_ZN8CIwFVec2mIERKS_:
.LFB619:
	.loc 4 327 0
	.cfi_startproc
	pushl	%ebp
	.cfi_def_cfa_offset 8
	.cfi_offset 5, -8
	leal	(%esp), %ebp
	.cfi_def_cfa_register 5
	.loc 4 328 0
	movl	8(%ebp), %eax
	movl	(%eax), %eax
	movl	12(%ebp), %edx
	movl	(%edx), %edx
	movd	%eax, %xmm0
	movd	%edx, %xmm2
	subss	%xmm2, %xmm0
	movd	%xmm0, %eax
	movl	8(%ebp), %edx
	movl	%eax, (%edx)
	.loc 4 329 0
	movl	8(%ebp), %eax
	movl	4(%eax), %eax
	movl	12(%ebp), %edx
	movl	4(%edx), %edx
	movd	%eax, %xmm1
	movd	%edx, %xmm3
	subss	%xmm3, %xmm1
	movd	%xmm1, %eax
	movl	8(%ebp), %edx
	movl	%eax, 4(%edx)
	.loc 4 330 0
	movl	8(%ebp), %eax
	.loc 4 331 0
	popl	%ebp
	.cfi_restore 5
	.cfi_def_cfa 4, 4
	ret
	.cfi_endproc
.LFE619:
	.size	_ZN8CIwFVec2mIERKS_, .-_ZN8CIwFVec2mIERKS_
	.section	.text._ZNK8CIwFVec2eqERKS_,"axG",@progbits,_ZNK8CIwFVec2eqERKS_,comdat
	.align 2
	.weak	_ZNK8CIwFVec2eqERKS_
	.hidden	_ZNK8CIwFVec2eqERKS_
	.type	_ZNK8CIwFVec2eqERKS_, @function
_ZNK8CIwFVec2eqERKS_:
.LFB621:
	.loc 4 349 0
	.cfi_startproc
	pushl	%ebp
	.cfi_def_cfa_offset 8
	.cfi_offset 5, -8
	leal	(%esp), %ebp
	.cfi_def_cfa_register 5
	.loc 4 351 0
	movl	12(%ebp), %eax
	movl	(%eax), %eax
	movl	8(%ebp), %edx
	movl	(%edx), %edx
	.loc 4 352 0
	movd	%eax, %xmm0
	movd	%edx, %xmm1
	ucomiss	%xmm1, %xmm0
	jp	.L15
	movd	%eax, %xmm2
	movd	%edx, %xmm3
	ucomiss	%xmm3, %xmm2
	jne	.L15
	.loc 4 352 0 is_stmt 0 discriminator 1
	movl	12(%ebp), %eax
	movl	4(%eax), %eax
	movl	8(%ebp), %edx
	movl	4(%edx), %edx
	movd	%eax, %xmm4
	movd	%edx, %xmm5
	ucomiss	%xmm5, %xmm4
	jp	.L15
	movd	%eax, %xmm6
	movd	%edx, %xmm7
	ucomiss	%xmm7, %xmm6
	jne	.L15
	.loc 4 352 0 discriminator 3
	movl	$1, %eax
	jmp	.L18
.L15:
	.loc 4 352 0 discriminator 2
	movl	$0, %eax
.L18:
	.loc 4 354 0 is_stmt 1
	popl	%ebp
	.cfi_restore 5
	.cfi_def_cfa 4, 4
	ret
	.cfi_endproc
.LFE621:
	.size	_ZNK8CIwFVec2eqERKS_, .-_ZNK8CIwFVec2eqERKS_
	.section	.text._ZN9CIwFMat2DC2Ev,"axG",@progbits,_ZN9CIwFMat2DC5Ev,comdat
	.align 2
	.weak	_ZN9CIwFMat2DC2Ev
	.hidden	_ZN9CIwFMat2DC2Ev
	.type	_ZN9CIwFMat2DC2Ev, @function
_ZN9CIwFMat2DC2Ev:
.LFB1228:
	.file 5 "c:/marmalade/7.5/modules/iwgeom/h/IwGeomFMat2D.h"
	.loc 5 83 0
	.cfi_startproc
	pushl	%ebp
	.cfi_def_cfa_offset 8
	.cfi_offset 5, -8
	leal	(%esp), %ebp
	.cfi_def_cfa_register 5
	leal	-24(%esp), %esp
.LBB3:
	.loc 5 83 0
	movl	8(%ebp), %eax
	addl	$16, %eax
	movl	%eax, (%esp)
	call	_ZN8CIwFVec2C1Ev
.LBE3:
	leave
	.cfi_restore 5
	.cfi_def_cfa 4, 4
	ret
	.cfi_endproc
.LFE1228:
	.size	_ZN9CIwFMat2DC2Ev, .-_ZN9CIwFMat2DC2Ev
	.weak	_ZN9CIwFMat2DC1Ev
	.hidden	_ZN9CIwFMat2DC1Ev
	.set	_ZN9CIwFMat2DC1Ev,_ZN9CIwFMat2DC2Ev
	.section	.text._ZNK9CIwFMat2D9RotateVecERK8CIwFVec2,"axG",@progbits,_ZNK9CIwFMat2D9RotateVecERK8CIwFVec2,comdat
	.align 2
	.weak	_ZNK9CIwFMat2D9RotateVecERK8CIwFVec2
	.hidden	_ZNK9CIwFMat2D9RotateVecERK8CIwFVec2
	.type	_ZNK9CIwFMat2D9RotateVecERK8CIwFVec2, @function
_ZNK9CIwFMat2D9RotateVecERK8CIwFVec2:
.LFB1245:
	.loc 5 243 0
	.cfi_startproc
	pushl	%ebp
	.cfi_def_cfa_offset 8
	.cfi_offset 5, -8
	leal	(%esp), %ebp
	.cfi_def_cfa_register 5
	leal	-24(%esp), %esp
	.loc 5 247 0
	movl	12(%ebp), %eax
	movl	4(%eax), %edx
	movl	16(%ebp), %eax
	movl	(%eax), %eax
	movd	%edx, %xmm1
	movd	%eax, %xmm2
	mulss	%xmm2, %xmm1
	movl	12(%ebp), %eax
	movl	12(%eax), %edx
	movl	16(%ebp), %eax
	movl	4(%eax), %eax
	movd	%edx, %xmm0
	movd	%eax, %xmm3
	mulss	%xmm3, %xmm0
	.loc 5 248 0
	addss	%xmm0, %xmm1
	movd	%xmm1, %edx
	.loc 5 246 0
	movl	12(%ebp), %eax
	movl	(%eax), %ecx
	movl	16(%ebp), %eax
	movl	(%eax), %eax
	movd	%ecx, %xmm1
	movd	%eax, %xmm4
	mulss	%xmm4, %xmm1
	movl	12(%ebp), %eax
	movl	8(%eax), %ecx
	movl	16(%ebp), %eax
	movl	4(%eax), %eax
	movd	%ecx, %xmm0
	movd	%eax, %xmm5
	mulss	%xmm5, %xmm0
	.loc 5 248 0
	addss	%xmm0, %xmm1
	movd	%xmm1, %eax
	movl	%edx, 8(%esp)
	movl	%eax, 4(%esp)
	movl	8(%ebp), %eax
	movl	%eax, (%esp)
	call	_ZN8CIwFVec2C1Eff
	.loc 5 249 0
	movl	8(%ebp), %eax
	leave
	.cfi_restore 5
	.cfi_def_cfa 4, 4
	ret	$4
	.cfi_endproc
.LFE1245:
	.size	_ZNK9CIwFMat2D9RotateVecERK8CIwFVec2, .-_ZNK9CIwFMat2D9RotateVecERK8CIwFVec2
	.section	.text._ZNK9CIwFMat2D12TransformVecERK8CIwFVec2,"axG",@progbits,_ZNK9CIwFMat2D12TransformVecERK8CIwFVec2,comdat
	.align 2
	.weak	_ZNK9CIwFMat2D12TransformVecERK8CIwFVec2
	.hidden	_ZNK9CIwFMat2D12TransformVecERK8CIwFVec2
	.type	_ZNK9CIwFMat2D12TransformVecERK8CIwFVec2, @function
_ZNK9CIwFMat2D12TransformVecERK8CIwFVec2:
.LFB1246:
	.loc 5 258 0
	.cfi_startproc
	pushl	%ebp
	.cfi_def_cfa_offset 8
	.cfi_offset 5, -8
	leal	(%esp), %ebp
	.cfi_def_cfa_register 5
	leal	-24(%esp), %esp
	.loc 5 262 0
	movl	12(%ebp), %eax
	movl	4(%eax), %edx
	movl	16(%ebp), %eax
	movl	(%eax), %eax
	movd	%edx, %xmm1
	movd	%eax, %xmm4
	mulss	%xmm4, %xmm1
	movl	12(%ebp), %eax
	movl	12(%eax), %edx
	movl	16(%ebp), %eax
	movl	4(%eax), %eax
	movd	%edx, %xmm0
	movd	%eax, %xmm5
	mulss	%xmm5, %xmm0
	addss	%xmm1, %xmm0
	.loc 5 263 0
	movl	12(%ebp), %eax
	movl	20(%eax), %eax
	movd	%eax, %xmm2
	addss	%xmm0, %xmm2
	movd	%xmm2, %edx
	.loc 5 261 0
	movl	12(%ebp), %eax
	movl	(%eax), %ecx
	movl	16(%ebp), %eax
	movl	(%eax), %eax
	movd	%ecx, %xmm1
	movd	%eax, %xmm6
	mulss	%xmm6, %xmm1
	movl	12(%ebp), %eax
	movl	8(%eax), %ecx
	movl	16(%ebp), %eax
	movl	4(%eax), %eax
	movd	%ecx, %xmm0
	movd	%eax, %xmm7
	mulss	%xmm7, %xmm0
	addss	%xmm1, %xmm0
	.loc 5 263 0
	movl	12(%ebp), %eax
	movl	16(%eax), %eax
	movd	%eax, %xmm3
	addss	%xmm0, %xmm3
	movd	%xmm3, %eax
	movl	%edx, 8(%esp)
	movl	%eax, 4(%esp)
	movl	8(%ebp), %eax
	movl	%eax, (%esp)
	call	_ZN8CIwFVec2C1Eff
	.loc 5 264 0
	movl	8(%ebp), %eax
	leave
	.cfi_restore 5
	.cfi_def_cfa 4, 4
	ret	$4
	.cfi_endproc
.LFE1246:
	.size	_ZNK9CIwFMat2D12TransformVecERK8CIwFVec2, .-_ZNK9CIwFMat2D12TransformVecERK8CIwFVec2
	.section	.rodata
.LC0:
	.string	"GEOM"
	.align 4
.LC1:
	.string	"CIwFMat2D overflow: operator *"
	.align 4
.LC2:
	.string	"c:/marmalade/7.5/modules/iwgeom/h/IwGeomFMat2D.h"
	.align 4
.LC3:
	.string	"N.TransformVec(CIwFVec2::g_Zero) == M.TransformVec(TransformVec(CIwFVec2::g_Zero))"
	.section	.text._ZNK9CIwFMat2DmlERKS_,"axG",@progbits,_ZNK9CIwFMat2DmlERKS_,comdat
	.align 2
	.weak	_ZNK9CIwFMat2DmlERKS_
	.hidden	_ZNK9CIwFMat2DmlERKS_
	.type	_ZNK9CIwFMat2DmlERKS_, @function
_ZNK9CIwFMat2DmlERKS_:
.LFB1260:
	.loc 5 386 0
	.cfi_startproc
	pushl	%ebp
	.cfi_def_cfa_offset 8
	.cfi_offset 5, -8
	movl	%esp, %ebp
	.cfi_def_cfa_register 5
	pushl	%edi
	pushl	%esi
	pushl	%ebx
	leal	-76(%esp), %esp
	.cfi_offset 7, -12
	.cfi_offset 6, -16
	.cfi_offset 3, -20
	call	__x86.get_pc_thunk.bx
	addl	$_GLOBAL_OFFSET_TABLE_, %ebx
.LBB4:
	.loc 5 388 0
	movl	8(%ebp), %eax
	movl	%eax, (%esp)
	call	_ZN9CIwFMat2DC1Ev
	.loc 5 389 0
	movl	$0, 12(%esp)
	movl	$0, 8(%esp)
	movl	12(%ebp), %eax
	movl	%eax, 4(%esp)
	movl	16(%ebp), %eax
	movl	%eax, (%esp)
	call	_ZN9CIwFMat2D19FindComponentFromBAERKS_S1_ii
	fstps	-60(%ebp)
	movl	-60(%ebp), %eax
	movl	8(%ebp), %edx
	movl	%eax, (%edx)
	.loc 5 390 0
	movl	$1, 12(%esp)
	movl	$0, 8(%esp)
	movl	12(%ebp), %eax
	movl	%eax, 4(%esp)
	movl	16(%ebp), %eax
	movl	%eax, (%esp)
	call	_ZN9CIwFMat2D19FindComponentFromBAERKS_S1_ii
	fstps	-60(%ebp)
	movl	-60(%ebp), %eax
	movl	8(%ebp), %edx
	movl	%eax, 4(%edx)
	.loc 5 392 0
	movl	$0, 12(%esp)
	movl	$1, 8(%esp)
	movl	12(%ebp), %eax
	movl	%eax, 4(%esp)
	movl	16(%ebp), %eax
	movl	%eax, (%esp)
	call	_ZN9CIwFMat2D19FindComponentFromBAERKS_S1_ii
	fstps	-60(%ebp)
	movl	-60(%ebp), %eax
	movl	8(%ebp), %edx
	movl	%eax, 8(%edx)
	.loc 5 393 0
	movl	$1, 12(%esp)
	movl	$1, 8(%esp)
	movl	12(%ebp), %eax
	movl	%eax, 4(%esp)
	movl	16(%ebp), %eax
	movl	%eax, (%esp)
	call	_ZN9CIwFMat2D19FindComponentFromBAERKS_S1_ii
	fstps	-60(%ebp)
	movl	-60(%ebp), %eax
	movl	8(%ebp), %edx
	movl	%eax, 12(%edx)
	.loc 5 395 0
	movl	12(%ebp), %eax
	movl	%eax, %edx
	addl	$16, %edx
	leal	-56(%ebp), %eax
	movl	%edx, 8(%esp)
	movl	16(%ebp), %edx
	movl	%edx, 4(%esp)
	movl	%eax, (%esp)
	call	_ZNK9CIwFMat2D12TransformVecERK8CIwFVec2
	leal	-4(%esp), %esp
	leal	-56(%ebp), %eax
	movl	%eax, 4(%esp)
	movl	8(%ebp), %eax
	addl	$16, %eax
	movl	%eax, (%esp)
	call	_ZN8CIwFVec2aSERKS_
.LBB5:
.LBB6:
	.loc 5 397 0
	leal	-40(%ebp), %eax
	movl	_ZN8CIwFVec26g_ZeroE@GOT(%ebx), %edx
	movl	%edx, 8(%esp)
	movl	12(%ebp), %edx
	movl	%edx, 4(%esp)
	movl	%eax, (%esp)
	call	_ZNK9CIwFMat2D12TransformVecERK8CIwFVec2
	leal	-4(%esp), %esp
	movl	$1, %esi
	leal	-48(%ebp), %eax
	leal	-40(%ebp), %edx
	movl	%edx, 8(%esp)
	movl	16(%ebp), %edx
	movl	%edx, 4(%esp)
	movl	%eax, (%esp)
	call	_ZNK9CIwFMat2D12TransformVecERK8CIwFVec2
	subl	$4, %esp
	movl	$1, %edi
	leal	-32(%ebp), %eax
	movl	_ZN8CIwFVec26g_ZeroE@GOT(%ebx), %edx
	movl	%edx, 8(%esp)
	movl	8(%ebp), %edx
	movl	%edx, 4(%esp)
	movl	%eax, (%esp)
	call	_ZNK9CIwFMat2D12TransformVecERK8CIwFVec2
	leal	-4(%esp), %esp
	movb	$1, -60(%ebp)
	leal	-48(%ebp), %eax
	movl	%eax, 4(%esp)
	leal	-32(%ebp), %eax
	movl	%eax, (%esp)
	call	_ZNK8CIwFVec2eqERKS_
	xorl	$1, %eax
	testb	%al, %al
	je	.L28
	.loc 5 397 0 is_stmt 0 discriminator 1
	leal	.LC0@GOTOFF(%ebx), %eax
	movl	%eax, (%esp)
	call	IwDebugAssertIsChannelOn@PLT
	testb	%al, %al
	je	.L28
	movzbl	_ZZNK9CIwFMat2DmlERKS_E21_s_IwAssertIgnoreThis@GOTOFF(%ebx), %eax
	testb	%al, %al
	jne	.L28
	.loc 5 397 0 discriminator 3
	movl	$1, %eax
	jmp	.L29
.L28:
	.loc 5 397 0 discriminator 2
	movl	$0, %eax
.L29:
	.loc 5 397 0 discriminator 4
	cmpb	$0, -60(%ebp)
	movl	%edi, %ecx
	testb	%cl, %cl
	movl	%esi, %ecx
	testb	%cl, %cl
	testb	%al, %al
	je	.L33
	.loc 5 397 0 discriminator 1
	movl	$0, (%esp)
	call	IwDebugAssertSetSolution@PLT
	movl	$0, (%esp)
	call	IwDebugAssertSetUID@PLT
	leal	.LC1@GOTOFF(%ebx), %eax
	movl	%eax, (%esp)
	call	IwDebugAssertSetMessage@PLT
	.loc 5 397 0 is_stmt 1 discriminator 1
	movl	$1, 12(%esp)
	movl	$398, 8(%esp)
	leal	.LC2@GOTOFF(%ebx), %eax
	movl	%eax, 4(%esp)
	leal	.LC3@GOTOFF(%ebx), %eax
	movl	%eax, (%esp)
	call	IwDebugAssertShow@PLT
	.loc 5 397 0 discriminator 1
	cmpl	$1, %eax
	je	.L35
	cmpl	$2, %eax
	je	.L36
	.loc 5 397 0 is_stmt 0
	jmp	.L34
.L35:
	.loc 5 397 0 is_stmt 1 discriminator 2
	call	s3eDebugIsDebuggerPresent@PLT
	testb	%al, %al
	setne	%al
	testb	%al, %al
	je	.L37
	.loc 5 397 0 is_stmt 0 discriminator 1
	call	s3eDebugIsDebuggerPresent@PLT
	testb	%al, %al
	setne	%al
	testb	%al, %al
	je	.L38
#APP
# 397 "c:/marmalade/7.5/modules/iwgeom/h/IwGeomFMat2D.h" 1
	 int $3 
# 0 "" 2
#NO_APP
	jmp	.L38
.L37:
	.loc 5 397 0 discriminator 2
	call	_ZL11IwDebugExitv
	jmp	.L34
.L38:
	.loc 5 397 0 discriminator 1
	jmp	.L34
.L36:
	.loc 5 397 0 discriminator 3
	movb	$1, _ZZNK9CIwFMat2DmlERKS_E21_s_IwAssertIgnoreThis@GOTOFF(%ebx)
	nop
.L34:
	.loc 5 397 0 discriminator 1
	movl	$0, (%esp)
	call	IwDebugAssertSetUID@PLT
.L33:
.LBE6:
.LBE5:
	.loc 5 400 0 is_stmt 1
	nop
.LBE4:
	.loc 5 401 0
	movl	8(%ebp), %eax
	leal	-12(%ebp), %esp
	popl	%ebx
	.cfi_restore 3
	popl	%esi
	.cfi_restore 6
	popl	%edi
	.cfi_restore 7
	popl	%ebp
	.cfi_restore 5
	.cfi_def_cfa 4, 4
	ret	$4
	.cfi_endproc
.LFE1260:
	.size	_ZNK9CIwFMat2DmlERKS_, .-_ZNK9CIwFMat2DmlERKS_
	.section	.text._ZN9CIwFMat2DaSERKS_,"axG",@progbits,_ZN9CIwFMat2DaSERKS_,comdat
	.align 2
	.weak	_ZN9CIwFMat2DaSERKS_
	.hidden	_ZN9CIwFMat2DaSERKS_
	.type	_ZN9CIwFMat2DaSERKS_, @function
_ZN9CIwFMat2DaSERKS_:
.LFB1262:
	.loc 5 63 0
	.cfi_startproc
	pushl	%ebp
	.cfi_def_cfa_offset 8
	.cfi_offset 5, -8
	leal	(%esp), %ebp
	.cfi_def_cfa_register 5
	leal	-24(%esp), %esp
	.loc 5 63 0
	movl	8(%ebp), %eax
	movl	12(%ebp), %edx
	movl	(%edx), %ecx
	movl	%ecx, (%eax)
	movl	4(%edx), %ecx
	movl	%ecx, 4(%eax)
	movl	8(%edx), %ecx
	movl	%ecx, 8(%eax)
	movl	12(%edx), %edx
	movl	%edx, 12(%eax)
	movl	12(%ebp), %eax
	movl	%eax, %edx
	addl	$16, %edx
	movl	8(%ebp), %eax
	addl	$16, %eax
	movl	%edx, 4(%esp)
	movl	%eax, (%esp)
	call	_ZN8CIwFVec2aSERKS_
	movl	8(%ebp), %eax
	leave
	.cfi_restore 5
	.cfi_def_cfa 4, 4
	ret
	.cfi_endproc
.LFE1262:
	.size	_ZN9CIwFMat2DaSERKS_, .-_ZN9CIwFMat2DaSERKS_
	.section	.text._ZN9CIwFMat2D19FindComponentFromBAERKS_S1_ii,"axG",@progbits,_ZN9CIwFMat2D19FindComponentFromBAERKS_S1_ii,comdat
	.weak	_ZN9CIwFMat2D19FindComponentFromBAERKS_S1_ii
	.hidden	_ZN9CIwFMat2D19FindComponentFromBAERKS_S1_ii
	.type	_ZN9CIwFMat2D19FindComponentFromBAERKS_S1_ii, @function
_ZN9CIwFMat2D19FindComponentFromBAERKS_S1_ii:
.LFB1290:
	.loc 5 782 0
	.cfi_startproc
	pushl	%ebp
	.cfi_def_cfa_offset 8
	.cfi_offset 5, -8
	leal	(%esp), %ebp
	.cfi_def_cfa_register 5
	leal	-4(%esp), %esp
	.loc 5 784 0
	movl	12(%ebp), %eax
	movl	16(%ebp), %edx
	movl	(%eax,%edx,8), %edx
	movl	8(%ebp), %eax
	movl	20(%ebp), %ecx
	movl	(%eax,%ecx,4), %eax
	movd	%edx, %xmm1
	movd	%eax, %xmm2
	mulss	%xmm2, %xmm1
	movl	12(%ebp), %eax
	movl	16(%ebp), %edx
	movl	4(%eax,%edx,8), %edx
	movl	8(%ebp), %eax
	movl	20(%ebp), %ecx
	leal	2(%ecx), %ecx
	movl	(%eax,%ecx,4), %eax
	movd	%edx, %xmm0
	movd	%eax, %xmm3
	mulss	%xmm3, %xmm0
	addss	%xmm0, %xmm1
	movd	%xmm1, %eax
	.loc 5 786 0
	movl	%eax, -4(%ebp)
	flds	-4(%ebp)
	leave
	.cfi_restore 5
	.cfi_def_cfa 4, 4
	ret
	.cfi_endproc
.LFE1290:
	.size	_ZN9CIwFMat2D19FindComponentFromBAERKS_S1_ii, .-_ZN9CIwFMat2D19FindComponentFromBAERKS_S1_ii
	.text
	.align 2
	.globl	_ZN18Iw2DSceneGraphCore5CNodeC2Ev
	.hidden	_ZN18Iw2DSceneGraphCore5CNodeC2Ev
	.type	_ZN18Iw2DSceneGraphCore5CNodeC2Ev, @function
_ZN18Iw2DSceneGraphCore5CNodeC2Ev:
.LFB1402:
	.file 6 "c:/Marmalade/7.5/modules/iw2dscenegraphcore/source/Iw2DSceneGraphCore.cpp"
	.loc 6 31 0
	.cfi_startproc
	pushl	%ebp
	.cfi_def_cfa_offset 8
	.cfi_offset 5, -8
	movl	%esp, %ebp
	.cfi_def_cfa_register 5
	pushl	%ebx
	leal	-36(%esp), %esp
	.cfi_offset 3, -12
	call	__x86.get_pc_thunk.bx
	addl	$_GLOBAL_OFFSET_TABLE_, %ebx
.LBB7:
	.loc 6 31 0
	movl	8(%ebp), %eax
	leal	8+_ZTVN18Iw2DSceneGraphCore5CNodeE@GOTOFF(%ebx), %edx
	movl	%edx, (%eax)
	leal	-9(%ebp), %eax
	movl	%eax, (%esp)
	call	_ZN4_STL9allocatorIPN18Iw2DSceneGraphCore5CNodeEEC1Ev
	movl	8(%ebp), %eax
	movl	%eax, %edx
	addl	$56, %edx
	leal	-9(%ebp), %eax
	movl	%eax, 4(%esp)
	movl	%edx, (%esp)
	call	_ZN4_STL6vectorIPN18Iw2DSceneGraphCore5CNodeENS_9allocatorIS3_EEEC1ERKS5_
	leal	-9(%ebp), %eax
	movl	%eax, (%esp)
	call	_ZN4_STL9allocatorIPN18Iw2DSceneGraphCore5CNodeEED1Ev
	movl	8(%ebp), %eax
	addl	$68, %eax
	movl	%eax, (%esp)
	call	_ZN9CIwFMat2DC1Ev
	movl	8(%ebp), %eax
	addl	$92, %eax
	movl	%eax, (%esp)
	call	_ZN9CIwFMat2DC1Ev
	.loc 6 34 0
	movl	8(%ebp), %edx
	movl	.LC4@GOTOFF(%ebx), %eax
	movl	%eax, 16(%edx)
	movl	8(%ebp), %eax
	movl	16(%eax), %eax
	movl	8(%ebp), %edx
	movl	%eax, 12(%edx)
	movl	8(%ebp), %eax
	movl	12(%eax), %eax
	movl	8(%ebp), %edx
	movl	%eax, 8(%edx)
	movl	8(%ebp), %eax
	movl	8(%eax), %eax
	movl	8(%ebp), %edx
	movl	%eax, 4(%edx)
	.loc 6 35 0
	movl	8(%ebp), %edx
	movl	.LC5@GOTOFF(%ebx), %eax
	movl	%eax, 32(%edx)
	movl	8(%ebp), %eax
	movl	32(%eax), %eax
	movl	8(%ebp), %edx
	movl	%eax, 28(%edx)
	.loc 6 36 0
	movl	8(%ebp), %edx
	movl	.LC4@GOTOFF(%ebx), %eax
	movl	%eax, 24(%edx)
	movl	8(%ebp), %eax
	movl	24(%eax), %eax
	movl	8(%ebp), %edx
	movl	%eax, 20(%edx)
	.loc 6 37 0
	movl	8(%ebp), %edx
	movl	.LC4@GOTOFF(%ebx), %eax
	movl	%eax, 36(%edx)
	.loc 6 40 0
	movl	8(%ebp), %edx
	movl	.LC5@GOTOFF(%ebx), %eax
	movl	%eax, 48(%edx)
	movl	8(%ebp), %eax
	movl	48(%eax), %eax
	movl	8(%ebp), %edx
	movl	%eax, 40(%edx)
	.loc 6 41 0
	movl	8(%ebp), %eax
	movb	$1, 44(%eax)
	.loc 6 44 0
	movl	8(%ebp), %eax
	movl	$0, 52(%eax)
.LBE7:
	.loc 6 45 0
	leal	36(%esp), %esp
	popl	%ebx
	.cfi_restore 3
	popl	%ebp
	.cfi_restore 5
	.cfi_def_cfa 4, 4
	ret
	.cfi_endproc
.LFE1402:
	.size	_ZN18Iw2DSceneGraphCore5CNodeC2Ev, .-_ZN18Iw2DSceneGraphCore5CNodeC2Ev
	.globl	_ZN18Iw2DSceneGraphCore5CNodeC1Ev
	.hidden	_ZN18Iw2DSceneGraphCore5CNodeC1Ev
	.set	_ZN18Iw2DSceneGraphCore5CNodeC1Ev,_ZN18Iw2DSceneGraphCore5CNodeC2Ev
	.align 2
	.globl	_ZN18Iw2DSceneGraphCore5CNodeD2Ev
	.hidden	_ZN18Iw2DSceneGraphCore5CNodeD2Ev
	.type	_ZN18Iw2DSceneGraphCore5CNodeD2Ev, @function
_ZN18Iw2DSceneGraphCore5CNodeD2Ev:
.LFB1405:
	.loc 6 47 0
	.cfi_startproc
	pushl	%ebp
	.cfi_def_cfa_offset 8
	.cfi_offset 5, -8
	movl	%esp, %ebp
	.cfi_def_cfa_register 5
	pushl	%ebx
	leal	-36(%esp), %esp
	.cfi_offset 3, -12
	call	__x86.get_pc_thunk.bx
	addl	$_GLOBAL_OFFSET_TABLE_, %ebx
.LBB8:
	.loc 6 47 0
	movl	8(%ebp), %eax
	leal	8+_ZTVN18Iw2DSceneGraphCore5CNodeE@GOTOFF(%ebx), %edx
	movl	%edx, (%eax)
.LBB9:
	.loc 6 51 0
	movl	8(%ebp), %eax
	addl	$56, %eax
	movl	%eax, (%esp)
	call	_ZN4_STL6vectorIPN18Iw2DSceneGraphCore5CNodeENS_9allocatorIS3_EEE5beginEv
	movl	%eax, -12(%ebp)
	.loc 6 52 0
	movl	8(%ebp), %eax
	addl	$56, %eax
	movl	%eax, (%esp)
	call	_ZN4_STL6vectorIPN18Iw2DSceneGraphCore5CNodeENS_9allocatorIS3_EEE3endEv
	movl	%eax, -16(%ebp)
	.loc 6 53 0
	jmp	.L46
.L48:
	.loc 6 54 0
	movl	-12(%ebp), %eax
	movl	(%eax), %eax
	testl	%eax, %eax
	je	.L47
	.loc 6 54 0 is_stmt 0 discriminator 1
	movl	-12(%ebp), %eax
	movl	(%eax), %eax
	movl	(%eax), %eax
	leal	4(%eax), %eax
	movl	(%eax), %eax
	movl	-12(%ebp), %edx
	movl	(%edx), %edx
	movl	%edx, (%esp)
	call	*%eax
.L47:
	.loc 6 53 0 is_stmt 1
	addl	$4, -12(%ebp)
.L46:
	.loc 6 53 0 is_stmt 0 discriminator 1
	movl	-12(%ebp), %eax
	cmpl	-16(%ebp), %eax
	jne	.L48
.LBE9:
	.loc 6 47 0 is_stmt 1
	movl	8(%ebp), %eax
	addl	$56, %eax
	movl	%eax, (%esp)
	call	_ZN4_STL6vectorIPN18Iw2DSceneGraphCore5CNodeENS_9allocatorIS3_EEED1Ev
.LBE8:
	.loc 6 55 0
	movl	$0, %eax
	testl	%eax, %eax
	je	.L45
	.loc 6 55 0 is_stmt 0 discriminator 1
	movl	8(%ebp), %eax
	movl	%eax, (%esp)
	call	_ZdlPv@PLT
.L45:
	.loc 6 55 0
	leal	36(%esp), %esp
	popl	%ebx
	.cfi_restore 3
	popl	%ebp
	.cfi_restore 5
	.cfi_def_cfa 4, 4
	ret
	.cfi_endproc
.LFE1405:
	.size	_ZN18Iw2DSceneGraphCore5CNodeD2Ev, .-_ZN18Iw2DSceneGraphCore5CNodeD2Ev
	.globl	_ZN18Iw2DSceneGraphCore5CNodeD1Ev
	.hidden	_ZN18Iw2DSceneGraphCore5CNodeD1Ev
	.set	_ZN18Iw2DSceneGraphCore5CNodeD1Ev,_ZN18Iw2DSceneGraphCore5CNodeD2Ev
	.align 2
	.globl	_ZN18Iw2DSceneGraphCore5CNodeD0Ev
	.hidden	_ZN18Iw2DSceneGraphCore5CNodeD0Ev
	.type	_ZN18Iw2DSceneGraphCore5CNodeD0Ev, @function
_ZN18Iw2DSceneGraphCore5CNodeD0Ev:
.LFB1407:
	.loc 6 47 0 is_stmt 1
	.cfi_startproc
	pushl	%ebp
	.cfi_def_cfa_offset 8
	.cfi_offset 5, -8
	movl	%esp, %ebp
	.cfi_def_cfa_register 5
	pushl	%ebx
	leal	-20(%esp), %esp
	.cfi_offset 3, -12
	call	__x86.get_pc_thunk.bx
	addl	$_GLOBAL_OFFSET_TABLE_, %ebx
	.loc 6 55 0
	movl	8(%ebp), %eax
	movl	%eax, (%esp)
	call	_ZN18Iw2DSceneGraphCore5CNodeD1Ev
	movl	8(%ebp), %eax
	movl	%eax, (%esp)
	call	_ZdlPv@PLT
	leal	20(%esp), %esp
	popl	%ebx
	.cfi_restore 3
	popl	%ebp
	.cfi_restore 5
	.cfi_def_cfa 4, 4
	ret
	.cfi_endproc
.LFE1407:
	.size	_ZN18Iw2DSceneGraphCore5CNodeD0Ev, .-_ZN18Iw2DSceneGraphCore5CNodeD0Ev
	.align 2
	.globl	_ZN18Iw2DSceneGraphCore5CNode17CalculateMatricesEv
	.hidden	_ZN18Iw2DSceneGraphCore5CNode17CalculateMatricesEv
	.type	_ZN18Iw2DSceneGraphCore5CNode17CalculateMatricesEv, @function
_ZN18Iw2DSceneGraphCore5CNode17CalculateMatricesEv:
.LFB1408:
	.loc 6 58 0
	.cfi_startproc
	leal	4(%esp), %ecx
	.cfi_def_cfa 1, 0
	andl	$-16, %esp
	pushl	-4(%ecx)
	pushl	%ebp
	.cfi_escape 0x10,0x5,0x2,0x75,0
	movl	%esp, %ebp
	pushl	%esi
	pushl	%ebx
	pushl	%ecx
	.cfi_escape 0xf,0x3,0x75,0x74,0x6
	.cfi_escape 0x10,0x6,0x2,0x75,0x7c
	.cfi_escape 0x10,0x3,0x2,0x75,0x78
	leal	-108(%esp), %esp
	call	__x86.get_pc_thunk.bx
	addl	$_GLOBAL_OFFSET_TABLE_, %ebx
	leal	(%ecx), %esi
.LBB10:
	.loc 6 61 0
	movl	(%esi), %eax
	movl	52(%eax), %eax
	testl	%eax, %eax
	je	.L54
	.loc 6 62 0
	movl	(%esi), %eax
	movl	52(%eax), %eax
	addl	$92, %eax
	movl	%eax, -28(%ebp)
	jmp	.L55
.L54:
	.loc 6 64 0
	movl	_ZN9CIwFMat2D10g_IdentityE@GOT(%ebx), %eax
	movl	%eax, -28(%ebp)
.L55:
	.loc 6 66 0
	movl	(%esi), %eax
	movl	4(%eax), %eax
	movl	(%esi), %edx
	movl	%eax, 84(%edx)
	.loc 6 67 0
	movl	(%esi), %eax
	movl	8(%eax), %eax
	movl	(%esi), %edx
	movl	%eax, 88(%edx)
	.loc 6 69 0
	movl	(%esi), %eax
	movl	36(%eax), %eax
	movd	%eax, %xmm0
	movd	%eax, %xmm1
	addss	%xmm1, %xmm0
	movl	.LC6@GOTOFF(%ebx), %eax
	movd	%eax, %xmm1
	mulss	%xmm0, %xmm1
	movd	%xmm1, %eax
	movl	.LC7@GOTOFF(%ebx), %edx
	movd	%eax, %xmm0
	movd	%edx, %xmm2
	divss	%xmm2, %xmm0
	cvtss2sd	%xmm0, %xmm3
	movsd	%xmm3, -40(%ebp)
	.loc 6 70 0
	movsd	-40(%ebp), %xmm0
	movsd	%xmm0, (%esp)
	call	cos@PLT
	fstpl	-96(%ebp)
	movsd	-96(%ebp), %xmm0
	cvtsd2ss	%xmm0, %xmm0
	movl	(%esi), %eax
	movl	28(%eax), %eax
	movd	%eax, %xmm2
	mulss	%xmm0, %xmm2
	movd	%xmm2, %eax
	movl	(%esi), %edx
	movl	%eax, 68(%edx)
	.loc 6 71 0
	movsd	-40(%ebp), %xmm0
	movsd	%xmm0, (%esp)
	call	sin@PLT
	fstpl	-96(%ebp)
	movsd	-96(%ebp), %xmm0
	cvtsd2ss	%xmm0, %xmm4
	movd	%xmm4, %eax
	movss	.LC8@GOTOFF(%ebx), %xmm0
	movd	%eax, %xmm5
	xorps	%xmm5, %xmm0
	movl	(%esi), %eax
	movl	32(%eax), %eax
	movd	%eax, %xmm3
	mulss	%xmm0, %xmm3
	movd	%xmm3, %eax
	movl	(%esi), %edx
	movl	%eax, 72(%edx)
	.loc 6 72 0
	movsd	-40(%ebp), %xmm0
	movsd	%xmm0, (%esp)
	call	sin@PLT
	fstpl	-96(%ebp)
	movsd	-96(%ebp), %xmm0
	cvtsd2ss	%xmm0, %xmm0
	movl	(%esi), %eax
	movl	28(%eax), %eax
	movd	%eax, %xmm4
	mulss	%xmm0, %xmm4
	movd	%xmm4, %eax
	movl	(%esi), %edx
	movl	%eax, 76(%edx)
	.loc 6 73 0
	movsd	-40(%ebp), %xmm0
	movsd	%xmm0, (%esp)
	call	cos@PLT
	fstpl	-96(%ebp)
	movsd	-96(%ebp), %xmm0
	cvtsd2ss	%xmm0, %xmm0
	movl	(%esi), %eax
	movl	32(%eax), %eax
	movd	%eax, %xmm5
	mulss	%xmm0, %xmm5
	movd	%xmm5, %eax
	movl	(%esi), %edx
	movl	%eax, 80(%edx)
	.loc 6 75 0
	movl	(%esi), %eax
	movl	16(%eax), %edx
	movl	(%esi), %eax
	movl	24(%eax), %eax
	movd	%edx, %xmm6
	movd	%eax, %xmm7
	mulss	%xmm7, %xmm6
	movd	%xmm6, %edx
	movl	(%esi), %eax
	movl	12(%eax), %ecx
	movl	(%esi), %eax
	movl	20(%eax), %eax
	movd	%ecx, %xmm7
	movd	%eax, %xmm6
	mulss	%xmm6, %xmm7
	movd	%xmm7, %eax
	movl	%edx, 8(%esp)
	movl	%eax, 4(%esp)
	leal	-72(%ebp), %eax
	movl	%eax, (%esp)
	call	_ZN8CIwFVec2C1Eff
	movl	(%esi), %eax
	movl	%eax, %ecx
	addl	$68, %ecx
	leal	-80(%ebp), %eax
	leal	-72(%ebp), %edx
	movl	%edx, 8(%esp)
	movl	%ecx, 4(%esp)
	movl	%eax, (%esp)
	call	_ZNK9CIwFMat2D9RotateVecERK8CIwFVec2
	leal	-4(%esp), %esp
	.loc 6 76 0
	movl	(%esi), %eax
	movl	%eax, %edx
	addl	$84, %edx
	leal	-80(%ebp), %eax
	movl	%eax, 4(%esp)
	movl	%edx, (%esp)
	call	_ZN8CIwFVec2mIERKS_
	.loc 6 79 0
	movl	(%esi), %eax
	movl	%eax, %ecx
	addl	$68, %ecx
	leal	-64(%ebp), %eax
	movl	-28(%ebp), %edx
	movl	%edx, 8(%esp)
	movl	%ecx, 4(%esp)
	movl	%eax, (%esp)
	call	_ZNK9CIwFMat2DmlERKS_
	leal	-4(%esp), %esp
	movl	(%esi), %eax
	movl	%eax, %edx
	addl	$92, %edx
	leal	-64(%ebp), %eax
	movl	%eax, 4(%esp)
	movl	%edx, (%esp)
	call	_ZN9CIwFMat2DaSERKS_
.LBE10:
	.loc 6 80 0
	leal	-12(%ebp), %esp
	popl	%ecx
	.cfi_restore 1
	.cfi_def_cfa 1, 0
	popl	%ebx
	.cfi_restore 3
	popl	%esi
	.cfi_restore 6
	popl	%ebp
	.cfi_restore 5
	leal	-4(%ecx), %esp
	.cfi_def_cfa 4, 4
	ret
	.cfi_endproc
.LFE1408:
	.size	_ZN18Iw2DSceneGraphCore5CNode17CalculateMatricesEv, .-_ZN18Iw2DSceneGraphCore5CNode17CalculateMatricesEv
	.align 2
	.globl	_ZN18Iw2DSceneGraphCore5CNode6UpdateEff
	.hidden	_ZN18Iw2DSceneGraphCore5CNode6UpdateEff
	.type	_ZN18Iw2DSceneGraphCore5CNode6UpdateEff, @function
_ZN18Iw2DSceneGraphCore5CNode6UpdateEff:
.LFB1409:
	.loc 6 83 0
	.cfi_startproc
	pushl	%ebp
	.cfi_def_cfa_offset 8
	.cfi_offset 5, -8
	leal	(%esp), %ebp
	.cfi_def_cfa_register 5
	leal	-40(%esp), %esp
.LBB11:
	.loc 6 85 0
	movl	8(%ebp), %eax
	movl	40(%eax), %eax
	movd	%eax, %xmm0
	mulss	16(%ebp), %xmm0
	movd	%xmm0, %eax
	movl	8(%ebp), %edx
	movl	%eax, 48(%edx)
	.loc 6 86 0
	movl	8(%ebp), %eax
	movl	40(%eax), %eax
	movl	16(%ebp), %edx
	movd	%edx, %xmm1
	movd	%eax, %xmm2
	mulss	%xmm2, %xmm1
	movd	%xmm1, %eax
	movl	%eax, 16(%ebp)
	.loc 6 89 0
	movl	8(%ebp), %eax
	movl	%eax, (%esp)
	call	_ZN18Iw2DSceneGraphCore5CNode17CalculateMatricesEv
	.loc 6 92 0
	movl	8(%ebp), %eax
	addl	$56, %eax
	movl	%eax, (%esp)
	call	_ZN4_STL6vectorIPN18Iw2DSceneGraphCore5CNodeENS_9allocatorIS3_EEE5beginEv
	movl	%eax, -12(%ebp)
	.loc 6 93 0
	movl	8(%ebp), %eax
	addl	$56, %eax
	movl	%eax, (%esp)
	call	_ZN4_STL6vectorIPN18Iw2DSceneGraphCore5CNodeENS_9allocatorIS3_EEE3endEv
	movl	%eax, -16(%ebp)
	.loc 6 94 0
	jmp	.L57
.L58:
	.loc 6 95 0 discriminator 2
	movl	-12(%ebp), %eax
	movl	(%eax), %eax
	movl	(%eax), %eax
	leal	8(%eax), %eax
	movl	(%eax), %edx
	movl	-12(%ebp), %eax
	movl	(%eax), %ecx
	movl	16(%ebp), %eax
	movl	%eax, 8(%esp)
	movl	12(%ebp), %eax
	movl	%eax, 4(%esp)
	movl	%ecx, (%esp)
	call	*%edx
	.loc 6 94 0 discriminator 2
	addl	$4, -12(%ebp)
.L57:
	.loc 6 94 0 is_stmt 0 discriminator 1
	movl	-12(%ebp), %eax
	cmpl	-16(%ebp), %eax
	jne	.L58
.LBE11:
	.loc 6 96 0 is_stmt 1
	leave
	.cfi_restore 5
	.cfi_def_cfa 4, 4
	ret
	.cfi_endproc
.LFE1409:
	.size	_ZN18Iw2DSceneGraphCore5CNode6UpdateEff, .-_ZN18Iw2DSceneGraphCore5CNode6UpdateEff
	.align 2
	.globl	_ZN18Iw2DSceneGraphCore5CNode6RenderEv
	.hidden	_ZN18Iw2DSceneGraphCore5CNode6RenderEv
	.type	_ZN18Iw2DSceneGraphCore5CNode6RenderEv, @function
_ZN18Iw2DSceneGraphCore5CNode6RenderEv:
.LFB1410:
	.loc 6 99 0
	.cfi_startproc
	pushl	%ebp
	.cfi_def_cfa_offset 8
	.cfi_offset 5, -8
	leal	(%esp), %ebp
	.cfi_def_cfa_register 5
	leal	-40(%esp), %esp
.LBB12:
	.loc 6 100 0
	movl	8(%ebp), %eax
	movzbl	44(%eax), %eax
	xorl	$1, %eax
	testb	%al, %al
	je	.L60
	.loc 6 101 0
	jmp	.L59
.L60:
	.loc 6 103 0
	movl	8(%ebp), %eax
	addl	$56, %eax
	movl	%eax, (%esp)
	call	_ZN4_STL6vectorIPN18Iw2DSceneGraphCore5CNodeENS_9allocatorIS3_EEE5beginEv
	movl	%eax, -12(%ebp)
	.loc 6 104 0
	movl	8(%ebp), %eax
	addl	$56, %eax
	movl	%eax, (%esp)
	call	_ZN4_STL6vectorIPN18Iw2DSceneGraphCore5CNodeENS_9allocatorIS3_EEE3endEv
	movl	%eax, -16(%ebp)
	.loc 6 105 0
	jmp	.L62
.L63:
	.loc 6 106 0 discriminator 2
	movl	-12(%ebp), %eax
	movl	(%eax), %eax
	movl	(%eax), %eax
	leal	12(%eax), %eax
	movl	(%eax), %eax
	movl	-12(%ebp), %edx
	movl	(%edx), %edx
	movl	%edx, (%esp)
	call	*%eax
	.loc 6 105 0 discriminator 2
	addl	$4, -12(%ebp)
.L62:
	.loc 6 105 0 is_stmt 0 discriminator 1
	movl	-12(%ebp), %eax
	cmpl	-16(%ebp), %eax
	jne	.L63
.L59:
.LBE12:
	.loc 6 107 0 is_stmt 1
	leave
	.cfi_restore 5
	.cfi_def_cfa 4, 4
	ret
	.cfi_endproc
.LFE1410:
	.size	_ZN18Iw2DSceneGraphCore5CNode6RenderEv, .-_ZN18Iw2DSceneGraphCore5CNode6RenderEv
	.align 2
	.globl	_ZN18Iw2DSceneGraphCore5CNode8AddChildEPS0_
	.hidden	_ZN18Iw2DSceneGraphCore5CNode8AddChildEPS0_
	.type	_ZN18Iw2DSceneGraphCore5CNode8AddChildEPS0_, @function
_ZN18Iw2DSceneGraphCore5CNode8AddChildEPS0_:
.LFB1411:
	.loc 6 110 0
	.cfi_startproc
	pushl	%ebp
	.cfi_def_cfa_offset 8
	.cfi_offset 5, -8
	leal	(%esp), %ebp
	.cfi_def_cfa_register 5
	leal	-24(%esp), %esp
	.loc 6 111 0
	movl	12(%ebp), %eax
	movl	52(%eax), %eax
	testl	%eax, %eax
	je	.L65
	.loc 6 112 0
	movl	12(%ebp), %edx
	movl	12(%ebp), %eax
	movl	52(%eax), %eax
	movl	%edx, 4(%esp)
	movl	%eax, (%esp)
	call	_ZN18Iw2DSceneGraphCore5CNode11RemoveChildEPS0_
.L65:
	.loc 6 114 0
	movl	8(%ebp), %eax
	movl	%eax, %edx
	addl	$56, %edx
	leal	12(%ebp), %eax
	movl	%eax, 4(%esp)
	movl	%edx, (%esp)
	call	_ZN4_STL6vectorIPN18Iw2DSceneGraphCore5CNodeENS_9allocatorIS3_EEE9push_backERKS3_
	.loc 6 115 0
	movl	12(%ebp), %eax
	movl	8(%ebp), %edx
	movl	%edx, 52(%eax)
	.loc 6 116 0
	leave
	.cfi_restore 5
	.cfi_def_cfa 4, 4
	ret
	.cfi_endproc
.LFE1411:
	.size	_ZN18Iw2DSceneGraphCore5CNode8AddChildEPS0_, .-_ZN18Iw2DSceneGraphCore5CNode8AddChildEPS0_
	.section	.rodata
.LC9:
	.string	"SCENEGRAPHCORE"
	.align 4
.LC10:
	.string	"Specified node is not a child of this node"
	.align 4
.LC11:
	.string	"c:/Marmalade/7.5/modules/iw2dscenegraphcore/source/Iw2DSceneGraphCore.cpp"
.LC12:
	.string	"false"
	.text
	.align 2
	.globl	_ZN18Iw2DSceneGraphCore5CNode11RemoveChildEPS0_
	.hidden	_ZN18Iw2DSceneGraphCore5CNode11RemoveChildEPS0_
	.type	_ZN18Iw2DSceneGraphCore5CNode11RemoveChildEPS0_, @function
_ZN18Iw2DSceneGraphCore5CNode11RemoveChildEPS0_:
.LFB1412:
	.loc 6 119 0
	.cfi_startproc
	pushl	%ebp
	.cfi_def_cfa_offset 8
	.cfi_offset 5, -8
	movl	%esp, %ebp
	.cfi_def_cfa_register 5
	pushl	%ebx
	leal	-36(%esp), %esp
	.cfi_offset 3, -12
	call	__x86.get_pc_thunk.bx
	addl	$_GLOBAL_OFFSET_TABLE_, %ebx
.LBB13:
	.loc 6 120 0
	movl	8(%ebp), %eax
	addl	$56, %eax
	movl	%eax, (%esp)
	call	_ZN4_STL6vectorIPN18Iw2DSceneGraphCore5CNodeENS_9allocatorIS3_EEE5beginEv
	movl	%eax, -12(%ebp)
	.loc 6 121 0
	movl	8(%ebp), %eax
	addl	$56, %eax
	movl	%eax, (%esp)
	call	_ZN4_STL6vectorIPN18Iw2DSceneGraphCore5CNodeENS_9allocatorIS3_EEE3endEv
	movl	%eax, -16(%ebp)
	.loc 6 122 0
	jmp	.L67
.L70:
	.loc 6 124 0
	movl	-12(%ebp), %eax
	movl	(%eax), %eax
	cmpl	12(%ebp), %eax
	jne	.L68
	.loc 6 126 0
	movl	-12(%ebp), %eax
	movl	(%eax), %eax
	movl	$0, 52(%eax)
	.loc 6 127 0
	movl	8(%ebp), %eax
	movl	%eax, %edx
	addl	$56, %edx
	movl	-12(%ebp), %eax
	movl	%eax, 4(%esp)
	movl	%edx, (%esp)
	call	_ZN4_STL6vectorIPN18Iw2DSceneGraphCore5CNodeENS_9allocatorIS3_EEE5eraseEPS3_
	.loc 6 128 0
	jmp	.L66
.L68:
	.loc 6 122 0
	addl	$4, -12(%ebp)
.L67:
	.loc 6 122 0 is_stmt 0 discriminator 1
	movl	-12(%ebp), %eax
	cmpl	-16(%ebp), %eax
	jne	.L70
.LBB14:
.LBB15:
	.loc 6 131 0 is_stmt 1
	leal	.LC9@GOTOFF(%ebx), %eax
	movl	%eax, (%esp)
	call	IwDebugAssertIsChannelOn@PLT
	testb	%al, %al
	je	.L71
	.loc 6 131 0 is_stmt 0 discriminator 1
	movzbl	_ZZN18Iw2DSceneGraphCore5CNode11RemoveChildEPS0_E21_s_IwAssertIgnoreThis@GOTOFF(%ebx), %eax
	testb	%al, %al
	jne	.L71
	.loc 6 131 0 discriminator 3
	movl	$1, %eax
	jmp	.L72
.L71:
	.loc 6 131 0 discriminator 2
	movl	$0, %eax
.L72:
	.loc 6 131 0 discriminator 4
	testb	%al, %al
	je	.L66
	.loc 6 131 0 discriminator 1
	movl	$0, (%esp)
	call	IwDebugAssertSetSolution@PLT
	movl	$0, (%esp)
	call	IwDebugAssertSetUID@PLT
	leal	.LC10@GOTOFF(%ebx), %eax
	movl	%eax, (%esp)
	call	IwDebugAssertSetMessage@PLT
	movl	$1, 12(%esp)
	movl	$131, 8(%esp)
	leal	.LC11@GOTOFF(%ebx), %eax
	movl	%eax, 4(%esp)
	leal	.LC12@GOTOFF(%ebx), %eax
	movl	%eax, (%esp)
	call	IwDebugAssertShow@PLT
	cmpl	$1, %eax
	je	.L74
	cmpl	$2, %eax
	je	.L75
	.loc 6 131 0
	jmp	.L73
.L74:
	.loc 6 131 0 discriminator 2
	call	s3eDebugIsDebuggerPresent@PLT
	testb	%al, %al
	setne	%al
	testb	%al, %al
	je	.L76
	.loc 6 131 0 discriminator 1
	call	s3eDebugIsDebuggerPresent@PLT
	testb	%al, %al
	setne	%al
	testb	%al, %al
	je	.L77
#APP
# 131 "c:/Marmalade/7.5/modules/iw2dscenegraphcore/source/Iw2DSceneGraphCore.cpp" 1
	 int $3 
# 0 "" 2
#NO_APP
	jmp	.L77
.L76:
	.loc 6 131 0 discriminator 2
	call	_ZL11IwDebugExitv
	jmp	.L73
.L77:
	.loc 6 131 0 discriminator 1
	jmp	.L73
.L75:
	.loc 6 131 0 discriminator 3
	movb	$1, _ZZN18Iw2DSceneGraphCore5CNode11RemoveChildEPS0_E21_s_IwAssertIgnoreThis@GOTOFF(%ebx)
	nop
.L73:
	.loc 6 131 0 discriminator 1
	movl	$0, (%esp)
	call	IwDebugAssertSetUID@PLT
.L66:
.LBE15:
.LBE14:
.LBE13:
	.loc 6 132 0 is_stmt 1
	leal	36(%esp), %esp
	popl	%ebx
	.cfi_restore 3
	popl	%ebp
	.cfi_restore 5
	.cfi_def_cfa 4, 4
	ret
	.cfi_endproc
.LFE1412:
	.size	_ZN18Iw2DSceneGraphCore5CNode11RemoveChildEPS0_, .-_ZN18Iw2DSceneGraphCore5CNode11RemoveChildEPS0_
	.align 2
	.globl	_ZN18Iw2DSceneGraphCore5CNode7IsChildEPS0_
	.hidden	_ZN18Iw2DSceneGraphCore5CNode7IsChildEPS0_
	.type	_ZN18Iw2DSceneGraphCore5CNode7IsChildEPS0_, @function
_ZN18Iw2DSceneGraphCore5CNode7IsChildEPS0_:
.LFB1413:
	.loc 6 135 0
	.cfi_startproc
	pushl	%ebp
	.cfi_def_cfa_offset 8
	.cfi_offset 5, -8
	leal	(%esp), %ebp
	.cfi_def_cfa_register 5
	leal	-40(%esp), %esp
.LBB16:
	.loc 6 136 0
	movl	8(%ebp), %eax
	addl	$56, %eax
	movl	%eax, (%esp)
	call	_ZN4_STL6vectorIPN18Iw2DSceneGraphCore5CNodeENS_9allocatorIS3_EEE5beginEv
	movl	%eax, -12(%ebp)
	.loc 6 137 0
	movl	8(%ebp), %eax
	addl	$56, %eax
	movl	%eax, (%esp)
	call	_ZN4_STL6vectorIPN18Iw2DSceneGraphCore5CNodeENS_9allocatorIS3_EEE3endEv
	movl	%eax, -16(%ebp)
	.loc 6 138 0
	jmp	.L79
.L82:
	.loc 6 140 0
	movl	-12(%ebp), %eax
	movl	(%eax), %eax
	cmpl	12(%ebp), %eax
	jne	.L80
	.loc 6 141 0
	movl	$1, %eax
	jmp	.L81
.L80:
	.loc 6 138 0
	addl	$4, -12(%ebp)
.L79:
	.loc 6 138 0 is_stmt 0 discriminator 1
	movl	-12(%ebp), %eax
	cmpl	-16(%ebp), %eax
	jne	.L82
	.loc 6 143 0 is_stmt 1
	movl	$0, %eax
.L81:
.LBE16:
	.loc 6 144 0
	leave
	.cfi_restore 5
	.cfi_def_cfa 4, 4
	ret
	.cfi_endproc
.LFE1413:
	.size	_ZN18Iw2DSceneGraphCore5CNode7IsChildEPS0_, .-_ZN18Iw2DSceneGraphCore5CNode7IsChildEPS0_
	.align 2
	.globl	_ZN18Iw2DSceneGraphCore5CNode7HitTestEii
	.hidden	_ZN18Iw2DSceneGraphCore5CNode7HitTestEii
	.type	_ZN18Iw2DSceneGraphCore5CNode7HitTestEii, @function
_ZN18Iw2DSceneGraphCore5CNode7HitTestEii:
.LFB1414:
	.loc 6 148 0
	.cfi_startproc
	pushl	%ebp
	.cfi_def_cfa_offset 8
	.cfi_offset 5, -8
	movl	%esp, %ebp
	.cfi_def_cfa_register 5
	pushl	%edi
	pushl	%esi
	pushl	%ebx
	leal	-108(%esp), %esp
	.cfi_offset 7, -12
	.cfi_offset 6, -16
	.cfi_offset 3, -20
	call	__x86.get_pc_thunk.bx
	addl	$_GLOBAL_OFFSET_TABLE_, %ebx
.LBB17:
	.loc 6 149 0
	leal	-92(%ebp), %eax
	movl	$3, %edi
	movl	%eax, %esi
	jmp	.L84
.L85:
	.loc 6 149 0 is_stmt 0 discriminator 2
	movl	%esi, (%esp)
	call	_ZN8CIwFVec2C1Ev
	addl	$8, %esi
	subl	$1, %edi
.L84:
	.loc 6 149 0 discriminator 1
	cmpl	$-1, %edi
	jne	.L85
	.loc 6 151 0 is_stmt 1 discriminator 3
	movl	.LC4@GOTOFF(%ebx), %eax
	movl	%eax, -92(%ebp)
	.loc 6 152 0 discriminator 3
	movl	8(%ebp), %eax
	movl	12(%eax), %edx
	movl	.LC4@GOTOFF(%ebx), %eax
	movd	%edx, %xmm1
	movd	%eax, %xmm3
	addss	%xmm3, %xmm1
	movd	%xmm1, %eax
	movl	%eax, -84(%ebp)
	.loc 6 153 0 discriminator 3
	movl	8(%ebp), %eax
	movl	12(%eax), %edx
	movl	.LC4@GOTOFF(%ebx), %eax
	movd	%edx, %xmm2
	movd	%eax, %xmm4
	addss	%xmm4, %xmm2
	movd	%xmm2, %eax
	movl	%eax, -76(%ebp)
	.loc 6 154 0 discriminator 3
	movl	.LC4@GOTOFF(%ebx), %eax
	movl	%eax, -68(%ebp)
	.loc 6 155 0 discriminator 3
	movl	.LC4@GOTOFF(%ebx), %eax
	movl	%eax, -88(%ebp)
	.loc 6 156 0 discriminator 3
	movl	.LC4@GOTOFF(%ebx), %eax
	movl	%eax, -80(%ebp)
	.loc 6 157 0 discriminator 3
	movl	8(%ebp), %eax
	movl	16(%eax), %edx
	movl	.LC4@GOTOFF(%ebx), %eax
	movd	%edx, %xmm3
	movd	%eax, %xmm5
	addss	%xmm5, %xmm3
	movd	%xmm3, %eax
	movl	%eax, -72(%ebp)
	.loc 6 158 0 discriminator 3
	movl	8(%ebp), %eax
	movl	16(%eax), %edx
	movl	.LC4@GOTOFF(%ebx), %eax
	movd	%edx, %xmm4
	movd	%eax, %xmm6
	addss	%xmm6, %xmm4
	movd	%xmm4, %eax
	movl	%eax, -64(%ebp)
	.loc 6 160 0 discriminator 3
	movl	8(%ebp), %eax
	movl	%eax, %edx
	addl	$92, %edx
	leal	-52(%ebp), %eax
	leal	-92(%ebp), %ecx
	addl	$24, %ecx
	movl	%ecx, 8(%esp)
	movl	%edx, 4(%esp)
	movl	%eax, (%esp)
	call	_ZNK9CIwFMat2D12TransformVecERK8CIwFVec2
	subl	$4, %esp
.LBB18:
	.loc 6 161 0 discriminator 3
	movl	$0, -28(%ebp)
	jmp	.L86
.L90:
.LBB19:
	.loc 6 163 0
	leal	-92(%ebp), %eax
	movl	-28(%ebp), %edx
	sall	$3, %edx
	movl	%eax, %ecx
	addl	%edx, %ecx
	movl	8(%ebp), %eax
	movl	%eax, %edx
	addl	$92, %edx
	leal	-60(%ebp), %eax
	movl	%ecx, 8(%esp)
	movl	%edx, 4(%esp)
	movl	%eax, (%esp)
	call	_ZNK9CIwFMat2D12TransformVecERK8CIwFVec2
	subl	$4, %esp
	.loc 6 164 0
	movl	-60(%ebp), %eax
	movl	-52(%ebp), %edx
	movd	%eax, %xmm5
	movd	%edx, %xmm7
	subss	%xmm7, %xmm5
	movd	%xmm5, %eax
	movl	%eax, -32(%ebp)
	.loc 6 165 0
	movl	-56(%ebp), %eax
	movl	-48(%ebp), %edx
	movd	%eax, %xmm6
	movd	%edx, %xmm3
	subss	%xmm3, %xmm6
	movd	%xmm6, %eax
	movl	%eax, -36(%ebp)
	.loc 6 166 0
	cvtsi2ss	12(%ebp), %xmm4
	movd	%xmm4, %eax
	movl	-52(%ebp), %edx
	movd	%eax, %xmm7
	movd	%edx, %xmm5
	subss	%xmm5, %xmm7
	movd	%xmm7, %eax
	movl	%eax, -40(%ebp)
	.loc 6 167 0
	cvtsi2ss	16(%ebp), %xmm6
	movd	%xmm6, %eax
	movl	-48(%ebp), %edx
	movd	%eax, %xmm0
	movd	%edx, %xmm7
	subss	%xmm7, %xmm0
	movd	%xmm0, %eax
	movl	%eax, -44(%ebp)
	.loc 6 169 0
	movl	-40(%ebp), %eax
	movd	%eax, %xmm1
	mulss	-36(%ebp), %xmm1
	movd	%xmm1, %eax
	movl	-32(%ebp), %edx
	movd	%edx, %xmm0
	mulss	-44(%ebp), %xmm0
	movd	%eax, %xmm2
	subss	%xmm0, %xmm2
	movd	%xmm2, %eax
	movl	.LC4@GOTOFF(%ebx), %edx
	movd	%eax, %xmm1
	movd	%edx, %xmm2
	ucomiss	%xmm2, %xmm1
	jb	.L93
	.loc 6 170 0
	movl	$0, %eax
	jmp	.L91
.L93:
	.loc 6 172 0
	leal	-60(%ebp), %eax
	movl	%eax, 4(%esp)
	leal	-52(%ebp), %eax
	movl	%eax, (%esp)
	call	_ZN8CIwFVec2aSERKS_
.LBE19:
	.loc 6 161 0
	addl	$1, -28(%ebp)
.L86:
	.loc 6 161 0 is_stmt 0 discriminator 1
	cmpl	$3, -28(%ebp)
	jle	.L90
.LBE18:
	.loc 6 175 0 is_stmt 1
	movl	$1, %eax
.L91:
.LBE17:
	.loc 6 176 0
	leal	-12(%ebp), %esp
	popl	%ebx
	.cfi_restore 3
	popl	%esi
	.cfi_restore 6
	popl	%edi
	.cfi_restore 7
	popl	%ebp
	.cfi_restore 5
	.cfi_def_cfa 4, 4
	ret
	.cfi_endproc
.LFE1414:
	.size	_ZN18Iw2DSceneGraphCore5CNode7HitTestEii, .-_ZN18Iw2DSceneGraphCore5CNode7HitTestEii
	.section	.text._ZNK4_STL6vectorIPN18Iw2DSceneGraphCore5CNodeENS_9allocatorIS3_EEE4sizeEv,"axG",@progbits,_ZNK4_STL6vectorIPN18Iw2DSceneGraphCore5CNodeENS_9allocatorIS3_EEE4sizeEv,comdat
	.align 2
	.weak	_ZNK4_STL6vectorIPN18Iw2DSceneGraphCore5CNodeENS_9allocatorIS3_EEE4sizeEv
	.hidden	_ZNK4_STL6vectorIPN18Iw2DSceneGraphCore5CNodeENS_9allocatorIS3_EEE4sizeEv
	.type	_ZNK4_STL6vectorIPN18Iw2DSceneGraphCore5CNodeENS_9allocatorIS3_EEE4sizeEv, @function
_ZNK4_STL6vectorIPN18Iw2DSceneGraphCore5CNodeENS_9allocatorIS3_EEE4sizeEv:
.LFB1424:
	.file 7 "c:/marmalade/7.5/s3e/h/std/c++/stl/_vector.h"
	.loc 7 182 0
	.cfi_startproc
	pushl	%ebp
	.cfi_def_cfa_offset 8
	.cfi_offset 5, -8
	leal	(%esp), %ebp
	.cfi_def_cfa_register 5
	.loc 7 182 0
	movl	8(%ebp), %eax
	movl	4(%eax), %eax
	movl	%eax, %edx
	movl	8(%ebp), %eax
	movl	(%eax), %eax
	subl	%eax, %edx
	movl	%edx, %eax
	sarl	$2, %eax
	popl	%ebp
	.cfi_restore 5
	.cfi_def_cfa 4, 4
	ret
	.cfi_endproc
.LFE1424:
	.size	_ZNK4_STL6vectorIPN18Iw2DSceneGraphCore5CNodeENS_9allocatorIS3_EEE4sizeEv, .-_ZNK4_STL6vectorIPN18Iw2DSceneGraphCore5CNodeENS_9allocatorIS3_EEE4sizeEv
	.section	.text._ZN4_STL9allocatorIPN18Iw2DSceneGraphCore5CNodeEEC2Ev,"axG",@progbits,_ZN4_STL9allocatorIPN18Iw2DSceneGraphCore5CNodeEEC5Ev,comdat
	.align 2
	.weak	_ZN4_STL9allocatorIPN18Iw2DSceneGraphCore5CNodeEEC2Ev
	.hidden	_ZN4_STL9allocatorIPN18Iw2DSceneGraphCore5CNodeEEC2Ev
	.type	_ZN4_STL9allocatorIPN18Iw2DSceneGraphCore5CNodeEEC2Ev, @function
_ZN4_STL9allocatorIPN18Iw2DSceneGraphCore5CNodeEEC2Ev:
.LFB1426:
	.file 8 "c:/marmalade/7.5/s3e/h/std/c++/stl/_alloc.h"
	.loc 8 345 0
	.cfi_startproc
	pushl	%ebp
	.cfi_def_cfa_offset 8
	.cfi_offset 5, -8
	movl	%esp, %ebp
	.cfi_def_cfa_register 5
	.loc 8 345 0
	popl	%ebp
	.cfi_restore 5
	.cfi_def_cfa 4, 4
	ret
	.cfi_endproc
.LFE1426:
	.size	_ZN4_STL9allocatorIPN18Iw2DSceneGraphCore5CNodeEEC2Ev, .-_ZN4_STL9allocatorIPN18Iw2DSceneGraphCore5CNodeEEC2Ev
	.weak	_ZN4_STL9allocatorIPN18Iw2DSceneGraphCore5CNodeEEC1Ev
	.hidden	_ZN4_STL9allocatorIPN18Iw2DSceneGraphCore5CNodeEEC1Ev
	.set	_ZN4_STL9allocatorIPN18Iw2DSceneGraphCore5CNodeEEC1Ev,_ZN4_STL9allocatorIPN18Iw2DSceneGraphCore5CNodeEEC2Ev
	.section	.text._ZN4_STL9allocatorIPN18Iw2DSceneGraphCore5CNodeEED2Ev,"axG",@progbits,_ZN4_STL9allocatorIPN18Iw2DSceneGraphCore5CNodeEED5Ev,comdat
	.align 2
	.weak	_ZN4_STL9allocatorIPN18Iw2DSceneGraphCore5CNodeEED2Ev
	.hidden	_ZN4_STL9allocatorIPN18Iw2DSceneGraphCore5CNodeEED2Ev
	.type	_ZN4_STL9allocatorIPN18Iw2DSceneGraphCore5CNodeEED2Ev, @function
_ZN4_STL9allocatorIPN18Iw2DSceneGraphCore5CNodeEED2Ev:
.LFB1429:
	.loc 8 350 0
	.cfi_startproc
	pushl	%ebp
	.cfi_def_cfa_offset 8
	.cfi_offset 5, -8
	movl	%esp, %ebp
	.cfi_def_cfa_register 5
	.loc 8 350 0
	popl	%ebp
	.cfi_restore 5
	.cfi_def_cfa 4, 4
	ret
	.cfi_endproc
.LFE1429:
	.size	_ZN4_STL9allocatorIPN18Iw2DSceneGraphCore5CNodeEED2Ev, .-_ZN4_STL9allocatorIPN18Iw2DSceneGraphCore5CNodeEED2Ev
	.weak	_ZN4_STL9allocatorIPN18Iw2DSceneGraphCore5CNodeEED1Ev
	.hidden	_ZN4_STL9allocatorIPN18Iw2DSceneGraphCore5CNodeEED1Ev
	.set	_ZN4_STL9allocatorIPN18Iw2DSceneGraphCore5CNodeEED1Ev,_ZN4_STL9allocatorIPN18Iw2DSceneGraphCore5CNodeEED2Ev
	.section	.text._ZN4_STL6vectorIPN18Iw2DSceneGraphCore5CNodeENS_9allocatorIS3_EEEC2ERKS5_,"axG",@progbits,_ZN4_STL6vectorIPN18Iw2DSceneGraphCore5CNodeENS_9allocatorIS3_EEEC5ERKS5_,comdat
	.align 2
	.weak	_ZN4_STL6vectorIPN18Iw2DSceneGraphCore5CNodeENS_9allocatorIS3_EEEC2ERKS5_
	.hidden	_ZN4_STL6vectorIPN18Iw2DSceneGraphCore5CNodeENS_9allocatorIS3_EEEC2ERKS5_
	.type	_ZN4_STL6vectorIPN18Iw2DSceneGraphCore5CNodeENS_9allocatorIS3_EEEC2ERKS5_, @function
_ZN4_STL6vectorIPN18Iw2DSceneGraphCore5CNodeENS_9allocatorIS3_EEEC2ERKS5_:
.LFB1432:
	.loc 7 198 0
	.cfi_startproc
	pushl	%ebp
	.cfi_def_cfa_offset 8
	.cfi_offset 5, -8
	leal	(%esp), %ebp
	.cfi_def_cfa_register 5
	leal	-24(%esp), %esp
.LBB20:
	.loc 7 199 0
	movl	8(%ebp), %eax
	movl	12(%ebp), %edx
	movl	%edx, 4(%esp)
	movl	%eax, (%esp)
	call	_ZN4_STL12_Vector_baseIPN18Iw2DSceneGraphCore5CNodeENS_9allocatorIS3_EEEC2ERKS5_
.LBE20:
	leave
	.cfi_restore 5
	.cfi_def_cfa 4, 4
	ret
	.cfi_endproc
.LFE1432:
	.size	_ZN4_STL6vectorIPN18Iw2DSceneGraphCore5CNodeENS_9allocatorIS3_EEEC2ERKS5_, .-_ZN4_STL6vectorIPN18Iw2DSceneGraphCore5CNodeENS_9allocatorIS3_EEEC2ERKS5_
	.weak	_ZN4_STL6vectorIPN18Iw2DSceneGraphCore5CNodeENS_9allocatorIS3_EEEC1ERKS5_
	.hidden	_ZN4_STL6vectorIPN18Iw2DSceneGraphCore5CNodeENS_9allocatorIS3_EEEC1ERKS5_
	.set	_ZN4_STL6vectorIPN18Iw2DSceneGraphCore5CNodeENS_9allocatorIS3_EEEC1ERKS5_,_ZN4_STL6vectorIPN18Iw2DSceneGraphCore5CNodeENS_9allocatorIS3_EEEC2ERKS5_
	.section	.text._ZN4_STL6vectorIPN18Iw2DSceneGraphCore5CNodeENS_9allocatorIS3_EEED2Ev,"axG",@progbits,_ZN4_STL6vectorIPN18Iw2DSceneGraphCore5CNodeENS_9allocatorIS3_EEED5Ev,comdat
	.align 2
	.weak	_ZN4_STL6vectorIPN18Iw2DSceneGraphCore5CNodeENS_9allocatorIS3_EEED2Ev
	.hidden	_ZN4_STL6vectorIPN18Iw2DSceneGraphCore5CNodeENS_9allocatorIS3_EEED2Ev
	.type	_ZN4_STL6vectorIPN18Iw2DSceneGraphCore5CNodeENS_9allocatorIS3_EEED2Ev, @function
_ZN4_STL6vectorIPN18Iw2DSceneGraphCore5CNodeENS_9allocatorIS3_EEED2Ev:
.LFB1435:
	.loc 7 258 0
	.cfi_startproc
	pushl	%ebp
	.cfi_def_cfa_offset 8
	.cfi_offset 5, -8
	leal	(%esp), %ebp
	.cfi_def_cfa_register 5
	leal	-24(%esp), %esp
.LBB21:
	.loc 7 258 0
	movl	8(%ebp), %eax
	movl	4(%eax), %edx
	movl	8(%ebp), %eax
	movl	(%eax), %eax
	movl	%edx, 4(%esp)
	movl	%eax, (%esp)
	call	_ZN4_STL8_DestroyIPPN18Iw2DSceneGraphCore5CNodeEEEvT_S5_
	movl	8(%ebp), %eax
	movl	%eax, (%esp)
	call	_ZN4_STL12_Vector_baseIPN18Iw2DSceneGraphCore5CNodeENS_9allocatorIS3_EEED2Ev
.LBE21:
	leave
	.cfi_restore 5
	.cfi_def_cfa 4, 4
	ret
	.cfi_endproc
.LFE1435:
	.size	_ZN4_STL6vectorIPN18Iw2DSceneGraphCore5CNodeENS_9allocatorIS3_EEED2Ev, .-_ZN4_STL6vectorIPN18Iw2DSceneGraphCore5CNodeENS_9allocatorIS3_EEED2Ev
	.weak	_ZN4_STL6vectorIPN18Iw2DSceneGraphCore5CNodeENS_9allocatorIS3_EEED1Ev
	.hidden	_ZN4_STL6vectorIPN18Iw2DSceneGraphCore5CNodeENS_9allocatorIS3_EEED1Ev
	.set	_ZN4_STL6vectorIPN18Iw2DSceneGraphCore5CNodeENS_9allocatorIS3_EEED1Ev,_ZN4_STL6vectorIPN18Iw2DSceneGraphCore5CNodeENS_9allocatorIS3_EEED2Ev
	.section	.text._ZN4_STL6vectorIPN18Iw2DSceneGraphCore5CNodeENS_9allocatorIS3_EEE5beginEv,"axG",@progbits,_ZN4_STL6vectorIPN18Iw2DSceneGraphCore5CNodeENS_9allocatorIS3_EEE5beginEv,comdat
	.align 2
	.weak	_ZN4_STL6vectorIPN18Iw2DSceneGraphCore5CNodeENS_9allocatorIS3_EEE5beginEv
	.hidden	_ZN4_STL6vectorIPN18Iw2DSceneGraphCore5CNodeENS_9allocatorIS3_EEE5beginEv
	.type	_ZN4_STL6vectorIPN18Iw2DSceneGraphCore5CNodeENS_9allocatorIS3_EEE5beginEv, @function
_ZN4_STL6vectorIPN18Iw2DSceneGraphCore5CNodeENS_9allocatorIS3_EEE5beginEv:
.LFB1437:
	.loc 7 172 0
	.cfi_startproc
	pushl	%ebp
	.cfi_def_cfa_offset 8
	.cfi_offset 5, -8
	leal	(%esp), %ebp
	.cfi_def_cfa_register 5
	.loc 7 172 0
	movl	8(%ebp), %eax
	movl	(%eax), %eax
	popl	%ebp
	.cfi_restore 5
	.cfi_def_cfa 4, 4
	ret
	.cfi_endproc
.LFE1437:
	.size	_ZN4_STL6vectorIPN18Iw2DSceneGraphCore5CNodeENS_9allocatorIS3_EEE5beginEv, .-_ZN4_STL6vectorIPN18Iw2DSceneGraphCore5CNodeENS_9allocatorIS3_EEE5beginEv
	.section	.text._ZN4_STL6vectorIPN18Iw2DSceneGraphCore5CNodeENS_9allocatorIS3_EEE3endEv,"axG",@progbits,_ZN4_STL6vectorIPN18Iw2DSceneGraphCore5CNodeENS_9allocatorIS3_EEE3endEv,comdat
	.align 2
	.weak	_ZN4_STL6vectorIPN18Iw2DSceneGraphCore5CNodeENS_9allocatorIS3_EEE3endEv
	.hidden	_ZN4_STL6vectorIPN18Iw2DSceneGraphCore5CNodeENS_9allocatorIS3_EEE3endEv
	.type	_ZN4_STL6vectorIPN18Iw2DSceneGraphCore5CNodeENS_9allocatorIS3_EEE3endEv, @function
_ZN4_STL6vectorIPN18Iw2DSceneGraphCore5CNodeENS_9allocatorIS3_EEE3endEv:
.LFB1438:
	.loc 7 174 0
	.cfi_startproc
	pushl	%ebp
	.cfi_def_cfa_offset 8
	.cfi_offset 5, -8
	leal	(%esp), %ebp
	.cfi_def_cfa_register 5
	.loc 7 174 0
	movl	8(%ebp), %eax
	movl	4(%eax), %eax
	popl	%ebp
	.cfi_restore 5
	.cfi_def_cfa 4, 4
	ret
	.cfi_endproc
.LFE1438:
	.size	_ZN4_STL6vectorIPN18Iw2DSceneGraphCore5CNodeENS_9allocatorIS3_EEE3endEv, .-_ZN4_STL6vectorIPN18Iw2DSceneGraphCore5CNodeENS_9allocatorIS3_EEE3endEv
	.section	.text._ZN4_STL6vectorIPN18Iw2DSceneGraphCore5CNodeENS_9allocatorIS3_EEE9push_backERKS3_,"axG",@progbits,_ZN4_STL6vectorIPN18Iw2DSceneGraphCore5CNodeENS_9allocatorIS3_EEE9push_backERKS3_,comdat
	.align 2
	.weak	_ZN4_STL6vectorIPN18Iw2DSceneGraphCore5CNodeENS_9allocatorIS3_EEE9push_backERKS3_
	.hidden	_ZN4_STL6vectorIPN18Iw2DSceneGraphCore5CNodeENS_9allocatorIS3_EEE9push_backERKS3_
	.type	_ZN4_STL6vectorIPN18Iw2DSceneGraphCore5CNodeENS_9allocatorIS3_EEE9push_backERKS3_, @function
_ZN4_STL6vectorIPN18Iw2DSceneGraphCore5CNodeENS_9allocatorIS3_EEE9push_backERKS3_:
.LFB1439:
	.loc 7 331 0
	.cfi_startproc
	pushl	%ebp
	.cfi_def_cfa_offset 8
	.cfi_offset 5, -8
	leal	(%esp), %ebp
	.cfi_def_cfa_register 5
	leal	-56(%esp), %esp
	.loc 7 332 0
	movl	8(%ebp), %eax
	movl	4(%eax), %edx
	movl	8(%ebp), %eax
	movl	8(%eax), %eax
	cmpl	%eax, %edx
	je	.L107
	.loc 7 333 0
	movl	8(%ebp), %eax
	movl	4(%eax), %eax
	movl	12(%ebp), %edx
	movl	%edx, 4(%esp)
	movl	%eax, (%esp)
	call	_ZN4_STL10_ConstructIPN18Iw2DSceneGraphCore5CNodeES3_EEvPT_RKT0_
	.loc 7 334 0
	movl	8(%ebp), %eax
	movl	4(%eax), %eax
	movl	%eax, %edx
	addl	$4, %edx
	movl	8(%ebp), %eax
	movl	%edx, 4(%eax)
	jmp	.L106
.L107:
	.loc 7 337 0
	movl	8(%ebp), %eax
	movl	4(%eax), %eax
	movl	$1, 20(%esp)
	movl	$1, 16(%esp)
	leal	-9(%ebp), %edx
	movl	%edx, 12(%esp)
	movl	12(%ebp), %edx
	movl	%edx, 8(%esp)
	movl	%eax, 4(%esp)
	movl	8(%ebp), %eax
	movl	%eax, (%esp)
	call	_ZN4_STL6vectorIPN18Iw2DSceneGraphCore5CNodeENS_9allocatorIS3_EEE18_M_insert_overflowEPS3_RKS3_RKNS_11__true_typeEjb
.L106:
	.loc 7 338 0
	leave
	.cfi_restore 5
	.cfi_def_cfa 4, 4
	ret
	.cfi_endproc
.LFE1439:
	.size	_ZN4_STL6vectorIPN18Iw2DSceneGraphCore5CNodeENS_9allocatorIS3_EEE9push_backERKS3_, .-_ZN4_STL6vectorIPN18Iw2DSceneGraphCore5CNodeENS_9allocatorIS3_EEE9push_backERKS3_
	.section	.text._ZN4_STL6vectorIPN18Iw2DSceneGraphCore5CNodeENS_9allocatorIS3_EEE5eraseEPS3_,"axG",@progbits,_ZN4_STL6vectorIPN18Iw2DSceneGraphCore5CNodeENS_9allocatorIS3_EEE5eraseEPS3_,comdat
	.align 2
	.weak	_ZN4_STL6vectorIPN18Iw2DSceneGraphCore5CNodeENS_9allocatorIS3_EEE5eraseEPS3_
	.hidden	_ZN4_STL6vectorIPN18Iw2DSceneGraphCore5CNodeENS_9allocatorIS3_EEE5eraseEPS3_
	.type	_ZN4_STL6vectorIPN18Iw2DSceneGraphCore5CNodeENS_9allocatorIS3_EEE5eraseEPS3_, @function
_ZN4_STL6vectorIPN18Iw2DSceneGraphCore5CNodeENS_9allocatorIS3_EEE5eraseEPS3_:
.LFB1440:
	.loc 7 466 0
	.cfi_startproc
	pushl	%ebp
	.cfi_def_cfa_offset 8
	.cfi_offset 5, -8
	movl	%esp, %ebp
	.cfi_def_cfa_register 5
	pushl	%esi
	leal	-36(%esp), %esp
	.cfi_offset 6, -12
	.loc 7 467 0
	movl	12(%ebp), %eax
	movl	%eax, %esi
	addl	$4, %esi
	movl	8(%ebp), %eax
	movl	%eax, (%esp)
	call	_ZN4_STL6vectorIPN18Iw2DSceneGraphCore5CNodeENS_9allocatorIS3_EEE3endEv
	cmpl	%eax, %esi
	setne	%al
	testb	%al, %al
	je	.L110
	.loc 7 468 0
	movl	8(%ebp), %eax
	movl	4(%eax), %eax
	movl	12(%ebp), %edx
	movl	%edx, %ecx
	addl	$4, %ecx
	leal	-9(%ebp), %edx
	movl	%edx, 12(%esp)
	movl	12(%ebp), %edx
	movl	%edx, 8(%esp)
	movl	%eax, 4(%esp)
	movl	%ecx, (%esp)
	call	_ZN4_STL11__copy_ptrsIPPN18Iw2DSceneGraphCore5CNodeES4_EET0_T_S6_S5_RKNS_11__true_typeE
.L110:
	.loc 7 469 0
	movl	8(%ebp), %eax
	movl	4(%eax), %eax
	movl	%eax, %edx
	subl	$4, %edx
	movl	8(%ebp), %eax
	movl	%edx, 4(%eax)
	.loc 7 470 0
	movl	8(%ebp), %eax
	movl	4(%eax), %eax
	movl	%eax, (%esp)
	call	_ZN4_STL8_DestroyIPN18Iw2DSceneGraphCore5CNodeEEEvPT_
	.loc 7 471 0
	movl	12(%ebp), %eax
	.loc 7 472 0
	leal	36(%esp), %esp
	popl	%esi
	.cfi_restore 6
	popl	%ebp
	.cfi_restore 5
	.cfi_def_cfa 4, 4
	ret
	.cfi_endproc
.LFE1440:
	.size	_ZN4_STL6vectorIPN18Iw2DSceneGraphCore5CNodeENS_9allocatorIS3_EEE5eraseEPS3_, .-_ZN4_STL6vectorIPN18Iw2DSceneGraphCore5CNodeENS_9allocatorIS3_EEE5eraseEPS3_
	.section	.text._ZN4_STL17_STLP_alloc_proxyIPPN18Iw2DSceneGraphCore5CNodeES3_NS_9allocatorIS3_EEED2Ev,"axG",@progbits,_ZN4_STL17_STLP_alloc_proxyIPPN18Iw2DSceneGraphCore5CNodeES3_NS_9allocatorIS3_EEED5Ev,comdat
	.align 2
	.weak	_ZN4_STL17_STLP_alloc_proxyIPPN18Iw2DSceneGraphCore5CNodeES3_NS_9allocatorIS3_EEED2Ev
	.hidden	_ZN4_STL17_STLP_alloc_proxyIPPN18Iw2DSceneGraphCore5CNodeES3_NS_9allocatorIS3_EEED2Ev
	.type	_ZN4_STL17_STLP_alloc_proxyIPPN18Iw2DSceneGraphCore5CNodeES3_NS_9allocatorIS3_EEED2Ev, @function
_ZN4_STL17_STLP_alloc_proxyIPPN18Iw2DSceneGraphCore5CNodeES3_NS_9allocatorIS3_EEED2Ev:
.LFB1443:
	.loc 8 481 0
	.cfi_startproc
	pushl	%ebp
	.cfi_def_cfa_offset 8
	.cfi_offset 5, -8
	leal	(%esp), %ebp
	.cfi_def_cfa_register 5
	leal	-24(%esp), %esp
.LBB22:
	.loc 8 481 0
	movl	8(%ebp), %eax
	movl	%eax, (%esp)
	call	_ZN4_STL9allocatorIPN18Iw2DSceneGraphCore5CNodeEED2Ev
.LBE22:
	leave
	.cfi_restore 5
	.cfi_def_cfa 4, 4
	ret
	.cfi_endproc
.LFE1443:
	.size	_ZN4_STL17_STLP_alloc_proxyIPPN18Iw2DSceneGraphCore5CNodeES3_NS_9allocatorIS3_EEED2Ev, .-_ZN4_STL17_STLP_alloc_proxyIPPN18Iw2DSceneGraphCore5CNodeES3_NS_9allocatorIS3_EEED2Ev
	.weak	_ZN4_STL17_STLP_alloc_proxyIPPN18Iw2DSceneGraphCore5CNodeES3_NS_9allocatorIS3_EEED1Ev
	.hidden	_ZN4_STL17_STLP_alloc_proxyIPPN18Iw2DSceneGraphCore5CNodeES3_NS_9allocatorIS3_EEED1Ev
	.set	_ZN4_STL17_STLP_alloc_proxyIPPN18Iw2DSceneGraphCore5CNodeES3_NS_9allocatorIS3_EEED1Ev,_ZN4_STL17_STLP_alloc_proxyIPPN18Iw2DSceneGraphCore5CNodeES3_NS_9allocatorIS3_EEED2Ev
	.section	.text._ZN4_STL12_Vector_baseIPN18Iw2DSceneGraphCore5CNodeENS_9allocatorIS3_EEEC2ERKS5_,"axG",@progbits,_ZN4_STL12_Vector_baseIPN18Iw2DSceneGraphCore5CNodeENS_9allocatorIS3_EEEC5ERKS5_,comdat
	.align 2
	.weak	_ZN4_STL12_Vector_baseIPN18Iw2DSceneGraphCore5CNodeENS_9allocatorIS3_EEEC2ERKS5_
	.hidden	_ZN4_STL12_Vector_baseIPN18Iw2DSceneGraphCore5CNodeENS_9allocatorIS3_EEEC2ERKS5_
	.type	_ZN4_STL12_Vector_baseIPN18Iw2DSceneGraphCore5CNodeENS_9allocatorIS3_EEEC2ERKS5_, @function
_ZN4_STL12_Vector_baseIPN18Iw2DSceneGraphCore5CNodeENS_9allocatorIS3_EEEC2ERKS5_:
.LFB1445:
	.loc 7 71 0
	.cfi_startproc
	pushl	%ebp
	.cfi_def_cfa_offset 8
	.cfi_offset 5, -8
	leal	(%esp), %ebp
	.cfi_def_cfa_register 5
	leal	-24(%esp), %esp
.LBB23:
	.loc 7 72 0
	movl	8(%ebp), %eax
	movl	$0, (%eax)
	movl	8(%ebp), %eax
	movl	$0, 4(%eax)
	movl	8(%ebp), %eax
	movl	%eax, %edx
	addl	$8, %edx
	movl	$0, 8(%esp)
	movl	12(%ebp), %eax
	movl	%eax, 4(%esp)
	movl	%edx, (%esp)
	call	_ZN4_STL17_STLP_alloc_proxyIPPN18Iw2DSceneGraphCore5CNodeES3_NS_9allocatorIS3_EEEC1ERKS6_S4_
.LBE23:
	.loc 7 73 0
	leave
	.cfi_restore 5
	.cfi_def_cfa 4, 4
	ret
	.cfi_endproc
.LFE1445:
	.size	_ZN4_STL12_Vector_baseIPN18Iw2DSceneGraphCore5CNodeENS_9allocatorIS3_EEEC2ERKS5_, .-_ZN4_STL12_Vector_baseIPN18Iw2DSceneGraphCore5CNodeENS_9allocatorIS3_EEEC2ERKS5_
	.weak	_ZN4_STL12_Vector_baseIPN18Iw2DSceneGraphCore5CNodeENS_9allocatorIS3_EEEC1ERKS5_
	.hidden	_ZN4_STL12_Vector_baseIPN18Iw2DSceneGraphCore5CNodeENS_9allocatorIS3_EEEC1ERKS5_
	.set	_ZN4_STL12_Vector_baseIPN18Iw2DSceneGraphCore5CNodeENS_9allocatorIS3_EEEC1ERKS5_,_ZN4_STL12_Vector_baseIPN18Iw2DSceneGraphCore5CNodeENS_9allocatorIS3_EEEC2ERKS5_
	.section	.text._ZN4_STL12_Vector_baseIPN18Iw2DSceneGraphCore5CNodeENS_9allocatorIS3_EEED2Ev,"axG",@progbits,_ZN4_STL12_Vector_baseIPN18Iw2DSceneGraphCore5CNodeENS_9allocatorIS3_EEED5Ev,comdat
	.align 2
	.weak	_ZN4_STL12_Vector_baseIPN18Iw2DSceneGraphCore5CNodeENS_9allocatorIS3_EEED2Ev
	.hidden	_ZN4_STL12_Vector_baseIPN18Iw2DSceneGraphCore5CNodeENS_9allocatorIS3_EEED2Ev
	.type	_ZN4_STL12_Vector_baseIPN18Iw2DSceneGraphCore5CNodeENS_9allocatorIS3_EEED2Ev, @function
_ZN4_STL12_Vector_baseIPN18Iw2DSceneGraphCore5CNodeENS_9allocatorIS3_EEED2Ev:
.LFB1448:
	.loc 7 83 0
	.cfi_startproc
	pushl	%ebp
	.cfi_def_cfa_offset 8
	.cfi_offset 5, -8
	leal	(%esp), %ebp
	.cfi_def_cfa_register 5
	leal	-24(%esp), %esp
.LBB24:
	.loc 7 84 0
	movl	8(%ebp), %eax
	movl	(%eax), %eax
	testl	%eax, %eax
	je	.L116
	.loc 7 85 0
	movl	8(%ebp), %eax
	movl	8(%eax), %eax
	movl	%eax, %edx
	movl	8(%ebp), %eax
	movl	(%eax), %eax
	subl	%eax, %edx
	movl	%edx, %eax
	sarl	$2, %eax
	movl	%eax, %edx
	movl	8(%ebp), %eax
	movl	(%eax), %eax
	movl	8(%ebp), %ecx
	addl	$8, %ecx
	movl	%edx, 8(%esp)
	movl	%eax, 4(%esp)
	movl	%ecx, (%esp)
	call	_ZN4_STL9allocatorIPN18Iw2DSceneGraphCore5CNodeEE10deallocateEPS3_j
.L116:
	.loc 7 86 0
	movl	8(%ebp), %eax
	addl	$8, %eax
	movl	%eax, (%esp)
	call	_ZN4_STL17_STLP_alloc_proxyIPPN18Iw2DSceneGraphCore5CNodeES3_NS_9allocatorIS3_EEED1Ev
.LBE24:
	leave
	.cfi_restore 5
	.cfi_def_cfa 4, 4
	ret
	.cfi_endproc
.LFE1448:
	.size	_ZN4_STL12_Vector_baseIPN18Iw2DSceneGraphCore5CNodeENS_9allocatorIS3_EEED2Ev, .-_ZN4_STL12_Vector_baseIPN18Iw2DSceneGraphCore5CNodeENS_9allocatorIS3_EEED2Ev
	.weak	_ZN4_STL12_Vector_baseIPN18Iw2DSceneGraphCore5CNodeENS_9allocatorIS3_EEED1Ev
	.hidden	_ZN4_STL12_Vector_baseIPN18Iw2DSceneGraphCore5CNodeENS_9allocatorIS3_EEED1Ev
	.set	_ZN4_STL12_Vector_baseIPN18Iw2DSceneGraphCore5CNodeENS_9allocatorIS3_EEED1Ev,_ZN4_STL12_Vector_baseIPN18Iw2DSceneGraphCore5CNodeENS_9allocatorIS3_EEED2Ev
	.section	.text._ZN4_STL8_DestroyIPPN18Iw2DSceneGraphCore5CNodeEEEvT_S5_,"axG",@progbits,_ZN4_STL8_DestroyIPPN18Iw2DSceneGraphCore5CNodeEEEvT_S5_,comdat
	.weak	_ZN4_STL8_DestroyIPPN18Iw2DSceneGraphCore5CNodeEEEvT_S5_
	.hidden	_ZN4_STL8_DestroyIPPN18Iw2DSceneGraphCore5CNodeEEEvT_S5_
	.type	_ZN4_STL8_DestroyIPPN18Iw2DSceneGraphCore5CNodeEEEvT_S5_, @function
_ZN4_STL8_DestroyIPPN18Iw2DSceneGraphCore5CNodeEEEvT_S5_:
.LFB1450:
	.file 9 "c:/marmalade/7.5/s3e/h/std/c++/stl/_construct.h"
	.loc 9 138 0
	.cfi_startproc
	pushl	%ebp
	.cfi_def_cfa_offset 8
	.cfi_offset 5, -8
	movl	%esp, %ebp
	.cfi_def_cfa_register 5
	leal	-24(%esp), %esp
	.loc 9 139 0
	movl	$0, 8(%esp)
	movl	12(%ebp), %eax
	movl	%eax, 4(%esp)
	movl	8(%ebp), %eax
	movl	%eax, (%esp)
	call	_ZN4_STL9__destroyIPPN18Iw2DSceneGraphCore5CNodeES3_EEvT_S5_PT0_
	.loc 9 140 0
	leave
	.cfi_restore 5
	.cfi_def_cfa 4, 4
	ret
	.cfi_endproc
.LFE1450:
	.size	_ZN4_STL8_DestroyIPPN18Iw2DSceneGraphCore5CNodeEEEvT_S5_, .-_ZN4_STL8_DestroyIPPN18Iw2DSceneGraphCore5CNodeEEEvT_S5_
	.section	.text._ZN4_STL10_ConstructIPN18Iw2DSceneGraphCore5CNodeES3_EEvPT_RKT0_,"axG",@progbits,_ZN4_STL10_ConstructIPN18Iw2DSceneGraphCore5CNodeES3_EEvPT_RKT0_,comdat
	.weak	_ZN4_STL10_ConstructIPN18Iw2DSceneGraphCore5CNodeES3_EEvPT_RKT0_
	.hidden	_ZN4_STL10_ConstructIPN18Iw2DSceneGraphCore5CNodeES3_EEvPT_RKT0_
	.type	_ZN4_STL10_ConstructIPN18Iw2DSceneGraphCore5CNodeES3_EEvPT_RKT0_, @function
_ZN4_STL10_ConstructIPN18Iw2DSceneGraphCore5CNodeES3_EEvPT_RKT0_:
.LFB1451:
	.loc 9 93 0
	.cfi_startproc
	pushl	%ebp
	.cfi_def_cfa_offset 8
	.cfi_offset 5, -8
	leal	(%esp), %ebp
	.cfi_def_cfa_register 5
	leal	-24(%esp), %esp
	.loc 9 97 0
	movl	8(%ebp), %eax
	movl	%eax, 4(%esp)
	movl	$4, (%esp)
	call	_ZnwjPv
	movl	12(%ebp), %edx
	movl	(%edx), %edx
	movl	%edx, (%eax)
	.loc 9 98 0
	leave
	.cfi_restore 5
	.cfi_def_cfa 4, 4
	ret
	.cfi_endproc
.LFE1451:
	.size	_ZN4_STL10_ConstructIPN18Iw2DSceneGraphCore5CNodeES3_EEvPT_RKT0_, .-_ZN4_STL10_ConstructIPN18Iw2DSceneGraphCore5CNodeES3_EEvPT_RKT0_
	.section	.text._ZN4_STL6vectorIPN18Iw2DSceneGraphCore5CNodeENS_9allocatorIS3_EEE18_M_insert_overflowEPS3_RKS3_RKNS_11__true_typeEjb,"axG",@progbits,_ZN4_STL6vectorIPN18Iw2DSceneGraphCore5CNodeENS_9allocatorIS3_EEE18_M_insert_overflowEPS3_RKS3_RKNS_11__true_typeEjb,comdat
	.align 2
	.weak	_ZN4_STL6vectorIPN18Iw2DSceneGraphCore5CNodeENS_9allocatorIS3_EEE18_M_insert_overflowEPS3_RKS3_RKNS_11__true_typeEjb
	.hidden	_ZN4_STL6vectorIPN18Iw2DSceneGraphCore5CNodeENS_9allocatorIS3_EEE18_M_insert_overflowEPS3_RKS3_RKNS_11__true_typeEjb
	.type	_ZN4_STL6vectorIPN18Iw2DSceneGraphCore5CNodeENS_9allocatorIS3_EEE18_M_insert_overflowEPS3_RKS3_RKNS_11__true_typeEjb, @function
_ZN4_STL6vectorIPN18Iw2DSceneGraphCore5CNodeENS_9allocatorIS3_EEE18_M_insert_overflowEPS3_RKS3_RKNS_11__true_typeEjb:
.LFB1452:
	.loc 7 150 0
	.cfi_startproc
	pushl	%ebp
	.cfi_def_cfa_offset 8
	.cfi_offset 5, -8
	leal	(%esp), %ebp
	.cfi_def_cfa_register 5
	leal	-56(%esp), %esp
	movl	28(%ebp), %eax
	movb	%al, -28(%ebp)
.LBB25:
	.loc 7 152 0
	movl	8(%ebp), %eax
	movl	%eax, (%esp)
	call	_ZNK4_STL6vectorIPN18Iw2DSceneGraphCore5CNodeENS_9allocatorIS3_EEE4sizeEv
	movl	%eax, -24(%ebp)
	.loc 7 153 0
	leal	24(%ebp), %eax
	movl	%eax, 4(%esp)
	leal	-24(%ebp), %eax
	movl	%eax, (%esp)
	call	_ZN4_STL3maxIjEERKT_S3_S3_
	movl	(%eax), %edx
	movl	-24(%ebp), %eax
	addl	%edx, %eax
	movl	%eax, -16(%ebp)
	.loc 7 155 0
	movl	8(%ebp), %eax
	movl	%eax, %edx
	addl	$8, %edx
	movl	$0, 8(%esp)
	movl	-16(%ebp), %eax
	movl	%eax, 4(%esp)
	movl	%edx, (%esp)
	call	_ZN4_STL9allocatorIPN18Iw2DSceneGraphCore5CNodeEE8allocateEjPKv
	movl	%eax, -20(%ebp)
	.loc 7 156 0
	movl	8(%ebp), %eax
	movl	(%eax), %eax
	movl	-20(%ebp), %edx
	movl	%edx, 8(%esp)
	movl	12(%ebp), %edx
	movl	%edx, 4(%esp)
	movl	%eax, (%esp)
	call	_ZN4_STL14__copy_trivialEPKvS1_Pv
	movl	%eax, -12(%ebp)
	.loc 7 158 0
	movl	24(%ebp), %eax
	movl	16(%ebp), %edx
	movl	%edx, 8(%esp)
	movl	%eax, 4(%esp)
	movl	-12(%ebp), %eax
	movl	%eax, (%esp)
	call	_ZN4_STL6fill_nIPPN18Iw2DSceneGraphCore5CNodeEjS3_EET_S5_T0_RKT1_
	movl	%eax, -12(%ebp)
	.loc 7 159 0
	movzbl	-28(%ebp), %eax
	xorl	$1, %eax
	testb	%al, %al
	je	.L121
	.loc 7 161 0
	movl	8(%ebp), %eax
	movl	4(%eax), %eax
	movl	-12(%ebp), %edx
	movl	%edx, 8(%esp)
	movl	%eax, 4(%esp)
	movl	12(%ebp), %eax
	movl	%eax, (%esp)
	call	_ZN4_STL14__copy_trivialEPKvS1_Pv
	movl	%eax, -12(%ebp)
.L121:
	.loc 7 162 0
	movl	8(%ebp), %eax
	movl	%eax, (%esp)
	call	_ZN4_STL6vectorIPN18Iw2DSceneGraphCore5CNodeENS_9allocatorIS3_EEE8_M_clearEv
	.loc 7 163 0
	movl	-16(%ebp), %eax
	movl	%eax, %edx
	sall	$2, %edx
	movl	-20(%ebp), %eax
	addl	%edx, %eax
	movl	%eax, 12(%esp)
	movl	-12(%ebp), %eax
	movl	%eax, 8(%esp)
	movl	-20(%ebp), %eax
	movl	%eax, 4(%esp)
	movl	8(%ebp), %eax
	movl	%eax, (%esp)
	call	_ZN4_STL6vectorIPN18Iw2DSceneGraphCore5CNodeENS_9allocatorIS3_EEE6_M_setEPS3_S7_S7_
.LBE25:
	.loc 7 164 0
	leave
	.cfi_restore 5
	.cfi_def_cfa 4, 4
	ret
	.cfi_endproc
.LFE1452:
	.size	_ZN4_STL6vectorIPN18Iw2DSceneGraphCore5CNodeENS_9allocatorIS3_EEE18_M_insert_overflowEPS3_RKS3_RKNS_11__true_typeEjb, .-_ZN4_STL6vectorIPN18Iw2DSceneGraphCore5CNodeENS_9allocatorIS3_EEE18_M_insert_overflowEPS3_RKS3_RKNS_11__true_typeEjb
	.section	.text._ZN4_STL11__copy_ptrsIPPN18Iw2DSceneGraphCore5CNodeES4_EET0_T_S6_S5_RKNS_11__true_typeE,"axG",@progbits,_ZN4_STL11__copy_ptrsIPPN18Iw2DSceneGraphCore5CNodeES4_EET0_T_S6_S5_RKNS_11__true_typeE,comdat
	.weak	_ZN4_STL11__copy_ptrsIPPN18Iw2DSceneGraphCore5CNodeES4_EET0_T_S6_S5_RKNS_11__true_typeE
	.hidden	_ZN4_STL11__copy_ptrsIPPN18Iw2DSceneGraphCore5CNodeES4_EET0_T_S6_S5_RKNS_11__true_typeE
	.type	_ZN4_STL11__copy_ptrsIPPN18Iw2DSceneGraphCore5CNodeES4_EET0_T_S6_S5_RKNS_11__true_typeE, @function
_ZN4_STL11__copy_ptrsIPPN18Iw2DSceneGraphCore5CNodeES4_EET0_T_S6_S5_RKNS_11__true_typeE:
.LFB1453:
	.loc 1 194 0
	.cfi_startproc
	pushl	%ebp
	.cfi_def_cfa_offset 8
	.cfi_offset 5, -8
	leal	(%esp), %ebp
	.cfi_def_cfa_register 5
	leal	-24(%esp), %esp
	.loc 1 197 0
	movl	16(%ebp), %eax
	movl	%eax, 8(%esp)
	movl	12(%ebp), %eax
	movl	%eax, 4(%esp)
	movl	8(%ebp), %eax
	movl	%eax, (%esp)
	call	_ZN4_STL14__copy_trivialEPKvS1_Pv
	.loc 1 198 0
	leave
	.cfi_restore 5
	.cfi_def_cfa 4, 4
	ret
	.cfi_endproc
.LFE1453:
	.size	_ZN4_STL11__copy_ptrsIPPN18Iw2DSceneGraphCore5CNodeES4_EET0_T_S6_S5_RKNS_11__true_typeE, .-_ZN4_STL11__copy_ptrsIPPN18Iw2DSceneGraphCore5CNodeES4_EET0_T_S6_S5_RKNS_11__true_typeE
	.section	.text._ZN4_STL8_DestroyIPN18Iw2DSceneGraphCore5CNodeEEEvPT_,"axG",@progbits,_ZN4_STL8_DestroyIPN18Iw2DSceneGraphCore5CNodeEEEvPT_,comdat
	.weak	_ZN4_STL8_DestroyIPN18Iw2DSceneGraphCore5CNodeEEEvPT_
	.hidden	_ZN4_STL8_DestroyIPN18Iw2DSceneGraphCore5CNodeEEEvPT_
	.type	_ZN4_STL8_DestroyIPN18Iw2DSceneGraphCore5CNodeEEEvPT_, @function
_ZN4_STL8_DestroyIPN18Iw2DSceneGraphCore5CNodeEEEvPT_:
.LFB1454:
	.loc 9 56 0
	.cfi_startproc
	pushl	%ebp
	.cfi_def_cfa_offset 8
	.cfi_offset 5, -8
	movl	%esp, %ebp
	.cfi_def_cfa_register 5
	.loc 9 73 0
	popl	%ebp
	.cfi_restore 5
	.cfi_def_cfa 4, 4
	ret
	.cfi_endproc
.LFE1454:
	.size	_ZN4_STL8_DestroyIPN18Iw2DSceneGraphCore5CNodeEEEvPT_, .-_ZN4_STL8_DestroyIPN18Iw2DSceneGraphCore5CNodeEEEvPT_
	.section	.text._ZN4_STL17_STLP_alloc_proxyIPPN18Iw2DSceneGraphCore5CNodeES3_NS_9allocatorIS3_EEEC2ERKS6_S4_,"axG",@progbits,_ZN4_STL17_STLP_alloc_proxyIPPN18Iw2DSceneGraphCore5CNodeES3_NS_9allocatorIS3_EEEC5ERKS6_S4_,comdat
	.align 2
	.weak	_ZN4_STL17_STLP_alloc_proxyIPPN18Iw2DSceneGraphCore5CNodeES3_NS_9allocatorIS3_EEEC2ERKS6_S4_
	.hidden	_ZN4_STL17_STLP_alloc_proxyIPPN18Iw2DSceneGraphCore5CNodeES3_NS_9allocatorIS3_EEEC2ERKS6_S4_
	.type	_ZN4_STL17_STLP_alloc_proxyIPPN18Iw2DSceneGraphCore5CNodeES3_NS_9allocatorIS3_EEEC2ERKS6_S4_, @function
_ZN4_STL17_STLP_alloc_proxyIPPN18Iw2DSceneGraphCore5CNodeES3_NS_9allocatorIS3_EEEC2ERKS6_S4_:
.LFB1456:
	.loc 8 487 0
	.cfi_startproc
	pushl	%ebp
	.cfi_def_cfa_offset 8
	.cfi_offset 5, -8
	leal	(%esp), %ebp
	.cfi_def_cfa_register 5
	leal	-24(%esp), %esp
.LBB26:
	.loc 8 487 0
	movl	12(%ebp), %eax
	movl	%eax, 4(%esp)
	movl	8(%ebp), %eax
	movl	%eax, (%esp)
	call	_ZN4_STL9allocatorIPN18Iw2DSceneGraphCore5CNodeEEC2ERKS4_
	movl	8(%ebp), %eax
	movl	16(%ebp), %edx
	movl	%edx, (%eax)
.LBE26:
	leave
	.cfi_restore 5
	.cfi_def_cfa 4, 4
	ret
	.cfi_endproc
.LFE1456:
	.size	_ZN4_STL17_STLP_alloc_proxyIPPN18Iw2DSceneGraphCore5CNodeES3_NS_9allocatorIS3_EEEC2ERKS6_S4_, .-_ZN4_STL17_STLP_alloc_proxyIPPN18Iw2DSceneGraphCore5CNodeES3_NS_9allocatorIS3_EEEC2ERKS6_S4_
	.weak	_ZN4_STL17_STLP_alloc_proxyIPPN18Iw2DSceneGraphCore5CNodeES3_NS_9allocatorIS3_EEEC1ERKS6_S4_
	.hidden	_ZN4_STL17_STLP_alloc_proxyIPPN18Iw2DSceneGraphCore5CNodeES3_NS_9allocatorIS3_EEEC1ERKS6_S4_
	.set	_ZN4_STL17_STLP_alloc_proxyIPPN18Iw2DSceneGraphCore5CNodeES3_NS_9allocatorIS3_EEEC1ERKS6_S4_,_ZN4_STL17_STLP_alloc_proxyIPPN18Iw2DSceneGraphCore5CNodeES3_NS_9allocatorIS3_EEEC2ERKS6_S4_
	.section	.text._ZN4_STL9allocatorIPN18Iw2DSceneGraphCore5CNodeEE10deallocateEPS3_j,"axG",@progbits,_ZN4_STL9allocatorIPN18Iw2DSceneGraphCore5CNodeEE10deallocateEPS3_j,comdat
	.align 2
	.weak	_ZN4_STL9allocatorIPN18Iw2DSceneGraphCore5CNodeEE10deallocateEPS3_j
	.hidden	_ZN4_STL9allocatorIPN18Iw2DSceneGraphCore5CNodeEE10deallocateEPS3_j
	.type	_ZN4_STL9allocatorIPN18Iw2DSceneGraphCore5CNodeEE10deallocateEPS3_j, @function
_ZN4_STL9allocatorIPN18Iw2DSceneGraphCore5CNodeEE10deallocateEPS3_j:
.LFB1458:
	.loc 8 358 0
	.cfi_startproc
	pushl	%ebp
	.cfi_def_cfa_offset 8
	.cfi_offset 5, -8
	leal	(%esp), %ebp
	.cfi_def_cfa_register 5
	leal	-24(%esp), %esp
	.loc 8 360 0
	cmpl	$0, 12(%ebp)
	je	.L126
	.loc 8 360 0 is_stmt 0 discriminator 1
	movl	16(%ebp), %eax
	sall	$2, %eax
	movl	%eax, 4(%esp)
	movl	12(%ebp), %eax
	movl	%eax, (%esp)
	call	_ZN4_STL14__malloc_allocILi0EE10deallocateEPvj
.L126:
	.loc 8 361 0 is_stmt 1
	leave
	.cfi_restore 5
	.cfi_def_cfa 4, 4
	ret
	.cfi_endproc
.LFE1458:
	.size	_ZN4_STL9allocatorIPN18Iw2DSceneGraphCore5CNodeEE10deallocateEPS3_j, .-_ZN4_STL9allocatorIPN18Iw2DSceneGraphCore5CNodeEE10deallocateEPS3_j
	.section	.text._ZN4_STL9__destroyIPPN18Iw2DSceneGraphCore5CNodeES3_EEvT_S5_PT0_,"axG",@progbits,_ZN4_STL9__destroyIPPN18Iw2DSceneGraphCore5CNodeES3_EEvT_S5_PT0_,comdat
	.weak	_ZN4_STL9__destroyIPPN18Iw2DSceneGraphCore5CNodeES3_EEvT_S5_PT0_
	.hidden	_ZN4_STL9__destroyIPPN18Iw2DSceneGraphCore5CNodeES3_EEvT_S5_PT0_
	.type	_ZN4_STL9__destroyIPPN18Iw2DSceneGraphCore5CNodeES3_EEvT_S5_PT0_, @function
_ZN4_STL9__destroyIPPN18Iw2DSceneGraphCore5CNodeES3_EEvT_S5_PT0_:
.LFB1459:
	.loc 9 132 0
	.cfi_startproc
	pushl	%ebp
	.cfi_def_cfa_offset 8
	.cfi_offset 5, -8
	movl	%esp, %ebp
	.cfi_def_cfa_register 5
	leal	-40(%esp), %esp
.LBB27:
	.loc 9 134 0
	leal	-9(%ebp), %eax
	movl	%eax, 8(%esp)
	movl	12(%ebp), %eax
	movl	%eax, 4(%esp)
	movl	8(%ebp), %eax
	movl	%eax, (%esp)
	call	_ZN4_STL13__destroy_auxIPPN18Iw2DSceneGraphCore5CNodeEEEvT_S5_RKNS_11__true_typeE
.LBE27:
	.loc 9 135 0
	leave
	.cfi_restore 5
	.cfi_def_cfa 4, 4
	ret
	.cfi_endproc
.LFE1459:
	.size	_ZN4_STL9__destroyIPPN18Iw2DSceneGraphCore5CNodeES3_EEvT_S5_PT0_, .-_ZN4_STL9__destroyIPPN18Iw2DSceneGraphCore5CNodeES3_EEvT_S5_PT0_
	.section	.text._ZN4_STL3maxIjEERKT_S3_S3_,"axG",@progbits,_ZN4_STL3maxIjEERKT_S3_S3_,comdat
	.weak	_ZN4_STL3maxIjEERKT_S3_S3_
	.hidden	_ZN4_STL3maxIjEERKT_S3_S3_
	.type	_ZN4_STL3maxIjEERKT_S3_S3_, @function
_ZN4_STL3maxIjEERKT_S3_S3_:
.LFB1460:
	.loc 1 79 0
	.cfi_startproc
	pushl	%ebp
	.cfi_def_cfa_offset 8
	.cfi_offset 5, -8
	leal	(%esp), %ebp
	.cfi_def_cfa_register 5
	.loc 1 79 0
	movl	8(%ebp), %eax
	movl	(%eax), %edx
	movl	12(%ebp), %eax
	movl	(%eax), %eax
	cmpl	%eax, %edx
	jae	.L130
	.loc 1 79 0 is_stmt 0 discriminator 1
	movl	12(%ebp), %eax
	jmp	.L131
.L130:
	.loc 1 79 0 discriminator 2
	movl	8(%ebp), %eax
.L131:
	.loc 1 79 0 discriminator 3
	popl	%ebp
	.cfi_restore 5
	.cfi_def_cfa 4, 4
	ret
	.cfi_endproc
.LFE1460:
	.size	_ZN4_STL3maxIjEERKT_S3_S3_, .-_ZN4_STL3maxIjEERKT_S3_S3_
	.section	.text._ZN4_STL9allocatorIPN18Iw2DSceneGraphCore5CNodeEE8allocateEjPKv,"axG",@progbits,_ZN4_STL9allocatorIPN18Iw2DSceneGraphCore5CNodeEE8allocateEjPKv,comdat
	.align 2
	.weak	_ZN4_STL9allocatorIPN18Iw2DSceneGraphCore5CNodeEE8allocateEjPKv
	.hidden	_ZN4_STL9allocatorIPN18Iw2DSceneGraphCore5CNodeEE8allocateEjPKv
	.type	_ZN4_STL9allocatorIPN18Iw2DSceneGraphCore5CNodeEE8allocateEjPKv, @function
_ZN4_STL9allocatorIPN18Iw2DSceneGraphCore5CNodeEE8allocateEjPKv:
.LFB1461:
	.loc 8 354 0 is_stmt 1
	.cfi_startproc
	pushl	%ebp
	.cfi_def_cfa_offset 8
	.cfi_offset 5, -8
	leal	(%esp), %ebp
	.cfi_def_cfa_register 5
	leal	-24(%esp), %esp
	.loc 8 355 0
	cmpl	$0, 12(%ebp)
	je	.L134
	.loc 8 355 0 is_stmt 0 discriminator 1
	movl	12(%ebp), %eax
	sall	$2, %eax
	movl	%eax, (%esp)
	call	_ZN4_STL14__malloc_allocILi0EE8allocateEj
	jmp	.L135
.L134:
	.loc 8 355 0 discriminator 2
	movl	$0, %eax
.L135:
	.loc 8 356 0 is_stmt 1 discriminator 3
	leave
	.cfi_restore 5
	.cfi_def_cfa 4, 4
	ret
	.cfi_endproc
.LFE1461:
	.size	_ZN4_STL9allocatorIPN18Iw2DSceneGraphCore5CNodeEE8allocateEjPKv, .-_ZN4_STL9allocatorIPN18Iw2DSceneGraphCore5CNodeEE8allocateEjPKv
	.section	.text._ZN4_STL6fill_nIPPN18Iw2DSceneGraphCore5CNodeEjS3_EET_S5_T0_RKT1_,"axG",@progbits,_ZN4_STL6fill_nIPPN18Iw2DSceneGraphCore5CNodeEjS3_EET_S5_T0_RKT1_,comdat
	.weak	_ZN4_STL6fill_nIPPN18Iw2DSceneGraphCore5CNodeEjS3_EET_S5_T0_RKT1_
	.hidden	_ZN4_STL6fill_nIPPN18Iw2DSceneGraphCore5CNodeEjS3_EET_S5_T0_RKT1_
	.type	_ZN4_STL6fill_nIPPN18Iw2DSceneGraphCore5CNodeEjS3_EET_S5_T0_RKT1_, @function
_ZN4_STL6fill_nIPPN18Iw2DSceneGraphCore5CNodeEjS3_EET_S5_T0_RKT1_:
.LFB1462:
	.loc 1 332 0
	.cfi_startproc
	pushl	%ebp
	.cfi_def_cfa_offset 8
	.cfi_offset 5, -8
	leal	(%esp), %ebp
	.cfi_def_cfa_register 5
	.loc 1 334 0
	jmp	.L138
.L139:
	.loc 1 335 0 discriminator 2
	movl	16(%ebp), %eax
	movl	(%eax), %edx
	movl	8(%ebp), %eax
	movl	%edx, (%eax)
	.loc 1 334 0 discriminator 2
	subl	$1, 12(%ebp)
	addl	$4, 8(%ebp)
.L138:
	.loc 1 334 0 is_stmt 0 discriminator 1
	cmpl	$0, 12(%ebp)
	jne	.L139
	.loc 1 336 0 is_stmt 1
	movl	8(%ebp), %eax
	.loc 1 337 0
	popl	%ebp
	.cfi_restore 5
	.cfi_def_cfa 4, 4
	ret
	.cfi_endproc
.LFE1462:
	.size	_ZN4_STL6fill_nIPPN18Iw2DSceneGraphCore5CNodeEjS3_EET_S5_T0_RKT1_, .-_ZN4_STL6fill_nIPPN18Iw2DSceneGraphCore5CNodeEjS3_EET_S5_T0_RKT1_
	.section	.text._ZN4_STL6vectorIPN18Iw2DSceneGraphCore5CNodeENS_9allocatorIS3_EEE8_M_clearEv,"axG",@progbits,_ZN4_STL6vectorIPN18Iw2DSceneGraphCore5CNodeENS_9allocatorIS3_EEE8_M_clearEv,comdat
	.align 2
	.weak	_ZN4_STL6vectorIPN18Iw2DSceneGraphCore5CNodeENS_9allocatorIS3_EEE8_M_clearEv
	.hidden	_ZN4_STL6vectorIPN18Iw2DSceneGraphCore5CNodeENS_9allocatorIS3_EEE8_M_clearEv
	.type	_ZN4_STL6vectorIPN18Iw2DSceneGraphCore5CNodeENS_9allocatorIS3_EEE8_M_clearEv, @function
_ZN4_STL6vectorIPN18Iw2DSceneGraphCore5CNodeENS_9allocatorIS3_EEE8_M_clearEv:
.LFB1463:
	.loc 7 493 0
	.cfi_startproc
	pushl	%ebp
	.cfi_def_cfa_offset 8
	.cfi_offset 5, -8
	leal	(%esp), %ebp
	.cfi_def_cfa_register 5
	leal	-24(%esp), %esp
	.loc 7 495 0
	movl	8(%ebp), %eax
	movl	4(%eax), %edx
	movl	8(%ebp), %eax
	movl	(%eax), %eax
	movl	%edx, 4(%esp)
	movl	%eax, (%esp)
	call	_ZN4_STL8_DestroyIPPN18Iw2DSceneGraphCore5CNodeEEEvT_S5_
	.loc 7 496 0
	movl	8(%ebp), %eax
	movl	8(%eax), %eax
	movl	%eax, %edx
	movl	8(%ebp), %eax
	movl	(%eax), %eax
	subl	%eax, %edx
	movl	%edx, %eax
	sarl	$2, %eax
	movl	%eax, %edx
	movl	8(%ebp), %eax
	movl	(%eax), %eax
	movl	8(%ebp), %ecx
	addl	$8, %ecx
	movl	%edx, 8(%esp)
	movl	%eax, 4(%esp)
	movl	%ecx, (%esp)
	call	_ZN4_STL9allocatorIPN18Iw2DSceneGraphCore5CNodeEE10deallocateEPS3_j
	.loc 7 498 0
	leave
	.cfi_restore 5
	.cfi_def_cfa 4, 4
	ret
	.cfi_endproc
.LFE1463:
	.size	_ZN4_STL6vectorIPN18Iw2DSceneGraphCore5CNodeENS_9allocatorIS3_EEE8_M_clearEv, .-_ZN4_STL6vectorIPN18Iw2DSceneGraphCore5CNodeENS_9allocatorIS3_EEE8_M_clearEv
	.section	.text._ZN4_STL6vectorIPN18Iw2DSceneGraphCore5CNodeENS_9allocatorIS3_EEE6_M_setEPS3_S7_S7_,"axG",@progbits,_ZN4_STL6vectorIPN18Iw2DSceneGraphCore5CNodeENS_9allocatorIS3_EEE6_M_setEPS3_S7_S7_,comdat
	.align 2
	.weak	_ZN4_STL6vectorIPN18Iw2DSceneGraphCore5CNodeENS_9allocatorIS3_EEE6_M_setEPS3_S7_S7_
	.hidden	_ZN4_STL6vectorIPN18Iw2DSceneGraphCore5CNodeENS_9allocatorIS3_EEE6_M_setEPS3_S7_S7_
	.type	_ZN4_STL6vectorIPN18Iw2DSceneGraphCore5CNodeENS_9allocatorIS3_EEE6_M_setEPS3_S7_S7_, @function
_ZN4_STL6vectorIPN18Iw2DSceneGraphCore5CNodeENS_9allocatorIS3_EEE6_M_setEPS3_S7_S7_:
.LFB1464:
	.loc 7 500 0
	.cfi_startproc
	pushl	%ebp
	.cfi_def_cfa_offset 8
	.cfi_offset 5, -8
	leal	(%esp), %ebp
	.cfi_def_cfa_register 5
	.loc 7 501 0
	movl	8(%ebp), %eax
	movl	12(%ebp), %edx
	movl	%edx, (%eax)
	.loc 7 502 0
	movl	8(%ebp), %eax
	movl	16(%ebp), %edx
	movl	%edx, 4(%eax)
	.loc 7 503 0
	movl	8(%ebp), %eax
	movl	20(%ebp), %edx
	movl	%edx, 8(%eax)
	.loc 7 504 0
	popl	%ebp
	.cfi_restore 5
	.cfi_def_cfa 4, 4
	ret
	.cfi_endproc
.LFE1464:
	.size	_ZN4_STL6vectorIPN18Iw2DSceneGraphCore5CNodeENS_9allocatorIS3_EEE6_M_setEPS3_S7_S7_, .-_ZN4_STL6vectorIPN18Iw2DSceneGraphCore5CNodeENS_9allocatorIS3_EEE6_M_setEPS3_S7_S7_
	.section	.text._ZN4_STL9allocatorIPN18Iw2DSceneGraphCore5CNodeEEC2ERKS4_,"axG",@progbits,_ZN4_STL9allocatorIPN18Iw2DSceneGraphCore5CNodeEEC5ERKS4_,comdat
	.align 2
	.weak	_ZN4_STL9allocatorIPN18Iw2DSceneGraphCore5CNodeEEC2ERKS4_
	.hidden	_ZN4_STL9allocatorIPN18Iw2DSceneGraphCore5CNodeEEC2ERKS4_
	.type	_ZN4_STL9allocatorIPN18Iw2DSceneGraphCore5CNodeEEC2ERKS4_, @function
_ZN4_STL9allocatorIPN18Iw2DSceneGraphCore5CNodeEEC2ERKS4_:
.LFB1466:
	.loc 8 349 0
	.cfi_startproc
	pushl	%ebp
	.cfi_def_cfa_offset 8
	.cfi_offset 5, -8
	movl	%esp, %ebp
	.cfi_def_cfa_register 5
	.loc 8 349 0
	popl	%ebp
	.cfi_restore 5
	.cfi_def_cfa 4, 4
	ret
	.cfi_endproc
.LFE1466:
	.size	_ZN4_STL9allocatorIPN18Iw2DSceneGraphCore5CNodeEEC2ERKS4_, .-_ZN4_STL9allocatorIPN18Iw2DSceneGraphCore5CNodeEEC2ERKS4_
	.weak	_ZN4_STL9allocatorIPN18Iw2DSceneGraphCore5CNodeEEC1ERKS4_
	.hidden	_ZN4_STL9allocatorIPN18Iw2DSceneGraphCore5CNodeEEC1ERKS4_
	.set	_ZN4_STL9allocatorIPN18Iw2DSceneGraphCore5CNodeEEC1ERKS4_,_ZN4_STL9allocatorIPN18Iw2DSceneGraphCore5CNodeEEC2ERKS4_
	.section	.text._ZN4_STL14__malloc_allocILi0EE10deallocateEPvj,"axG",@progbits,_ZN4_STL14__malloc_allocILi0EE10deallocateEPvj,comdat
	.weak	_ZN4_STL14__malloc_allocILi0EE10deallocateEPvj
	.hidden	_ZN4_STL14__malloc_allocILi0EE10deallocateEPvj
	.type	_ZN4_STL14__malloc_allocILi0EE10deallocateEPvj, @function
_ZN4_STL14__malloc_allocILi0EE10deallocateEPvj:
.LFB1468:
	.loc 8 114 0
	.cfi_startproc
	pushl	%ebp
	.cfi_def_cfa_offset 8
	.cfi_offset 5, -8
	movl	%esp, %ebp
	.cfi_def_cfa_register 5
	pushl	%ebx
	leal	-20(%esp), %esp
	.cfi_offset 3, -12
	call	__x86.get_pc_thunk.bx
	addl	$_GLOBAL_OFFSET_TABLE_, %ebx
	.loc 8 114 0
	movl	8(%ebp), %eax
	movl	%eax, (%esp)
	call	free@PLT
	leal	20(%esp), %esp
	popl	%ebx
	.cfi_restore 3
	popl	%ebp
	.cfi_restore 5
	.cfi_def_cfa 4, 4
	ret
	.cfi_endproc
.LFE1468:
	.size	_ZN4_STL14__malloc_allocILi0EE10deallocateEPvj, .-_ZN4_STL14__malloc_allocILi0EE10deallocateEPvj
	.section	.text._ZN4_STL13__destroy_auxIPPN18Iw2DSceneGraphCore5CNodeEEEvT_S5_RKNS_11__true_typeE,"axG",@progbits,_ZN4_STL13__destroy_auxIPPN18Iw2DSceneGraphCore5CNodeEEEvT_S5_RKNS_11__true_typeE,comdat
	.weak	_ZN4_STL13__destroy_auxIPPN18Iw2DSceneGraphCore5CNodeEEEvT_S5_RKNS_11__true_typeE
	.hidden	_ZN4_STL13__destroy_auxIPPN18Iw2DSceneGraphCore5CNodeEEEvT_S5_RKNS_11__true_typeE
	.type	_ZN4_STL13__destroy_auxIPPN18Iw2DSceneGraphCore5CNodeEEEvT_S5_RKNS_11__true_typeE, @function
_ZN4_STL13__destroy_auxIPPN18Iw2DSceneGraphCore5CNodeEEEvT_S5_RKNS_11__true_typeE:
.LFB1469:
	.loc 9 128 0
	.cfi_startproc
	pushl	%ebp
	.cfi_def_cfa_offset 8
	.cfi_offset 5, -8
	movl	%esp, %ebp
	.cfi_def_cfa_register 5
	.loc 9 128 0
	popl	%ebp
	.cfi_restore 5
	.cfi_def_cfa 4, 4
	ret
	.cfi_endproc
.LFE1469:
	.size	_ZN4_STL13__destroy_auxIPPN18Iw2DSceneGraphCore5CNodeEEEvT_S5_RKNS_11__true_typeE, .-_ZN4_STL13__destroy_auxIPPN18Iw2DSceneGraphCore5CNodeEEEvT_S5_RKNS_11__true_typeE
	.section	.text._ZN4_STL14__malloc_allocILi0EE8allocateEj,"axG",@progbits,_ZN4_STL14__malloc_allocILi0EE8allocateEj,comdat
	.weak	_ZN4_STL14__malloc_allocILi0EE8allocateEj
	.hidden	_ZN4_STL14__malloc_allocILi0EE8allocateEj
	.type	_ZN4_STL14__malloc_allocILi0EE8allocateEj, @function
_ZN4_STL14__malloc_allocILi0EE8allocateEj:
.LFB1470:
	.loc 8 109 0
	.cfi_startproc
	pushl	%ebp
	.cfi_def_cfa_offset 8
	.cfi_offset 5, -8
	movl	%esp, %ebp
	.cfi_def_cfa_register 5
	pushl	%ebx
	leal	-36(%esp), %esp
	.cfi_offset 3, -12
	call	__x86.get_pc_thunk.bx
	addl	$_GLOBAL_OFFSET_TABLE_, %ebx
.LBB28:
	.loc 8 110 0
	movl	8(%ebp), %eax
	movl	%eax, (%esp)
	call	malloc@PLT
	movl	%eax, -12(%ebp)
	.loc 8 111 0
	cmpl	$0, -12(%ebp)
	jne	.L147
	.loc 8 111 0 is_stmt 0 discriminator 1
	movl	8(%ebp), %eax
	movl	%eax, (%esp)
	call	_ZN4_STL14__malloc_allocILi0EE13_S_oom_mallocEj@PLT
	movl	%eax, -12(%ebp)
.L147:
	.loc 8 112 0 is_stmt 1
	movl	-12(%ebp), %eax
.LBE28:
	.loc 8 113 0
	leal	36(%esp), %esp
	popl	%ebx
	.cfi_restore 3
	popl	%ebp
	.cfi_restore 5
	.cfi_def_cfa 4, 4
	ret
	.cfi_endproc
.LFE1470:
	.size	_ZN4_STL14__malloc_allocILi0EE8allocateEj, .-_ZN4_STL14__malloc_allocILi0EE8allocateEj
	.hidden	_ZTVN18Iw2DSceneGraphCore5CNodeE
	.weak	_ZTVN18Iw2DSceneGraphCore5CNodeE
	.section	.data.rel.ro._ZTVN18Iw2DSceneGraphCore5CNodeE,"awG",@progbits,_ZTVN18Iw2DSceneGraphCore5CNodeE,comdat
	.align 8
	.type	_ZTVN18Iw2DSceneGraphCore5CNodeE, @object
	.size	_ZTVN18Iw2DSceneGraphCore5CNodeE, 24
_ZTVN18Iw2DSceneGraphCore5CNodeE:
	.long	0
	.long	_ZTIN18Iw2DSceneGraphCore5CNodeE
	.long	_ZN18Iw2DSceneGraphCore5CNodeD1Ev
	.long	_ZN18Iw2DSceneGraphCore5CNodeD0Ev
	.long	_ZN18Iw2DSceneGraphCore5CNode6UpdateEff
	.long	_ZN18Iw2DSceneGraphCore5CNode6RenderEv
	.hidden	_ZTIN18Iw2DSceneGraphCore5CNodeE
	.weak	_ZTIN18Iw2DSceneGraphCore5CNodeE
	.section	.data.rel.ro._ZTIN18Iw2DSceneGraphCore5CNodeE,"awG",@progbits,_ZTIN18Iw2DSceneGraphCore5CNodeE,comdat
	.align 4
	.type	_ZTIN18Iw2DSceneGraphCore5CNodeE, @object
	.size	_ZTIN18Iw2DSceneGraphCore5CNodeE, 8
_ZTIN18Iw2DSceneGraphCore5CNodeE:
	.long	_ZTVN10__cxxabiv117__class_type_infoE+8
	.long	_ZTSN18Iw2DSceneGraphCore5CNodeE
	.hidden	_ZTSN18Iw2DSceneGraphCore5CNodeE
	.weak	_ZTSN18Iw2DSceneGraphCore5CNodeE
	.section	.rodata._ZTSN18Iw2DSceneGraphCore5CNodeE,"aG",@progbits,_ZTSN18Iw2DSceneGraphCore5CNodeE,comdat
	.type	_ZTSN18Iw2DSceneGraphCore5CNodeE, @object
	.size	_ZTSN18Iw2DSceneGraphCore5CNodeE, 29
_ZTSN18Iw2DSceneGraphCore5CNodeE:
	.string	"N18Iw2DSceneGraphCore5CNodeE"
	.hidden	_ZZNK9CIwFMat2DmlERKS_E21_s_IwAssertIgnoreThis
	.weak	_ZZNK9CIwFMat2DmlERKS_E21_s_IwAssertIgnoreThis
	.section	.bss._ZZNK9CIwFMat2DmlERKS_E21_s_IwAssertIgnoreThis,"awG",@nobits,_ZZNK9CIwFMat2DmlERKS_E21_s_IwAssertIgnoreThis,comdat
	.type	_ZZNK9CIwFMat2DmlERKS_E21_s_IwAssertIgnoreThis, @object
	.size	_ZZNK9CIwFMat2DmlERKS_E21_s_IwAssertIgnoreThis, 1
_ZZNK9CIwFMat2DmlERKS_E21_s_IwAssertIgnoreThis:
	.zero	1
	.local	_ZZN18Iw2DSceneGraphCore5CNode11RemoveChildEPS0_E21_s_IwAssertIgnoreThis
	.comm	_ZZN18Iw2DSceneGraphCore5CNode11RemoveChildEPS0_E21_s_IwAssertIgnoreThis,1,1
	.section	.rodata
	.align 4
.LC4:
	.long	0
	.align 4
.LC5:
	.long	1065353216
	.align 4
.LC6:
	.long	1078530011
	.align 4
.LC7:
	.long	1135869952
	.align 16
.LC8:
	.long	-2147483648
	.long	0
	.long	0
	.long	0
	.section	.text.__x86.get_pc_thunk.bx,"axG",@progbits,__x86.get_pc_thunk.bx,comdat
	.globl	__x86.get_pc_thunk.bx
	.hidden	__x86.get_pc_thunk.bx
	.type	__x86.get_pc_thunk.bx, @function
__x86.get_pc_thunk.bx:
.LFB1471:
	.cfi_startproc
	nop
	nop
	nop
	nop
	nop
	nop
	nop
	nop
	movl	(%esp), %ebx
	ret
	.cfi_endproc
.LFE1471:
	.text
.Letext0:
	.file 10 "c:/marmalade/7.5/s3e/h/std/c++/typeinfo.h"
	.file 11 "c:/marmalade/7.5/s3e/h/std/c++/cstddef"
	.file 12 "c:/marmalade/7.5/s3e/h/std/c++/using/cstring"
	.file 13 "c:/marmalade/7.5/s3e/h/std/c++/cstdlib"
	.file 14 "c:/marmalade/7.5/s3e/h/std/c++/stl/type_traits.h"
	.file 15 "c:/marmalade/7.5/s3e/h/std/c++/cstdio"
	.file 16 "c:/marmalade/7.5/s3e/h/std/c++/exception"
	.file 17 "c:/marmalade/7.5/s3e/h/std/c++/typeinfo"
	.file 18 "c:/marmalade/7.5/s3e/h/std/c++/stl/_vector.c"
	.file 19 "c:/marmalade/7.5/s3e/h/std/c++/stl/_config.h"
	.file 20 "c:/marmalade/7.5/s3e/h/ext/../std/stddef.h"
	.file 21 "c:/marmalade/7.5/s3e/h/s3eTypes.h"
	.file 22 "c:/marmalade/7.5/s3e/h/ext/../std/string.h"
	.file 23 "c:/marmalade/7.5/s3e/h/ext/../std/stdlib.h"
	.file 24 "c:/marmalade/7.5/s3e/h/ext/../std/stdio.h"
	.file 25 "c:/marmalade/7.5/modules/iwgeom/h/IwGeomCore.h"
	.file 26 "c:/marmalade/7.5/s3e/h/s3eFile.h"
	.file 27 "c:/marmalade/7.5/modules/iwutil/h/IwSerialise.h"
	.file 28 "c:/marmalade/7.5/modules/iwgeom/h/IwGeomSVec2.h"
	.file 29 "c:/marmalade/7.5/modules/iwgeom/h/IwGeomVec2.h"
	.file 30 "c:/marmalade/7.5/modules/iwgeom/h/IwGeomMat2D.h"
	.file 31 "c:/marmalade/7.5/modules/iw2dscenegraphcore/h/Iw2DSceneGraphCore.h"
	.file 32 "c:/marmalade/7.5/modules/iwgeom/h/IwGeomSqrt.h"
	.file 33 "<built-in>"
	.file 34 "c:/marmalade/7.5/s3e/h/s3eDebug.h"
	.section	.note.GNU-stack,"",@progbits
