	.arch armv6
	.fpu softvfp
	.eabi_attribute 20, 1
	.eabi_attribute 21, 1
	.eabi_attribute 23, 3
	.eabi_attribute 24, 1
	.eabi_attribute 25, 1
	.eabi_attribute 26, 2
	.eabi_attribute 30, 6
	.eabi_attribute 34, 1
	.eabi_attribute 18, 2
	.file	"IwResHandlerWAV.cpp"
	.text
.Ltext0:
	.cfi_sections	.debug_frame
	.section	.text._ZL11IwDebugExitv,"ax",%progbits
	.align	2
	.type	_ZL11IwDebugExitv, %function
_ZL11IwDebugExitv:
.LFB24:
	.file 1 "c:/marmalade/7.5/modules/iwutil/h/IwDebug.h"
	.loc 1 348 0
	.cfi_startproc
	@ args = 0, pretend = 0, frame = 0
	@ frame_needed = 0, uses_anonymous_args = 0
	stmfd	sp!, {r3, lr}
.LCFI0:
	.cfi_def_cfa_offset 8
	.cfi_offset 3, -8
	.cfi_offset 14, -4
	.loc 1 349 0
	bl	abort(PLT)
	.cfi_endproc
.LFE24:
	.size	_ZL11IwDebugExitv, .-_ZL11IwDebugExitv
	.section	.text._ZN12CIwCallStackC2EPKc,"axG",%progbits,_ZN12CIwCallStackC5EPKc,comdat
	.align	2
	.weak	_ZN12CIwCallStackC2EPKc
	.hidden	_ZN12CIwCallStackC2EPKc
	.type	_ZN12CIwCallStackC2EPKc, %function
_ZN12CIwCallStackC2EPKc:
.LFB135:
	.file 2 "c:/marmalade/7.5/modules/iwutil/h/IwRuntime.h"
	.loc 2 97 0
	.cfi_startproc
	@ args = 0, pretend = 0, frame = 8
	@ frame_needed = 0, uses_anonymous_args = 0
	str	lr, [sp, #-4]!
.LCFI1:
	.cfi_def_cfa_offset 4
	.cfi_offset 14, -4
	sub	sp, sp, #12
.LCFI2:
	.cfi_def_cfa_offset 16
	str	r0, [sp, #4]
	str	r1, [sp]
.LBB2:
	.loc 2 99 0
	ldr	r0, [sp]
	ldr	r1, [sp, #4]
	bl	IwCallStackEnter(PLT)
	mov	r3, r0
	mov	r2, r3
	ldr	r3, [sp, #4]
	strb	r2, [r3]
.LBE2:
	.loc 2 100 0
	ldr	r3, [sp, #4]
	mov	r0, r3
	add	sp, sp, #12
	@ sp needed
	ldr	pc, [sp], #4
	.cfi_endproc
.LFE135:
	.size	_ZN12CIwCallStackC2EPKc, .-_ZN12CIwCallStackC2EPKc
	.weak	_ZN12CIwCallStackC1EPKc
	.hidden	_ZN12CIwCallStackC1EPKc
	.set	_ZN12CIwCallStackC1EPKc,_ZN12CIwCallStackC2EPKc
	.section	.text._ZN12CIwCallStackD2Ev,"axG",%progbits,_ZN12CIwCallStackD5Ev,comdat
	.align	2
	.weak	_ZN12CIwCallStackD2Ev
	.hidden	_ZN12CIwCallStackD2Ev
	.type	_ZN12CIwCallStackD2Ev, %function
_ZN12CIwCallStackD2Ev:
.LFB138:
	.loc 2 101 0
	.cfi_startproc
	@ args = 0, pretend = 0, frame = 8
	@ frame_needed = 0, uses_anonymous_args = 0
	str	lr, [sp, #-4]!
.LCFI3:
	.cfi_def_cfa_offset 4
	.cfi_offset 14, -4
	sub	sp, sp, #12
.LCFI4:
	.cfi_def_cfa_offset 16
	str	r0, [sp, #4]
.LBB3:
	.loc 2 103 0
	ldr	r3, [sp, #4]
	ldrb	r3, [r3]	@ zero_extendqisi2
	cmp	r3, #0
	beq	.L6
	.loc 2 104 0
	ldr	r0, [sp, #4]
	bl	IwCallStackLeave(PLT)
.L6:
.LBE3:
	.loc 2 105 0
	ldr	r3, [sp, #4]
	mov	r0, r3
	add	sp, sp, #12
	@ sp needed
	ldr	pc, [sp], #4
	.cfi_endproc
.LFE138:
	.size	_ZN12CIwCallStackD2Ev, .-_ZN12CIwCallStackD2Ev
	.weak	_ZN12CIwCallStackD1Ev
	.hidden	_ZN12CIwCallStackD1Ev
	.set	_ZN12CIwCallStackD1Ev,_ZN12CIwCallStackD2Ev
	.section	.text._ZN10CIwManaged9ParseOpenEP16CIwTextParserITX,"axG",%progbits,_ZN10CIwManaged9ParseOpenEP16CIwTextParserITX,comdat
	.align	2
	.weak	_ZN10CIwManaged9ParseOpenEP16CIwTextParserITX
	.hidden	_ZN10CIwManaged9ParseOpenEP16CIwTextParserITX
	.type	_ZN10CIwManaged9ParseOpenEP16CIwTextParserITX, %function
_ZN10CIwManaged9ParseOpenEP16CIwTextParserITX:
.LFB318:
	.file 3 "c:/marmalade/7.5/modules/iwutil/h/IwManaged.h"
	.loc 3 143 0
	.cfi_startproc
	@ args = 0, pretend = 0, frame = 8
	@ frame_needed = 0, uses_anonymous_args = 0
	@ link register save eliminated.
	sub	sp, sp, #8
.LCFI5:
	.cfi_def_cfa_offset 8
	str	r0, [sp, #4]
	str	r1, [sp]
	.loc 3 143 0
	add	sp, sp, #8
	@ sp needed
	bx	lr
	.cfi_endproc
.LFE318:
	.size	_ZN10CIwManaged9ParseOpenEP16CIwTextParserITX, .-_ZN10CIwManaged9ParseOpenEP16CIwTextParserITX
	.section	.text._ZN10CIwManaged11HandleEventEP8CIwEvent,"axG",%progbits,_ZN10CIwManaged11HandleEventEP8CIwEvent,comdat
	.align	2
	.weak	_ZN10CIwManaged11HandleEventEP8CIwEvent
	.hidden	_ZN10CIwManaged11HandleEventEP8CIwEvent
	.type	_ZN10CIwManaged11HandleEventEP8CIwEvent, %function
_ZN10CIwManaged11HandleEventEP8CIwEvent:
.LFB319:
	.loc 3 187 0
	.cfi_startproc
	@ args = 0, pretend = 0, frame = 8
	@ frame_needed = 0, uses_anonymous_args = 0
	@ link register save eliminated.
	sub	sp, sp, #8
.LCFI6:
	.cfi_def_cfa_offset 8
	str	r0, [sp, #4]
	str	r1, [sp]
	.loc 3 187 0
	mov	r3, #0
	mov	r0, r3
	add	sp, sp, #8
	@ sp needed
	bx	lr
	.cfi_endproc
.LFE319:
	.size	_ZN10CIwManaged11HandleEventEP8CIwEvent, .-_ZN10CIwManaged11HandleEventEP8CIwEvent
	.section	.text._ZN10CIwManaged11DebugRenderEv,"axG",%progbits,_ZN10CIwManaged11DebugRenderEv,comdat
	.align	2
	.weak	_ZN10CIwManaged11DebugRenderEv
	.hidden	_ZN10CIwManaged11DebugRenderEv
	.type	_ZN10CIwManaged11DebugRenderEv, %function
_ZN10CIwManaged11DebugRenderEv:
.LFB321:
	.loc 3 213 0
	.cfi_startproc
	@ args = 0, pretend = 0, frame = 8
	@ frame_needed = 0, uses_anonymous_args = 0
	@ link register save eliminated.
	sub	sp, sp, #8
.LCFI7:
	.cfi_def_cfa_offset 8
	str	r0, [sp, #4]
	.loc 3 213 0
	add	sp, sp, #8
	@ sp needed
	bx	lr
	.cfi_endproc
.LFE321:
	.size	_ZN10CIwManaged11DebugRenderEv, .-_ZN10CIwManaged11DebugRenderEv
	.section	.text._ZN12CIwSoundData14SetSampleCountEj,"axG",%progbits,_ZN12CIwSoundData14SetSampleCountEj,comdat
	.align	2
	.weak	_ZN12CIwSoundData14SetSampleCountEj
	.hidden	_ZN12CIwSoundData14SetSampleCountEj
	.type	_ZN12CIwSoundData14SetSampleCountEj, %function
_ZN12CIwSoundData14SetSampleCountEj:
.LFB1379:
	.file 4 "c:/stage4/modules/soundengine/h/IwSoundData.h"
	.loc 4 44 0
	.cfi_startproc
	@ args = 0, pretend = 0, frame = 8
	@ frame_needed = 0, uses_anonymous_args = 0
	@ link register save eliminated.
	sub	sp, sp, #8
.LCFI8:
	.cfi_def_cfa_offset 8
	str	r0, [sp, #4]
	str	r1, [sp]
	.loc 4 44 0
	ldr	r3, [sp, #4]
	ldr	r2, [sp]
	str	r2, [r3, #20]
	add	sp, sp, #8
	@ sp needed
	bx	lr
	.cfi_endproc
.LFE1379:
	.size	_ZN12CIwSoundData14SetSampleCountEj, .-_ZN12CIwSoundData14SetSampleCountEj
	.section	.rodata
	.align	2
.LC0:
	.ascii	"CIwResHandlerWAV\000"
	.section	.text._ZNK16CIwResHandlerWAV12GetClassNameEv,"ax",%progbits
	.align	2
	.global	_ZNK16CIwResHandlerWAV12GetClassNameEv
	.hidden	_ZNK16CIwResHandlerWAV12GetClassNameEv
	.type	_ZNK16CIwResHandlerWAV12GetClassNameEv, %function
_ZNK16CIwResHandlerWAV12GetClassNameEv:
.LFB1427:
	.file 5 "c:/Stage4/modules/soundengine/source/IwResHandlerWAV.cpp"
	.loc 5 28 0
	.cfi_startproc
	@ args = 0, pretend = 0, frame = 8
	@ frame_needed = 0, uses_anonymous_args = 0
	@ link register save eliminated.
	sub	sp, sp, #8
.LCFI9:
	.cfi_def_cfa_offset 8
	str	r0, [sp, #4]
	.loc 5 28 0
	ldr	r3, .L15
.LPIC0:
	add	r3, pc, r3
	mov	r0, r3
	add	sp, sp, #8
	@ sp needed
	bx	lr
.L16:
	.align	2
.L15:
	.word	.LC0-(.LPIC0+8)
	.cfi_endproc
.LFE1427:
	.size	_ZNK16CIwResHandlerWAV12GetClassNameEv, .-_ZNK16CIwResHandlerWAV12GetClassNameEv
	.section	.rodata
	.align	2
.LC1:
	.ascii	"wav\000"
	.align	2
.LC2:
	.ascii	"CIwSoundData\000"
	.align	2
.LC3:
	.ascii	"WAV\000"
	.section	.text._ZN16CIwResHandlerWAVC2Ev,"ax",%progbits
	.align	2
	.global	_ZN16CIwResHandlerWAVC2Ev
	.hidden	_ZN16CIwResHandlerWAVC2Ev
	.type	_ZN16CIwResHandlerWAVC2Ev, %function
_ZN16CIwResHandlerWAVC2Ev:
.LFB1429:
	.loc 5 29 0
	.cfi_startproc
	@ args = 0, pretend = 0, frame = 8
	@ frame_needed = 0, uses_anonymous_args = 0
	str	lr, [sp, #-4]!
.LCFI10:
	.cfi_def_cfa_offset 4
	.cfi_offset 14, -4
	sub	sp, sp, #12
.LCFI11:
	.cfi_def_cfa_offset 16
	str	r0, [sp, #4]
.LBB4:
	.loc 5 29 0
	ldr	r3, [sp, #4]
	mov	r0, r3
	ldr	r3, .L20
.LPIC1:
	add	r3, pc, r3
	mov	r1, r3
	ldr	r3, .L20+4
.LPIC2:
	add	r3, pc, r3
	mov	r2, r3
	bl	_ZN13CIwResHandlerC2EPKcS1_(PLT)
	ldr	r3, [sp, #4]
	ldr	r2, .L20+8
.LPIC3:
	add	r2, pc, r2
	add	r2, r2, #8
	str	r2, [r3]
	ldr	r3, [sp, #4]
	add	r3, r3, #52
	mov	r0, r3
	bl	_ZN9CIwStringILi160EEC1Ev(PLT)
	.loc 5 31 0
	ldr	r3, [sp, #4]
	mov	r0, r3
	ldr	r3, .L20+12
.LPIC4:
	add	r3, pc, r3
	mov	r1, r3
	bl	_ZN10CIwManaged7SetNameEPKc(PLT)
.LBE4:
	.loc 5 32 0
	ldr	r3, [sp, #4]
	mov	r0, r3
	add	sp, sp, #12
	@ sp needed
	ldr	pc, [sp], #4
.L21:
	.align	2
.L20:
	.word	.LC1-(.LPIC1+8)
	.word	.LC2-(.LPIC2+8)
	.word	_ZTV16CIwResHandlerWAV-(.LPIC3+8)
	.word	.LC3-(.LPIC4+8)
	.cfi_endproc
.LFE1429:
	.size	_ZN16CIwResHandlerWAVC2Ev, .-_ZN16CIwResHandlerWAVC2Ev
	.global	_ZN16CIwResHandlerWAVC1Ev
	.hidden	_ZN16CIwResHandlerWAVC1Ev
	.set	_ZN16CIwResHandlerWAVC1Ev,_ZN16CIwResHandlerWAVC2Ev
	.section	.rodata
	.align	2
.LC4:
	.ascii	"CIwResHandlerWAV::Build\000"
	.align	2
.LC5:
	.ascii	"rb\000"
	.align	2
.LC6:
	.ascii	"SOUND\000"
	.align	2
.LC7:
	.ascii	"Could not load file %s\000"
	.align	2
.LC8:
	.ascii	"pFile\000"
	.align	2
.LC9:
	.ascii	"c:/Stage4/modules/soundengine/source/IwResHandlerWA"
	.ascii	"V.cpp\000"
	.align	2
.LC10:
	.ascii	"RIFF\000"
	.align	2
.LC11:
	.ascii	"WAVE\000"
	.align	2
.LC12:
	.ascii	"Invalid header in %s (RIFF Header)\000"
	.align	2
.LC13:
	.ascii	"false\000"
	.align	2
.LC14:
	.ascii	"fmt \000"
	.align	2
.LC15:
	.ascii	"data\000"
	.align	2
.LC16:
	.ascii	"fact\000"
	.align	2
.LC17:
	.ascii	"LISTDISP\000"
	.align	2
.LC18:
	.ascii	"Unhandled chunk type '%s' in %s. Ignoring this data"
	.ascii	".\000"
	.align	2
.LC19:
	.ascii	"strstr(g_IgnoreTypes, typeID)\000"
	.align	2
.LC20:
	.ascii	"No data chunk read in %s\000"
	.align	2
.LC21:
	.ascii	"readData\000"
	.section	.text._ZN16CIwResHandlerWAV5BuildERK9CIwStringILi160EE,"ax",%progbits
	.align	2
	.global	_ZN16CIwResHandlerWAV5BuildERK9CIwStringILi160EE
	.hidden	_ZN16CIwResHandlerWAV5BuildERK9CIwStringILi160EE
	.type	_ZN16CIwResHandlerWAV5BuildERK9CIwStringILi160EE, %function
_ZN16CIwResHandlerWAV5BuildERK9CIwStringILi160EE:
.LFB1431:
	.loc 5 35 0
	.cfi_startproc
	@ args = 0, pretend = 0, frame = 64
	@ frame_needed = 0, uses_anonymous_args = 0
	stmfd	sp!, {r4, lr}
.LCFI12:
	.cfi_def_cfa_offset 8
	.cfi_offset 4, -8
	.cfi_offset 14, -4
	sub	sp, sp, #64
.LCFI13:
	.cfi_def_cfa_offset 72
	str	r0, [sp, #4]
	str	r1, [sp]
.LBB5:
	.loc 5 36 0
	add	r3, sp, #40
	mov	r0, r3
	ldr	r3, .L71
.LPIC5:
	add	r3, pc, r3
	mov	r1, r3
	bl	_ZN12CIwCallStackC1EPKc(PLT)
	.loc 5 42 0
	mov	r3, #0
	str	r3, [sp, #36]
	.loc 5 44 0
	ldr	r3, [sp, #4]
	add	r3, r3, #52
	mov	r0, r3
	ldr	r1, [sp]
	bl	_ZN9CIwStringILi160EEaSERKS0_(PLT)
	.loc 5 47 0
	ldr	r3, [sp, #4]
	add	r3, r3, #52
	mov	r0, r3
	bl	_ZNK9CIwStringILi160EE5c_strEv(PLT)
	mov	r3, r0
	mov	r0, r3
	ldr	r3, .L71+4
.LPIC6:
	add	r3, pc, r3
	mov	r1, r3
	bl	_Z18IwFileOpenPrefixedPKcS0_(PLT)
	str	r0, [sp, #56]
.LBB6:
.LBB7:
	.loc 5 48 0
	ldr	r3, [sp, #56]
	cmp	r3, #0
	bne	.L23
	.loc 5 48 0 is_stmt 0 discriminator 1
	ldr	r3, .L71+8
.LPIC7:
	add	r3, pc, r3
	mov	r0, r3
	bl	IwDebugAssertIsChannelOn(PLT)
	mov	r3, r0
	cmp	r3, #0
	beq	.L23
	ldr	r3, .L71+12
.LPIC8:
	add	r3, pc, r3
	ldrb	r3, [r3]	@ zero_extendqisi2
	cmp	r3, #0
	bne	.L23
	.loc 5 48 0 discriminator 3
	mov	r3, #1
	b	.L24
.L23:
	.loc 5 48 0 discriminator 2
	mov	r3, #0
.L24:
	.loc 5 48 0 discriminator 4
	cmp	r3, #0
	beq	.L25
	.loc 5 48 0 discriminator 1
	mov	r0, #0
	bl	IwDebugAssertSetSolution(PLT)
	mov	r0, #0
	bl	IwDebugAssertSetUID(PLT)
	ldr	r3, [sp, #4]
	add	r3, r3, #52
	mov	r0, r3
	bl	_ZNK9CIwStringILi160EE5c_strEv(PLT)
	mov	r3, r0
	ldr	r2, .L71+16
.LPIC9:
	add	r2, pc, r2
	mov	r0, r2
	mov	r1, r3
	bl	IwDebugAssertSetMessage(PLT)
	ldr	r3, .L71+20
.LPIC10:
	add	r3, pc, r3
	mov	r0, r3
	ldr	r3, .L71+24
.LPIC11:
	add	r3, pc, r3
	mov	r1, r3
	mov	r2, #48
	mov	r3, #1
	bl	IwDebugAssertShow(PLT)
	mov	r3, r0
	cmp	r3, #1
	beq	.L27
	cmp	r3, #2
	beq	.L28
	.loc 5 48 0
	b	.L26
.L27:
	.loc 5 48 0 discriminator 2
	bl	s3eDebugIsDebuggerPresent(PLT)
	mov	r3, r0
	cmp	r3, #0
	moveq	r3, #0
	movne	r3, #1
	uxtb	r3, r3
	cmp	r3, #0
	beq	.L29
	.loc 5 48 0 discriminator 1
	bl	s3eDebugIsDebuggerPresent(PLT)
	mov	r3, r0
	cmp	r3, #0
	moveq	r3, #0
	movne	r3, #1
	uxtb	r3, r3
	cmp	r3, #0
	beq	.L30
	mvn	r3, #11
	mov	r2, #0
	str	r2, [r3]
	b	.L30
.L29:
	.loc 5 48 0 discriminator 2
	bl	_ZL11IwDebugExitv(PLT)
	b	.L26
.L30:
	.loc 5 48 0 discriminator 1
	b	.L26
.L28:
	.loc 5 48 0 discriminator 3
	ldr	r3, .L71+28
.LPIC12:
	add	r3, pc, r3
	mov	r2, #1
	strb	r2, [r3]
	mov	r0, r0	@ nop
.L26:
	.loc 5 48 0 discriminator 1
	mov	r0, #0
	bl	IwDebugAssertSetUID(PLT)
.L25:
.LBE7:
.LBE6:
	.loc 5 49 0 is_stmt 1
	ldr	r3, [sp, #56]
	cmp	r3, #0
	bne	.L31
	.loc 5 50 0
	mov	r4, #0
	b	.L32
.L31:
.LBB8:
	.loc 5 55 0
	add	r3, sp, #24
	mov	r0, r3
	mov	r1, #12
	mov	r2, #1
	ldr	r3, [sp, #56]
	bl	s3eFileRead(PLT)
	mov	r3, r0
	.loc 5 57 0
	cmp	r3, #1
	bne	.L33
	.loc 5 56 0
	add	r3, sp, #24
	mov	r0, r3
	ldr	r3, .L71+32
.LPIC13:
	add	r3, pc, r3
	mov	r1, r3
	mov	r2, #4
	bl	strncmp(PLT)
	mov	r3, r0
	cmp	r3, #0
	bne	.L33
	.loc 5 57 0
	add	r3, sp, #24
	add	r3, r3, #8
	mov	r0, r3
	ldr	r3, .L71+36
.LPIC14:
	add	r3, pc, r3
	mov	r1, r3
	mov	r2, #4
	bl	strncmp(PLT)
	mov	r3, r0
	cmp	r3, #0
	beq	.L34
.L33:
	.loc 5 57 0 is_stmt 0 discriminator 1
	mov	r3, #1
	b	.L35
.L34:
	.loc 5 57 0 discriminator 2
	mov	r3, #0
.L35:
	.loc 5 55 0 is_stmt 1
	cmp	r3, #0
	beq	.L36
.LBB9:
.LBB10:
.LBB11:
	.loc 5 59 0
	ldr	r3, .L71+40
.LPIC15:
	add	r3, pc, r3
	mov	r0, r3
	bl	IwDebugAssertIsChannelOn(PLT)
	mov	r3, r0
	cmp	r3, #0
	beq	.L37
	.loc 5 59 0 is_stmt 0 discriminator 1
	ldr	r3, .L71+44
.LPIC16:
	add	r3, pc, r3
	ldrb	r3, [r3]	@ zero_extendqisi2
	cmp	r3, #0
	bne	.L37
	.loc 5 59 0 discriminator 3
	mov	r3, #1
	b	.L38
.L37:
	.loc 5 59 0 discriminator 2
	mov	r3, #0
.L38:
	.loc 5 59 0 discriminator 4
	cmp	r3, #0
	beq	.L39
	.loc 5 59 0 discriminator 1
	mov	r0, #0
	bl	IwDebugAssertSetSolution(PLT)
	mov	r0, #0
	bl	IwDebugAssertSetUID(PLT)
	ldr	r3, [sp, #4]
	add	r3, r3, #52
	mov	r0, r3
	bl	_ZNK9CIwStringILi160EE5c_strEv(PLT)
	mov	r3, r0
	ldr	r2, .L71+48
.LPIC17:
	add	r2, pc, r2
	mov	r0, r2
	mov	r1, r3
	bl	IwDebugAssertSetMessage(PLT)
	ldr	r3, .L71+52
.LPIC18:
	add	r3, pc, r3
	mov	r0, r3
	ldr	r3, .L71+56
.LPIC19:
	add	r3, pc, r3
	mov	r1, r3
	mov	r2, #59
	mov	r3, #1
	bl	IwDebugAssertShow(PLT)
	mov	r3, r0
	cmp	r3, #1
	beq	.L41
	cmp	r3, #2
	beq	.L42
	.loc 5 59 0
	b	.L40
.L41:
	.loc 5 59 0 discriminator 2
	bl	s3eDebugIsDebuggerPresent(PLT)
	mov	r3, r0
	cmp	r3, #0
	moveq	r3, #0
	movne	r3, #1
	uxtb	r3, r3
	cmp	r3, #0
	beq	.L43
	.loc 5 59 0 discriminator 1
	bl	s3eDebugIsDebuggerPresent(PLT)
	mov	r3, r0
	cmp	r3, #0
	moveq	r3, #0
	movne	r3, #1
	uxtb	r3, r3
	cmp	r3, #0
	beq	.L44
	mvn	r3, #11
	mov	r2, #0
	str	r2, [r3]
	b	.L44
.L43:
	.loc 5 59 0 discriminator 2
	bl	_ZL11IwDebugExitv(PLT)
	b	.L40
.L44:
	.loc 5 59 0 discriminator 1
	b	.L40
.L42:
	.loc 5 59 0 discriminator 3
	ldr	r3, .L71+60
.LPIC20:
	add	r3, pc, r3
	mov	r2, #1
	strb	r2, [r3]
	mov	r0, r0	@ nop
.L40:
	.loc 5 59 0 discriminator 1
	mov	r0, #0
	bl	IwDebugAssertSetUID(PLT)
.L39:
.LBE11:
.LBE10:
	.loc 5 60 0 is_stmt 1
	ldr	r0, [sp, #56]
	bl	s3eFileClose(PLT)
	.loc 5 61 0
	mov	r4, #0
	b	.L32
.L36:
.LBE9:
.LBE8:
	.loc 5 67 0
	mov	r3, #0
	strb	r3, [sp, #63]
	.loc 5 68 0
	ldr	r0, [sp, #56]
	bl	s3eFileGetSize(PLT)
	mov	r3, r0
	str	r3, [sp, #52]
	.loc 5 70 0
	b	.L45
.L61:
.LBB12:
	.loc 5 72 0
	ldr	r0, [sp, #56]
	bl	s3eFileTell(PLT)
	mov	r3, r0
	str	r3, [sp, #48]
.LBB13:
	.loc 5 76 0
	add	r3, sp, #16
	mov	r0, r3
	ldr	r3, .L71+64
.LPIC21:
	add	r3, pc, r3
	mov	r1, r3
	mov	r2, #4
	bl	strncmp(PLT)
	mov	r3, r0
	cmp	r3, #0
	bne	.L46
	.loc 5 79 0
	add	r2, sp, #16
	add	r3, sp, #36
	ldr	r0, [sp, #4]
	mov	r1, r2
	mov	r2, r3
	ldr	r3, [sp, #56]
	bl	_ZN16CIwResHandlerWAV15ReadChunkFormatERK17IwRIFFChunkHeaderRP12CIwSoundDataR7s3eFile(PLT)
	mov	r3, r0
	eor	r3, r3, #1
	uxtb	r3, r3
	cmp	r3, #0
	beq	.L47
	.loc 5 81 0
	ldr	r0, [sp, #56]
	bl	s3eFileClose(PLT)
	.loc 5 82 0
	mov	r4, #0
	b	.L32
.L46:
.LBB14:
.LBB15:
	.loc 5 85 0
	add	r3, sp, #16
	mov	r0, r3
	ldr	r3, .L71+68
.LPIC22:
	add	r3, pc, r3
	mov	r1, r3
	mov	r2, #4
	bl	strncmp(PLT)
	mov	r3, r0
	cmp	r3, #0
	bne	.L48
	.loc 5 87 0
	add	r2, sp, #16
	add	r3, sp, #36
	ldr	r0, [sp, #4]
	mov	r1, r2
	mov	r2, r3
	ldr	r3, [sp, #56]
	bl	_ZN16CIwResHandlerWAV13ReadChunkDataERK17IwRIFFChunkHeaderRP12CIwSoundDataR7s3eFile(PLT)
	mov	r3, r0
	eor	r3, r3, #1
	uxtb	r3, r3
	cmp	r3, #0
	beq	.L49
	.loc 5 89 0
	ldr	r0, [sp, #56]
	bl	s3eFileClose(PLT)
	.loc 5 90 0
	mov	r4, #0
	b	.L32
.L49:
	.loc 5 92 0
	mov	r3, #1
	strb	r3, [sp, #63]
	b	.L47
.L48:
.LBB16:
.LBB17:
	.loc 5 94 0
	add	r3, sp, #16
	mov	r0, r3
	ldr	r3, .L71+72
.LPIC23:
	add	r3, pc, r3
	mov	r1, r3
	mov	r2, #4
	bl	strncmp(PLT)
	mov	r3, r0
	cmp	r3, #0
	bne	.L50
	.loc 5 96 0
	add	r2, sp, #16
	add	r3, sp, #36
	ldr	r0, [sp, #4]
	mov	r1, r2
	mov	r2, r3
	ldr	r3, [sp, #56]
	bl	_ZN16CIwResHandlerWAV13ReadChunkFactERK17IwRIFFChunkHeaderRP12CIwSoundDataR7s3eFile(PLT)
	mov	r3, r0
	eor	r3, r3, #1
	uxtb	r3, r3
	cmp	r3, #0
	beq	.L47
	.loc 5 98 0
	ldr	r0, [sp, #56]
	bl	s3eFileClose(PLT)
	.loc 5 99 0
	mov	r4, #0
	b	.L32
.L50:
.LBB18:
	.loc 5 107 0
	add	r2, sp, #8
	add	r3, sp, #16
	mov	r0, r2
	mov	r1, r3
	mov	r2, #4
	bl	strncpy(PLT)
	.loc 5 108 0
	mov	r3, #0
	strb	r3, [sp, #12]
	.loc 5 111 0
	ldr	r3, .L71+76
.LPIC24:
	add	r3, pc, r3
	str	r3, [sp, #44]
.LBB19:
.LBB20:
	.loc 5 113 0
	add	r3, sp, #8
	ldr	r0, [sp, #44]
	mov	r1, r3
	bl	strstr(PLT)
	mov	r3, r0
	cmp	r3, #0
	bne	.L51
	.loc 5 113 0 is_stmt 0 discriminator 1
	ldr	r3, .L71+80
.LPIC25:
	add	r3, pc, r3
	mov	r0, r3
	bl	IwDebugAssertIsChannelOn(PLT)
	mov	r3, r0
	cmp	r3, #0
	beq	.L51
	ldr	r3, .L71+84
.LPIC26:
	add	r3, pc, r3
	ldrb	r3, [r3]	@ zero_extendqisi2
	cmp	r3, #0
	bne	.L51
	.loc 5 113 0 discriminator 3
	mov	r3, #1
	b	.L52
.L51:
	.loc 5 113 0 discriminator 2
	mov	r3, #0
.L52:
	.loc 5 113 0 discriminator 4
	cmp	r3, #0
	beq	.L47
	.loc 5 113 0 discriminator 1
	mov	r0, #0
	bl	IwDebugAssertSetSolution(PLT)
	mov	r0, #0
	bl	IwDebugAssertSetUID(PLT)
	ldr	r3, [sp, #4]
	add	r3, r3, #52
	mov	r0, r3
	bl	_ZNK9CIwStringILi160EE5c_strEv(PLT)
	mov	r3, r0
	add	r2, sp, #8
	ldr	r1, .L71+88
.LPIC27:
	add	r1, pc, r1
	mov	r0, r1
	mov	r1, r2
	mov	r2, r3
	bl	IwDebugAssertSetMessage(PLT)
	ldr	r3, .L71+92
.LPIC28:
	add	r3, pc, r3
	mov	r0, r3
	ldr	r3, .L71+96
.LPIC29:
	add	r3, pc, r3
	mov	r1, r3
	mov	r2, #113
	mov	r3, #1
	bl	IwDebugAssertShow(PLT)
	mov	r3, r0
	cmp	r3, #1
	beq	.L55
	cmp	r3, #2
	beq	.L56
	.loc 5 113 0
	b	.L54
.L55:
	.loc 5 113 0 discriminator 2
	bl	s3eDebugIsDebuggerPresent(PLT)
	mov	r3, r0
	cmp	r3, #0
	moveq	r3, #0
	movne	r3, #1
	uxtb	r3, r3
	cmp	r3, #0
	beq	.L57
	.loc 5 113 0 discriminator 1
	bl	s3eDebugIsDebuggerPresent(PLT)
	mov	r3, r0
	cmp	r3, #0
	moveq	r3, #0
	movne	r3, #1
	uxtb	r3, r3
	cmp	r3, #0
	beq	.L58
	mvn	r3, #11
	mov	r2, #0
	str	r2, [r3]
	b	.L58
.L57:
	.loc 5 113 0 discriminator 2
	bl	_ZL11IwDebugExitv(PLT)
	b	.L54
.L58:
	.loc 5 113 0 discriminator 1
	b	.L54
.L56:
	.loc 5 113 0 discriminator 3
	ldr	r3, .L71+100
.LPIC30:
	add	r3, pc, r3
	mov	r2, #1
	strb	r2, [r3]
	mov	r0, r0	@ nop
.L54:
	.loc 5 113 0 discriminator 1
	mov	r0, #0
	bl	IwDebugAssertSetUID(PLT)
.L47:
.LBE20:
.LBE19:
.LBE18:
.LBE17:
.LBE16:
.LBE15:
.LBE14:
.LBE13:
	.loc 5 117 0 is_stmt 1
	ldr	r2, [sp, #20]
	ldr	r3, [sp, #48]
	add	r2, r2, r3
	ldr	r3, [sp, #52]
	cmp	r2, r3
	bcc	.L59
	.loc 5 118 0
	b	.L60
.L59:
	.loc 5 121 0
	ldr	r2, [sp, #20]
	ldr	r3, [sp, #48]
	add	r3, r2, r3
	ldr	r0, [sp, #56]
	mov	r1, r3
	mov	r2, #0
	bl	s3eFileSeek(PLT)
.L45:
.LBE12:
	.loc 5 70 0 discriminator 1
	add	r3, sp, #16
	ldr	r0, [sp, #4]
	mov	r1, r3
	ldr	r2, [sp, #56]
	bl	_ZN16CIwResHandlerWAV15ReadChunkHeaderER17IwRIFFChunkHeaderR7s3eFile(PLT)
	mov	r3, r0
	cmp	r3, #0
	bne	.L61
.L60:
.LBB21:
.LBB22:
	.loc 5 125 0
	ldrb	r3, [sp, #63]
	eor	r3, r3, #1
	uxtb	r3, r3
	cmp	r3, #0
	beq	.L62
	.loc 5 125 0 is_stmt 0 discriminator 1
	ldr	r3, .L71+104
.LPIC31:
	add	r3, pc, r3
	mov	r0, r3
	bl	IwDebugAssertIsChannelOn(PLT)
	mov	r3, r0
	cmp	r3, #0
	beq	.L62
	ldr	r3, .L71+108
.LPIC32:
	add	r3, pc, r3
	ldrb	r3, [r3]	@ zero_extendqisi2
	cmp	r3, #0
	bne	.L62
	.loc 5 125 0 discriminator 3
	mov	r3, #1
	b	.L63
.L62:
	.loc 5 125 0 discriminator 2
	mov	r3, #0
.L63:
	.loc 5 125 0 discriminator 4
	cmp	r3, #0
	beq	.L64
	.loc 5 125 0 discriminator 1
	mov	r0, #0
	bl	IwDebugAssertSetSolution(PLT)
	mov	r0, #0
	bl	IwDebugAssertSetUID(PLT)
	ldr	r3, [sp, #4]
	add	r3, r3, #52
	mov	r0, r3
	bl	_ZNK9CIwStringILi160EE5c_strEv(PLT)
	mov	r3, r0
	ldr	r2, .L71+112
.LPIC33:
	add	r2, pc, r2
	mov	r0, r2
	mov	r1, r3
	bl	IwDebugAssertSetMessage(PLT)
	ldr	r3, .L71+116
.LPIC34:
	add	r3, pc, r3
	mov	r0, r3
	ldr	r3, .L71+120
.LPIC35:
	add	r3, pc, r3
	mov	r1, r3
	mov	r2, #125
	mov	r3, #1
	bl	IwDebugAssertShow(PLT)
	mov	r3, r0
	cmp	r3, #1
	beq	.L66
	cmp	r3, #2
	beq	.L67
	.loc 5 125 0
	b	.L65
.L66:
	.loc 5 125 0 discriminator 2
	bl	s3eDebugIsDebuggerPresent(PLT)
	mov	r3, r0
	cmp	r3, #0
	moveq	r3, #0
	movne	r3, #1
	uxtb	r3, r3
	cmp	r3, #0
	beq	.L68
	.loc 5 125 0 discriminator 1
	bl	s3eDebugIsDebuggerPresent(PLT)
	mov	r3, r0
	cmp	r3, #0
	moveq	r3, #0
	movne	r3, #1
	uxtb	r3, r3
	cmp	r3, #0
	beq	.L69
	mvn	r3, #11
	mov	r2, #0
	str	r2, [r3]
	b	.L69
.L68:
	.loc 5 125 0 discriminator 2
	bl	_ZL11IwDebugExitv(PLT)
	b	.L65
.L69:
	.loc 5 125 0 discriminator 1
	b	.L65
.L67:
	.loc 5 125 0 discriminator 3
	ldr	r3, .L71+124
.LPIC36:
	add	r3, pc, r3
	mov	r2, #1
	strb	r2, [r3]
	mov	r0, r0	@ nop
.L65:
	.loc 5 125 0 discriminator 1
	mov	r0, #0
	bl	IwDebugAssertSetUID(PLT)
.L64:
.LBE22:
.LBE21:
	.loc 5 126 0 is_stmt 1
	ldr	r0, [sp, #56]
	bl	s3eFileClose(PLT)
	.loc 5 127 0
	ldr	r4, [sp, #36]
.L32:
	.loc 5 127 0 is_stmt 0 discriminator 1
	add	r3, sp, #40
	mov	r0, r3
	bl	_ZN12CIwCallStackD1Ev(PLT)
	mov	r3, r4
.LBE5:
	.loc 5 129 0 is_stmt 1 discriminator 1
	mov	r0, r3
	add	sp, sp, #64
	@ sp needed
	ldmfd	sp!, {r4, pc}
.L72:
	.align	2
.L71:
	.word	.LC4-(.LPIC5+8)
	.word	.LC5-(.LPIC6+8)
	.word	.LC6-(.LPIC7+8)
	.word	_ZZN16CIwResHandlerWAV5BuildERK9CIwStringILi160EEE21_s_IwAssertIgnoreThis-(.LPIC8+8)
	.word	.LC7-(.LPIC9+8)
	.word	.LC8-(.LPIC10+8)
	.word	.LC9-(.LPIC11+8)
	.word	_ZZN16CIwResHandlerWAV5BuildERK9CIwStringILi160EEE21_s_IwAssertIgnoreThis-(.LPIC12+8)
	.word	.LC10-(.LPIC13+8)
	.word	.LC11-(.LPIC14+8)
	.word	.LC6-(.LPIC15+8)
	.word	_ZZN16CIwResHandlerWAV5BuildERK9CIwStringILi160EEE21_s_IwAssertIgnoreThis_0-(.LPIC16+8)
	.word	.LC12-(.LPIC17+8)
	.word	.LC13-(.LPIC18+8)
	.word	.LC9-(.LPIC19+8)
	.word	_ZZN16CIwResHandlerWAV5BuildERK9CIwStringILi160EEE21_s_IwAssertIgnoreThis_0-(.LPIC20+8)
	.word	.LC14-(.LPIC21+8)
	.word	.LC15-(.LPIC22+8)
	.word	.LC16-(.LPIC23+8)
	.word	.LC17-(.LPIC24+8)
	.word	.LC6-(.LPIC25+8)
	.word	_ZZN16CIwResHandlerWAV5BuildERK9CIwStringILi160EEE21_s_IwAssertIgnoreThis_1-(.LPIC26+8)
	.word	.LC18-(.LPIC27+8)
	.word	.LC19-(.LPIC28+8)
	.word	.LC9-(.LPIC29+8)
	.word	_ZZN16CIwResHandlerWAV5BuildERK9CIwStringILi160EEE21_s_IwAssertIgnoreThis_1-(.LPIC30+8)
	.word	.LC6-(.LPIC31+8)
	.word	_ZZN16CIwResHandlerWAV5BuildERK9CIwStringILi160EEE21_s_IwAssertIgnoreThis_2-(.LPIC32+8)
	.word	.LC20-(.LPIC33+8)
	.word	.LC21-(.LPIC34+8)
	.word	.LC9-(.LPIC35+8)
	.word	_ZZN16CIwResHandlerWAV5BuildERK9CIwStringILi160EEE21_s_IwAssertIgnoreThis_2-(.LPIC36+8)
	.cfi_endproc
.LFE1431:
	.size	_ZN16CIwResHandlerWAV5BuildERK9CIwStringILi160EE, .-_ZN16CIwResHandlerWAV5BuildERK9CIwStringILi160EE
	.section	.text._ZN16CIwResHandlerWAV15ReadChunkHeaderER17IwRIFFChunkHeaderR7s3eFile,"ax",%progbits
	.align	2
	.global	_ZN16CIwResHandlerWAV15ReadChunkHeaderER17IwRIFFChunkHeaderR7s3eFile
	.hidden	_ZN16CIwResHandlerWAV15ReadChunkHeaderER17IwRIFFChunkHeaderR7s3eFile
	.type	_ZN16CIwResHandlerWAV15ReadChunkHeaderER17IwRIFFChunkHeaderR7s3eFile, %function
_ZN16CIwResHandlerWAV15ReadChunkHeaderER17IwRIFFChunkHeaderR7s3eFile:
.LFB1432:
	.loc 5 132 0
	.cfi_startproc
	@ args = 0, pretend = 0, frame = 16
	@ frame_needed = 0, uses_anonymous_args = 0
	str	lr, [sp, #-4]!
.LCFI14:
	.cfi_def_cfa_offset 4
	.cfi_offset 14, -4
	sub	sp, sp, #20
.LCFI15:
	.cfi_def_cfa_offset 24
	str	r0, [sp, #12]
	str	r1, [sp, #8]
	str	r2, [sp, #4]
	.loc 5 133 0
	ldr	r0, [sp, #8]
	mov	r1, #8
	mov	r2, #1
	ldr	r3, [sp, #4]
	bl	s3eFileRead(PLT)
	mov	r3, r0
	cmp	r3, #1
	movne	r3, #0
	moveq	r3, #1
	uxtb	r3, r3
	.loc 5 134 0
	mov	r0, r3
	add	sp, sp, #20
	@ sp needed
	ldr	pc, [sp], #4
	.cfi_endproc
.LFE1432:
	.size	_ZN16CIwResHandlerWAV15ReadChunkHeaderER17IwRIFFChunkHeaderR7s3eFile, .-_ZN16CIwResHandlerWAV15ReadChunkHeaderER17IwRIFFChunkHeaderR7s3eFile
	.section	.rodata
	.align	2
.LC22:
	.ascii	"Invalid format chunk in WAV file\000"
	.align	2
.LC23:
	.ascii	"%s has more than 1 channel. IwSound is mono only\000"
	.align	2
.LC24:
	.ascii	"format.channels == 1\000"
	.align	2
.LC25:
	.ascii	"Unsupported WAVE file format (%d)\000"
	.align	2
.LC26:
	.ascii	"Unsupported bits-per-sample (%d)\000"
	.section	.text._ZN16CIwResHandlerWAV15ReadChunkFormatERK17IwRIFFChunkHeaderRP12CIwSoundDataR7s3eFile,"ax",%progbits
	.align	2
	.global	_ZN16CIwResHandlerWAV15ReadChunkFormatERK17IwRIFFChunkHeaderRP12CIwSoundDataR7s3eFile
	.hidden	_ZN16CIwResHandlerWAV15ReadChunkFormatERK17IwRIFFChunkHeaderRP12CIwSoundDataR7s3eFile
	.type	_ZN16CIwResHandlerWAV15ReadChunkFormatERK17IwRIFFChunkHeaderRP12CIwSoundDataR7s3eFile, %function
_ZN16CIwResHandlerWAV15ReadChunkFormatERK17IwRIFFChunkHeaderRP12CIwSoundDataR7s3eFile:
.LFB1433:
	.loc 5 137 0
	.cfi_startproc
	@ args = 0, pretend = 0, frame = 40
	@ frame_needed = 0, uses_anonymous_args = 0
	stmfd	sp!, {r4, lr}
.LCFI16:
	.cfi_def_cfa_offset 8
	.cfi_offset 4, -8
	.cfi_offset 14, -4
	sub	sp, sp, #48
.LCFI17:
	.cfi_def_cfa_offset 56
	str	r0, [sp, #20]
	str	r1, [sp, #16]
	str	r2, [sp, #12]
	str	r3, [sp, #8]
.LBB23:
.LBB24:
	.loc 5 141 0
	ldr	r3, [sp, #16]
	ldr	r3, [r3, #4]
	.loc 5 142 0
	cmp	r3, #16
	bcc	.L76
	.loc 5 142 0 is_stmt 0 discriminator 2
	add	r3, sp, #28
	mov	r0, r3
	mov	r1, #20
	mov	r2, #1
	ldr	r3, [sp, #8]
	bl	s3eFileRead(PLT)
	mov	r3, r0
	cmp	r3, #1
	beq	.L77
.L76:
	.loc 5 142 0 discriminator 1
	mov	r3, #1
	b	.L78
.L77:
	.loc 5 142 0 discriminator 3
	mov	r3, #0
.L78:
	.loc 5 141 0 is_stmt 1
	cmp	r3, #0
	beq	.L79
.LBB25:
.LBB26:
.LBB27:
	.loc 5 144 0
	ldr	r3, .L123
.LPIC37:
	add	r3, pc, r3
	mov	r0, r3
	bl	IwDebugAssertIsChannelOn(PLT)
	mov	r3, r0
	cmp	r3, #0
	beq	.L80
	.loc 5 144 0 is_stmt 0 discriminator 1
	ldr	r3, .L123+4
.LPIC38:
	add	r3, pc, r3
	ldrb	r3, [r3]	@ zero_extendqisi2
	cmp	r3, #0
	bne	.L80
	.loc 5 144 0 discriminator 3
	mov	r3, #1
	b	.L81
.L80:
	.loc 5 144 0 discriminator 2
	mov	r3, #0
.L81:
	.loc 5 144 0 discriminator 4
	cmp	r3, #0
	beq	.L82
	.loc 5 144 0 discriminator 1
	mov	r0, #0
	bl	IwDebugAssertSetSolution(PLT)
	mov	r0, #0
	bl	IwDebugAssertSetUID(PLT)
	ldr	r3, .L123+8
.LPIC39:
	add	r3, pc, r3
	mov	r0, r3
	bl	IwDebugAssertSetMessage(PLT)
	ldr	r3, .L123+12
.LPIC40:
	add	r3, pc, r3
	mov	r0, r3
	ldr	r3, .L123+16
.LPIC41:
	add	r3, pc, r3
	mov	r1, r3
	mov	r2, #144
	mov	r3, #1
	bl	IwDebugAssertShow(PLT)
	mov	r3, r0
	cmp	r3, #1
	beq	.L84
	cmp	r3, #2
	beq	.L85
	.loc 5 144 0
	b	.L83
.L84:
	.loc 5 144 0 discriminator 2
	bl	s3eDebugIsDebuggerPresent(PLT)
	mov	r3, r0
	cmp	r3, #0
	moveq	r3, #0
	movne	r3, #1
	uxtb	r3, r3
	cmp	r3, #0
	beq	.L86
	.loc 5 144 0 discriminator 1
	bl	s3eDebugIsDebuggerPresent(PLT)
	mov	r3, r0
	cmp	r3, #0
	moveq	r3, #0
	movne	r3, #1
	uxtb	r3, r3
	cmp	r3, #0
	beq	.L87
	mvn	r3, #11
	mov	r2, #0
	str	r2, [r3]
	b	.L87
.L86:
	.loc 5 144 0 discriminator 2
	bl	_ZL11IwDebugExitv(PLT)
	b	.L83
.L87:
	.loc 5 144 0 discriminator 1
	b	.L83
.L85:
	.loc 5 144 0 discriminator 3
	ldr	r3, .L123+20
.LPIC42:
	add	r3, pc, r3
	mov	r2, #1
	strb	r2, [r3]
	mov	r0, r0	@ nop
.L83:
	.loc 5 144 0 discriminator 1
	mov	r0, #0
	bl	IwDebugAssertSetUID(PLT)
.L82:
.LBE27:
.LBE26:
	.loc 5 145 0 is_stmt 1
	mov	r3, #0
	b	.L121
.L79:
.LBE25:
.LBE24:
.LBB28:
.LBB29:
	.loc 5 148 0
	ldrh	r3, [sp, #30]
	cmp	r3, #1
	beq	.L89
	.loc 5 148 0 is_stmt 0 discriminator 1
	ldr	r3, .L123+24
.LPIC43:
	add	r3, pc, r3
	mov	r0, r3
	bl	IwDebugAssertIsChannelOn(PLT)
	mov	r3, r0
	cmp	r3, #0
	beq	.L89
	ldr	r3, .L123+28
.LPIC44:
	add	r3, pc, r3
	ldrb	r3, [r3]	@ zero_extendqisi2
	cmp	r3, #0
	bne	.L89
	.loc 5 148 0 discriminator 3
	mov	r3, #1
	b	.L90
.L89:
	.loc 5 148 0 discriminator 2
	mov	r3, #0
.L90:
	.loc 5 148 0 discriminator 4
	cmp	r3, #0
	beq	.L91
	.loc 5 148 0 discriminator 1
	mov	r0, #0
	bl	IwDebugAssertSetSolution(PLT)
	mov	r0, #0
	bl	IwDebugAssertSetUID(PLT)
	ldr	r3, [sp, #20]
	add	r3, r3, #52
	mov	r0, r3
	bl	_ZNK9CIwStringILi160EE5c_strEv(PLT)
	mov	r3, r0
	ldr	r2, .L123+32
.LPIC45:
	add	r2, pc, r2
	mov	r0, r2
	mov	r1, r3
	bl	IwDebugAssertSetMessage(PLT)
	ldr	r3, .L123+36
.LPIC46:
	add	r3, pc, r3
	mov	r0, r3
	ldr	r3, .L123+40
.LPIC47:
	add	r3, pc, r3
	mov	r1, r3
	mov	r2, #148
	mov	r3, #1
	bl	IwDebugAssertShow(PLT)
	mov	r3, r0
	cmp	r3, #1
	beq	.L93
	cmp	r3, #2
	beq	.L94
	.loc 5 148 0
	b	.L92
.L93:
	.loc 5 148 0 discriminator 2
	bl	s3eDebugIsDebuggerPresent(PLT)
	mov	r3, r0
	cmp	r3, #0
	moveq	r3, #0
	movne	r3, #1
	uxtb	r3, r3
	cmp	r3, #0
	beq	.L95
	.loc 5 148 0 discriminator 1
	bl	s3eDebugIsDebuggerPresent(PLT)
	mov	r3, r0
	cmp	r3, #0
	moveq	r3, #0
	movne	r3, #1
	uxtb	r3, r3
	cmp	r3, #0
	beq	.L96
	mvn	r3, #11
	mov	r2, #0
	str	r2, [r3]
	b	.L96
.L95:
	.loc 5 148 0 discriminator 2
	bl	_ZL11IwDebugExitv(PLT)
	b	.L92
.L96:
	.loc 5 148 0 discriminator 1
	b	.L92
.L94:
	.loc 5 148 0 discriminator 3
	ldr	r3, .L123+44
.LPIC48:
	add	r3, pc, r3
	mov	r2, #1
	strb	r2, [r3]
	mov	r0, r0	@ nop
.L92:
	.loc 5 148 0 discriminator 1
	mov	r0, #0
	bl	IwDebugAssertSetUID(PLT)
.L91:
.LBE29:
.LBE28:
.LBB30:
	.loc 5 151 0 is_stmt 1
	ldrh	r3, [sp, #28]
	cmp	r3, #1
	beq	.L98
	cmp	r3, #17
	beq	.L99
.LBB31:
.LBB32:
.LBB33:
	.loc 5 154 0
	ldr	r3, .L123+48
.LPIC49:
	add	r3, pc, r3
	mov	r0, r3
	bl	IwDebugAssertIsChannelOn(PLT)
	mov	r3, r0
	cmp	r3, #0
	beq	.L100
	.loc 5 154 0 is_stmt 0 discriminator 1
	ldr	r3, .L123+52
.LPIC50:
	add	r3, pc, r3
	ldrb	r3, [r3]	@ zero_extendqisi2
	cmp	r3, #0
	bne	.L100
	.loc 5 154 0 discriminator 3
	mov	r3, #1
	b	.L101
.L100:
	.loc 5 154 0 discriminator 2
	mov	r3, #0
.L101:
	.loc 5 154 0 discriminator 4
	cmp	r3, #0
	beq	.L102
	.loc 5 154 0 discriminator 1
	mov	r0, #0
	bl	IwDebugAssertSetSolution(PLT)
	mov	r0, #0
	bl	IwDebugAssertSetUID(PLT)
	ldrh	r3, [sp, #28]
	ldr	r2, .L123+56
.LPIC51:
	add	r2, pc, r2
	mov	r0, r2
	mov	r1, r3
	bl	IwDebugAssertSetMessage(PLT)
	ldr	r3, .L123+60
.LPIC52:
	add	r3, pc, r3
	mov	r0, r3
	ldr	r3, .L123+64
.LPIC53:
	add	r3, pc, r3
	mov	r1, r3
	mov	r2, #154
	mov	r3, #1
	bl	IwDebugAssertShow(PLT)
	mov	r3, r0
	cmp	r3, #1
	beq	.L104
	cmp	r3, #2
	beq	.L105
	.loc 5 154 0
	b	.L103
.L104:
	.loc 5 154 0 discriminator 2
	bl	s3eDebugIsDebuggerPresent(PLT)
	mov	r3, r0
	cmp	r3, #0
	moveq	r3, #0
	movne	r3, #1
	uxtb	r3, r3
	cmp	r3, #0
	beq	.L106
	.loc 5 154 0 discriminator 1
	bl	s3eDebugIsDebuggerPresent(PLT)
	mov	r3, r0
	cmp	r3, #0
	moveq	r3, #0
	movne	r3, #1
	uxtb	r3, r3
	cmp	r3, #0
	beq	.L107
	mvn	r3, #11
	mov	r2, #0
	str	r2, [r3]
	b	.L107
.L106:
	.loc 5 154 0 discriminator 2
	bl	_ZL11IwDebugExitv(PLT)
	b	.L103
.L107:
	.loc 5 154 0 discriminator 1
	b	.L103
.L105:
	.loc 5 154 0 discriminator 3
	ldr	r3, .L123+68
.LPIC54:
	add	r3, pc, r3
	mov	r2, #1
	strb	r2, [r3]
	mov	r0, r0	@ nop
.L103:
	.loc 5 154 0 discriminator 1
	mov	r0, #0
	bl	IwDebugAssertSetUID(PLT)
.L102:
.LBE33:
.LBE32:
	.loc 5 155 0 is_stmt 1
	mov	r3, #0
	b	.L121
.L98:
.LBB34:
	.loc 5 160 0
	ldrh	r3, [sp, #42]
	cmp	r3, #8
	beq	.L109
	cmp	r3, #16
	beq	.L110
	b	.L122
.L109:
.LBB35:
	.loc 5 163 0
	mov	r0, #36
	bl	_Znwj(PLT)
	mov	r4, r0
	ldr	r3, [sp, #32]
	mov	r0, r4
	mov	r1, #0
	mov	r2, r3
	bl	_ZN12CIwSoundDataC1E17IwSoundDataFormatj(PLT)
	ldr	r3, [sp, #12]
	str	r4, [r3]
	.loc 5 164 0
	b	.L111
.L110:
	.loc 5 167 0
	mov	r0, #36
	bl	_Znwj(PLT)
	mov	r4, r0
	ldr	r3, [sp, #32]
	mov	r0, r4
	mov	r1, #1
	mov	r2, r3
	bl	_ZN12CIwSoundDataC1E17IwSoundDataFormatj(PLT)
	ldr	r3, [sp, #12]
	str	r4, [r3]
	.loc 5 168 0
	b	.L111
.L122:
.LBB36:
.LBB37:
	.loc 5 171 0
	ldr	r3, .L123+72
.LPIC55:
	add	r3, pc, r3
	mov	r0, r3
	bl	IwDebugAssertIsChannelOn(PLT)
	mov	r3, r0
	cmp	r3, #0
	beq	.L112
	.loc 5 171 0 is_stmt 0 discriminator 1
	ldr	r3, .L123+76
.LPIC56:
	add	r3, pc, r3
	ldrb	r3, [r3]	@ zero_extendqisi2
	cmp	r3, #0
	bne	.L112
	.loc 5 171 0 discriminator 3
	mov	r3, #1
	b	.L113
.L112:
	.loc 5 171 0 discriminator 2
	mov	r3, #0
.L113:
	.loc 5 171 0 discriminator 4
	cmp	r3, #0
	beq	.L114
	.loc 5 171 0 discriminator 1
	mov	r0, #0
	bl	IwDebugAssertSetSolution(PLT)
	mov	r0, #0
	bl	IwDebugAssertSetUID(PLT)
	ldrh	r3, [sp, #42]
	ldr	r2, .L123+80
.LPIC57:
	add	r2, pc, r2
	mov	r0, r2
	mov	r1, r3
	bl	IwDebugAssertSetMessage(PLT)
	ldr	r3, .L123+84
.LPIC58:
	add	r3, pc, r3
	mov	r0, r3
	ldr	r3, .L123+88
.LPIC59:
	add	r3, pc, r3
	mov	r1, r3
	mov	r2, #171
	mov	r3, #1
	bl	IwDebugAssertShow(PLT)
	mov	r3, r0
	cmp	r3, #1
	beq	.L116
	cmp	r3, #2
	beq	.L117
	.loc 5 171 0
	b	.L115
.L116:
	.loc 5 171 0 discriminator 2
	bl	s3eDebugIsDebuggerPresent(PLT)
	mov	r3, r0
	cmp	r3, #0
	moveq	r3, #0
	movne	r3, #1
	uxtb	r3, r3
	cmp	r3, #0
	beq	.L118
	.loc 5 171 0 discriminator 1
	bl	s3eDebugIsDebuggerPresent(PLT)
	mov	r3, r0
	cmp	r3, #0
	moveq	r3, #0
	movne	r3, #1
	uxtb	r3, r3
	cmp	r3, #0
	beq	.L119
	mvn	r3, #11
	mov	r2, #0
	str	r2, [r3]
	b	.L119
.L118:
	.loc 5 171 0 discriminator 2
	bl	_ZL11IwDebugExitv(PLT)
	b	.L115
.L119:
	.loc 5 171 0 discriminator 1
	b	.L115
.L117:
	.loc 5 171 0 discriminator 3
	ldr	r3, .L123+92
.LPIC60:
	add	r3, pc, r3
	mov	r2, #1
	strb	r2, [r3]
	mov	r0, r0	@ nop
.L115:
	.loc 5 171 0 discriminator 1
	mov	r0, #0
	bl	IwDebugAssertSetUID(PLT)
.L114:
.LBE37:
.LBE36:
	.loc 5 172 0 is_stmt 1
	mov	r3, #0
	b	.L121
.L111:
.LBE35:
.LBE34:
	.loc 5 175 0
	b	.L120
.L99:
	.loc 5 181 0
	mov	r0, #44
	bl	_Znwj(PLT)
	mov	r4, r0
	ldr	r2, [sp, #32]
	ldrh	r3, [sp, #46]
	ldrh	r1, [sp, #40]
	str	r1, [sp]
	mov	r0, r4
	mov	r1, #2
	bl	_ZN17CIwSoundDataADPCMC1E17IwSoundDataFormatjjj(PLT)
	ldr	r3, [sp, #12]
	str	r4, [r3]
	.loc 5 182 0
	mov	r0, r0	@ nop
.L120:
.LBE31:
.LBE30:
	.loc 5 185 0
	mov	r3, #1
.L121:
.LBE23:
	.loc 5 186 0
	mov	r0, r3
	add	sp, sp, #48
	@ sp needed
	ldmfd	sp!, {r4, pc}
.L124:
	.align	2
.L123:
	.word	.LC6-(.LPIC37+8)
	.word	_ZZN16CIwResHandlerWAV15ReadChunkFormatERK17IwRIFFChunkHeaderRP12CIwSoundDataR7s3eFileE21_s_IwAssertIgnoreThis-(.LPIC38+8)
	.word	.LC22-(.LPIC39+8)
	.word	.LC13-(.LPIC40+8)
	.word	.LC9-(.LPIC41+8)
	.word	_ZZN16CIwResHandlerWAV15ReadChunkFormatERK17IwRIFFChunkHeaderRP12CIwSoundDataR7s3eFileE21_s_IwAssertIgnoreThis-(.LPIC42+8)
	.word	.LC6-(.LPIC43+8)
	.word	_ZZN16CIwResHandlerWAV15ReadChunkFormatERK17IwRIFFChunkHeaderRP12CIwSoundDataR7s3eFileE21_s_IwAssertIgnoreThis_0-(.LPIC44+8)
	.word	.LC23-(.LPIC45+8)
	.word	.LC24-(.LPIC46+8)
	.word	.LC9-(.LPIC47+8)
	.word	_ZZN16CIwResHandlerWAV15ReadChunkFormatERK17IwRIFFChunkHeaderRP12CIwSoundDataR7s3eFileE21_s_IwAssertIgnoreThis_0-(.LPIC48+8)
	.word	.LC6-(.LPIC49+8)
	.word	_ZZN16CIwResHandlerWAV15ReadChunkFormatERK17IwRIFFChunkHeaderRP12CIwSoundDataR7s3eFileE21_s_IwAssertIgnoreThis_1-(.LPIC50+8)
	.word	.LC25-(.LPIC51+8)
	.word	.LC13-(.LPIC52+8)
	.word	.LC9-(.LPIC53+8)
	.word	_ZZN16CIwResHandlerWAV15ReadChunkFormatERK17IwRIFFChunkHeaderRP12CIwSoundDataR7s3eFileE21_s_IwAssertIgnoreThis_1-(.LPIC54+8)
	.word	.LC6-(.LPIC55+8)
	.word	_ZZN16CIwResHandlerWAV15ReadChunkFormatERK17IwRIFFChunkHeaderRP12CIwSoundDataR7s3eFileE21_s_IwAssertIgnoreThis_2-(.LPIC56+8)
	.word	.LC26-(.LPIC57+8)
	.word	.LC13-(.LPIC58+8)
	.word	.LC9-(.LPIC59+8)
	.word	_ZZN16CIwResHandlerWAV15ReadChunkFormatERK17IwRIFFChunkHeaderRP12CIwSoundDataR7s3eFileE21_s_IwAssertIgnoreThis_2-(.LPIC60+8)
	.cfi_endproc
.LFE1433:
	.size	_ZN16CIwResHandlerWAV15ReadChunkFormatERK17IwRIFFChunkHeaderRP12CIwSoundDataR7s3eFile, .-_ZN16CIwResHandlerWAV15ReadChunkFormatERK17IwRIFFChunkHeaderRP12CIwSoundDataR7s3eFile
	.section	.rodata
	.align	2
.LC27:
	.ascii	"Data chunk encountered before format chunk in %s\000"
	.align	2
.LC28:
	.ascii	"Unexpected data size in %s\000"
	.align	2
.LC29:
	.ascii	"(currentBufSiz == 0) || (header.length == currentBu"
	.ascii	"fSiz)\000"
	.align	2
.LC30:
	.ascii	"Error reading WAVE file data from %s\000"
	.section	.text._ZN16CIwResHandlerWAV13ReadChunkDataERK17IwRIFFChunkHeaderRP12CIwSoundDataR7s3eFile,"ax",%progbits
	.align	2
	.global	_ZN16CIwResHandlerWAV13ReadChunkDataERK17IwRIFFChunkHeaderRP12CIwSoundDataR7s3eFile
	.hidden	_ZN16CIwResHandlerWAV13ReadChunkDataERK17IwRIFFChunkHeaderRP12CIwSoundDataR7s3eFile
	.type	_ZN16CIwResHandlerWAV13ReadChunkDataERK17IwRIFFChunkHeaderRP12CIwSoundDataR7s3eFile, %function
_ZN16CIwResHandlerWAV13ReadChunkDataERK17IwRIFFChunkHeaderRP12CIwSoundDataR7s3eFile:
.LFB1434:
	.loc 5 189 0
	.cfi_startproc
	@ args = 0, pretend = 0, frame = 24
	@ frame_needed = 0, uses_anonymous_args = 0
	str	lr, [sp, #-4]!
.LCFI18:
	.cfi_def_cfa_offset 4
	.cfi_offset 14, -4
	sub	sp, sp, #28
.LCFI19:
	.cfi_def_cfa_offset 32
	str	r0, [sp, #12]
	str	r1, [sp, #8]
	str	r2, [sp, #4]
	str	r3, [sp]
.LBB38:
.LBB39:
	.loc 5 191 0
	ldr	r3, [sp, #4]
	ldr	r3, [r3]
	cmp	r3, #0
	bne	.L126
.LBB40:
.LBB41:
.LBB42:
	.loc 5 193 0
	ldr	r3, .L154
.LPIC61:
	add	r3, pc, r3
	mov	r0, r3
	bl	IwDebugAssertIsChannelOn(PLT)
	mov	r3, r0
	cmp	r3, #0
	beq	.L127
	.loc 5 193 0 is_stmt 0 discriminator 1
	ldr	r3, .L154+4
.LPIC62:
	add	r3, pc, r3
	ldrb	r3, [r3]	@ zero_extendqisi2
	cmp	r3, #0
	bne	.L127
	.loc 5 193 0 discriminator 3
	mov	r3, #1
	b	.L128
.L127:
	.loc 5 193 0 discriminator 2
	mov	r3, #0
.L128:
	.loc 5 193 0 discriminator 4
	cmp	r3, #0
	beq	.L129
	.loc 5 193 0 discriminator 1
	mov	r0, #0
	bl	IwDebugAssertSetSolution(PLT)
	mov	r0, #0
	bl	IwDebugAssertSetUID(PLT)
	ldr	r3, [sp, #12]
	add	r3, r3, #52
	mov	r0, r3
	bl	_ZNK9CIwStringILi160EE5c_strEv(PLT)
	mov	r3, r0
	ldr	r2, .L154+8
.LPIC63:
	add	r2, pc, r2
	mov	r0, r2
	mov	r1, r3
	bl	IwDebugAssertSetMessage(PLT)
	ldr	r3, .L154+12
.LPIC64:
	add	r3, pc, r3
	mov	r0, r3
	ldr	r3, .L154+16
.LPIC65:
	add	r3, pc, r3
	mov	r1, r3
	mov	r2, #193
	mov	r3, #1
	bl	IwDebugAssertShow(PLT)
	mov	r3, r0
	cmp	r3, #1
	beq	.L131
	cmp	r3, #2
	beq	.L132
	.loc 5 193 0
	b	.L130
.L131:
	.loc 5 193 0 discriminator 2
	bl	s3eDebugIsDebuggerPresent(PLT)
	mov	r3, r0
	cmp	r3, #0
	moveq	r3, #0
	movne	r3, #1
	uxtb	r3, r3
	cmp	r3, #0
	beq	.L133
	.loc 5 193 0 discriminator 1
	bl	s3eDebugIsDebuggerPresent(PLT)
	mov	r3, r0
	cmp	r3, #0
	moveq	r3, #0
	movne	r3, #1
	uxtb	r3, r3
	cmp	r3, #0
	beq	.L134
	mvn	r3, #11
	mov	r2, #0
	str	r2, [r3]
	b	.L134
.L133:
	.loc 5 193 0 discriminator 2
	bl	_ZL11IwDebugExitv(PLT)
	b	.L130
.L134:
	.loc 5 193 0 discriminator 1
	b	.L130
.L132:
	.loc 5 193 0 discriminator 3
	ldr	r3, .L154+20
.LPIC66:
	add	r3, pc, r3
	mov	r2, #1
	strb	r2, [r3]
	mov	r0, r0	@ nop
.L130:
	.loc 5 193 0 discriminator 1
	mov	r0, #0
	bl	IwDebugAssertSetUID(PLT)
.L129:
.LBE42:
.LBE41:
	.loc 5 194 0 is_stmt 1
	mov	r3, #0
	b	.L135
.L126:
.LBE40:
.LBE39:
	.loc 5 199 0
	ldr	r3, [sp, #4]
	ldr	r3, [r3]
	mov	r0, r3
	bl	_ZNK12CIwSoundData13GetBufferSizeEv(PLT)
	str	r0, [sp, #20]
.LBB43:
.LBB44:
	.loc 5 202 0
	ldr	r3, [sp, #20]
	cmp	r3, #0
	beq	.L136
	.loc 5 202 0 is_stmt 0 discriminator 1
	ldr	r3, [sp, #8]
	ldr	r2, [r3, #4]
	ldr	r3, [sp, #20]
	cmp	r2, r3
	beq	.L136
	ldr	r3, .L154+24
.LPIC67:
	add	r3, pc, r3
	mov	r0, r3
	bl	IwDebugAssertIsChannelOn(PLT)
	mov	r3, r0
	cmp	r3, #0
	beq	.L136
	ldr	r3, .L154+28
.LPIC68:
	add	r3, pc, r3
	ldrb	r3, [r3]	@ zero_extendqisi2
	cmp	r3, #0
	bne	.L136
	.loc 5 202 0 discriminator 3
	mov	r3, #1
	b	.L137
.L136:
	.loc 5 202 0 discriminator 2
	mov	r3, #0
.L137:
	.loc 5 202 0 discriminator 4
	cmp	r3, #0
	beq	.L138
	.loc 5 202 0 discriminator 1
	mov	r0, #0
	bl	IwDebugAssertSetSolution(PLT)
	mov	r0, #0
	bl	IwDebugAssertSetUID(PLT)
	ldr	r3, [sp, #12]
	add	r3, r3, #52
	mov	r0, r3
	bl	_ZNK9CIwStringILi160EE5c_strEv(PLT)
	mov	r3, r0
	ldr	r2, .L154+32
.LPIC69:
	add	r2, pc, r2
	mov	r0, r2
	mov	r1, r3
	bl	IwDebugAssertSetMessage(PLT)
	.loc 5 202 0 is_stmt 1 discriminator 1
	ldr	r3, .L154+36
.LPIC70:
	add	r3, pc, r3
	mov	r0, r3
	ldr	r3, .L154+40
.LPIC71:
	add	r3, pc, r3
	mov	r1, r3
	mov	r2, #203
	mov	r3, #1
	bl	IwDebugAssertShow(PLT)
	mov	r3, r0
	.loc 5 202 0 discriminator 1
	cmp	r3, #1
	beq	.L140
	cmp	r3, #2
	beq	.L141
	.loc 5 202 0 is_stmt 0
	b	.L139
.L140:
	.loc 5 202 0 is_stmt 1 discriminator 2
	bl	s3eDebugIsDebuggerPresent(PLT)
	mov	r3, r0
	cmp	r3, #0
	moveq	r3, #0
	movne	r3, #1
	uxtb	r3, r3
	cmp	r3, #0
	beq	.L142
	.loc 5 202 0 is_stmt 0 discriminator 1
	bl	s3eDebugIsDebuggerPresent(PLT)
	mov	r3, r0
	cmp	r3, #0
	moveq	r3, #0
	movne	r3, #1
	uxtb	r3, r3
	cmp	r3, #0
	beq	.L143
	mvn	r3, #11
	mov	r2, #0
	str	r2, [r3]
	b	.L143
.L142:
	.loc 5 202 0 discriminator 2
	bl	_ZL11IwDebugExitv(PLT)
	b	.L139
.L143:
	.loc 5 202 0 discriminator 1
	b	.L139
.L141:
	.loc 5 202 0 discriminator 3
	ldr	r3, .L154+44
.LPIC72:
	add	r3, pc, r3
	mov	r2, #1
	strb	r2, [r3]
	mov	r0, r0	@ nop
.L139:
	.loc 5 202 0 discriminator 1
	mov	r0, #0
	bl	IwDebugAssertSetUID(PLT)
.L138:
.LBE44:
.LBE43:
	.loc 5 207 0 is_stmt 1
	ldr	r3, [sp, #4]
	ldr	r2, [r3]
	ldr	r3, [sp, #8]
	ldr	r3, [r3, #4]
	mov	r0, r2
	mov	r1, r3
	bl	_ZN12CIwSoundData13SetBufferSizeEj(PLT)
.LBB45:
	.loc 5 210 0
	ldr	r3, [sp, #4]
	ldr	r3, [r3]
	ldr	r2, [r3, #24]
	ldr	r3, [sp, #8]
	ldr	r3, [r3, #4]
	mov	r0, r2
	mov	r1, #1
	mov	r2, r3
	ldr	r3, [sp]
	bl	s3eFileRead(PLT)
	mov	r2, r0
	ldr	r3, [sp, #8]
	ldr	r3, [r3, #4]
	cmp	r2, r3
	moveq	r3, #0
	movne	r3, #1
	uxtb	r3, r3
	cmp	r3, #0
	beq	.L144
.LBB46:
.LBB47:
.LBB48:
	.loc 5 212 0
	ldr	r3, .L154+48
.LPIC73:
	add	r3, pc, r3
	mov	r0, r3
	bl	IwDebugAssertIsChannelOn(PLT)
	mov	r3, r0
	cmp	r3, #0
	beq	.L145
	.loc 5 212 0 is_stmt 0 discriminator 1
	ldr	r3, .L154+52
.LPIC74:
	add	r3, pc, r3
	ldrb	r3, [r3]	@ zero_extendqisi2
	cmp	r3, #0
	bne	.L145
	.loc 5 212 0 discriminator 3
	mov	r3, #1
	b	.L146
.L145:
	.loc 5 212 0 discriminator 2
	mov	r3, #0
.L146:
	.loc 5 212 0 discriminator 4
	cmp	r3, #0
	beq	.L147
	.loc 5 212 0 discriminator 1
	mov	r0, #0
	bl	IwDebugAssertSetSolution(PLT)
	mov	r0, #0
	bl	IwDebugAssertSetUID(PLT)
	ldr	r3, [sp, #12]
	add	r3, r3, #52
	mov	r0, r3
	bl	_ZNK9CIwStringILi160EE5c_strEv(PLT)
	mov	r3, r0
	ldr	r2, .L154+56
.LPIC75:
	add	r2, pc, r2
	mov	r0, r2
	mov	r1, r3
	bl	IwDebugAssertSetMessage(PLT)
	ldr	r3, .L154+60
.LPIC76:
	add	r3, pc, r3
	mov	r0, r3
	ldr	r3, .L154+64
.LPIC77:
	add	r3, pc, r3
	mov	r1, r3
	mov	r2, #212
	mov	r3, #1
	bl	IwDebugAssertShow(PLT)
	mov	r3, r0
	cmp	r3, #1
	beq	.L149
	cmp	r3, #2
	beq	.L150
	.loc 5 212 0
	b	.L148
.L149:
	.loc 5 212 0 discriminator 2
	bl	s3eDebugIsDebuggerPresent(PLT)
	mov	r3, r0
	cmp	r3, #0
	moveq	r3, #0
	movne	r3, #1
	uxtb	r3, r3
	cmp	r3, #0
	beq	.L151
	.loc 5 212 0 discriminator 1
	bl	s3eDebugIsDebuggerPresent(PLT)
	mov	r3, r0
	cmp	r3, #0
	moveq	r3, #0
	movne	r3, #1
	uxtb	r3, r3
	cmp	r3, #0
	beq	.L152
	mvn	r3, #11
	mov	r2, #0
	str	r2, [r3]
	b	.L152
.L151:
	.loc 5 212 0 discriminator 2
	bl	_ZL11IwDebugExitv(PLT)
	b	.L148
.L152:
	.loc 5 212 0 discriminator 1
	b	.L148
.L150:
	.loc 5 212 0 discriminator 3
	ldr	r3, .L154+68
.LPIC78:
	add	r3, pc, r3
	mov	r2, #1
	strb	r2, [r3]
	mov	r0, r0	@ nop
.L148:
	.loc 5 212 0 discriminator 1
	mov	r0, #0
	bl	IwDebugAssertSetUID(PLT)
.L147:
.LBE48:
.LBE47:
	.loc 5 213 0 is_stmt 1
	mov	r3, #0
	b	.L135
.L144:
.LBE46:
.LBE45:
	.loc 5 220 0
	ldr	r3, [sp, #4]
	ldr	r3, [r3]
	ldr	r3, [r3, #32]
	cmp	r3, #0
	bne	.L153
	.loc 5 221 0
	ldr	r3, [sp, #4]
	ldr	r3, [r3]
	mov	r0, r3
	bl	_ZN12CIwSoundData14SwitchDataSignEv(PLT)
.L153:
	.loc 5 223 0
	mov	r3, #1
.L135:
.LBE38:
	.loc 5 224 0
	mov	r0, r3
	add	sp, sp, #28
	@ sp needed
	ldr	pc, [sp], #4
.L155:
	.align	2
.L154:
	.word	.LC6-(.LPIC61+8)
	.word	_ZZN16CIwResHandlerWAV13ReadChunkDataERK17IwRIFFChunkHeaderRP12CIwSoundDataR7s3eFileE21_s_IwAssertIgnoreThis-(.LPIC62+8)
	.word	.LC27-(.LPIC63+8)
	.word	.LC13-(.LPIC64+8)
	.word	.LC9-(.LPIC65+8)
	.word	_ZZN16CIwResHandlerWAV13ReadChunkDataERK17IwRIFFChunkHeaderRP12CIwSoundDataR7s3eFileE21_s_IwAssertIgnoreThis-(.LPIC66+8)
	.word	.LC6-(.LPIC67+8)
	.word	_ZZN16CIwResHandlerWAV13ReadChunkDataERK17IwRIFFChunkHeaderRP12CIwSoundDataR7s3eFileE21_s_IwAssertIgnoreThis_0-(.LPIC68+8)
	.word	.LC28-(.LPIC69+8)
	.word	.LC29-(.LPIC70+8)
	.word	.LC9-(.LPIC71+8)
	.word	_ZZN16CIwResHandlerWAV13ReadChunkDataERK17IwRIFFChunkHeaderRP12CIwSoundDataR7s3eFileE21_s_IwAssertIgnoreThis_0-(.LPIC72+8)
	.word	.LC6-(.LPIC73+8)
	.word	_ZZN16CIwResHandlerWAV13ReadChunkDataERK17IwRIFFChunkHeaderRP12CIwSoundDataR7s3eFileE21_s_IwAssertIgnoreThis_1-(.LPIC74+8)
	.word	.LC30-(.LPIC75+8)
	.word	.LC13-(.LPIC76+8)
	.word	.LC9-(.LPIC77+8)
	.word	_ZZN16CIwResHandlerWAV13ReadChunkDataERK17IwRIFFChunkHeaderRP12CIwSoundDataR7s3eFileE21_s_IwAssertIgnoreThis_1-(.LPIC78+8)
	.cfi_endproc
.LFE1434:
	.size	_ZN16CIwResHandlerWAV13ReadChunkDataERK17IwRIFFChunkHeaderRP12CIwSoundDataR7s3eFile, .-_ZN16CIwResHandlerWAV13ReadChunkDataERK17IwRIFFChunkHeaderRP12CIwSoundDataR7s3eFile
	.section	.rodata
	.align	2
.LC31:
	.ascii	"Error reading WAVE file info from %s\000"
	.section	.text._ZN16CIwResHandlerWAV13ReadChunkFactERK17IwRIFFChunkHeaderRP12CIwSoundDataR7s3eFile,"ax",%progbits
	.align	2
	.global	_ZN16CIwResHandlerWAV13ReadChunkFactERK17IwRIFFChunkHeaderRP12CIwSoundDataR7s3eFile
	.hidden	_ZN16CIwResHandlerWAV13ReadChunkFactERK17IwRIFFChunkHeaderRP12CIwSoundDataR7s3eFile
	.type	_ZN16CIwResHandlerWAV13ReadChunkFactERK17IwRIFFChunkHeaderRP12CIwSoundDataR7s3eFile, %function
_ZN16CIwResHandlerWAV13ReadChunkFactERK17IwRIFFChunkHeaderRP12CIwSoundDataR7s3eFile:
.LFB1435:
	.loc 5 227 0
	.cfi_startproc
	@ args = 0, pretend = 0, frame = 24
	@ frame_needed = 0, uses_anonymous_args = 0
	str	lr, [sp, #-4]!
.LCFI20:
	.cfi_def_cfa_offset 4
	.cfi_offset 14, -4
	sub	sp, sp, #28
.LCFI21:
	.cfi_def_cfa_offset 32
	str	r0, [sp, #12]
	str	r1, [sp, #8]
	str	r2, [sp, #4]
	str	r3, [sp]
.LBB49:
.LBB50:
	.loc 5 229 0
	add	r3, sp, #20
	mov	r0, r3
	mov	r1, #4
	mov	r2, #1
	ldr	r3, [sp]
	bl	s3eFileRead(PLT)
	mov	r3, r0
	cmp	r3, #1
	moveq	r3, #0
	movne	r3, #1
	uxtb	r3, r3
	cmp	r3, #0
	beq	.L157
.LBB51:
.LBB52:
.LBB53:
	.loc 5 231 0
	ldr	r3, .L168
.LPIC79:
	add	r3, pc, r3
	mov	r0, r3
	bl	IwDebugAssertIsChannelOn(PLT)
	mov	r3, r0
	cmp	r3, #0
	beq	.L158
	.loc 5 231 0 is_stmt 0 discriminator 1
	ldr	r3, .L168+4
.LPIC80:
	add	r3, pc, r3
	ldrb	r3, [r3]	@ zero_extendqisi2
	cmp	r3, #0
	bne	.L158
	.loc 5 231 0 discriminator 3
	mov	r3, #1
	b	.L159
.L158:
	.loc 5 231 0 discriminator 2
	mov	r3, #0
.L159:
	.loc 5 231 0 discriminator 4
	cmp	r3, #0
	beq	.L160
	.loc 5 231 0 discriminator 1
	mov	r0, #0
	bl	IwDebugAssertSetSolution(PLT)
	mov	r0, #0
	bl	IwDebugAssertSetUID(PLT)
	ldr	r3, [sp, #12]
	add	r3, r3, #52
	mov	r0, r3
	bl	_ZNK9CIwStringILi160EE5c_strEv(PLT)
	mov	r3, r0
	ldr	r2, .L168+8
.LPIC81:
	add	r2, pc, r2
	mov	r0, r2
	mov	r1, r3
	bl	IwDebugAssertSetMessage(PLT)
	ldr	r3, .L168+12
.LPIC82:
	add	r3, pc, r3
	mov	r0, r3
	ldr	r3, .L168+16
.LPIC83:
	add	r3, pc, r3
	mov	r1, r3
	mov	r2, #231
	mov	r3, #1
	bl	IwDebugAssertShow(PLT)
	mov	r3, r0
	cmp	r3, #1
	beq	.L162
	cmp	r3, #2
	beq	.L163
	.loc 5 231 0
	b	.L161
.L162:
	.loc 5 231 0 discriminator 2
	bl	s3eDebugIsDebuggerPresent(PLT)
	mov	r3, r0
	cmp	r3, #0
	moveq	r3, #0
	movne	r3, #1
	uxtb	r3, r3
	cmp	r3, #0
	beq	.L164
	.loc 5 231 0 discriminator 1
	bl	s3eDebugIsDebuggerPresent(PLT)
	mov	r3, r0
	cmp	r3, #0
	moveq	r3, #0
	movne	r3, #1
	uxtb	r3, r3
	cmp	r3, #0
	beq	.L165
	mvn	r3, #11
	mov	r2, #0
	str	r2, [r3]
	b	.L165
.L164:
	.loc 5 231 0 discriminator 2
	bl	_ZL11IwDebugExitv(PLT)
	b	.L161
.L165:
	.loc 5 231 0 discriminator 1
	b	.L161
.L163:
	.loc 5 231 0 discriminator 3
	ldr	r3, .L168+20
.LPIC84:
	add	r3, pc, r3
	mov	r2, #1
	strb	r2, [r3]
	mov	r0, r0	@ nop
.L161:
	.loc 5 231 0 discriminator 1
	mov	r0, #0
	bl	IwDebugAssertSetUID(PLT)
.L160:
.LBE53:
.LBE52:
	.loc 5 232 0 is_stmt 1
	mov	r3, #0
	b	.L167
.L157:
.LBE51:
.LBE50:
	.loc 5 235 0
	ldr	r3, [sp, #4]
	ldr	r2, [r3]
	ldr	r3, [sp, #20]
	mov	r0, r2
	mov	r1, r3
	bl	_ZN12CIwSoundData14SetSampleCountEj(PLT)
	.loc 5 236 0
	mov	r3, #1
.L167:
.LBE49:
	.loc 5 237 0
	mov	r0, r3
	add	sp, sp, #28
	@ sp needed
	ldr	pc, [sp], #4
.L169:
	.align	2
.L168:
	.word	.LC6-(.LPIC79+8)
	.word	_ZZN16CIwResHandlerWAV13ReadChunkFactERK17IwRIFFChunkHeaderRP12CIwSoundDataR7s3eFileE21_s_IwAssertIgnoreThis-(.LPIC80+8)
	.word	.LC31-(.LPIC81+8)
	.word	.LC13-(.LPIC82+8)
	.word	.LC9-(.LPIC83+8)
	.word	_ZZN16CIwResHandlerWAV13ReadChunkFactERK17IwRIFFChunkHeaderRP12CIwSoundDataR7s3eFileE21_s_IwAssertIgnoreThis-(.LPIC84+8)
	.cfi_endproc
.LFE1435:
	.size	_ZN16CIwResHandlerWAV13ReadChunkFactERK17IwRIFFChunkHeaderRP12CIwSoundDataR7s3eFile, .-_ZN16CIwResHandlerWAV13ReadChunkFactERK17IwRIFFChunkHeaderRP12CIwSoundDataR7s3eFile
	.section	.text._ZNK9CIwStringILi160EE5c_strEv,"axG",%progbits,_ZNK9CIwStringILi160EE5c_strEv,comdat
	.align	2
	.weak	_ZNK9CIwStringILi160EE5c_strEv
	.hidden	_ZNK9CIwStringILi160EE5c_strEv
	.type	_ZNK9CIwStringILi160EE5c_strEv, %function
_ZNK9CIwStringILi160EE5c_strEv:
.LFB1457:
	.file 6 "c:/marmalade/7.5/modules/iwutil/h/IwString.h"
	.loc 6 104 0
	.cfi_startproc
	@ args = 0, pretend = 0, frame = 8
	@ frame_needed = 0, uses_anonymous_args = 0
	@ link register save eliminated.
	sub	sp, sp, #8
.LCFI22:
	.cfi_def_cfa_offset 8
	str	r0, [sp, #4]
	.loc 6 104 0
	ldr	r3, [sp, #4]
	mov	r0, r3
	add	sp, sp, #8
	@ sp needed
	bx	lr
	.cfi_endproc
.LFE1457:
	.size	_ZNK9CIwStringILi160EE5c_strEv, .-_ZNK9CIwStringILi160EE5c_strEv
	.section	.text._ZN9CIwStringILi160EEC2Ev,"axG",%progbits,_ZN9CIwStringILi160EEC5Ev,comdat
	.align	2
	.weak	_ZN9CIwStringILi160EEC2Ev
	.hidden	_ZN9CIwStringILi160EEC2Ev
	.type	_ZN9CIwStringILi160EEC2Ev, %function
_ZN9CIwStringILi160EEC2Ev:
.LFB1506:
	.loc 6 80 0
	.cfi_startproc
	@ args = 0, pretend = 0, frame = 8
	@ frame_needed = 0, uses_anonymous_args = 0
	@ link register save eliminated.
	sub	sp, sp, #8
.LCFI23:
	.cfi_def_cfa_offset 8
	str	r0, [sp, #4]
.LBB54:
	.loc 6 82 0
	ldr	r3, [sp, #4]
	mov	r2, #0
	strb	r2, [r3]
.LBE54:
	.loc 6 83 0
	ldr	r3, [sp, #4]
	mov	r0, r3
	add	sp, sp, #8
	@ sp needed
	bx	lr
	.cfi_endproc
.LFE1506:
	.size	_ZN9CIwStringILi160EEC2Ev, .-_ZN9CIwStringILi160EEC2Ev
	.weak	_ZN9CIwStringILi160EEC1Ev
	.hidden	_ZN9CIwStringILi160EEC1Ev
	.set	_ZN9CIwStringILi160EEC1Ev,_ZN9CIwStringILi160EEC2Ev
	.section	.rodata
	.align	2
.LC32:
	.ascii	"CORE\000"
	.align	2
.LC33:
	.ascii	"String '%s' too long - maximum size (including term"
	.ascii	"inator character) is %d characters\000"
	.align	2
.LC34:
	.ascii	"str.length() < N\000"
	.align	2
.LC35:
	.ascii	"c:/marmalade/7.5/modules/iwutil/h/IwString.h\000"
	.section	.text._ZN9CIwStringILi160EEaSERKS0_,"axG",%progbits,_ZN9CIwStringILi160EEaSERKS0_,comdat
	.align	2
	.weak	_ZN9CIwStringILi160EEaSERKS0_
	.hidden	_ZN9CIwStringILi160EEaSERKS0_
	.type	_ZN9CIwStringILi160EEaSERKS0_, %function
_ZN9CIwStringILi160EEaSERKS0_:
.LFB1508:
	.loc 6 187 0
	.cfi_startproc
	@ args = 0, pretend = 0, frame = 8
	@ frame_needed = 0, uses_anonymous_args = 0
	stmfd	sp!, {r4, lr}
.LCFI24:
	.cfi_def_cfa_offset 8
	.cfi_offset 4, -8
	.cfi_offset 14, -4
	sub	sp, sp, #8
.LCFI25:
	.cfi_def_cfa_offset 16
	str	r0, [sp, #4]
	str	r1, [sp]
.LBB55:
.LBB56:
.LBB57:
	.loc 6 189 0
	ldr	r0, [sp]
	bl	_ZNK9CIwStringILi160EE6lengthEv(PLT)
	mov	r3, r0
	cmp	r3, #159
	ble	.L176
	.loc 6 189 0 is_stmt 0 discriminator 1
	ldr	r3, .L185
.LPIC85:
	add	r3, pc, r3
	mov	r0, r3
	bl	IwDebugAssertIsChannelOn(PLT)
	mov	r3, r0
	cmp	r3, #0
	beq	.L176
	.loc 6 189 0 discriminator 3
	ldr	r3, .L185+4
.LPIC86:
	add	r3, pc, r3
	ldrb	r3, [r3]	@ zero_extendqisi2
	cmp	r3, #0
	bne	.L176
	.loc 6 189 0 discriminator 4
	mov	r3, #1
	b	.L177
.L176:
	.loc 6 189 0 discriminator 2
	mov	r3, #0
.L177:
	.loc 6 189 0 discriminator 5
	cmp	r3, #0
	beq	.L178
	.loc 6 189 0 discriminator 6
	mov	r0, #0
	bl	IwDebugAssertSetSolution(PLT)
	mov	r0, #284
	bl	IwDebugAssertSetUID(PLT)
	ldr	r0, [sp]
	bl	_ZNK9CIwStringILi160EE5c_strEv(PLT)
	mov	r3, r0
	ldr	r2, .L185+8
.LPIC87:
	add	r2, pc, r2
	mov	r0, r2
	mov	r1, r3
	mov	r2, #160
	bl	IwDebugAssertSetMessage(PLT)
	ldr	r3, .L185+12
.LPIC88:
	add	r3, pc, r3
	mov	r0, r3
	ldr	r3, .L185+16
.LPIC89:
	add	r3, pc, r3
	mov	r1, r3
	mov	r2, #189
	mov	r3, #1
	bl	IwDebugAssertShow(PLT)
	mov	r3, r0
	cmp	r3, #1
	beq	.L180
	cmp	r3, #2
	beq	.L181
	.loc 6 189 0
	b	.L179
.L180:
	.loc 6 189 0 discriminator 2
	bl	s3eDebugIsDebuggerPresent(PLT)
	mov	r3, r0
	cmp	r3, #0
	moveq	r3, #0
	movne	r3, #1
	uxtb	r3, r3
	cmp	r3, #0
	beq	.L182
	.loc 6 189 0 discriminator 1
	bl	s3eDebugIsDebuggerPresent(PLT)
	mov	r3, r0
	cmp	r3, #0
	moveq	r3, #0
	movne	r3, #1
	uxtb	r3, r3
	cmp	r3, #0
	beq	.L183
	mvn	r3, #11
	mov	r2, #0
	str	r2, [r3]
	b	.L183
.L182:
	.loc 6 189 0 discriminator 2
	bl	_ZL11IwDebugExitv(PLT)
	b	.L179
.L183:
	.loc 6 189 0 discriminator 1
	b	.L179
.L181:
	.loc 6 189 0 discriminator 3
	ldr	r3, .L185+20
.LPIC90:
	add	r3, pc, r3
	mov	r2, #1
	strb	r2, [r3]
	mov	r0, r0	@ nop
.L179:
	.loc 6 189 0 discriminator 1
	mov	r0, #0
	bl	IwDebugAssertSetUID(PLT)
.L178:
.LBE57:
.LBE56:
	.loc 6 190 0 is_stmt 1
	ldr	r4, [sp, #4]
	ldr	r0, [sp]
	bl	_ZNK9CIwStringILi160EE5c_strEv(PLT)
	mov	r3, r0
	mov	r0, r4
	mov	r1, r3
	bl	strcpy(PLT)
	.loc 6 191 0
	ldr	r3, [sp, #4]
.LBE55:
	.loc 6 192 0
	mov	r0, r3
	add	sp, sp, #8
	@ sp needed
	ldmfd	sp!, {r4, pc}
.L186:
	.align	2
.L185:
	.word	.LC32-(.LPIC85+8)
	.word	_ZZN9CIwStringILi160EEaSERKS0_E21_s_IwAssertIgnoreThis-(.LPIC86+8)
	.word	.LC33-(.LPIC87+8)
	.word	.LC34-(.LPIC88+8)
	.word	.LC35-(.LPIC89+8)
	.word	_ZZN9CIwStringILi160EEaSERKS0_E21_s_IwAssertIgnoreThis-(.LPIC90+8)
	.cfi_endproc
.LFE1508:
	.size	_ZN9CIwStringILi160EEaSERKS0_, .-_ZN9CIwStringILi160EEaSERKS0_
	.section	.text._ZNK9CIwStringILi160EE6lengthEv,"axG",%progbits,_ZNK9CIwStringILi160EE6lengthEv,comdat
	.align	2
	.weak	_ZNK9CIwStringILi160EE6lengthEv
	.hidden	_ZNK9CIwStringILi160EE6lengthEv
	.type	_ZNK9CIwStringILi160EE6lengthEv, %function
_ZNK9CIwStringILi160EE6lengthEv:
.LFB1534:
	.loc 6 122 0
	.cfi_startproc
	@ args = 0, pretend = 0, frame = 8
	@ frame_needed = 0, uses_anonymous_args = 0
	str	lr, [sp, #-4]!
.LCFI26:
	.cfi_def_cfa_offset 4
	.cfi_offset 14, -4
	sub	sp, sp, #12
.LCFI27:
	.cfi_def_cfa_offset 16
	str	r0, [sp, #4]
	.loc 6 122 0
	ldr	r3, [sp, #4]
	mov	r0, r3
	bl	strlen(PLT)
	mov	r3, r0
	mov	r0, r3
	add	sp, sp, #12
	@ sp needed
	ldr	pc, [sp], #4
	.cfi_endproc
.LFE1534:
	.size	_ZNK9CIwStringILi160EE6lengthEv, .-_ZNK9CIwStringILi160EE6lengthEv
	.hidden	_ZTV16CIwResHandlerWAV
	.global	_ZTV16CIwResHandlerWAV
	.section	.data.rel.ro,"aw",%progbits
	.align	3
	.type	_ZTV16CIwResHandlerWAV, %object
	.size	_ZTV16CIwResHandlerWAV, 68
_ZTV16CIwResHandlerWAV:
	.word	0
	.word	_ZTI16CIwResHandlerWAV
	.word	_ZN16CIwResHandlerWAVD1Ev
	.word	_ZN16CIwResHandlerWAVD0Ev
	.word	_ZN10CIwManaged9ParseOpenEP16CIwTextParserITX
	.word	_ZN10CIwManaged10ParseCloseEP16CIwTextParserITX
	.word	_ZN10CIwManaged14ParseAttributeEP16CIwTextParserITXPKc
	.word	_ZN10CIwManaged9SerialiseEv
	.word	_ZN10CIwManaged7ResolveEv
	.word	_ZN10CIwManaged15ParseCloseChildEP16CIwTextParserITXPS_
	.word	_ZN10CIwManaged11HandleEventEP8CIwEvent
	.word	_ZN10CIwManaged7SetNameEPKc
	.word	_ZNK16CIwResHandlerWAV12GetClassNameEv
	.word	_ZN10CIwManaged11DebugRenderEv
	.word	_ZN10CIwManaged17DebugAddMenuItemsEP7CIwMenu
	.word	_ZN10CIwManaged8_ReplaceEPS_
	.word	_ZN16CIwResHandlerWAV5BuildERK9CIwStringILi160EE
	.section	.text._ZN16CIwResHandlerWAVD2Ev,"axG",%progbits,_ZN16CIwResHandlerWAVD5Ev,comdat
	.align	2
	.weak	_ZN16CIwResHandlerWAVD2Ev
	.hidden	_ZN16CIwResHandlerWAVD2Ev
	.type	_ZN16CIwResHandlerWAVD2Ev, %function
_ZN16CIwResHandlerWAVD2Ev:
.LFB1572:
	.file 7 "c:/stage4/modules/soundengine/h/IwResHandlerWAV.h"
	.loc 7 77 0
	.cfi_startproc
	@ args = 0, pretend = 0, frame = 8
	@ frame_needed = 0, uses_anonymous_args = 0
	str	lr, [sp, #-4]!
.LCFI28:
	.cfi_def_cfa_offset 4
	.cfi_offset 14, -4
	sub	sp, sp, #12
.LCFI29:
	.cfi_def_cfa_offset 16
	str	r0, [sp, #4]
.LBB58:
	.loc 7 77 0
	ldr	r3, [sp, #4]
	ldr	r2, .L193
.LPIC91:
	add	r2, pc, r2
	add	r2, r2, #8
	str	r2, [r3]
	ldr	r3, [sp, #4]
	mov	r0, r3
	bl	_ZN13CIwResHandlerD2Ev(PLT)
.LBE58:
	mov	r3, #0
	cmp	r3, #0
	beq	.L191
	.loc 7 77 0 is_stmt 0 discriminator 1
	ldr	r0, [sp, #4]
	bl	_ZdlPv(PLT)
.L191:
	.loc 7 77 0 discriminator 2
	ldr	r3, [sp, #4]
	mov	r0, r3
	add	sp, sp, #12
	@ sp needed
	ldr	pc, [sp], #4
.L194:
	.align	2
.L193:
	.word	_ZTV16CIwResHandlerWAV-(.LPIC91+8)
	.cfi_endproc
.LFE1572:
	.size	_ZN16CIwResHandlerWAVD2Ev, .-_ZN16CIwResHandlerWAVD2Ev
	.weak	_ZN16CIwResHandlerWAVD1Ev
	.hidden	_ZN16CIwResHandlerWAVD1Ev
	.set	_ZN16CIwResHandlerWAVD1Ev,_ZN16CIwResHandlerWAVD2Ev
	.section	.text._ZN16CIwResHandlerWAVD0Ev,"axG",%progbits,_ZN16CIwResHandlerWAVD0Ev,comdat
	.align	2
	.weak	_ZN16CIwResHandlerWAVD0Ev
	.hidden	_ZN16CIwResHandlerWAVD0Ev
	.type	_ZN16CIwResHandlerWAVD0Ev, %function
_ZN16CIwResHandlerWAVD0Ev:
.LFB1574:
	.loc 7 77 0 is_stmt 1
	.cfi_startproc
	@ args = 0, pretend = 0, frame = 8
	@ frame_needed = 0, uses_anonymous_args = 0
	str	lr, [sp, #-4]!
.LCFI30:
	.cfi_def_cfa_offset 4
	.cfi_offset 14, -4
	sub	sp, sp, #12
.LCFI31:
	.cfi_def_cfa_offset 16
	str	r0, [sp, #4]
	.loc 7 77 0
	ldr	r0, [sp, #4]
	bl	_ZN16CIwResHandlerWAVD1Ev(PLT)
	ldr	r0, [sp, #4]
	bl	_ZdlPv(PLT)
	ldr	r3, [sp, #4]
	mov	r0, r3
	add	sp, sp, #12
	@ sp needed
	ldr	pc, [sp], #4
	.cfi_endproc
.LFE1574:
	.size	_ZN16CIwResHandlerWAVD0Ev, .-_ZN16CIwResHandlerWAVD0Ev
	.hidden	_ZTI16CIwResHandlerWAV
	.global	_ZTI16CIwResHandlerWAV
	.section	.data.rel.ro
	.align	2
	.type	_ZTI16CIwResHandlerWAV, %object
	.size	_ZTI16CIwResHandlerWAV, 12
_ZTI16CIwResHandlerWAV:
	.word	_ZTVN10__cxxabiv120__si_class_type_infoE+8
	.word	_ZTS16CIwResHandlerWAV
	.word	_ZTI13CIwResHandler
	.hidden	_ZTS16CIwResHandlerWAV
	.global	_ZTS16CIwResHandlerWAV
	.section	.rodata
	.align	2
	.type	_ZTS16CIwResHandlerWAV, %object
	.size	_ZTS16CIwResHandlerWAV, 19
_ZTS16CIwResHandlerWAV:
	.ascii	"16CIwResHandlerWAV\000"
	.bss
_ZZN16CIwResHandlerWAV5BuildERK9CIwStringILi160EEE21_s_IwAssertIgnoreThis:
	.space	1
_ZZN16CIwResHandlerWAV5BuildERK9CIwStringILi160EEE21_s_IwAssertIgnoreThis_0:
	.space	1
_ZZN16CIwResHandlerWAV5BuildERK9CIwStringILi160EEE21_s_IwAssertIgnoreThis_1:
	.space	1
_ZZN16CIwResHandlerWAV5BuildERK9CIwStringILi160EEE21_s_IwAssertIgnoreThis_2:
	.space	1
	.hidden	_ZZN9CIwStringILi160EEaSERKS0_E21_s_IwAssertIgnoreThis
	.weak	_ZZN9CIwStringILi160EEaSERKS0_E21_s_IwAssertIgnoreThis
	.section	.bss._ZZN9CIwStringILi160EEaSERKS0_E21_s_IwAssertIgnoreThis,"awG",%nobits,_ZZN9CIwStringILi160EEaSERKS0_E21_s_IwAssertIgnoreThis,comdat
	.type	_ZZN9CIwStringILi160EEaSERKS0_E21_s_IwAssertIgnoreThis, %object
	.size	_ZZN9CIwStringILi160EEaSERKS0_E21_s_IwAssertIgnoreThis, 1
_ZZN9CIwStringILi160EEaSERKS0_E21_s_IwAssertIgnoreThis:
	.space	1
	.bss
_ZZN16CIwResHandlerWAV15ReadChunkFormatERK17IwRIFFChunkHeaderRP12CIwSoundDataR7s3eFileE21_s_IwAssertIgnoreThis:
	.space	1
_ZZN16CIwResHandlerWAV15ReadChunkFormatERK17IwRIFFChunkHeaderRP12CIwSoundDataR7s3eFileE21_s_IwAssertIgnoreThis_0:
	.space	1
_ZZN16CIwResHandlerWAV15ReadChunkFormatERK17IwRIFFChunkHeaderRP12CIwSoundDataR7s3eFileE21_s_IwAssertIgnoreThis_1:
	.space	1
_ZZN16CIwResHandlerWAV15ReadChunkFormatERK17IwRIFFChunkHeaderRP12CIwSoundDataR7s3eFileE21_s_IwAssertIgnoreThis_2:
	.space	1
_ZZN16CIwResHandlerWAV13ReadChunkDataERK17IwRIFFChunkHeaderRP12CIwSoundDataR7s3eFileE21_s_IwAssertIgnoreThis:
	.space	1
_ZZN16CIwResHandlerWAV13ReadChunkDataERK17IwRIFFChunkHeaderRP12CIwSoundDataR7s3eFileE21_s_IwAssertIgnoreThis_0:
	.space	1
_ZZN16CIwResHandlerWAV13ReadChunkDataERK17IwRIFFChunkHeaderRP12CIwSoundDataR7s3eFileE21_s_IwAssertIgnoreThis_1:
	.space	1
_ZZN16CIwResHandlerWAV13ReadChunkFactERK17IwRIFFChunkHeaderRP12CIwSoundDataR7s3eFileE21_s_IwAssertIgnoreThis:
	.space	1
	.text
.Letext0:
	.file 8 "c:/marmalade/7.5/s3e/h/std/c++/typeinfo.h"
	.file 9 "c:/marmalade/7.5/s3e/h/std/c++/cstddef"
	.file 10 "c:/marmalade/7.5/s3e/h/std/c++/exception"
	.file 11 "c:/marmalade/7.5/s3e/h/std/c++/typeinfo"
	.file 12 "c:/marmalade/7.5/s3e/h/std/c++/stl/_config.h"
	.file 13 "c:/marmalade/7.5/s3e/h/ext/../std/stddef.h"
	.file 14 "c:/marmalade/7.5/s3e/h/s3eTypes.h"
	.file 15 "c:/marmalade/7.5/s3e/h/s3eFile.h"
	.file 16 "c:/marmalade/7.5/s3e/h/s3eDebug.h"
	.file 17 "c:/marmalade/7.5/modules/iwutil/h/IwSerialise.h"
	.file 18 "c:/marmalade/7.5/modules/iwutil/h/IwTextParseable.h"
	.file 19 "c:/marmalade/7.5/modules/iwutil/h/IwAllocator.h"
	.file 20 "c:/marmalade/7.5/modules/iwutil/h/IwArray.h"
	.file 21 "c:/marmalade/7.5/modules/iwutil/h/IwManagedList.h"
	.file 22 "c:/marmalade/7.5/modules/iwresmanager/h/IwResGroup.h"
	.file 23 "c:/marmalade/7.5/modules/iwresmanager/h/IwResManagerClass.h"
	.file 24 "c:/stage4/modules/soundengine/h/IwSoundManager.h"
	.file 25 "c:/marmalade/7.5/modules/iwutil/h/IwMenu.h"
	.file 26 "c:/marmalade/7.5/modules/iwgeom/h/IwGeomSqrt.h"
	.file 27 "c:/marmalade/7.5/modules/iwutil/h/IwTextParserITX.h"
	.file 28 "<built-in>"
	.file 29 "c:/marmalade/7.5/modules/iwutil/h/IwTypes.h"