	.file	"IwSoundInst.cpp"
	.text
.Ltext0:
	.section	.text._ZN12CIwCallStackC2EPKc,"axG",@progbits,_ZN12CIwCallStackC5EPKc,comdat
	.align 2
	.weak	_ZN12CIwCallStackC2EPKc
	.hidden	_ZN12CIwCallStackC2EPKc
	.type	_ZN12CIwCallStackC2EPKc, @function
_ZN12CIwCallStackC2EPKc:
.LFB137:
	.file 1 "c:/marmalade/7.5/modules/iwutil/h/IwRuntime.h"
	.loc 1 97 0
	.cfi_startproc
	pushl	%ebp
	.cfi_def_cfa_offset 8
	.cfi_offset 5, -8
	movl	%esp, %ebp
	.cfi_def_cfa_register 5
	pushl	%ebx
	leal	-20(%esp), %esp
	.cfi_offset 3, -12
	call	__x86.get_pc_thunk.bx
	addl	$_GLOBAL_OFFSET_TABLE_, %ebx
.LBB2:
	.loc 1 99 0
	movl	8(%ebp), %eax
	movl	%eax, 4(%esp)
	movl	12(%ebp), %eax
	movl	%eax, (%esp)
	call	IwCallStackEnter@PLT
	movl	8(%ebp), %edx
	movb	%al, (%edx)
.LBE2:
	.loc 1 100 0
	leal	20(%esp), %esp
	popl	%ebx
	.cfi_restore 3
	popl	%ebp
	.cfi_restore 5
	.cfi_def_cfa 4, 4
	ret
	.cfi_endproc
.LFE137:
	.size	_ZN12CIwCallStackC2EPKc, .-_ZN12CIwCallStackC2EPKc
	.weak	_ZN12CIwCallStackC1EPKc
	.hidden	_ZN12CIwCallStackC1EPKc
	.set	_ZN12CIwCallStackC1EPKc,_ZN12CIwCallStackC2EPKc
	.section	.text._ZN12CIwCallStackD2Ev,"axG",@progbits,_ZN12CIwCallStackD5Ev,comdat
	.align 2
	.weak	_ZN12CIwCallStackD2Ev
	.hidden	_ZN12CIwCallStackD2Ev
	.type	_ZN12CIwCallStackD2Ev, @function
_ZN12CIwCallStackD2Ev:
.LFB140:
	.loc 1 101 0
	.cfi_startproc
	pushl	%ebp
	.cfi_def_cfa_offset 8
	.cfi_offset 5, -8
	movl	%esp, %ebp
	.cfi_def_cfa_register 5
	pushl	%ebx
	leal	-20(%esp), %esp
	.cfi_offset 3, -12
	call	__x86.get_pc_thunk.bx
	addl	$_GLOBAL_OFFSET_TABLE_, %ebx
.LBB3:
	.loc 1 103 0
	movl	8(%ebp), %eax
	movzbl	(%eax), %eax
	testb	%al, %al
	je	.L2
	.loc 1 104 0
	movl	8(%ebp), %eax
	movl	%eax, (%esp)
	call	IwCallStackLeave@PLT
.L2:
.LBE3:
	.loc 1 105 0
	leal	20(%esp), %esp
	popl	%ebx
	.cfi_restore 3
	popl	%ebp
	.cfi_restore 5
	.cfi_def_cfa 4, 4
	ret
	.cfi_endproc
.LFE140:
	.size	_ZN12CIwCallStackD2Ev, .-_ZN12CIwCallStackD2Ev
	.weak	_ZN12CIwCallStackD1Ev
	.hidden	_ZN12CIwCallStackD1Ev
	.set	_ZN12CIwCallStackD1Ev,_ZN12CIwCallStackD2Ev
	.section	.text._ZNK15CIwSoundManager8IsActiveEv,"axG",@progbits,_ZNK15CIwSoundManager8IsActiveEv,comdat
	.align 2
	.weak	_ZNK15CIwSoundManager8IsActiveEv
	.hidden	_ZNK15CIwSoundManager8IsActiveEv
	.type	_ZNK15CIwSoundManager8IsActiveEv, @function
_ZNK15CIwSoundManager8IsActiveEv:
.LFB1385:
	.file 2 "c:/marmalade/7.5/examples/gametutorial/cpp/modules/soundengine/h/IwSoundManager.h"
	.loc 2 128 0
	.cfi_startproc
	pushl	%ebp
	.cfi_def_cfa_offset 8
	.cfi_offset 5, -8
	leal	(%esp), %ebp
	.cfi_def_cfa_register 5
	.loc 2 130 0
	movl	8(%ebp), %eax
	movzwl	30(%eax), %eax
	movzwl	%ax, %eax
	andl	$2, %eax
	testl	%eax, %eax
	setne	%al
	.loc 2 131 0
	popl	%ebp
	.cfi_restore 5
	.cfi_def_cfa 4, 4
	ret
	.cfi_endproc
.LFE1385:
	.size	_ZNK15CIwSoundManager8IsActiveEv, .-_ZNK15CIwSoundManager8IsActiveEv
	.section	.text._Z17IwGetSoundManagerv,"axG",@progbits,_Z17IwGetSoundManagerv,comdat
	.weak	_Z17IwGetSoundManagerv
	.hidden	_Z17IwGetSoundManagerv
	.type	_Z17IwGetSoundManagerv, @function
_Z17IwGetSoundManagerv:
.LFB1388:
	.loc 2 193 0
	.cfi_startproc
	pushl	%ebp
	.cfi_def_cfa_offset 8
	.cfi_offset 5, -8
	movl	%esp, %ebp
	.cfi_def_cfa_register 5
	call	__x86.get_pc_thunk.cx
	addl	$_GLOBAL_OFFSET_TABLE_, %ecx
	.loc 2 193 0
	movl	g_IwSoundManager@GOT(%ecx), %eax
	movl	(%eax), %eax
	popl	%ebp
	.cfi_restore 5
	.cfi_def_cfa 4, 4
	ret
	.cfi_endproc
.LFE1388:
	.size	_Z17IwGetSoundManagerv, .-_Z17IwGetSoundManagerv
	.section	.rodata
.LC0:
	.string	"CIwSoundInst::CIwSoundInst"
	.text
	.align 2
	.globl	_ZN12CIwSoundInstC2Ev
	.hidden	_ZN12CIwSoundInstC2Ev
	.type	_ZN12CIwSoundInstC2Ev, @function
_ZN12CIwSoundInstC2Ev:
.LFB1431:
	.file 3 "c:/Marmalade/7.5/examples/GameTutorial/CPP/modules/soundengine/source/IwSoundInst.cpp"
	.loc 3 26 0
	.cfi_startproc
	pushl	%ebp
	.cfi_def_cfa_offset 8
	.cfi_offset 5, -8
	movl	%esp, %ebp
	.cfi_def_cfa_register 5
	pushl	%ebx
	leal	-36(%esp), %esp
	.cfi_offset 3, -12
	call	__x86.get_pc_thunk.bx
	addl	$_GLOBAL_OFFSET_TABLE_, %ebx
.LBB4:
.LBB5:
	.loc 3 28 0
	leal	.LC0@GOTOFF(%ebx), %eax
	movl	%eax, 4(%esp)
	leal	-9(%ebp), %eax
	movl	%eax, (%esp)
	call	_ZN12CIwCallStackC1EPKc
	.loc 3 30 0
	movl	8(%ebp), %eax
	movl	$0, (%eax)
	.loc 3 31 0
	movl	8(%ebp), %eax
	movw	$4096, 4(%eax)
	.loc 3 32 0
	movl	8(%ebp), %eax
	movw	$0, 6(%eax)
	.loc 3 33 0
	movl	8(%ebp), %eax
	movw	$4096, 8(%eax)
	.loc 3 34 0
	movl	8(%ebp), %eax
	movw	$4, 10(%eax)
	.loc 3 35 0
	movl	8(%ebp), %eax
	movl	$0, 20(%eax)
	.loc 3 36 0
	movl	8(%ebp), %eax
	movw	$0, 16(%eax)
	leal	-9(%ebp), %eax
	movl	%eax, (%esp)
	call	_ZN12CIwCallStackD1Ev
.LBE5:
.LBE4:
	.loc 3 37 0
	leal	36(%esp), %esp
	popl	%ebx
	.cfi_restore 3
	popl	%ebp
	.cfi_restore 5
	.cfi_def_cfa 4, 4
	ret
	.cfi_endproc
.LFE1431:
	.size	_ZN12CIwSoundInstC2Ev, .-_ZN12CIwSoundInstC2Ev
	.globl	_ZN12CIwSoundInstC1Ev
	.hidden	_ZN12CIwSoundInstC1Ev
	.set	_ZN12CIwSoundInstC1Ev,_ZN12CIwSoundInstC2Ev
	.section	.rodata
.LC1:
	.string	"CIwSoundInst::Stop"
	.text
	.align 2
	.globl	_ZN12CIwSoundInst4StopEv
	.hidden	_ZN12CIwSoundInst4StopEv
	.type	_ZN12CIwSoundInst4StopEv, @function
_ZN12CIwSoundInst4StopEv:
.LFB1433:
	.loc 3 40 0
	.cfi_startproc
	pushl	%ebp
	.cfi_def_cfa_offset 8
	.cfi_offset 5, -8
	movl	%esp, %ebp
	.cfi_def_cfa_register 5
	pushl	%esi
	pushl	%ebx
	leal	-32(%esp), %esp
	.cfi_offset 6, -12
	.cfi_offset 3, -16
	call	__x86.get_pc_thunk.bx
	addl	$_GLOBAL_OFFSET_TABLE_, %ebx
.LBB6:
	.loc 3 41 0
	leal	.LC1@GOTOFF(%ebx), %eax
	movl	%eax, 4(%esp)
	leal	-9(%ebp), %eax
	movl	%eax, (%esp)
	call	_ZN12CIwCallStackC1EPKc
	.loc 3 43 0
	call	_Z17IwGetSoundManagerv
	movl	%eax, (%esp)
	call	_ZNK15CIwSoundManager8IsActiveEv
	xorl	$1, %eax
	testb	%al, %al
	je	.L10
	movl	$0, %esi
	.loc 3 44 0
	jmp	.L11
.L10:
	.loc 3 46 0
	movl	8(%ebp), %eax
	movzwl	12(%eax), %eax
	movzwl	%ax, %eax
	movl	%eax, (%esp)
	call	s3eSoundChannelStop@PLT
	.loc 3 47 0
	movl	8(%ebp), %eax
	movzwl	10(%eax), %eax
	orl	$2, %eax
	movl	%eax, %edx
	movl	8(%ebp), %eax
	movw	%dx, 10(%eax)
	movl	$1, %esi
.L11:
	leal	-9(%ebp), %eax
	movl	%eax, (%esp)
	call	_ZN12CIwCallStackD1Ev
	cmpl	$1, %esi
	jne	.L9
	nop
.L9:
.LBE6:
	.loc 3 48 0
	leal	32(%esp), %esp
	popl	%ebx
	.cfi_restore 3
	popl	%esi
	.cfi_restore 6
	popl	%ebp
	.cfi_restore 5
	.cfi_def_cfa 4, 4
	ret
	.cfi_endproc
.LFE1433:
	.size	_ZN12CIwSoundInst4StopEv, .-_ZN12CIwSoundInst4StopEv
	.section	.rodata
.LC2:
	.string	"CIwSoundInst::Pause"
	.text
	.align 2
	.globl	_ZN12CIwSoundInst5PauseEv
	.hidden	_ZN12CIwSoundInst5PauseEv
	.type	_ZN12CIwSoundInst5PauseEv, @function
_ZN12CIwSoundInst5PauseEv:
.LFB1434:
	.loc 3 51 0
	.cfi_startproc
	pushl	%ebp
	.cfi_def_cfa_offset 8
	.cfi_offset 5, -8
	movl	%esp, %ebp
	.cfi_def_cfa_register 5
	pushl	%esi
	pushl	%ebx
	leal	-32(%esp), %esp
	.cfi_offset 6, -12
	.cfi_offset 3, -16
	call	__x86.get_pc_thunk.bx
	addl	$_GLOBAL_OFFSET_TABLE_, %ebx
.LBB7:
	.loc 3 52 0
	leal	.LC2@GOTOFF(%ebx), %eax
	movl	%eax, 4(%esp)
	leal	-9(%ebp), %eax
	movl	%eax, (%esp)
	call	_ZN12CIwCallStackC1EPKc
	.loc 3 54 0
	call	_Z17IwGetSoundManagerv
	movl	%eax, (%esp)
	call	_ZNK15CIwSoundManager8IsActiveEv
	xorl	$1, %eax
	testb	%al, %al
	je	.L17
	movl	$0, %esi
	.loc 3 55 0
	jmp	.L18
.L17:
	.loc 3 57 0
	movl	8(%ebp), %eax
	movzwl	12(%eax), %eax
	movzwl	%ax, %eax
	movl	%eax, (%esp)
	call	s3eSoundChannelPause@PLT
	movl	$1, %esi
.L18:
	leal	-9(%ebp), %eax
	movl	%eax, (%esp)
	call	_ZN12CIwCallStackD1Ev
	cmpl	$1, %esi
	jne	.L16
	nop
.L16:
.LBE7:
	.loc 3 58 0
	leal	32(%esp), %esp
	popl	%ebx
	.cfi_restore 3
	popl	%esi
	.cfi_restore 6
	popl	%ebp
	.cfi_restore 5
	.cfi_def_cfa 4, 4
	ret
	.cfi_endproc
.LFE1434:
	.size	_ZN12CIwSoundInst5PauseEv, .-_ZN12CIwSoundInst5PauseEv
	.section	.rodata
.LC3:
	.string	"CIwSoundInst::Resume"
	.text
	.align 2
	.globl	_ZN12CIwSoundInst6ResumeEv
	.hidden	_ZN12CIwSoundInst6ResumeEv
	.type	_ZN12CIwSoundInst6ResumeEv, @function
_ZN12CIwSoundInst6ResumeEv:
.LFB1435:
	.loc 3 61 0
	.cfi_startproc
	pushl	%ebp
	.cfi_def_cfa_offset 8
	.cfi_offset 5, -8
	movl	%esp, %ebp
	.cfi_def_cfa_register 5
	pushl	%esi
	pushl	%ebx
	leal	-32(%esp), %esp
	.cfi_offset 6, -12
	.cfi_offset 3, -16
	call	__x86.get_pc_thunk.bx
	addl	$_GLOBAL_OFFSET_TABLE_, %ebx
.LBB8:
	.loc 3 62 0
	leal	.LC3@GOTOFF(%ebx), %eax
	movl	%eax, 4(%esp)
	leal	-9(%ebp), %eax
	movl	%eax, (%esp)
	call	_ZN12CIwCallStackC1EPKc
	.loc 3 64 0
	call	_Z17IwGetSoundManagerv
	movl	%eax, (%esp)
	call	_ZNK15CIwSoundManager8IsActiveEv
	xorl	$1, %eax
	testb	%al, %al
	je	.L24
	movl	$0, %esi
	.loc 3 65 0
	jmp	.L25
.L24:
	.loc 3 67 0
	movl	8(%ebp), %eax
	movzwl	12(%eax), %eax
	movzwl	%ax, %eax
	movl	%eax, (%esp)
	call	s3eSoundChannelResume@PLT
	movl	$1, %esi
.L25:
	leal	-9(%ebp), %eax
	movl	%eax, (%esp)
	call	_ZN12CIwCallStackD1Ev
	cmpl	$1, %esi
	jne	.L23
	nop
.L23:
.LBE8:
	.loc 3 68 0
	leal	32(%esp), %esp
	popl	%ebx
	.cfi_restore 3
	popl	%esi
	.cfi_restore 6
	popl	%ebp
	.cfi_restore 5
	.cfi_def_cfa 4, 4
	ret
	.cfi_endproc
.LFE1435:
	.size	_ZN12CIwSoundInst6ResumeEv, .-_ZN12CIwSoundInst6ResumeEv
	.section	.rodata
.LC4:
	.string	"CIwSoundInst::IsPlaying"
	.text
	.align 2
	.globl	_ZNK12CIwSoundInst9IsPlayingEv
	.hidden	_ZNK12CIwSoundInst9IsPlayingEv
	.type	_ZNK12CIwSoundInst9IsPlayingEv, @function
_ZNK12CIwSoundInst9IsPlayingEv:
.LFB1436:
	.loc 3 71 0
	.cfi_startproc
	pushl	%ebp
	.cfi_def_cfa_offset 8
	.cfi_offset 5, -8
	movl	%esp, %ebp
	.cfi_def_cfa_register 5
	pushl	%esi
	pushl	%ebx
	leal	-32(%esp), %esp
	.cfi_offset 6, -12
	.cfi_offset 3, -16
	call	__x86.get_pc_thunk.bx
	addl	$_GLOBAL_OFFSET_TABLE_, %ebx
.LBB9:
	.loc 3 72 0
	leal	.LC4@GOTOFF(%ebx), %eax
	movl	%eax, 4(%esp)
	leal	-9(%ebp), %eax
	movl	%eax, (%esp)
	call	_ZN12CIwCallStackC1EPKc
	.loc 3 74 0
	call	_Z17IwGetSoundManagerv
	movl	%eax, (%esp)
	call	_ZNK15CIwSoundManager8IsActiveEv
	xorl	$1, %eax
	testb	%al, %al
	je	.L31
	.loc 3 75 0
	movl	$0, %esi
	jmp	.L32
.L31:
	.loc 3 77 0
	movl	8(%ebp), %eax
	movzwl	12(%eax), %eax
	movzwl	%ax, %eax
	movl	$4, 4(%esp)
	movl	%eax, (%esp)
	call	s3eSoundChannelGetInt@PLT
	cmpl	$1, %eax
	jne	.L33
	.loc 3 78 0 discriminator 1
	movl	8(%ebp), %eax
	movzwl	12(%eax), %eax
	movzwl	%ax, %eax
	movl	$5, 4(%esp)
	movl	%eax, (%esp)
	call	s3eSoundChannelGetInt@PLT
	.loc 3 77 0 discriminator 1
	cmpl	$1, %eax
	je	.L33
	.loc 3 77 0 is_stmt 0 discriminator 3
	movl	$1, %eax
	jmp	.L34
.L33:
	.loc 3 77 0 discriminator 2
	movl	$0, %eax
.L34:
	.loc 3 78 0 is_stmt 1
	movl	%eax, %esi
.L32:
	.loc 3 78 0 is_stmt 0 discriminator 1
	leal	-9(%ebp), %eax
	movl	%eax, (%esp)
	call	_ZN12CIwCallStackD1Ev
	movl	%esi, %eax
.LBE9:
	.loc 3 79 0 is_stmt 1 discriminator 1
	leal	32(%esp), %esp
	popl	%ebx
	.cfi_restore 3
	popl	%esi
	.cfi_restore 6
	popl	%ebp
	.cfi_restore 5
	.cfi_def_cfa 4, 4
	ret
	.cfi_endproc
.LFE1436:
	.size	_ZNK12CIwSoundInst9IsPlayingEv, .-_ZNK12CIwSoundInst9IsPlayingEv
	.section	.rodata
.LC5:
	.string	"CIwSoundInst::SetVol"
	.text
	.align 2
	.globl	_ZN12CIwSoundInst6SetVolEs
	.hidden	_ZN12CIwSoundInst6SetVolEs
	.type	_ZN12CIwSoundInst6SetVolEs, @function
_ZN12CIwSoundInst6SetVolEs:
.LFB1437:
	.loc 3 82 0
	.cfi_startproc
	pushl	%ebp
	.cfi_def_cfa_offset 8
	.cfi_offset 5, -8
	movl	%esp, %ebp
	.cfi_def_cfa_register 5
	pushl	%ebx
	leal	-36(%esp), %esp
	.cfi_offset 3, -12
	call	__x86.get_pc_thunk.bx
	addl	$_GLOBAL_OFFSET_TABLE_, %ebx
	movl	12(%ebp), %eax
	movw	%ax, -28(%ebp)
.LBB10:
	.loc 3 83 0
	leal	.LC5@GOTOFF(%ebx), %eax
	movl	%eax, 4(%esp)
	leal	-9(%ebp), %eax
	movl	%eax, (%esp)
	call	_ZN12CIwCallStackC1EPKc
	.loc 3 85 0
	movl	8(%ebp), %eax
	movzwl	-28(%ebp), %edx
	movw	%dx, 4(%eax)
	.loc 3 86 0
	movl	8(%ebp), %eax
	movzwl	10(%eax), %eax
	orl	$1, %eax
	movl	%eax, %edx
	movl	8(%ebp), %eax
	movw	%dx, 10(%eax)
	leal	-9(%ebp), %eax
	movl	%eax, (%esp)
	call	_ZN12CIwCallStackD1Ev
.LBE10:
	.loc 3 87 0
	leal	36(%esp), %esp
	popl	%ebx
	.cfi_restore 3
	popl	%ebp
	.cfi_restore 5
	.cfi_def_cfa 4, 4
	ret
	.cfi_endproc
.LFE1437:
	.size	_ZN12CIwSoundInst6SetVolEs, .-_ZN12CIwSoundInst6SetVolEs
	.section	.rodata
.LC6:
	.string	"CIwSoundInst::SetPan"
	.text
	.align 2
	.globl	_ZN12CIwSoundInst6SetPanEs
	.hidden	_ZN12CIwSoundInst6SetPanEs
	.type	_ZN12CIwSoundInst6SetPanEs, @function
_ZN12CIwSoundInst6SetPanEs:
.LFB1438:
	.loc 3 90 0
	.cfi_startproc
	pushl	%ebp
	.cfi_def_cfa_offset 8
	.cfi_offset 5, -8
	movl	%esp, %ebp
	.cfi_def_cfa_register 5
	pushl	%ebx
	leal	-36(%esp), %esp
	.cfi_offset 3, -12
	call	__x86.get_pc_thunk.bx
	addl	$_GLOBAL_OFFSET_TABLE_, %ebx
	movl	12(%ebp), %eax
	movw	%ax, -28(%ebp)
.LBB11:
	.loc 3 91 0
	leal	.LC6@GOTOFF(%ebx), %eax
	movl	%eax, 4(%esp)
	leal	-9(%ebp), %eax
	movl	%eax, (%esp)
	call	_ZN12CIwCallStackC1EPKc
	.loc 3 93 0
	movl	8(%ebp), %eax
	movzwl	-28(%ebp), %edx
	movw	%dx, 6(%eax)
	.loc 3 94 0
	movl	8(%ebp), %eax
	movzwl	10(%eax), %eax
	orl	$1, %eax
	movl	%eax, %edx
	movl	8(%ebp), %eax
	movw	%dx, 10(%eax)
	leal	-9(%ebp), %eax
	movl	%eax, (%esp)
	call	_ZN12CIwCallStackD1Ev
.LBE11:
	.loc 3 95 0
	leal	36(%esp), %esp
	popl	%ebx
	.cfi_restore 3
	popl	%ebp
	.cfi_restore 5
	.cfi_def_cfa 4, 4
	ret
	.cfi_endproc
.LFE1438:
	.size	_ZN12CIwSoundInst6SetPanEs, .-_ZN12CIwSoundInst6SetPanEs
	.section	.rodata
.LC7:
	.string	"CIwSoundInst::SetPitch"
	.text
	.align 2
	.globl	_ZN12CIwSoundInst8SetPitchEs
	.hidden	_ZN12CIwSoundInst8SetPitchEs
	.type	_ZN12CIwSoundInst8SetPitchEs, @function
_ZN12CIwSoundInst8SetPitchEs:
.LFB1439:
	.loc 3 98 0
	.cfi_startproc
	pushl	%ebp
	.cfi_def_cfa_offset 8
	.cfi_offset 5, -8
	movl	%esp, %ebp
	.cfi_def_cfa_register 5
	pushl	%ebx
	leal	-36(%esp), %esp
	.cfi_offset 3, -12
	call	__x86.get_pc_thunk.bx
	addl	$_GLOBAL_OFFSET_TABLE_, %ebx
	movl	12(%ebp), %eax
	movw	%ax, -28(%ebp)
.LBB12:
	.loc 3 99 0
	leal	.LC7@GOTOFF(%ebx), %eax
	movl	%eax, 4(%esp)
	leal	-9(%ebp), %eax
	movl	%eax, (%esp)
	call	_ZN12CIwCallStackC1EPKc
	.loc 3 101 0
	movl	8(%ebp), %eax
	movzwl	-28(%ebp), %edx
	movw	%dx, 8(%eax)
	.loc 3 102 0
	movl	8(%ebp), %eax
	movzwl	10(%eax), %eax
	orl	$1, %eax
	movl	%eax, %edx
	movl	8(%ebp), %eax
	movw	%dx, 10(%eax)
	leal	-9(%ebp), %eax
	movl	%eax, (%esp)
	call	_ZN12CIwCallStackD1Ev
.LBE12:
	.loc 3 103 0
	leal	36(%esp), %esp
	popl	%ebx
	.cfi_restore 3
	popl	%ebp
	.cfi_restore 5
	.cfi_def_cfa 4, 4
	ret
	.cfi_endproc
.LFE1439:
	.size	_ZN12CIwSoundInst8SetPitchEs, .-_ZN12CIwSoundInst8SetPitchEs
	.section	.text.__x86.get_pc_thunk.cx,"axG",@progbits,__x86.get_pc_thunk.cx,comdat
	.globl	__x86.get_pc_thunk.cx
	.hidden	__x86.get_pc_thunk.cx
	.type	__x86.get_pc_thunk.cx, @function
__x86.get_pc_thunk.cx:
.LFB1639:
	.cfi_startproc
	nop
	nop
	nop
	nop
	nop
	nop
	nop
	nop
	movl	(%esp), %ecx
	ret
	.cfi_endproc
.LFE1639:
	.section	.text.__x86.get_pc_thunk.bx,"axG",@progbits,__x86.get_pc_thunk.bx,comdat
	.globl	__x86.get_pc_thunk.bx
	.hidden	__x86.get_pc_thunk.bx
	.type	__x86.get_pc_thunk.bx, @function
__x86.get_pc_thunk.bx:
.LFB1640:
	.cfi_startproc
	nop
	nop
	nop
	nop
	nop
	nop
	nop
	nop
	movl	(%esp), %ebx
	ret
	.cfi_endproc
.LFE1640:
	.text
.Letext0:
	.file 4 "c:/marmalade/7.5/s3e/h/std/c++/typeinfo.h"
	.file 5 "c:/marmalade/7.5/s3e/h/std/c++/cstddef"
	.file 6 "c:/marmalade/7.5/s3e/h/std/c++/exception"
	.file 7 "c:/marmalade/7.5/s3e/h/std/c++/typeinfo"
	.file 8 "c:/marmalade/7.5/s3e/h/std/c++/stl/_config.h"
	.file 9 "c:/marmalade/7.5/s3e/h/ext/../std/stddef.h"
	.file 10 "c:/marmalade/7.5/s3e/h/s3eTypes.h"
	.file 11 "c:/marmalade/7.5/s3e/h/s3eFile.h"
	.file 12 "c:/marmalade/7.5/modules/iwutil/h/IwSerialise.h"
	.file 13 "c:/marmalade/7.5/modules/iwutil/h/IwString.h"
	.file 14 "c:/marmalade/7.5/modules/iwutil/h/IwAllocator.h"
	.file 15 "c:/marmalade/7.5/modules/iwutil/h/IwManaged.h"
	.file 16 "c:/marmalade/7.5/modules/iwutil/h/IwArray.h"
	.file 17 "c:/marmalade/7.5/modules/iwgeom/h/IwGeomCore.h"
	.file 18 "c:/marmalade/7.5/examples/gametutorial/cpp/modules/soundengine/h/IwSoundInst.h"
	.file 19 "c:/marmalade/7.5/modules/iwutil/h/IwManagedList.h"
	.file 20 "c:/marmalade/7.5/modules/iwresmanager/h/IwResGroup.h"
	.file 21 "c:/marmalade/7.5/modules/iwresmanager/h/IwResManagerClass.h"
	.file 22 "c:/marmalade/7.5/s3e/h/s3eSound.h"
	.file 23 "c:/marmalade/7.5/modules/iwutil/h/IwMenu.h"
	.file 24 "c:/marmalade/7.5/modules/iwgeom/h/IwGeomSqrt.h"
	.file 25 "c:/marmalade/7.5/modules/iwutil/h/IwTextParserITX.h"
	.file 26 "<built-in>"
	.file 27 "c:/marmalade/7.5/modules/iwutil/h/IwTypes.h"
	.section	.note.GNU-stack,"",@progbits
