	.file	"IwSoundADPCM.cpp"
	.text
.Ltext0:
	.type	_ZL11IwDebugExitv, @function
_ZL11IwDebugExitv:
.LFB4:
	.file 1 "c:/marmalade/7.5/modules/iwutil/h/IwDebug.h"
	.loc 1 348 0
	.cfi_startproc
	pushl	%ebp
	.cfi_def_cfa_offset 8
	.cfi_offset 5, -8
	movl	%esp, %ebp
	.cfi_def_cfa_register 5
	pushl	%ebx
	leal	-4(%esp), %esp
	.cfi_offset 3, -12
	call	__x86.get_pc_thunk.bx
	addl	$_GLOBAL_OFFSET_TABLE_, %ebx
	.loc 1 349 0
	call	abort@PLT
	.cfi_endproc
.LFE4:
	.size	_ZL11IwDebugExitv, .-_ZL11IwDebugExitv
	.section	.text._ZN12CIwSoundData14GetSampleCountEv,"axG",@progbits,_ZN12CIwSoundData14GetSampleCountEv,comdat
	.align 2
	.weak	_ZN12CIwSoundData14GetSampleCountEv
	.hidden	_ZN12CIwSoundData14GetSampleCountEv
	.type	_ZN12CIwSoundData14GetSampleCountEv, @function
_ZN12CIwSoundData14GetSampleCountEv:
.LFB1424:
	.file 2 "c:/marmalade/7.5/examples/gametutorial/cpp/modules/soundengine/h/IwSoundData.h"
	.loc 2 45 0
	.cfi_startproc
	pushl	%ebp
	.cfi_def_cfa_offset 8
	.cfi_offset 5, -8
	leal	(%esp), %ebp
	.cfi_def_cfa_register 5
	.loc 2 45 0
	movl	8(%ebp), %eax
	movl	20(%eax), %eax
	popl	%ebp
	.cfi_restore 5
	.cfi_def_cfa 4, 4
	ret
	.cfi_endproc
.LFE1424:
	.size	_ZN12CIwSoundData14GetSampleCountEv, .-_ZN12CIwSoundData14GetSampleCountEv
	.section	.text._ZN17CIwSoundDataADPCM18GetSamplesPerBlockEv,"axG",@progbits,_ZN17CIwSoundDataADPCM18GetSamplesPerBlockEv,comdat
	.align 2
	.weak	_ZN17CIwSoundDataADPCM18GetSamplesPerBlockEv
	.hidden	_ZN17CIwSoundDataADPCM18GetSamplesPerBlockEv
	.type	_ZN17CIwSoundDataADPCM18GetSamplesPerBlockEv, @function
_ZN17CIwSoundDataADPCM18GetSamplesPerBlockEv:
.LFB1428:
	.loc 2 97 0
	.cfi_startproc
	pushl	%ebp
	.cfi_def_cfa_offset 8
	.cfi_offset 5, -8
	leal	(%esp), %ebp
	.cfi_def_cfa_register 5
	.loc 2 97 0
	movl	8(%ebp), %eax
	movl	36(%eax), %eax
	popl	%ebp
	.cfi_restore 5
	.cfi_def_cfa 4, 4
	ret
	.cfi_endproc
.LFE1428:
	.size	_ZN17CIwSoundDataADPCM18GetSamplesPerBlockEv, .-_ZN17CIwSoundDataADPCM18GetSamplesPerBlockEv
	.section	.text._ZN17CIwSoundDataADPCM17GetBlockAlignmentEv,"axG",@progbits,_ZN17CIwSoundDataADPCM17GetBlockAlignmentEv,comdat
	.align 2
	.weak	_ZN17CIwSoundDataADPCM17GetBlockAlignmentEv
	.hidden	_ZN17CIwSoundDataADPCM17GetBlockAlignmentEv
	.type	_ZN17CIwSoundDataADPCM17GetBlockAlignmentEv, @function
_ZN17CIwSoundDataADPCM17GetBlockAlignmentEv:
.LFB1429:
	.loc 2 99 0
	.cfi_startproc
	pushl	%ebp
	.cfi_def_cfa_offset 8
	.cfi_offset 5, -8
	leal	(%esp), %ebp
	.cfi_def_cfa_register 5
	.loc 2 99 0
	movl	8(%ebp), %eax
	movl	40(%eax), %eax
	popl	%ebp
	.cfi_restore 5
	.cfi_def_cfa 4, 4
	ret
	.cfi_endproc
.LFE1429:
	.size	_ZN17CIwSoundDataADPCM17GetBlockAlignmentEv, .-_ZN17CIwSoundDataADPCM17GetBlockAlignmentEv
	.hidden	_ZN15CIwChannelADPCM13isInitializedE
	.globl	_ZN15CIwChannelADPCM13isInitializedE
	.bss
	.align 4
	.type	_ZN15CIwChannelADPCM13isInitializedE, @object
	.size	_ZN15CIwChannelADPCM13isInitializedE, 4
_ZN15CIwChannelADPCM13isInitializedE:
	.zero	4
	.text
	.align 2
	.globl	_ZN15CIwChannelADPCM13GenerateAudioEP20s3eSoundGenAudioInfo
	.hidden	_ZN15CIwChannelADPCM13GenerateAudioEP20s3eSoundGenAudioInfo
	.type	_ZN15CIwChannelADPCM13GenerateAudioEP20s3eSoundGenAudioInfo, @function
_ZN15CIwChannelADPCM13GenerateAudioEP20s3eSoundGenAudioInfo:
.LFB1430:
	.file 3 "c:/Marmalade/7.5/examples/GameTutorial/CPP/modules/soundengine/source/IwSoundADPCM.cpp"
	.loc 3 28 0
	.cfi_startproc
	pushl	%ebp
	.cfi_def_cfa_offset 8
	.cfi_offset 5, -8
	movl	%esp, %ebp
	.cfi_def_cfa_register 5
	pushl	%esi
	pushl	%ebx
	leal	-64(%esp), %esp
	.cfi_offset 6, -12
	.cfi_offset 3, -16
	call	__x86.get_pc_thunk.bx
	addl	$_GLOBAL_OFFSET_TABLE_, %ebx
.LBB2:
	.loc 3 29 0
	movl	12(%ebp), %eax
	movl	4(%eax), %eax
	movl	%eax, -12(%ebp)
	.loc 3 30 0
	movl	12(%ebp), %eax
	movl	8(%eax), %eax
	movl	%eax, -16(%ebp)
	.loc 3 31 0
	movl	12(%ebp), %eax
	movl	12(%eax), %eax
	movl	%eax, -20(%ebp)
.LBB3:
	.loc 3 33 0
	movl	8(%ebp), %eax
	movl	(%eax), %eax
	testl	%eax, %eax
	jne	.L9
.LBB4:
	.loc 3 38 0
	movl	12(%ebp), %eax
	movl	16(%eax), %edx
	movl	8(%ebp), %eax
	movl	%edx, (%eax)
	.loc 3 39 0
	movl	12(%ebp), %eax
	movl	16(%eax), %edx
	movl	12(%ebp), %eax
	movl	20(%eax), %eax
	andl	$-2, %eax
	addl	%eax, %eax
	addl	%eax, %edx
	movl	8(%ebp), %eax
	movl	%edx, 4(%eax)
	.loc 3 43 0
	movl	12(%ebp), %eax
	movl	(%eax), %eax
	movl	$2, 4(%esp)
	movl	%eax, (%esp)
	call	s3eSoundChannelGetInt@PLT
	movl	%eax, -24(%ebp)
	.loc 3 45 0
	movl	-24(%ebp), %eax
	movl	%eax, (%esp)
	call	_ZN17CIwSoundDataADPCM18GetSamplesPerBlockEv
	movl	%eax, %edx
	movl	8(%ebp), %eax
	movl	%edx, 24(%eax)
	.loc 3 46 0
	movl	-24(%ebp), %eax
	movl	%eax, (%esp)
	call	_ZN17CIwSoundDataADPCM17GetBlockAlignmentEv
	movl	%eax, %edx
	movl	8(%ebp), %eax
	movl	%edx, 28(%eax)
	.loc 3 47 0
	movl	-24(%ebp), %eax
	movl	%eax, (%esp)
	call	_ZN12CIwSoundData14GetSampleCountEv
	movl	%eax, %edx
	movl	8(%ebp), %eax
	movl	%edx, 32(%eax)
	.loc 3 48 0
	movl	8(%ebp), %eax
	movl	$0, 36(%eax)
	.loc 3 55 0
	movl	8(%ebp), %eax
	movl	$0, 8(%eax)
	.loc 3 56 0
	movl	8(%ebp), %eax
	movl	$0, 12(%eax)
	.loc 3 57 0
	movl	8(%ebp), %eax
	movw	$0, 16(%eax)
	.loc 3 58 0
	movl	8(%ebp), %eax
	movw	$0, 20(%eax)
	.loc 3 59 0
	movl	8(%ebp), %eax
	movb	$0, 23(%eax)
	.loc 3 60 0
	movl	8(%ebp), %eax
	movb	$0, 22(%eax)
.L9:
.LBE4:
.LBE3:
	.loc 3 64 0
	movl	12(%ebp), %eax
	movl	(%eax), %eax
	movl	$1, 4(%esp)
	movl	%eax, (%esp)
	call	s3eSoundChannelGetInt@PLT
	sall	$12, %eax
	movl	%eax, %esi
	movl	$1, (%esp)
	call	s3eSoundGetInt@PLT
	movl	%eax, %ecx
	movl	%esi, %eax
	movl	%eax, %edx
	sarl	$31, %edx
	idivl	%ecx
	movl	%eax, -28(%ebp)
	.loc 3 65 0
	movl	12(%ebp), %eax
	movl	(%eax), %eax
	movl	$3, 4(%esp)
	movl	%eax, (%esp)
	call	s3eSoundChannelGetInt@PLT
	movl	%eax, -32(%ebp)
	.loc 3 67 0
	movl	$0, -40(%ebp)
	.loc 3 68 0
	leal	-40(%ebp), %eax
	movl	%eax, 24(%esp)
	movl	-20(%ebp), %eax
	movl	%eax, 20(%esp)
	movl	-32(%ebp), %eax
	movl	%eax, 16(%esp)
	movl	-28(%ebp), %eax
	movl	%eax, 12(%esp)
	movl	-16(%ebp), %eax
	movl	%eax, 8(%esp)
	movl	-12(%ebp), %eax
	movl	%eax, 4(%esp)
	movl	8(%ebp), %eax
	movl	%eax, (%esp)
	call	_ZN15CIwChannelADPCM22GenerateADPCMAudioFastEPsiiiiPi
	movl	%eax, -36(%ebp)
	.loc 3 69 0
	movl	-40(%ebp), %eax
	testl	%eax, %eax
	je	.L10
	.loc 3 71 0
	movl	12(%ebp), %eax
	movb	$1, 28(%eax)
	.loc 3 72 0
	movl	8(%ebp), %eax
	movl	$0, (%eax)
.L10:
	.loc 3 74 0
	movl	-36(%ebp), %eax
.LBE2:
	.loc 3 75 0
	leal	64(%esp), %esp
	popl	%ebx
	.cfi_restore 3
	popl	%esi
	.cfi_restore 6
	popl	%ebp
	.cfi_restore 5
	.cfi_def_cfa 4, 4
	ret
	.cfi_endproc
.LFE1430:
	.size	_ZN15CIwChannelADPCM13GenerateAudioEP20s3eSoundGenAudioInfo, .-_ZN15CIwChannelADPCM13GenerateAudioEP20s3eSoundGenAudioInfo
	.data
	.align 32
	.type	_ZL13stepsizeTable, @object
	.size	_ZL13stepsizeTable, 356
_ZL13stepsizeTable:
	.long	7
	.long	8
	.long	9
	.long	10
	.long	11
	.long	12
	.long	13
	.long	14
	.long	16
	.long	17
	.long	19
	.long	21
	.long	23
	.long	25
	.long	28
	.long	31
	.long	34
	.long	37
	.long	41
	.long	45
	.long	50
	.long	55
	.long	60
	.long	66
	.long	73
	.long	80
	.long	88
	.long	97
	.long	107
	.long	118
	.long	130
	.long	143
	.long	157
	.long	173
	.long	190
	.long	209
	.long	230
	.long	253
	.long	279
	.long	307
	.long	337
	.long	371
	.long	408
	.long	449
	.long	494
	.long	544
	.long	598
	.long	658
	.long	724
	.long	796
	.long	876
	.long	963
	.long	1060
	.long	1166
	.long	1282
	.long	1411
	.long	1552
	.long	1707
	.long	1878
	.long	2066
	.long	2272
	.long	2499
	.long	2749
	.long	3024
	.long	3327
	.long	3660
	.long	4026
	.long	4428
	.long	4871
	.long	5358
	.long	5894
	.long	6484
	.long	7132
	.long	7845
	.long	8630
	.long	9493
	.long	10442
	.long	11487
	.long	12635
	.long	13899
	.long	15289
	.long	16818
	.long	18500
	.long	20350
	.long	22385
	.long	24623
	.long	27086
	.long	29794
	.long	32767
	.align 32
	.type	_ZL6sTable, @object
	.size	_ZL6sTable, 2912
_ZL6sTable:
	.long	-1
	.long	-1
	.long	-1
	.long	-1
	.long	2
	.long	4
	.long	6
	.long	8
	.long	-1
	.long	-1
	.long	-1
	.long	-1
	.long	2
	.long	4
	.long	6
	.long	8
	.long	0
	.zero	2844
	.text
	.align 2
	.globl	_ZN15CIwChannelADPCM4InitEv
	.hidden	_ZN15CIwChannelADPCM4InitEv
	.type	_ZN15CIwChannelADPCM4InitEv, @function
_ZN15CIwChannelADPCM4InitEv:
.LFB1431:
	.loc 3 112 0
	.cfi_startproc
	pushl	%ebp
	.cfi_def_cfa_offset 8
	.cfi_offset 5, -8
	movl	%esp, %ebp
	.cfi_def_cfa_register 5
	pushl	%ebx
	leal	-16(%esp), %esp
	.cfi_offset 3, -12
	call	__x86.get_pc_thunk.bx
	addl	$_GLOBAL_OFFSET_TABLE_, %ebx
.LBB5:
	.loc 3 113 0
	movl	$1, _ZN15CIwChannelADPCM13isInitializedE@GOTOFF(%ebx)
	.loc 3 117 0
	movl	$0, -12(%ebp)
	jmp	.L13
.L16:
	.loc 3 121 0
	movl	$0, -8(%ebp)
	jmp	.L14
.L15:
	.loc 3 123 0 discriminator 2
	movl	-12(%ebp), %eax
	movl	%eax, %edx
	sall	$3, %edx
	movl	-8(%ebp), %eax
	movl	%edx, %ecx
	addl	%eax, %ecx
	movl	-12(%ebp), %eax
	movl	_ZL13stepsizeTable@GOTOFF(%ebx,%eax,4), %eax
	imull	-8(%ebp), %eax
	sarl	$2, %eax
	movl	%eax, %edx
	movl	-12(%ebp), %eax
	movl	_ZL13stepsizeTable@GOTOFF(%ebx,%eax,4), %eax
	sarl	$3, %eax
	addl	%eax, %edx
	leal	16(%ecx), %eax
	movl	%edx, _ZL6sTable@GOTOFF(%ebx,%eax,4)
	.loc 3 121 0 discriminator 2
	addl	$1, -8(%ebp)
.L14:
	.loc 3 121 0 is_stmt 0 discriminator 1
	cmpl	$7, -8(%ebp)
	jle	.L15
	.loc 3 117 0 is_stmt 1
	addl	$1, -12(%ebp)
.L13:
	.loc 3 117 0 is_stmt 0 discriminator 1
	cmpl	$88, -12(%ebp)
	jle	.L16
.LBE5:
	.loc 3 135 0 is_stmt 1
	leal	16(%esp), %esp
	popl	%ebx
	.cfi_restore 3
	popl	%ebp
	.cfi_restore 5
	.cfi_def_cfa 4, 4
	ret
	.cfi_endproc
.LFE1431:
	.size	_ZN15CIwChannelADPCM4InitEv, .-_ZN15CIwChannelADPCM4InitEv
	.section	.rodata
.LC0:
	.string	"SOUND"
	.align 4
.LC1:
	.string	"c:/Marmalade/7.5/examples/GameTutorial/CPP/modules/soundengine/source/IwSoundADPCM.cpp"
.LC2:
	.string	"_index >=0 && _index <= 88"
.LC3:
	.string	"_count == 0"
	.text
	.align 2
	.globl	_ZN15CIwChannelADPCM22GenerateADPCMAudioFastEPsiiiiPi
	.hidden	_ZN15CIwChannelADPCM22GenerateADPCMAudioFastEPsiiiiPi
	.type	_ZN15CIwChannelADPCM22GenerateADPCMAudioFastEPsiiiiPi, @function
_ZN15CIwChannelADPCM22GenerateADPCMAudioFastEPsiiiiPi:
.LFB1432:
	.loc 3 209 0
	.cfi_startproc
	pushl	%ebp
	.cfi_def_cfa_offset 8
	.cfi_offset 5, -8
	movl	%esp, %ebp
	.cfi_def_cfa_register 5
	pushl	%edi
	pushl	%esi
	pushl	%ebx
	leal	-172(%esp), %esp
	.cfi_offset 7, -12
	.cfi_offset 6, -16
	.cfi_offset 3, -20
	call	__x86.get_pc_thunk.bx
	addl	$_GLOBAL_OFFSET_TABLE_, %ebx
.LBB6:
	.loc 3 224 0
	movl	12(%ebp), %eax
	movl	%eax, -88(%ebp)
	.loc 3 225 0
	movl	8(%ebp), %eax
	movl	(%eax), %eax
	movl	%eax, -28(%ebp)
	.loc 3 226 0
	movl	8(%ebp), %eax
	movl	8(%eax), %eax
	movl	%eax, -32(%ebp)
	.loc 3 227 0
	movl	8(%ebp), %eax
	movl	12(%eax), %eax
	movl	%eax, -36(%ebp)
	.loc 3 228 0
	movl	8(%ebp), %eax
	movzwl	16(%eax), %eax
	movw	%ax, -38(%ebp)
	.loc 3 229 0
	movl	8(%ebp), %eax
	movzwl	20(%eax), %eax
	movw	%ax, -40(%ebp)
	.loc 3 230 0
	movl	8(%ebp), %eax
	movzbl	22(%eax), %eax
	movsbl	%al, %eax
	movl	%eax, -44(%ebp)
	.loc 3 231 0
	movl	8(%ebp), %eax
	movzbl	23(%eax), %eax
	movb	%al, -45(%ebp)
	.loc 3 236 0
	cmpl	$0, 16(%ebp)
	jne	.L18
	.loc 3 237 0
	movl	28(%ebp), %eax
	jmp	.L19
.L18:
.LBB7:
	.loc 3 238 0
	cmpl	$7, 24(%ebp)
	jg	.L20
.LBB8:
	.loc 3 240 0
	movl	16(%ebp), %eax
	movl	%eax, -52(%ebp)
	.loc 3 241 0
	cmpl	$0, 28(%ebp)
	jne	.L21
	.loc 3 243 0
	jmp	.L22
.L23:
	.loc 3 244 0
	movl	12(%ebp), %eax
	movl	%eax, %edx
	addl	$2, %edx
	movl	%edx, 12(%ebp)
	movw	$0, (%eax)
.L22:
	.loc 3 243 0 discriminator 1
	movl	-52(%ebp), %eax
	movl	%eax, %edx
	subl	$1, %edx
	movl	%edx, -52(%ebp)
	testl	%eax, %eax
	setne	%al
	testb	%al, %al
	jne	.L23
	jmp	.L24
.L21:
	.loc 3 248 0
	movl	-52(%ebp), %eax
	addl	%eax, %eax
	addl	%eax, 12(%ebp)
.L24:
.LBB9:
	.loc 3 251 0
	movl	-36(%ebp), %eax
	andl	$1, %eax
	testl	%eax, %eax
	je	.L25
	.loc 3 251 0 is_stmt 0 discriminator 1
	nop
.L26:
	.loc 3 257 0 is_stmt 1 discriminator 1
	jmp	.L28
.L25:
	.loc 3 252 0
	jmp	.L27
.L33:
	.loc 3 254 0
	subl	$1, -36(%ebp)
	.loc 3 255 0
	addl	$4096, -32(%ebp)
	.loc 3 257 0
	jmp	.L28
.L30:
	.loc 3 259 0
	movl	20(%ebp), %eax
	subl	%eax, -32(%ebp)
	.loc 3 260 0
	subl	$1, 16(%ebp)
	cmpl	$0, 16(%ebp)
	sete	%al
	testb	%al, %al
	je	.L28
	.loc 3 261 0
	jmp	.L29
.L28:
	.loc 3 257 0 discriminator 1
	movl	-32(%ebp), %eax
	cmpl	20(%ebp), %eax
	jge	.L30
	.loc 3 263 0
	subl	$1, -36(%ebp)
	.loc 3 264 0
	addl	$1, -28(%ebp)
	.loc 3 265 0
	addl	$4096, -32(%ebp)
	.loc 3 266 0
	jmp	.L31
.L32:
	.loc 3 268 0
	movl	20(%ebp), %eax
	subl	%eax, -32(%ebp)
	.loc 3 269 0
	subl	$1, 16(%ebp)
	cmpl	$0, 16(%ebp)
	sete	%al
	testb	%al, %al
	je	.L31
	.loc 3 270 0
	jmp	.L29
.L31:
	.loc 3 266 0 discriminator 1
	movl	-32(%ebp), %eax
	cmpl	20(%ebp), %eax
	jge	.L32
.L27:
	.loc 3 252 0 discriminator 1
	cmpl	$0, -36(%ebp)
	jne	.L33
	.loc 3 273 0
	movl	8(%ebp), %eax
	movl	4(%eax), %eax
	cmpl	-28(%ebp), %eax
	ja	.L34
	.loc 3 275 0
	movl	32(%ebp), %eax
	movl	$1, (%eax)
	.loc 3 276 0
	movl	$0, -28(%ebp)
	.loc 3 277 0
	jmp	.L29
.L34:
.LBB10:
	.loc 3 281 0
	movl	8(%ebp), %eax
	movl	36(%eax), %eax
	testl	%eax, %eax
	jne	.L35
	.loc 3 283 0
	movl	-28(%ebp), %eax
	movl	%eax, -56(%ebp)
	jmp	.L36
.L35:
	.loc 3 287 0
	movl	8(%ebp), %eax
	movl	36(%eax), %edx
	movl	8(%ebp), %eax
	movl	28(%eax), %eax
	addl	%edx, %eax
	movl	%eax, -56(%ebp)
.L36:
	.loc 3 290 0
	movl	8(%ebp), %eax
	movl	-56(%ebp), %edx
	movl	%edx, 36(%eax)
	.loc 3 291 0
	movl	8(%ebp), %eax
	movl	24(%eax), %eax
	subl	$1, %eax
	movl	%eax, -36(%ebp)
	.loc 3 292 0
	movl	8(%ebp), %eax
	movl	28(%eax), %eax
	movl	%eax, %edx
	movl	-56(%ebp), %eax
	addl	%eax, %edx
	movl	8(%ebp), %eax
	movl	4(%eax), %eax
	cmpl	%eax, %edx
	jbe	.L37
	.loc 3 294 0
	movl	8(%ebp), %eax
	movl	4(%eax), %eax
	movl	%eax, %edx
	movl	-56(%ebp), %eax
	subl	%eax, %edx
	movl	%edx, %eax
	subl	$4, %eax
	addl	%eax, %eax
	movl	%eax, -36(%ebp)
.L37:
	.loc 3 296 0
	movl	-56(%ebp), %eax
	addl	$4, %eax
	movl	%eax, -28(%ebp)
	.loc 3 297 0
	movl	-56(%ebp), %eax
	movzwl	(%eax), %eax
	movw	%ax, -40(%ebp)
	.loc 3 298 0
	movl	-56(%ebp), %eax
	movzbl	2(%eax), %eax
	movzbl	%al, %eax
	movl	%eax, -44(%ebp)
	.loc 3 299 0
	movb	$0, -45(%ebp)
	.loc 3 300 0
	movl	8(%ebp), %eax
	movl	32(%eax), %edx
	movl	8(%ebp), %eax
	movl	24(%eax), %eax
	subl	%eax, %edx
	movl	8(%ebp), %eax
	movl	%edx, 32(%eax)
.LBE10:
.LBE9:
	.loc 3 303 0
	jmp	.L24
.L20:
.LBE8:
.LBE7:
.LBB11:
	.loc 3 307 0
	cmpl	$0, 28(%ebp)
	je	.L38
.L84:
.LBB12:
.LBB13:
.LBB14:
	.loc 3 310 0
	cmpl	$0, -36(%ebp)
	je	.L39
.LBB15:
	.loc 3 314 0
	movl	-36(%ebp), %eax
	andl	$1, %eax
	testl	%eax, %eax
	je	.L40
	.loc 3 316 0
	movl	-28(%ebp), %eax
	movzbl	(%eax), %esi
	.loc 3 317 0
	nop
.L41:
.LBB16:
	.loc 3 342 0
	jmp	.L55
.L40:
.LBB17:
	.loc 3 321 0
	movl	-28(%ebp), %eax
	movzbl	(%eax), %esi
	.loc 3 322 0
	subl	$1, -36(%ebp)
.LBB18:
.LBB19:
	.loc 3 323 0
	cmpl	$0, -44(%ebp)
	js	.L42
	.loc 3 323 0 is_stmt 0 discriminator 2
	cmpl	$88, -44(%ebp)
	jle	.L43
.L42:
	.loc 3 323 0 discriminator 1
	leal	.LC0@GOTOFF(%ebx), %eax
	movl	%eax, (%esp)
	call	IwDebugAssertIsChannelOn@PLT
	testb	%al, %al
	je	.L43
	movzbl	_ZZN15CIwChannelADPCM22GenerateADPCMAudioFastEPsiiiiPiE21_s_IwAssertIgnoreThis@GOTOFF(%ebx), %eax
	testb	%al, %al
	jne	.L43
	.loc 3 323 0 discriminator 3
	movl	$1, %eax
	jmp	.L44
.L43:
	.loc 3 323 0 discriminator 1
	movl	$0, %eax
.L44:
	.loc 3 323 0 discriminator 4
	testb	%al, %al
	je	.L45
	.loc 3 323 0 discriminator 1
	movl	$0, (%esp)
	call	IwDebugAssertSetSolution@PLT
	movl	$0, (%esp)
	call	IwDebugAssertSetUID@PLT
	movl	$0, (%esp)
	call	IwDebugAssertSetMessage@PLT
	movl	$1, 12(%esp)
	movl	$323, 8(%esp)
	leal	.LC1@GOTOFF(%ebx), %eax
	movl	%eax, 4(%esp)
	leal	.LC2@GOTOFF(%ebx), %eax
	movl	%eax, (%esp)
	call	IwDebugAssertShow@PLT
	cmpl	$1, %eax
	je	.L47
	cmpl	$2, %eax
	je	.L48
	.loc 3 323 0
	jmp	.L46
.L47:
	.loc 3 323 0 discriminator 2
	call	s3eDebugIsDebuggerPresent@PLT
	testb	%al, %al
	setne	%al
	testb	%al, %al
	je	.L49
	.loc 3 323 0 discriminator 1
	call	s3eDebugIsDebuggerPresent@PLT
	testb	%al, %al
	setne	%al
	testb	%al, %al
	je	.L50
#APP
# 323 "c:/Marmalade/7.5/examples/GameTutorial/CPP/modules/soundengine/source/IwSoundADPCM.cpp" 1
	 int $3 
# 0 "" 2
#NO_APP
	jmp	.L50
.L49:
	.loc 3 323 0 discriminator 2
	call	_ZL11IwDebugExitv
	jmp	.L46
.L50:
	.loc 3 323 0 discriminator 1
	jmp	.L46
.L48:
	.loc 3 323 0 discriminator 3
	movb	$1, _ZZN15CIwChannelADPCM22GenerateADPCMAudioFastEPsiiiiPiE21_s_IwAssertIgnoreThis@GOTOFF(%ebx)
	nop
.L46:
	.loc 3 323 0 discriminator 1
	movl	$0, (%esp)
	call	IwDebugAssertSetUID@PLT
.L45:
.LBE19:
.LBE18:
	.loc 3 324 0 is_stmt 1
	movl	%esi, %eax
	movzbl	%al, %eax
	andl	$7, %eax
	movl	%eax, -120(%ebp)
	.loc 3 325 0
	movl	-44(%ebp), %eax
	movl	%eax, %edx
	sall	$3, %edx
	movl	-120(%ebp), %eax
	addl	%edx, %eax
	leal	16(%eax), %eax
	movl	_ZL6sTable@GOTOFF(%ebx,%eax,4), %eax
	movl	%eax, -124(%ebp)
	.loc 3 326 0
	movl	-120(%ebp), %eax
	movl	_ZL6sTable@GOTOFF(%ebx,%eax,4), %eax
	movl	%eax, -128(%ebp)
	.loc 3 328 0
	movl	%esi, %eax
	movzbl	%al, %eax
	andl	$8, %eax
	testl	%eax, %eax
	je	.L51
	.loc 3 329 0
	movswl	-40(%ebp), %eax
	subl	-124(%ebp), %eax
	movl	%eax, -60(%ebp)
	jmp	.L52
.L51:
	.loc 3 331 0
	movswl	-40(%ebp), %edx
	movl	-124(%ebp), %eax
	addl	%edx, %eax
	movl	%eax, -60(%ebp)
.L52:
	.loc 3 333 0
	movl	-128(%ebp), %eax
	addl	%eax, -44(%ebp)
	.loc 3 334 0
	cmpl	$0, -44(%ebp)
	jns	.L53
	.loc 3 334 0 is_stmt 0 discriminator 1
	movl	$0, -44(%ebp)
	jmp	.L54
.L53:
	.loc 3 335 0 is_stmt 1
	cmpl	$88, -44(%ebp)
	jle	.L54
	.loc 3 335 0 is_stmt 0 discriminator 1
	movl	$88, -44(%ebp)
.L54:
	.loc 3 337 0 is_stmt 1
	movzwl	-40(%ebp), %eax
	movw	%ax, -38(%ebp)
	.loc 3 338 0
	movl	-60(%ebp), %eax
	movl	%eax, (%esp)
	call	_ZN13CIwChannelPCMItE13clip_to_int16Ei
	movw	%ax, -40(%ebp)
.LBE17:
	.loc 3 340 0
	addl	$4096, -32(%ebp)
	.loc 3 342 0
	jmp	.L55
.L56:
.LBB20:
	.loc 3 344 0
	movl	20(%ebp), %eax
	subl	%eax, -32(%ebp)
	.loc 3 345 0
	movswl	-38(%ebp), %edx
	movswl	-40(%ebp), %eax
	subl	%eax, %edx
	movl	%edx, %eax
	imull	-32(%ebp), %eax
	movl	%eax, -92(%ebp)
	.loc 3 346 0
	movl	12(%ebp), %eax
	movzwl	(%eax), %eax
	cwtl
	movl	%eax, -96(%ebp)
	.loc 3 347 0
	movswl	-40(%ebp), %eax
	movl	-92(%ebp), %edx
	sarl	$12, %edx
	addl	%edx, %eax
	movl	%eax, -92(%ebp)
	.loc 3 348 0
	movl	-92(%ebp), %eax
	imull	24(%ebp), %eax
	movl	%eax, -92(%ebp)
	.loc 3 349 0
	subl	$1, 16(%ebp)
	.loc 3 350 0
	movl	12(%ebp), %edi
	movl	%edi, %eax
	addl	$2, %eax
	movl	%eax, 12(%ebp)
	movl	-92(%ebp), %eax
	sarl	$8, %eax
	movl	%eax, %edx
	movl	-96(%ebp), %eax
	addl	%edx, %eax
	movl	%eax, (%esp)
	call	_ZN13CIwChannelPCMItE13clip_to_int16Ei
	movw	%ax, (%edi)
	.loc 3 351 0
	cmpl	$0, 16(%ebp)
	jne	.L55
	.loc 3 352 0
	jmp	.L29
.L55:
.LBE20:
	.loc 3 342 0 discriminator 1
	movl	-32(%ebp), %eax
	cmpl	20(%ebp), %eax
	jge	.L56
.LBB21:
.LBB22:
	.loc 3 354 0
	cmpl	$0, -44(%ebp)
	js	.L57
	.loc 3 354 0 is_stmt 0 discriminator 2
	cmpl	$88, -44(%ebp)
	jle	.L58
.L57:
	.loc 3 354 0 discriminator 1
	leal	.LC0@GOTOFF(%ebx), %eax
	movl	%eax, (%esp)
	call	IwDebugAssertIsChannelOn@PLT
	testb	%al, %al
	je	.L58
	movzbl	_ZZN15CIwChannelADPCM22GenerateADPCMAudioFastEPsiiiiPiE21_s_IwAssertIgnoreThis_0@GOTOFF(%ebx), %eax
	testb	%al, %al
	jne	.L58
	.loc 3 354 0 discriminator 3
	movl	$1, %eax
	jmp	.L59
.L58:
	.loc 3 354 0 discriminator 1
	movl	$0, %eax
.L59:
	.loc 3 354 0 discriminator 4
	testb	%al, %al
	je	.L60
	.loc 3 354 0 discriminator 1
	movl	$0, (%esp)
	call	IwDebugAssertSetSolution@PLT
	movl	$0, (%esp)
	call	IwDebugAssertSetUID@PLT
	movl	$0, (%esp)
	call	IwDebugAssertSetMessage@PLT
	movl	$1, 12(%esp)
	movl	$354, 8(%esp)
	leal	.LC1@GOTOFF(%ebx), %eax
	movl	%eax, 4(%esp)
	leal	.LC2@GOTOFF(%ebx), %eax
	movl	%eax, (%esp)
	call	IwDebugAssertShow@PLT
	cmpl	$1, %eax
	je	.L62
	cmpl	$2, %eax
	je	.L63
	.loc 3 354 0
	jmp	.L61
.L62:
	.loc 3 354 0 discriminator 2
	call	s3eDebugIsDebuggerPresent@PLT
	testb	%al, %al
	setne	%al
	testb	%al, %al
	je	.L64
	.loc 3 354 0 discriminator 1
	call	s3eDebugIsDebuggerPresent@PLT
	testb	%al, %al
	setne	%al
	testb	%al, %al
	je	.L65
#APP
# 354 "c:/Marmalade/7.5/examples/GameTutorial/CPP/modules/soundengine/source/IwSoundADPCM.cpp" 1
	 int $3 
# 0 "" 2
#NO_APP
	jmp	.L65
.L64:
	.loc 3 354 0 discriminator 2
	call	_ZL11IwDebugExitv
	jmp	.L61
.L65:
	.loc 3 354 0 discriminator 1
	jmp	.L61
.L63:
	.loc 3 354 0 discriminator 3
	movb	$1, _ZZN15CIwChannelADPCM22GenerateADPCMAudioFastEPsiiiiPiE21_s_IwAssertIgnoreThis_0@GOTOFF(%ebx)
	nop
.L61:
	.loc 3 354 0 discriminator 1
	movl	$0, (%esp)
	call	IwDebugAssertSetUID@PLT
.L60:
.LBE22:
.LBE21:
	.loc 3 355 0 is_stmt 1
	movl	%esi, %eax
	movzbl	%al, %eax
	sarl	$4, %eax
	movl	%eax, %esi
	.loc 3 356 0
	movl	%esi, %eax
	movzbl	%al, %eax
	andl	$7, %eax
	movl	%eax, -100(%ebp)
	.loc 3 357 0
	movl	-44(%ebp), %eax
	movl	%eax, %edx
	sall	$3, %edx
	movl	-100(%ebp), %eax
	addl	%edx, %eax
	leal	16(%eax), %eax
	movl	_ZL6sTable@GOTOFF(%ebx,%eax,4), %eax
	movl	%eax, -104(%ebp)
	.loc 3 358 0
	subl	$1, -36(%ebp)
	.loc 3 359 0
	movl	-100(%ebp), %eax
	movl	_ZL6sTable@GOTOFF(%ebx,%eax,4), %eax
	movl	%eax, -108(%ebp)
	.loc 3 360 0
	addl	$1, -28(%ebp)
	.loc 3 362 0
	movl	%esi, %eax
	movzbl	%al, %eax
	andl	$8, %eax
	testl	%eax, %eax
	je	.L66
	.loc 3 363 0
	movswl	-40(%ebp), %eax
	subl	-104(%ebp), %eax
	movl	%eax, -64(%ebp)
	jmp	.L67
.L66:
	.loc 3 365 0
	movswl	-40(%ebp), %edx
	movl	-104(%ebp), %eax
	addl	%edx, %eax
	movl	%eax, -64(%ebp)
.L67:
	.loc 3 367 0
	movl	-108(%ebp), %eax
	addl	%eax, -44(%ebp)
	.loc 3 369 0
	cmpl	$0, -44(%ebp)
	jns	.L68
	.loc 3 369 0 is_stmt 0 discriminator 1
	movl	$0, -44(%ebp)
	jmp	.L69
.L68:
	.loc 3 370 0 is_stmt 1
	cmpl	$88, -44(%ebp)
	jle	.L69
	.loc 3 370 0 is_stmt 0 discriminator 1
	movl	$88, -44(%ebp)
.L69:
	.loc 3 372 0 is_stmt 1
	movzwl	-40(%ebp), %eax
	movw	%ax, -38(%ebp)
	.loc 3 373 0
	movl	-64(%ebp), %eax
	movl	%eax, (%esp)
	call	_ZN13CIwChannelPCMItE13clip_to_int16Ei
	movw	%ax, -40(%ebp)
	.loc 3 374 0
	addl	$4096, -32(%ebp)
	.loc 3 375 0
	jmp	.L70
.L71:
.LBB23:
	.loc 3 377 0
	movl	20(%ebp), %eax
	subl	%eax, -32(%ebp)
	.loc 3 378 0
	movswl	-38(%ebp), %edx
	movswl	-40(%ebp), %eax
	subl	%eax, %edx
	movl	%edx, %eax
	imull	-32(%ebp), %eax
	movl	%eax, -112(%ebp)
	.loc 3 379 0
	movl	12(%ebp), %eax
	movzwl	(%eax), %eax
	cwtl
	movl	%eax, -116(%ebp)
	.loc 3 380 0
	movswl	-40(%ebp), %eax
	movl	-112(%ebp), %edx
	sarl	$12, %edx
	addl	%edx, %eax
	movl	%eax, -112(%ebp)
	.loc 3 381 0
	movl	-112(%ebp), %eax
	imull	24(%ebp), %eax
	movl	%eax, -112(%ebp)
	.loc 3 382 0
	subl	$1, 16(%ebp)
	.loc 3 383 0
	movl	12(%ebp), %esi
	movl	%esi, %eax
	addl	$2, %eax
	movl	%eax, 12(%ebp)
	movl	-112(%ebp), %eax
	sarl	$8, %eax
	movl	%eax, %edx
	movl	-116(%ebp), %eax
	addl	%edx, %eax
	movl	%eax, (%esp)
	call	_ZN13CIwChannelPCMItE13clip_to_int16Ei
	movw	%ax, (%esi)
	.loc 3 384 0
	cmpl	$0, 16(%ebp)
	jne	.L70
	.loc 3 385 0
	jmp	.L29
.L70:
.LBE23:
	.loc 3 375 0 discriminator 1
	movl	-32(%ebp), %eax
	cmpl	20(%ebp), %eax
	jge	.L71
.LBE16:
	.loc 3 319 0
	cmpl	$0, -36(%ebp)
	jg	.L40
.L39:
.LBE15:
.LBE14:
	.loc 3 391 0
	movl	8(%ebp), %eax
	movl	4(%eax), %eax
	cmpl	-28(%ebp), %eax
	ja	.L72
	.loc 3 393 0
	movl	32(%ebp), %eax
	movl	$1, (%eax)
	.loc 3 394 0
	movl	$0, -28(%ebp)
	.loc 3 395 0
	jmp	.L29
.L72:
.LBB24:
.LBB25:
	.loc 3 398 0
	cmpl	$0, -36(%ebp)
	je	.L73
	.loc 3 398 0 is_stmt 0 discriminator 1
	leal	.LC0@GOTOFF(%ebx), %eax
	movl	%eax, (%esp)
	call	IwDebugAssertIsChannelOn@PLT
	testb	%al, %al
	je	.L73
	movzbl	_ZZN15CIwChannelADPCM22GenerateADPCMAudioFastEPsiiiiPiE21_s_IwAssertIgnoreThis_1@GOTOFF(%ebx), %eax
	testb	%al, %al
	jne	.L73
	.loc 3 398 0 discriminator 3
	movl	$1, %eax
	jmp	.L74
.L73:
	.loc 3 398 0 discriminator 2
	movl	$0, %eax
.L74:
	.loc 3 398 0 discriminator 4
	testb	%al, %al
	je	.L75
	.loc 3 398 0 discriminator 1
	movl	$0, (%esp)
	call	IwDebugAssertSetSolution@PLT
	movl	$0, (%esp)
	call	IwDebugAssertSetUID@PLT
	movl	$0, (%esp)
	call	IwDebugAssertSetMessage@PLT
	movl	$1, 12(%esp)
	movl	$398, 8(%esp)
	leal	.LC1@GOTOFF(%ebx), %eax
	movl	%eax, 4(%esp)
	leal	.LC3@GOTOFF(%ebx), %eax
	movl	%eax, (%esp)
	call	IwDebugAssertShow@PLT
	cmpl	$1, %eax
	je	.L77
	cmpl	$2, %eax
	je	.L78
	.loc 3 398 0
	jmp	.L76
.L77:
	.loc 3 398 0 discriminator 2
	call	s3eDebugIsDebuggerPresent@PLT
	testb	%al, %al
	setne	%al
	testb	%al, %al
	je	.L79
	.loc 3 398 0 discriminator 1
	call	s3eDebugIsDebuggerPresent@PLT
	testb	%al, %al
	setne	%al
	testb	%al, %al
	je	.L80
#APP
# 398 "c:/Marmalade/7.5/examples/GameTutorial/CPP/modules/soundengine/source/IwSoundADPCM.cpp" 1
	 int $3 
# 0 "" 2
#NO_APP
	jmp	.L80
.L79:
	.loc 3 398 0 discriminator 2
	call	_ZL11IwDebugExitv
	jmp	.L76
.L80:
	.loc 3 398 0 discriminator 1
	jmp	.L76
.L78:
	.loc 3 398 0 discriminator 3
	movb	$1, _ZZN15CIwChannelADPCM22GenerateADPCMAudioFastEPsiiiiPiE21_s_IwAssertIgnoreThis_1@GOTOFF(%ebx)
	nop
.L76:
	.loc 3 398 0 discriminator 1
	movl	$0, (%esp)
	call	IwDebugAssertSetUID@PLT
.L75:
.LBE25:
.LBE24:
.LBB26:
	.loc 3 401 0 is_stmt 1
	movl	8(%ebp), %eax
	movl	36(%eax), %eax
	testl	%eax, %eax
	jne	.L81
	.loc 3 403 0
	movl	-28(%ebp), %eax
	movl	%eax, -68(%ebp)
	jmp	.L82
.L81:
	.loc 3 407 0
	movl	8(%ebp), %eax
	movl	36(%eax), %edx
	movl	8(%ebp), %eax
	movl	28(%eax), %eax
	addl	%edx, %eax
	movl	%eax, -68(%ebp)
.L82:
	.loc 3 410 0
	movl	8(%ebp), %eax
	movl	-68(%ebp), %edx
	movl	%edx, 36(%eax)
	.loc 3 411 0
	movl	8(%ebp), %eax
	movl	24(%eax), %eax
	subl	$1, %eax
	movl	%eax, -36(%ebp)
	.loc 3 412 0
	movl	8(%ebp), %eax
	movl	28(%eax), %eax
	movl	%eax, %edx
	movl	-68(%ebp), %eax
	addl	%eax, %edx
	movl	8(%ebp), %eax
	movl	4(%eax), %eax
	cmpl	%eax, %edx
	jbe	.L83
	.loc 3 414 0
	movl	8(%ebp), %eax
	movl	4(%eax), %eax
	movl	%eax, %edx
	movl	-68(%ebp), %eax
	subl	%eax, %edx
	movl	%edx, %eax
	subl	$4, %eax
	addl	%eax, %eax
	movl	%eax, -36(%ebp)
.L83:
	.loc 3 416 0
	movl	-68(%ebp), %eax
	addl	$4, %eax
	movl	%eax, -28(%ebp)
	.loc 3 417 0
	movl	-68(%ebp), %eax
	movzwl	(%eax), %eax
	movw	%ax, -40(%ebp)
	.loc 3 418 0
	movl	-68(%ebp), %eax
	movzbl	2(%eax), %eax
	movzbl	%al, %eax
	movl	%eax, -44(%ebp)
	.loc 3 419 0
	movb	$0, -45(%ebp)
	.loc 3 420 0
	movl	8(%ebp), %eax
	movl	32(%eax), %edx
	movl	8(%ebp), %eax
	movl	24(%eax), %eax
	subl	%eax, %edx
	movl	8(%ebp), %eax
	movl	%edx, 32(%eax)
.LBE26:
.LBE13:
	.loc 3 422 0
	jmp	.L84
.L38:
.LBE12:
.LBB27:
.LBB28:
.LBB29:
	.loc 3 427 0
	cmpl	$0, -36(%ebp)
	je	.L85
.LBB30:
	.loc 3 430 0
	movl	-36(%ebp), %eax
	andl	$1, %eax
	testl	%eax, %eax
	je	.L86
	.loc 3 432 0
	movl	-28(%ebp), %eax
	movzbl	(%eax), %eax
	movb	%al, -69(%ebp)
	.loc 3 433 0
	nop
.L87:
.LBB31:
	.loc 3 460 0
	jmp	.L101
.L86:
.LBB32:
	.loc 3 437 0
	movl	-28(%ebp), %eax
	movzbl	(%eax), %eax
	movb	%al, -69(%ebp)
	.loc 3 438 0
	subl	$1, -36(%ebp)
.LBB33:
.LBB34:
	.loc 3 439 0
	cmpl	$0, -44(%ebp)
	js	.L88
	.loc 3 439 0 is_stmt 0 discriminator 2
	cmpl	$88, -44(%ebp)
	jle	.L89
.L88:
	.loc 3 439 0 discriminator 1
	leal	.LC0@GOTOFF(%ebx), %eax
	movl	%eax, (%esp)
	call	IwDebugAssertIsChannelOn@PLT
	testb	%al, %al
	je	.L89
	movzbl	_ZZN15CIwChannelADPCM22GenerateADPCMAudioFastEPsiiiiPiE21_s_IwAssertIgnoreThis_2@GOTOFF(%ebx), %eax
	testb	%al, %al
	jne	.L89
	.loc 3 439 0 discriminator 3
	movl	$1, %eax
	jmp	.L90
.L89:
	.loc 3 439 0 discriminator 1
	movl	$0, %eax
.L90:
	.loc 3 439 0 discriminator 4
	testb	%al, %al
	je	.L91
	.loc 3 439 0 discriminator 1
	movl	$0, (%esp)
	call	IwDebugAssertSetSolution@PLT
	movl	$0, (%esp)
	call	IwDebugAssertSetUID@PLT
	movl	$0, (%esp)
	call	IwDebugAssertSetMessage@PLT
	movl	$1, 12(%esp)
	movl	$439, 8(%esp)
	leal	.LC1@GOTOFF(%ebx), %eax
	movl	%eax, 4(%esp)
	leal	.LC2@GOTOFF(%ebx), %eax
	movl	%eax, (%esp)
	call	IwDebugAssertShow@PLT
	cmpl	$1, %eax
	je	.L93
	cmpl	$2, %eax
	je	.L94
	.loc 3 439 0
	jmp	.L92
.L93:
	.loc 3 439 0 discriminator 2
	call	s3eDebugIsDebuggerPresent@PLT
	testb	%al, %al
	setne	%al
	testb	%al, %al
	je	.L95
	.loc 3 439 0 discriminator 1
	call	s3eDebugIsDebuggerPresent@PLT
	testb	%al, %al
	setne	%al
	testb	%al, %al
	je	.L96
#APP
# 439 "c:/Marmalade/7.5/examples/GameTutorial/CPP/modules/soundengine/source/IwSoundADPCM.cpp" 1
	 int $3 
# 0 "" 2
#NO_APP
	jmp	.L96
.L95:
	.loc 3 439 0 discriminator 2
	call	_ZL11IwDebugExitv
	jmp	.L92
.L96:
	.loc 3 439 0 discriminator 1
	jmp	.L92
.L94:
	.loc 3 439 0 discriminator 3
	movb	$1, _ZZN15CIwChannelADPCM22GenerateADPCMAudioFastEPsiiiiPiE21_s_IwAssertIgnoreThis_2@GOTOFF(%ebx)
	nop
.L92:
	.loc 3 439 0 discriminator 1
	movl	$0, (%esp)
	call	IwDebugAssertSetUID@PLT
.L91:
.LBE34:
.LBE33:
	.loc 3 440 0 is_stmt 1
	movzbl	-69(%ebp), %eax
	andl	$7, %eax
	movl	%eax, -152(%ebp)
	.loc 3 441 0
	movl	-44(%ebp), %eax
	movl	%eax, %edx
	sall	$3, %edx
	movl	-152(%ebp), %eax
	addl	%edx, %eax
	leal	16(%eax), %eax
	movl	_ZL6sTable@GOTOFF(%ebx,%eax,4), %eax
	movl	%eax, -156(%ebp)
	.loc 3 442 0
	movl	-152(%ebp), %eax
	movl	_ZL6sTable@GOTOFF(%ebx,%eax,4), %eax
	movl	%eax, -160(%ebp)
	.loc 3 444 0
	movzbl	-69(%ebp), %eax
	andl	$8, %eax
	testl	%eax, %eax
	je	.L97
	.loc 3 445 0
	movswl	-40(%ebp), %eax
	subl	-156(%ebp), %eax
	movl	%eax, -76(%ebp)
	jmp	.L98
.L97:
	.loc 3 447 0
	movswl	-40(%ebp), %edx
	movl	-156(%ebp), %eax
	addl	%edx, %eax
	movl	%eax, -76(%ebp)
.L98:
	.loc 3 449 0
	movl	-160(%ebp), %eax
	addl	%eax, -44(%ebp)
	.loc 3 451 0
	cmpl	$0, -44(%ebp)
	jns	.L99
	.loc 3 451 0 is_stmt 0 discriminator 1
	movl	$0, -44(%ebp)
	jmp	.L100
.L99:
	.loc 3 452 0 is_stmt 1
	cmpl	$88, -44(%ebp)
	jle	.L100
	.loc 3 452 0 is_stmt 0 discriminator 1
	movl	$88, -44(%ebp)
.L100:
	.loc 3 454 0 is_stmt 1
	movzwl	-40(%ebp), %eax
	movw	%ax, -38(%ebp)
	.loc 3 455 0
	movl	-76(%ebp), %eax
	movl	%eax, (%esp)
	call	_ZN13CIwChannelPCMItE13clip_to_int16Ei
	movw	%ax, -40(%ebp)
.LBE32:
	.loc 3 458 0
	addl	$4096, -32(%ebp)
	.loc 3 460 0
	jmp	.L101
.L102:
.LBB35:
	.loc 3 463 0
	movl	20(%ebp), %eax
	subl	%eax, -32(%ebp)
	.loc 3 464 0
	movswl	-40(%ebp), %eax
	movswl	-38(%ebp), %ecx
	movswl	-40(%ebp), %edx
	subl	%edx, %ecx
	movl	%ecx, %edx
	imull	-32(%ebp), %edx
	sarl	$12, %edx
	addl	%edx, %eax
	movl	%eax, -132(%ebp)
	.loc 3 465 0
	movl	12(%ebp), %eax
	movl	%eax, %edx
	addl	$2, %edx
	movl	%edx, 12(%ebp)
	movl	-132(%ebp), %edx
	imull	24(%ebp), %edx
	sarl	$8, %edx
	movw	%dx, (%eax)
	.loc 3 466 0
	subl	$1, 16(%ebp)
	.loc 3 467 0
	cmpl	$0, 16(%ebp)
	jne	.L101
	.loc 3 468 0
	jmp	.L29
.L101:
.LBE35:
	.loc 3 460 0 discriminator 1
	movl	-32(%ebp), %eax
	cmpl	20(%ebp), %eax
	jge	.L102
.LBB36:
.LBB37:
	.loc 3 471 0
	cmpl	$0, -44(%ebp)
	js	.L103
	.loc 3 471 0 is_stmt 0 discriminator 2
	cmpl	$88, -44(%ebp)
	jle	.L104
.L103:
	.loc 3 471 0 discriminator 1
	leal	.LC0@GOTOFF(%ebx), %eax
	movl	%eax, (%esp)
	call	IwDebugAssertIsChannelOn@PLT
	testb	%al, %al
	je	.L104
	movzbl	_ZZN15CIwChannelADPCM22GenerateADPCMAudioFastEPsiiiiPiE21_s_IwAssertIgnoreThis_3@GOTOFF(%ebx), %eax
	testb	%al, %al
	jne	.L104
	.loc 3 471 0 discriminator 3
	movl	$1, %eax
	jmp	.L105
.L104:
	.loc 3 471 0 discriminator 1
	movl	$0, %eax
.L105:
	.loc 3 471 0 discriminator 4
	testb	%al, %al
	je	.L106
	.loc 3 471 0 discriminator 1
	movl	$0, (%esp)
	call	IwDebugAssertSetSolution@PLT
	movl	$0, (%esp)
	call	IwDebugAssertSetUID@PLT
	movl	$0, (%esp)
	call	IwDebugAssertSetMessage@PLT
	movl	$1, 12(%esp)
	movl	$471, 8(%esp)
	leal	.LC1@GOTOFF(%ebx), %eax
	movl	%eax, 4(%esp)
	leal	.LC2@GOTOFF(%ebx), %eax
	movl	%eax, (%esp)
	call	IwDebugAssertShow@PLT
	cmpl	$1, %eax
	je	.L108
	cmpl	$2, %eax
	je	.L109
	.loc 3 471 0
	jmp	.L107
.L108:
	.loc 3 471 0 discriminator 2
	call	s3eDebugIsDebuggerPresent@PLT
	testb	%al, %al
	setne	%al
	testb	%al, %al
	je	.L110
	.loc 3 471 0 discriminator 1
	call	s3eDebugIsDebuggerPresent@PLT
	testb	%al, %al
	setne	%al
	testb	%al, %al
	je	.L111
#APP
# 471 "c:/Marmalade/7.5/examples/GameTutorial/CPP/modules/soundengine/source/IwSoundADPCM.cpp" 1
	 int $3 
# 0 "" 2
#NO_APP
	jmp	.L111
.L110:
	.loc 3 471 0 discriminator 2
	call	_ZL11IwDebugExitv
	jmp	.L107
.L111:
	.loc 3 471 0 discriminator 1
	jmp	.L107
.L109:
	.loc 3 471 0 discriminator 3
	movb	$1, _ZZN15CIwChannelADPCM22GenerateADPCMAudioFastEPsiiiiPiE21_s_IwAssertIgnoreThis_3@GOTOFF(%ebx)
	nop
.L107:
	.loc 3 471 0 discriminator 1
	movl	$0, (%esp)
	call	IwDebugAssertSetUID@PLT
.L106:
.LBE37:
.LBE36:
	.loc 3 472 0 is_stmt 1
	movzbl	-69(%ebp), %eax
	sarl	$4, %eax
	movb	%al, -69(%ebp)
	.loc 3 473 0
	movzbl	-69(%ebp), %eax
	andl	$7, %eax
	movl	%eax, -136(%ebp)
	.loc 3 474 0
	movl	-44(%ebp), %eax
	movl	%eax, %edx
	sall	$3, %edx
	movl	-136(%ebp), %eax
	addl	%edx, %eax
	leal	16(%eax), %eax
	movl	_ZL6sTable@GOTOFF(%ebx,%eax,4), %eax
	movl	%eax, -140(%ebp)
	.loc 3 475 0
	subl	$1, -36(%ebp)
	.loc 3 476 0
	movl	-136(%ebp), %eax
	movl	_ZL6sTable@GOTOFF(%ebx,%eax,4), %eax
	movl	%eax, -144(%ebp)
	.loc 3 477 0
	addl	$1, -28(%ebp)
	.loc 3 479 0
	movzbl	-69(%ebp), %eax
	andl	$8, %eax
	testl	%eax, %eax
	je	.L112
	.loc 3 480 0
	movswl	-40(%ebp), %eax
	subl	-140(%ebp), %eax
	movl	%eax, -80(%ebp)
	jmp	.L113
.L112:
	.loc 3 482 0
	movswl	-40(%ebp), %edx
	movl	-140(%ebp), %eax
	addl	%edx, %eax
	movl	%eax, -80(%ebp)
.L113:
	.loc 3 484 0
	movl	-144(%ebp), %eax
	addl	%eax, -44(%ebp)
	.loc 3 486 0
	cmpl	$0, -44(%ebp)
	jns	.L114
	.loc 3 486 0 is_stmt 0 discriminator 1
	movl	$0, -44(%ebp)
	jmp	.L115
.L114:
	.loc 3 487 0 is_stmt 1
	cmpl	$88, -44(%ebp)
	jle	.L115
	.loc 3 487 0 is_stmt 0 discriminator 1
	movl	$88, -44(%ebp)
.L115:
	.loc 3 489 0 is_stmt 1
	movzwl	-40(%ebp), %eax
	movw	%ax, -38(%ebp)
	.loc 3 490 0
	movl	-80(%ebp), %eax
	movl	%eax, (%esp)
	call	_ZN13CIwChannelPCMItE13clip_to_int16Ei
	movw	%ax, -40(%ebp)
	.loc 3 491 0
	addl	$4096, -32(%ebp)
	.loc 3 492 0
	jmp	.L116
.L117:
.LBB38:
	.loc 3 495 0
	movl	20(%ebp), %eax
	subl	%eax, -32(%ebp)
	.loc 3 496 0
	movswl	-40(%ebp), %eax
	movswl	-38(%ebp), %ecx
	movswl	-40(%ebp), %edx
	subl	%edx, %ecx
	movl	%ecx, %edx
	imull	-32(%ebp), %edx
	sarl	$12, %edx
	addl	%edx, %eax
	movl	%eax, -148(%ebp)
	.loc 3 497 0
	movl	12(%ebp), %eax
	movl	%eax, %edx
	addl	$2, %edx
	movl	%edx, 12(%ebp)
	movl	-148(%ebp), %edx
	imull	24(%ebp), %edx
	sarl	$8, %edx
	movw	%dx, (%eax)
	.loc 3 498 0
	subl	$1, 16(%ebp)
	.loc 3 499 0
	cmpl	$0, 16(%ebp)
	jne	.L116
	.loc 3 500 0
	jmp	.L29
.L116:
.LBE38:
	.loc 3 492 0 discriminator 1
	movl	-32(%ebp), %eax
	cmpl	20(%ebp), %eax
	jge	.L117
.LBE31:
	.loc 3 435 0
	cmpl	$0, -36(%ebp)
	jg	.L86
.L85:
.LBE30:
.LBE29:
	.loc 3 506 0
	movl	8(%ebp), %eax
	movl	4(%eax), %eax
	cmpl	-28(%ebp), %eax
	ja	.L118
	.loc 3 511 0
	movl	32(%ebp), %eax
	movl	$1, (%eax)
	.loc 3 515 0
	movl	$0, -28(%ebp)
	.loc 3 516 0
	jmp	.L29
.L118:
.LBB39:
.LBB40:
	.loc 3 518 0
	cmpl	$0, -36(%ebp)
	je	.L119
	.loc 3 518 0 is_stmt 0 discriminator 1
	leal	.LC0@GOTOFF(%ebx), %eax
	movl	%eax, (%esp)
	call	IwDebugAssertIsChannelOn@PLT
	testb	%al, %al
	je	.L119
	movzbl	_ZZN15CIwChannelADPCM22GenerateADPCMAudioFastEPsiiiiPiE21_s_IwAssertIgnoreThis_4@GOTOFF(%ebx), %eax
	testb	%al, %al
	jne	.L119
	.loc 3 518 0 discriminator 3
	movl	$1, %eax
	jmp	.L120
.L119:
	.loc 3 518 0 discriminator 2
	movl	$0, %eax
.L120:
	.loc 3 518 0 discriminator 4
	testb	%al, %al
	je	.L121
	.loc 3 518 0 discriminator 1
	movl	$0, (%esp)
	call	IwDebugAssertSetSolution@PLT
	movl	$0, (%esp)
	call	IwDebugAssertSetUID@PLT
	movl	$0, (%esp)
	call	IwDebugAssertSetMessage@PLT
	movl	$1, 12(%esp)
	movl	$518, 8(%esp)
	leal	.LC1@GOTOFF(%ebx), %eax
	movl	%eax, 4(%esp)
	leal	.LC3@GOTOFF(%ebx), %eax
	movl	%eax, (%esp)
	call	IwDebugAssertShow@PLT
	cmpl	$1, %eax
	je	.L123
	cmpl	$2, %eax
	je	.L124
	.loc 3 518 0
	jmp	.L122
.L123:
	.loc 3 518 0 discriminator 2
	call	s3eDebugIsDebuggerPresent@PLT
	testb	%al, %al
	setne	%al
	testb	%al, %al
	je	.L125
	.loc 3 518 0 discriminator 1
	call	s3eDebugIsDebuggerPresent@PLT
	testb	%al, %al
	setne	%al
	testb	%al, %al
	je	.L126
#APP
# 518 "c:/Marmalade/7.5/examples/GameTutorial/CPP/modules/soundengine/source/IwSoundADPCM.cpp" 1
	 int $3 
# 0 "" 2
#NO_APP
	jmp	.L126
.L125:
	.loc 3 518 0 discriminator 2
	call	_ZL11IwDebugExitv
	jmp	.L122
.L126:
	.loc 3 518 0 discriminator 1
	jmp	.L122
.L124:
	.loc 3 518 0 discriminator 3
	movb	$1, _ZZN15CIwChannelADPCM22GenerateADPCMAudioFastEPsiiiiPiE21_s_IwAssertIgnoreThis_4@GOTOFF(%ebx)
	nop
.L122:
	.loc 3 518 0 discriminator 1
	movl	$0, (%esp)
	call	IwDebugAssertSetUID@PLT
.L121:
.LBE40:
.LBE39:
.LBB41:
	.loc 3 521 0 is_stmt 1
	movl	8(%ebp), %eax
	movl	36(%eax), %eax
	testl	%eax, %eax
	jne	.L127
	.loc 3 523 0
	movl	-28(%ebp), %eax
	movl	%eax, -84(%ebp)
	jmp	.L128
.L127:
	.loc 3 527 0
	movl	8(%ebp), %eax
	movl	36(%eax), %edx
	movl	8(%ebp), %eax
	movl	28(%eax), %eax
	addl	%edx, %eax
	movl	%eax, -84(%ebp)
.L128:
	.loc 3 530 0
	movl	8(%ebp), %eax
	movl	-84(%ebp), %edx
	movl	%edx, 36(%eax)
	.loc 3 531 0
	movl	8(%ebp), %eax
	movl	24(%eax), %eax
	subl	$1, %eax
	movl	%eax, -36(%ebp)
	.loc 3 532 0
	movl	8(%ebp), %eax
	movl	28(%eax), %eax
	movl	%eax, %edx
	movl	-84(%ebp), %eax
	addl	%eax, %edx
	movl	8(%ebp), %eax
	movl	4(%eax), %eax
	cmpl	%eax, %edx
	jbe	.L129
	.loc 3 534 0
	movl	8(%ebp), %eax
	movl	4(%eax), %eax
	movl	%eax, %edx
	movl	-84(%ebp), %eax
	subl	%eax, %edx
	movl	%edx, %eax
	subl	$4, %eax
	addl	%eax, %eax
	movl	%eax, -36(%ebp)
.L129:
	.loc 3 536 0
	movl	-84(%ebp), %eax
	addl	$4, %eax
	movl	%eax, -28(%ebp)
	.loc 3 537 0
	movl	-84(%ebp), %eax
	movzwl	(%eax), %eax
	movw	%ax, -40(%ebp)
	.loc 3 538 0
	movl	-84(%ebp), %eax
	movzbl	2(%eax), %eax
	movzbl	%al, %eax
	movl	%eax, -44(%ebp)
	.loc 3 539 0
	movb	$0, -45(%ebp)
	.loc 3 540 0
	movl	8(%ebp), %eax
	movl	32(%eax), %edx
	movl	8(%ebp), %eax
	movl	24(%eax), %eax
	subl	%eax, %edx
	movl	8(%ebp), %eax
	movl	%edx, 32(%eax)
.LBE41:
.LBE28:
	.loc 3 547 0
	jmp	.L38
.L29:
.LBE27:
.LBE11:
	.loc 3 551 0
	movl	8(%ebp), %eax
	movl	-28(%ebp), %edx
	movl	%edx, (%eax)
	.loc 3 552 0
	movl	8(%ebp), %eax
	movl	-32(%ebp), %edx
	movl	%edx, 8(%eax)
	.loc 3 553 0
	movl	8(%ebp), %eax
	movl	-36(%ebp), %edx
	movl	%edx, 12(%eax)
	.loc 3 554 0
	movl	8(%ebp), %eax
	movzwl	-38(%ebp), %edx
	movw	%dx, 16(%eax)
	.loc 3 555 0
	movl	8(%ebp), %eax
	movzwl	-40(%ebp), %edx
	movw	%dx, 20(%eax)
	.loc 3 556 0
	movl	8(%ebp), %eax
	movzbl	-45(%ebp), %edx
	movb	%dl, 23(%eax)
	.loc 3 557 0
	movl	-44(%ebp), %eax
	movl	%eax, %edx
	movl	8(%ebp), %eax
	movb	%dl, 22(%eax)
	.loc 3 559 0
	movl	12(%ebp), %edx
	movl	-88(%ebp), %eax
	subl	%eax, %edx
	movl	%edx, %eax
	sarl	%eax
.L19:
.LBE6:
	.loc 3 560 0
	leal	172(%esp), %esp
	popl	%ebx
	.cfi_restore 3
	popl	%esi
	.cfi_restore 6
	popl	%edi
	.cfi_restore 7
	popl	%ebp
	.cfi_restore 5
	.cfi_def_cfa 4, 4
	ret
	.cfi_endproc
.LFE1432:
	.size	_ZN15CIwChannelADPCM22GenerateADPCMAudioFastEPsiiiiPi, .-_ZN15CIwChannelADPCM22GenerateADPCMAudioFastEPsiiiiPi
	.section	.rodata
	.align 4
.LC4:
	.string	"c:/marmalade/7.5/examples/gametutorial/cpp/modules/soundengine/h/IwSoundPCM.h"
.LC5:
	.string	"false"
.LC6:
	.string	"sval >= minval"
.LC7:
	.string	"sval <= maxval"
	.section	.text._ZN13CIwChannelPCMItE13clip_to_int16Ei,"axG",@progbits,_ZN13CIwChannelPCMItE13clip_to_int16Ei,comdat
	.weak	_ZN13CIwChannelPCMItE13clip_to_int16Ei
	.hidden	_ZN13CIwChannelPCMItE13clip_to_int16Ei
	.type	_ZN13CIwChannelPCMItE13clip_to_int16Ei, @function
_ZN13CIwChannelPCMItE13clip_to_int16Ei:
.LFB1502:
	.file 4 "c:/marmalade/7.5/examples/gametutorial/cpp/modules/soundengine/h/IwSoundPCM.h"
	.loc 4 63 0
	.cfi_startproc
	pushl	%ebp
	.cfi_def_cfa_offset 8
	.cfi_offset 5, -8
	movl	%esp, %ebp
	.cfi_def_cfa_register 5
	pushl	%ebx
	leal	-20(%esp), %esp
	.cfi_offset 3, -12
	call	__x86.get_pc_thunk.bx
	addl	$_GLOBAL_OFFSET_TABLE_, %ebx
.LBB42:
.LBB43:
	.loc 4 69 0
	movl	8(%ebp), %eax
	addl	$32768, %eax
	movw	$0, %ax
	testl	%eax, %eax
	je	.L131
.LBB44:
.LBB45:
	.loc 4 72 0
	cmpl	$32767, 8(%ebp)
	jle	.L132
	.loc 4 73 0
	movl	$32767, 8(%ebp)
	jmp	.L133
.L132:
.LBB46:
.LBB47:
	.loc 4 75 0
	cmpl	$-32768, 8(%ebp)
	jge	.L134
	.loc 4 76 0
	movl	$-32768, 8(%ebp)
	jmp	.L133
.L134:
.LBB48:
.LBB49:
.LBB50:
	.loc 4 79 0
	leal	.LC0@GOTOFF(%ebx), %eax
	movl	%eax, (%esp)
	call	IwDebugAssertIsChannelOn@PLT
	testb	%al, %al
	je	.L135
	.loc 4 79 0 is_stmt 0 discriminator 1
	movzbl	_ZZN13CIwChannelPCMItE13clip_to_int16EiE21_s_IwAssertIgnoreThis@GOTOFF(%ebx), %eax
	testb	%al, %al
	jne	.L135
	.loc 4 79 0 discriminator 3
	movl	$1, %eax
	jmp	.L136
.L135:
	.loc 4 79 0 discriminator 2
	movl	$0, %eax
.L136:
	.loc 4 79 0 discriminator 4
	testb	%al, %al
	je	.L133
	.loc 4 79 0 discriminator 5
	movl	$0, (%esp)
	call	IwDebugAssertSetSolution@PLT
	movl	$0, (%esp)
	call	IwDebugAssertSetUID@PLT
	movl	$0, (%esp)
	call	IwDebugAssertSetMessage@PLT
	movl	$1, 12(%esp)
	movl	$79, 8(%esp)
	leal	.LC4@GOTOFF(%ebx), %eax
	movl	%eax, 4(%esp)
	leal	.LC5@GOTOFF(%ebx), %eax
	movl	%eax, (%esp)
	call	IwDebugAssertShow@PLT
	cmpl	$1, %eax
	je	.L138
	cmpl	$2, %eax
	je	.L139
	.loc 4 79 0
	jmp	.L137
.L138:
	.loc 4 79 0 discriminator 2
	call	s3eDebugIsDebuggerPresent@PLT
	testb	%al, %al
	setne	%al
	testb	%al, %al
	je	.L140
	.loc 4 79 0 discriminator 1
	call	s3eDebugIsDebuggerPresent@PLT
	testb	%al, %al
	setne	%al
	testb	%al, %al
	je	.L141
#APP
# 79 "c:/marmalade/7.5/examples/gametutorial/cpp/modules/soundengine/h/IwSoundPCM.h" 1
	 int $3 
# 0 "" 2
#NO_APP
	jmp	.L141
.L140:
	.loc 4 79 0 discriminator 2
	call	_ZL11IwDebugExitv
	jmp	.L137
.L141:
	.loc 4 79 0 discriminator 1
	jmp	.L137
.L139:
	.loc 4 79 0 discriminator 3
	movb	$1, _ZZN13CIwChannelPCMItE13clip_to_int16EiE21_s_IwAssertIgnoreThis@GOTOFF(%ebx)
	nop
.L137:
	.loc 4 79 0 discriminator 1
	movl	$0, (%esp)
	call	IwDebugAssertSetUID@PLT
.L133:
.L131:
.LBE50:
.LBE49:
.LBE48:
.LBE47:
.LBE46:
.LBE45:
.LBE44:
.LBE43:
.LBB51:
.LBB52:
	.loc 4 83 0 is_stmt 1
	cmpl	$-32768, 8(%ebp)
	jge	.L142
	.loc 4 83 0 is_stmt 0 discriminator 1
	leal	.LC0@GOTOFF(%ebx), %eax
	movl	%eax, (%esp)
	call	IwDebugAssertIsChannelOn@PLT
	testb	%al, %al
	je	.L142
	.loc 4 83 0 discriminator 3
	movzbl	_ZZN13CIwChannelPCMItE13clip_to_int16EiE21_s_IwAssertIgnoreThis_0@GOTOFF(%ebx), %eax
	testb	%al, %al
	jne	.L142
	.loc 4 83 0 discriminator 4
	movl	$1, %eax
	jmp	.L143
.L142:
	.loc 4 83 0 discriminator 2
	movl	$0, %eax
.L143:
	.loc 4 83 0 discriminator 5
	testb	%al, %al
	je	.L144
	.loc 4 83 0 discriminator 6
	movl	$0, (%esp)
	call	IwDebugAssertSetSolution@PLT
	movl	$0, (%esp)
	call	IwDebugAssertSetUID@PLT
	movl	$0, (%esp)
	call	IwDebugAssertSetMessage@PLT
	movl	$1, 12(%esp)
	movl	$83, 8(%esp)
	leal	.LC4@GOTOFF(%ebx), %eax
	movl	%eax, 4(%esp)
	leal	.LC6@GOTOFF(%ebx), %eax
	movl	%eax, (%esp)
	call	IwDebugAssertShow@PLT
	cmpl	$1, %eax
	je	.L146
	cmpl	$2, %eax
	je	.L147
	.loc 4 83 0
	jmp	.L145
.L146:
	.loc 4 83 0 discriminator 2
	call	s3eDebugIsDebuggerPresent@PLT
	testb	%al, %al
	setne	%al
	testb	%al, %al
	je	.L148
	.loc 4 83 0 discriminator 1
	call	s3eDebugIsDebuggerPresent@PLT
	testb	%al, %al
	setne	%al
	testb	%al, %al
	je	.L149
#APP
# 83 "c:/marmalade/7.5/examples/gametutorial/cpp/modules/soundengine/h/IwSoundPCM.h" 1
	 int $3 
# 0 "" 2
#NO_APP
	jmp	.L149
.L148:
	.loc 4 83 0 discriminator 2
	call	_ZL11IwDebugExitv
	jmp	.L145
.L149:
	.loc 4 83 0 discriminator 1
	jmp	.L145
.L147:
	.loc 4 83 0 discriminator 3
	movb	$1, _ZZN13CIwChannelPCMItE13clip_to_int16EiE21_s_IwAssertIgnoreThis_0@GOTOFF(%ebx)
	nop
.L145:
	.loc 4 83 0 discriminator 1
	movl	$0, (%esp)
	call	IwDebugAssertSetUID@PLT
.L144:
.LBE52:
.LBE51:
.LBB53:
.LBB54:
	.loc 4 84 0 is_stmt 1
	cmpl	$32767, 8(%ebp)
	jle	.L150
	.loc 4 84 0 is_stmt 0 discriminator 1
	leal	.LC0@GOTOFF(%ebx), %eax
	movl	%eax, (%esp)
	call	IwDebugAssertIsChannelOn@PLT
	testb	%al, %al
	je	.L150
	.loc 4 84 0 discriminator 3
	movzbl	_ZZN13CIwChannelPCMItE13clip_to_int16EiE21_s_IwAssertIgnoreThis_1@GOTOFF(%ebx), %eax
	testb	%al, %al
	jne	.L150
	.loc 4 84 0 discriminator 4
	movl	$1, %eax
	jmp	.L151
.L150:
	.loc 4 84 0 discriminator 2
	movl	$0, %eax
.L151:
	.loc 4 84 0 discriminator 5
	testb	%al, %al
	je	.L152
	.loc 4 84 0 discriminator 6
	movl	$0, (%esp)
	call	IwDebugAssertSetSolution@PLT
	movl	$0, (%esp)
	call	IwDebugAssertSetUID@PLT
	movl	$0, (%esp)
	call	IwDebugAssertSetMessage@PLT
	movl	$1, 12(%esp)
	movl	$84, 8(%esp)
	leal	.LC4@GOTOFF(%ebx), %eax
	movl	%eax, 4(%esp)
	leal	.LC7@GOTOFF(%ebx), %eax
	movl	%eax, (%esp)
	call	IwDebugAssertShow@PLT
	cmpl	$1, %eax
	je	.L154
	cmpl	$2, %eax
	je	.L155
	.loc 4 84 0
	jmp	.L153
.L154:
	.loc 4 84 0 discriminator 2
	call	s3eDebugIsDebuggerPresent@PLT
	testb	%al, %al
	setne	%al
	testb	%al, %al
	je	.L156
	.loc 4 84 0 discriminator 1
	call	s3eDebugIsDebuggerPresent@PLT
	testb	%al, %al
	setne	%al
	testb	%al, %al
	je	.L157
#APP
# 84 "c:/marmalade/7.5/examples/gametutorial/cpp/modules/soundengine/h/IwSoundPCM.h" 1
	 int $3 
# 0 "" 2
#NO_APP
	jmp	.L157
.L156:
	.loc 4 84 0 discriminator 2
	call	_ZL11IwDebugExitv
	jmp	.L153
.L157:
	.loc 4 84 0 discriminator 1
	jmp	.L153
.L155:
	.loc 4 84 0 discriminator 3
	movb	$1, _ZZN13CIwChannelPCMItE13clip_to_int16EiE21_s_IwAssertIgnoreThis_1@GOTOFF(%ebx)
	nop
.L153:
	.loc 4 84 0 discriminator 1
	movl	$0, (%esp)
	call	IwDebugAssertSetUID@PLT
.L152:
.LBE54:
.LBE53:
	.loc 4 86 0 is_stmt 1
	movl	8(%ebp), %eax
.LBE42:
	.loc 4 87 0
	leal	20(%esp), %esp
	popl	%ebx
	.cfi_restore 3
	popl	%ebp
	.cfi_restore 5
	.cfi_def_cfa 4, 4
	ret
	.cfi_endproc
.LFE1502:
	.size	_ZN13CIwChannelPCMItE13clip_to_int16Ei, .-_ZN13CIwChannelPCMItE13clip_to_int16Ei
	.local	_ZZN15CIwChannelADPCM22GenerateADPCMAudioFastEPsiiiiPiE21_s_IwAssertIgnoreThis
	.comm	_ZZN15CIwChannelADPCM22GenerateADPCMAudioFastEPsiiiiPiE21_s_IwAssertIgnoreThis,1,1
	.local	_ZZN15CIwChannelADPCM22GenerateADPCMAudioFastEPsiiiiPiE21_s_IwAssertIgnoreThis_0
	.comm	_ZZN15CIwChannelADPCM22GenerateADPCMAudioFastEPsiiiiPiE21_s_IwAssertIgnoreThis_0,1,1
	.local	_ZZN15CIwChannelADPCM22GenerateADPCMAudioFastEPsiiiiPiE21_s_IwAssertIgnoreThis_1
	.comm	_ZZN15CIwChannelADPCM22GenerateADPCMAudioFastEPsiiiiPiE21_s_IwAssertIgnoreThis_1,1,1
	.local	_ZZN15CIwChannelADPCM22GenerateADPCMAudioFastEPsiiiiPiE21_s_IwAssertIgnoreThis_2
	.comm	_ZZN15CIwChannelADPCM22GenerateADPCMAudioFastEPsiiiiPiE21_s_IwAssertIgnoreThis_2,1,1
	.local	_ZZN15CIwChannelADPCM22GenerateADPCMAudioFastEPsiiiiPiE21_s_IwAssertIgnoreThis_3
	.comm	_ZZN15CIwChannelADPCM22GenerateADPCMAudioFastEPsiiiiPiE21_s_IwAssertIgnoreThis_3,1,1
	.local	_ZZN15CIwChannelADPCM22GenerateADPCMAudioFastEPsiiiiPiE21_s_IwAssertIgnoreThis_4
	.comm	_ZZN15CIwChannelADPCM22GenerateADPCMAudioFastEPsiiiiPiE21_s_IwAssertIgnoreThis_4,1,1
	.hidden	_ZZN13CIwChannelPCMItE13clip_to_int16EiE21_s_IwAssertIgnoreThis
	.weak	_ZZN13CIwChannelPCMItE13clip_to_int16EiE21_s_IwAssertIgnoreThis
	.section	.bss._ZZN13CIwChannelPCMItE13clip_to_int16EiE21_s_IwAssertIgnoreThis,"awG",@nobits,_ZZN13CIwChannelPCMItE13clip_to_int16EiE21_s_IwAssertIgnoreThis,comdat
	.type	_ZZN13CIwChannelPCMItE13clip_to_int16EiE21_s_IwAssertIgnoreThis, @object
	.size	_ZZN13CIwChannelPCMItE13clip_to_int16EiE21_s_IwAssertIgnoreThis, 1
_ZZN13CIwChannelPCMItE13clip_to_int16EiE21_s_IwAssertIgnoreThis:
	.zero	1
	.hidden	_ZZN13CIwChannelPCMItE13clip_to_int16EiE21_s_IwAssertIgnoreThis_0
	.weak	_ZZN13CIwChannelPCMItE13clip_to_int16EiE21_s_IwAssertIgnoreThis_0
	.section	.bss._ZZN13CIwChannelPCMItE13clip_to_int16EiE21_s_IwAssertIgnoreThis_0,"awG",@nobits,_ZZN13CIwChannelPCMItE13clip_to_int16EiE21_s_IwAssertIgnoreThis_0,comdat
	.type	_ZZN13CIwChannelPCMItE13clip_to_int16EiE21_s_IwAssertIgnoreThis_0, @object
	.size	_ZZN13CIwChannelPCMItE13clip_to_int16EiE21_s_IwAssertIgnoreThis_0, 1
_ZZN13CIwChannelPCMItE13clip_to_int16EiE21_s_IwAssertIgnoreThis_0:
	.zero	1
	.hidden	_ZZN13CIwChannelPCMItE13clip_to_int16EiE21_s_IwAssertIgnoreThis_1
	.weak	_ZZN13CIwChannelPCMItE13clip_to_int16EiE21_s_IwAssertIgnoreThis_1
	.section	.bss._ZZN13CIwChannelPCMItE13clip_to_int16EiE21_s_IwAssertIgnoreThis_1,"awG",@nobits,_ZZN13CIwChannelPCMItE13clip_to_int16EiE21_s_IwAssertIgnoreThis_1,comdat
	.type	_ZZN13CIwChannelPCMItE13clip_to_int16EiE21_s_IwAssertIgnoreThis_1, @object
	.size	_ZZN13CIwChannelPCMItE13clip_to_int16EiE21_s_IwAssertIgnoreThis_1, 1
_ZZN13CIwChannelPCMItE13clip_to_int16EiE21_s_IwAssertIgnoreThis_1:
	.zero	1
	.section	.text.__x86.get_pc_thunk.bx,"axG",@progbits,__x86.get_pc_thunk.bx,comdat
	.globl	__x86.get_pc_thunk.bx
	.hidden	__x86.get_pc_thunk.bx
	.type	__x86.get_pc_thunk.bx, @function
__x86.get_pc_thunk.bx:
.LFB1633:
	.cfi_startproc
	nop
	nop
	nop
	nop
	nop
	nop
	nop
	nop
	movl	(%esp), %ebx
	ret
	.cfi_endproc
.LFE1633:
	.text
.Letext0:
	.file 5 "c:/marmalade/7.5/s3e/h/s3eTypes.h"
	.file 6 "c:/marmalade/7.5/s3e/h/s3eSound.h"
	.file 7 "c:/marmalade/7.5/examples/gametutorial/cpp/modules/soundengine/h/IwSoundADPCM.h"
	.file 8 "c:/marmalade/7.5/s3e/h/s3eDebug.h"
	.file 9 "c:/marmalade/7.5/s3e/h/std/stddef.h"
	.file 10 "c:/marmalade/7.5/s3e/h/std/c++/typeinfo.h"
	.file 11 "c:/marmalade/7.5/s3e/h/std/c++/exception"
	.file 12 "c:/marmalade/7.5/s3e/h/std/c++/typeinfo"
	.file 13 "c:/marmalade/7.5/s3e/h/std/c++/cstddef"
	.file 14 "c:/marmalade/7.5/s3e/h/std/c++/stl/_config.h"
	.file 15 "c:/marmalade/7.5/s3e/h/s3eFile.h"
	.file 16 "c:/marmalade/7.5/modules/iwutil/h/IwSerialise.h"
	.file 17 "c:/marmalade/7.5/modules/iwutil/h/IwString.h"
	.file 18 "c:/marmalade/7.5/modules/iwutil/h/IwAllocator.h"
	.file 19 "c:/marmalade/7.5/modules/iwutil/h/IwManaged.h"
	.file 20 "c:/marmalade/7.5/modules/iwutil/h/IwArray.h"
	.file 21 "c:/marmalade/7.5/modules/iwutil/h/IwManagedList.h"
	.file 22 "c:/marmalade/7.5/modules/iwresmanager/h/IwResGroup.h"
	.file 23 "c:/marmalade/7.5/modules/iwgeom/h/IwGeomCore.h"
	.file 24 "c:/marmalade/7.5/modules/iwresmanager/h/IwResManagerClass.h"
	.file 25 "c:/marmalade/7.5/examples/gametutorial/cpp/modules/soundengine/h/IwSoundInst.h"
	.file 26 "c:/marmalade/7.5/modules/iwutil/h/IwMenu.h"
	.file 27 "c:/marmalade/7.5/modules/iwgeom/h/IwGeomSqrt.h"
	.file 28 "c:/marmalade/7.5/examples/gametutorial/cpp/modules/soundengine/h/IwSoundManager.h"
	.file 29 "c:/marmalade/7.5/modules/iwutil/h/IwTextParserITX.h"
	.file 30 "<built-in>"
	.file 31 "c:/marmalade/7.5/modules/iwutil/h/IwTypes.h"
	.section	.note.GNU-stack,"",@progbits
