	.file	"IwSoundManager.cpp"
	.text
.Ltext0:
	.type	_ZL11IwDebugExitv, @function
_ZL11IwDebugExitv:
.LFB0:
	.file 1 "c:/marmalade/7.5/modules/iwutil/h/IwDebug.h"
	.loc 1 348 0
	.cfi_startproc
	pushl	%ebp
	.cfi_def_cfa_offset 8
	.cfi_offset 5, -8
	movl	%esp, %ebp
	.cfi_def_cfa_register 5
	pushl	%ebx
	leal	-4(%esp), %esp
	.cfi_offset 3, -12
	call	__x86.get_pc_thunk.bx
	addl	$_GLOBAL_OFFSET_TABLE_, %ebx
	.loc 1 349 0
	call	abort@PLT
	.cfi_endproc
.LFE0:
	.size	_ZL11IwDebugExitv, .-_ZL11IwDebugExitv
	.section	.text._ZN12CIwCallStackC2EPKc,"axG",@progbits,_ZN12CIwCallStackC5EPKc,comdat
	.align 2
	.weak	_ZN12CIwCallStackC2EPKc
	.hidden	_ZN12CIwCallStackC2EPKc
	.type	_ZN12CIwCallStackC2EPKc, @function
_ZN12CIwCallStackC2EPKc:
.LFB30:
	.file 2 "c:/marmalade/7.5/modules/iwutil/h/IwRuntime.h"
	.loc 2 97 0
	.cfi_startproc
	pushl	%ebp
	.cfi_def_cfa_offset 8
	.cfi_offset 5, -8
	movl	%esp, %ebp
	.cfi_def_cfa_register 5
	pushl	%ebx
	leal	-20(%esp), %esp
	.cfi_offset 3, -12
	call	__x86.get_pc_thunk.bx
	addl	$_GLOBAL_OFFSET_TABLE_, %ebx
.LBB2:
	.loc 2 99 0
	movl	8(%ebp), %eax
	movl	%eax, 4(%esp)
	movl	12(%ebp), %eax
	movl	%eax, (%esp)
	call	IwCallStackEnter@PLT
	movl	8(%ebp), %edx
	movb	%al, (%edx)
.LBE2:
	.loc 2 100 0
	leal	20(%esp), %esp
	popl	%ebx
	.cfi_restore 3
	popl	%ebp
	.cfi_restore 5
	.cfi_def_cfa 4, 4
	ret
	.cfi_endproc
.LFE30:
	.size	_ZN12CIwCallStackC2EPKc, .-_ZN12CIwCallStackC2EPKc
	.weak	_ZN12CIwCallStackC1EPKc
	.hidden	_ZN12CIwCallStackC1EPKc
	.set	_ZN12CIwCallStackC1EPKc,_ZN12CIwCallStackC2EPKc
	.section	.text._ZN12CIwCallStackD2Ev,"axG",@progbits,_ZN12CIwCallStackD5Ev,comdat
	.align 2
	.weak	_ZN12CIwCallStackD2Ev
	.hidden	_ZN12CIwCallStackD2Ev
	.type	_ZN12CIwCallStackD2Ev, @function
_ZN12CIwCallStackD2Ev:
.LFB33:
	.loc 2 101 0
	.cfi_startproc
	pushl	%ebp
	.cfi_def_cfa_offset 8
	.cfi_offset 5, -8
	movl	%esp, %ebp
	.cfi_def_cfa_register 5
	pushl	%ebx
	leal	-20(%esp), %esp
	.cfi_offset 3, -12
	call	__x86.get_pc_thunk.bx
	addl	$_GLOBAL_OFFSET_TABLE_, %ebx
.LBB3:
	.loc 2 103 0
	movl	8(%ebp), %eax
	movzbl	(%eax), %eax
	testb	%al, %al
	je	.L3
	.loc 2 104 0
	movl	8(%ebp), %eax
	movl	%eax, (%esp)
	call	IwCallStackLeave@PLT
.L3:
.LBE3:
	.loc 2 105 0
	leal	20(%esp), %esp
	popl	%ebx
	.cfi_restore 3
	popl	%ebp
	.cfi_restore 5
	.cfi_def_cfa 4, 4
	ret
	.cfi_endproc
.LFE33:
	.size	_ZN12CIwCallStackD2Ev, .-_ZN12CIwCallStackD2Ev
	.weak	_ZN12CIwCallStackD1Ev
	.hidden	_ZN12CIwCallStackD1Ev
	.set	_ZN12CIwCallStackD1Ev,_ZN12CIwCallStackD2Ev
	.section	.rodata
.LC0:
	.string	"GEOM"
.LC1:
	.string	"Multiply overflow"
	.align 4
.LC2:
	.string	"c:/marmalade/7.5/modules/iwgeom/h/IwGeomCore.h"
.LC3:
	.string	"test >> 63 == test >> 31"
	.text
	.type	_ZL12IW_FIXED_MULii, @function
_ZL12IW_FIXED_MULii:
.LFB72:
	.file 3 "c:/marmalade/7.5/modules/iwgeom/h/IwGeomCore.h"
	.loc 3 388 0
	.cfi_startproc
	pushl	%ebp
	.cfi_def_cfa_offset 8
	.cfi_offset 5, -8
	movl	%esp, %ebp
	.cfi_def_cfa_register 5
	pushl	%edi
	pushl	%esi
	pushl	%ebx
	leal	-60(%esp), %esp
	.cfi_offset 7, -12
	.cfi_offset 6, -16
	.cfi_offset 3, -20
	call	__x86.get_pc_thunk.bx
	addl	$_GLOBAL_OFFSET_TABLE_, %ebx
.LBB4:
	.loc 3 390 0
	movl	8(%ebp), %eax
	movl	%eax, %esi
	movl	%eax, %edi
	sarl	$31, %edi
	movl	12(%ebp), %eax
	movl	%eax, %edx
	sarl	$31, %edx
	movl	%edi, %ecx
	imull	%eax, %ecx
	movl	%ecx, -44(%ebp)
	movl	%edx, %ecx
	imull	%esi, %ecx
	addl	-44(%ebp), %ecx
	mull	%esi
	addl	%edx, %ecx
	movl	%ecx, %edx
	movl	%eax, -32(%ebp)
	movl	%edx, -28(%ebp)
	movl	%eax, -32(%ebp)
	movl	%edx, -28(%ebp)
.LBB5:
.LBB6:
	.loc 3 391 0
	movl	-32(%ebp), %eax
	movl	-28(%ebp), %edx
	movl	%edx, %edx
	sarl	$31, %edx
	movl	%edx, %eax
	movl	%eax, %esi
	movl	%edx, %edi
	movl	-32(%ebp), %eax
	movl	-28(%ebp), %edx
	shrdl	$31, %edx, %eax
	sarl	$31, %edx
	movl	%edi, %ecx
	xorl	%edx, %ecx
	xorl	%esi, %eax
	orl	%ecx, %eax
	testl	%eax, %eax
	je	.L6
	.loc 3 391 0 is_stmt 0 discriminator 1
	leal	.LC0@GOTOFF(%ebx), %eax
	movl	%eax, (%esp)
	call	IwDebugAssertIsChannelOn@PLT
	testb	%al, %al
	je	.L6
	movzbl	_ZZL12IW_FIXED_MULiiE21_s_IwAssertIgnoreThis@GOTOFF(%ebx), %eax
	testb	%al, %al
	jne	.L6
	.loc 3 391 0 discriminator 3
	movl	$1, %eax
	jmp	.L7
.L6:
	.loc 3 391 0 discriminator 2
	movl	$0, %eax
.L7:
	.loc 3 391 0 discriminator 4
	testb	%al, %al
	je	.L8
	.loc 3 391 0 discriminator 1
	movl	$0, (%esp)
	call	IwDebugAssertSetSolution@PLT
	movl	$350, (%esp)
	call	IwDebugAssertSetUID@PLT
	leal	.LC1@GOTOFF(%ebx), %eax
	movl	%eax, (%esp)
	call	IwDebugAssertSetMessage@PLT
	movl	$1, 12(%esp)
	movl	$391, 8(%esp)
	leal	.LC2@GOTOFF(%ebx), %eax
	movl	%eax, 4(%esp)
	leal	.LC3@GOTOFF(%ebx), %eax
	movl	%eax, (%esp)
	call	IwDebugAssertShow@PLT
	cmpl	$1, %eax
	je	.L10
	cmpl	$2, %eax
	je	.L11
	.loc 3 391 0
	jmp	.L9
.L10:
	.loc 3 391 0 discriminator 2
	call	s3eDebugIsDebuggerPresent@PLT
	testb	%al, %al
	setne	%al
	testb	%al, %al
	je	.L12
	.loc 3 391 0 discriminator 1
	call	s3eDebugIsDebuggerPresent@PLT
	testb	%al, %al
	setne	%al
	testb	%al, %al
	je	.L13
#APP
# 391 "c:/marmalade/7.5/modules/iwgeom/h/IwGeomCore.h" 1
	 int $3 
# 0 "" 2
#NO_APP
	jmp	.L13
.L12:
	.loc 3 391 0 discriminator 2
	call	_ZL11IwDebugExitv
	jmp	.L9
.L13:
	.loc 3 391 0 discriminator 1
	jmp	.L9
.L11:
	.loc 3 391 0 discriminator 3
	movb	$1, _ZZL12IW_FIXED_MULiiE21_s_IwAssertIgnoreThis@GOTOFF(%ebx)
	nop
.L9:
	.loc 3 391 0 discriminator 1
	movl	$0, (%esp)
	call	IwDebugAssertSetUID@PLT
.L8:
.LBE6:
.LBE5:
	.loc 3 393 0 is_stmt 1
	movl	8(%ebp), %eax
	imull	12(%ebp), %eax
	sarl	$12, %eax
.LBE4:
	.loc 3 394 0
	leal	60(%esp), %esp
	popl	%ebx
	.cfi_restore 3
	popl	%esi
	.cfi_restore 6
	popl	%edi
	.cfi_restore 7
	popl	%ebp
	.cfi_restore 5
	.cfi_def_cfa 4, 4
	ret
	.cfi_endproc
.LFE72:
	.size	_ZL12IW_FIXED_MULii, .-_ZL12IW_FIXED_MULii
	.section	.text._ZN11CIwMenuItem5EnterEv,"axG",@progbits,_ZN11CIwMenuItem5EnterEv,comdat
	.align 2
	.weak	_ZN11CIwMenuItem5EnterEv
	.hidden	_ZN11CIwMenuItem5EnterEv
	.type	_ZN11CIwMenuItem5EnterEv, @function
_ZN11CIwMenuItem5EnterEv:
.LFB252:
	.file 4 "c:/marmalade/7.5/modules/iwutil/h/IwMenu.h"
	.loc 4 104 0
	.cfi_startproc
	pushl	%ebp
	.cfi_def_cfa_offset 8
	.cfi_offset 5, -8
	leal	(%esp), %ebp
	.cfi_def_cfa_register 5
	.loc 4 104 0
	movl	8(%ebp), %eax
	movl	60(%eax), %eax
	orl	$1, %eax
	movl	%eax, %edx
	movl	8(%ebp), %eax
	movl	%edx, 60(%eax)
	popl	%ebp
	.cfi_restore 5
	.cfi_def_cfa 4, 4
	ret
	.cfi_endproc
.LFE252:
	.size	_ZN11CIwMenuItem5EnterEv, .-_ZN11CIwMenuItem5EnterEv
	.section	.text._ZN11CIwMenuItem4ExitEv,"axG",@progbits,_ZN11CIwMenuItem4ExitEv,comdat
	.align 2
	.weak	_ZN11CIwMenuItem4ExitEv
	.hidden	_ZN11CIwMenuItem4ExitEv
	.type	_ZN11CIwMenuItem4ExitEv, @function
_ZN11CIwMenuItem4ExitEv:
.LFB253:
	.loc 4 110 0
	.cfi_startproc
	pushl	%ebp
	.cfi_def_cfa_offset 8
	.cfi_offset 5, -8
	leal	(%esp), %ebp
	.cfi_def_cfa_register 5
	.loc 4 110 0
	movl	8(%ebp), %eax
	movl	60(%eax), %eax
	andl	$-2, %eax
	movl	%eax, %edx
	movl	8(%ebp), %eax
	movl	%edx, 60(%eax)
	popl	%ebp
	.cfi_restore 5
	.cfi_def_cfa 4, 4
	ret
	.cfi_endproc
.LFE253:
	.size	_ZN11CIwMenuItem4ExitEv, .-_ZN11CIwMenuItem4ExitEv
	.section	.text._ZN11CIwMenuItem6SelectEv,"axG",@progbits,_ZN11CIwMenuItem6SelectEv,comdat
	.align 2
	.weak	_ZN11CIwMenuItem6SelectEv
	.hidden	_ZN11CIwMenuItem6SelectEv
	.type	_ZN11CIwMenuItem6SelectEv, @function
_ZN11CIwMenuItem6SelectEv:
.LFB254:
	.loc 4 116 0
	.cfi_startproc
	pushl	%ebp
	.cfi_def_cfa_offset 8
	.cfi_offset 5, -8
	movl	%esp, %ebp
	.cfi_def_cfa_register 5
	.loc 4 116 0
	popl	%ebp
	.cfi_restore 5
	.cfi_def_cfa 4, 4
	ret
	.cfi_endproc
.LFE254:
	.size	_ZN11CIwMenuItem6SelectEv, .-_ZN11CIwMenuItem6SelectEv
	.section	.text._ZN11CIwMenuItem3RunEv,"axG",@progbits,_ZN11CIwMenuItem3RunEv,comdat
	.align 2
	.weak	_ZN11CIwMenuItem3RunEv
	.hidden	_ZN11CIwMenuItem3RunEv
	.type	_ZN11CIwMenuItem3RunEv, @function
_ZN11CIwMenuItem3RunEv:
.LFB255:
	.loc 4 128 0
	.cfi_startproc
	pushl	%ebp
	.cfi_def_cfa_offset 8
	.cfi_offset 5, -8
	leal	(%esp), %ebp
	.cfi_def_cfa_register 5
	leal	-24(%esp), %esp
	.loc 4 131 0
	movl	8(%ebp), %eax
	movl	(%eax), %eax
	leal	24(%eax), %eax
	movl	(%eax), %eax
	movl	8(%ebp), %edx
	movl	%edx, (%esp)
	call	*%eax
	.loc 4 132 0
	leave
	.cfi_restore 5
	.cfi_def_cfa 4, 4
	ret
	.cfi_endproc
.LFE255:
	.size	_ZN11CIwMenuItem3RunEv, .-_ZN11CIwMenuItem3RunEv
	.section	.text._ZN11CIwMenuItem4PlusEv,"axG",@progbits,_ZN11CIwMenuItem4PlusEv,comdat
	.align 2
	.weak	_ZN11CIwMenuItem4PlusEv
	.hidden	_ZN11CIwMenuItem4PlusEv
	.type	_ZN11CIwMenuItem4PlusEv, @function
_ZN11CIwMenuItem4PlusEv:
.LFB256:
	.loc 4 138 0
	.cfi_startproc
	pushl	%ebp
	.cfi_def_cfa_offset 8
	.cfi_offset 5, -8
	movl	%esp, %ebp
	.cfi_def_cfa_register 5
	.loc 4 138 0
	popl	%ebp
	.cfi_restore 5
	.cfi_def_cfa 4, 4
	ret
	.cfi_endproc
.LFE256:
	.size	_ZN11CIwMenuItem4PlusEv, .-_ZN11CIwMenuItem4PlusEv
	.section	.text._ZN11CIwMenuItem5MinusEv,"axG",@progbits,_ZN11CIwMenuItem5MinusEv,comdat
	.align 2
	.weak	_ZN11CIwMenuItem5MinusEv
	.hidden	_ZN11CIwMenuItem5MinusEv
	.type	_ZN11CIwMenuItem5MinusEv, @function
_ZN11CIwMenuItem5MinusEv:
.LFB257:
	.loc 4 144 0
	.cfi_startproc
	pushl	%ebp
	.cfi_def_cfa_offset 8
	.cfi_offset 5, -8
	movl	%esp, %ebp
	.cfi_def_cfa_register 5
	.loc 4 144 0
	popl	%ebp
	.cfi_restore 5
	.cfi_def_cfa 4, 4
	ret
	.cfi_endproc
.LFE257:
	.size	_ZN11CIwMenuItem5MinusEv, .-_ZN11CIwMenuItem5MinusEv
	.section	.text._ZN14CIwMenuManager11DestroyMenuEv,"axG",@progbits,_ZN14CIwMenuManager11DestroyMenuEv,comdat
	.align 2
	.weak	_ZN14CIwMenuManager11DestroyMenuEv
	.hidden	_ZN14CIwMenuManager11DestroyMenuEv
	.type	_ZN14CIwMenuManager11DestroyMenuEv, @function
_ZN14CIwMenuManager11DestroyMenuEv:
.LFB261:
	.loc 4 345 0
	.cfi_startproc
	pushl	%ebp
	.cfi_def_cfa_offset 8
	.cfi_offset 5, -8
	leal	(%esp), %ebp
	.cfi_def_cfa_register 5
	.loc 4 345 0
	movl	8(%ebp), %eax
	movl	24(%eax), %eax
	orb	$4, %ah
	movl	%eax, %edx
	movl	8(%ebp), %eax
	movl	%edx, 24(%eax)
	popl	%ebp
	.cfi_restore 5
	.cfi_def_cfa 4, 4
	ret
	.cfi_endproc
.LFE261:
	.size	_ZN14CIwMenuManager11DestroyMenuEv, .-_ZN14CIwMenuManager11DestroyMenuEv
	.section	.text._Z16IwGetMenuManagerv,"axG",@progbits,_Z16IwGetMenuManagerv,comdat
	.weak	_Z16IwGetMenuManagerv
	.hidden	_Z16IwGetMenuManagerv
	.type	_Z16IwGetMenuManagerv, @function
_Z16IwGetMenuManagerv:
.LFB271:
	.loc 4 473 0
	.cfi_startproc
	pushl	%ebp
	.cfi_def_cfa_offset 8
	.cfi_offset 5, -8
	movl	%esp, %ebp
	.cfi_def_cfa_register 5
	call	__x86.get_pc_thunk.cx
	addl	$_GLOBAL_OFFSET_TABLE_, %ecx
	.loc 4 473 0
	movl	g_IwMenuManager@GOT(%ecx), %eax
	movl	(%eax), %eax
	popl	%ebp
	.cfi_restore 5
	.cfi_def_cfa 4, 4
	ret
	.cfi_endproc
.LFE271:
	.size	_Z16IwGetMenuManagerv, .-_Z16IwGetMenuManagerv
	.section	.rodata
.LC4:
	.string	""
	.section	.text._ZN20CIwMenuItemEditValueC2EPKcPvjffffN11CIwMenuItem8ColourIDE,"axG",@progbits,_ZN20CIwMenuItemEditValueC5EPKcPvjffffN11CIwMenuItem8ColourIDE,comdat
	.align 2
	.weak	_ZN20CIwMenuItemEditValueC2EPKcPvjffffN11CIwMenuItem8ColourIDE
	.hidden	_ZN20CIwMenuItemEditValueC2EPKcPvjffffN11CIwMenuItem8ColourIDE
	.type	_ZN20CIwMenuItemEditValueC2EPKcPvjffffN11CIwMenuItem8ColourIDE, @function
_ZN20CIwMenuItemEditValueC2EPKcPvjffffN11CIwMenuItem8ColourIDE:
.LFB276:
	.loc 4 502 0
	.cfi_startproc
	pushl	%ebp
	.cfi_def_cfa_offset 8
	.cfi_offset 5, -8
	movl	%esp, %ebp
	.cfi_def_cfa_register 5
	pushl	%ebx
	leal	-36(%esp), %esp
	.cfi_offset 3, -12
	call	__x86.get_pc_thunk.bx
	addl	$_GLOBAL_OFFSET_TABLE_, %ebx
.LBB7:
	.loc 4 502 0
	movl	8(%ebp), %eax
	movl	40(%ebp), %edx
	movl	%edx, 16(%esp)
	movl	$0, 12(%esp)
	movl	12(%ebp), %edx
	movl	%edx, 8(%esp)
	leal	.LC4@GOTOFF(%ebx), %edx
	movl	%edx, 4(%esp)
	movl	%eax, (%esp)
	call	_ZN11CIwMenuItemC2EPKcS1_jNS_8ColourIDE@PLT
	movl	8(%ebp), %eax
	movl	_ZTV20CIwMenuItemEditValue@GOT(%ebx), %edx
	addl	$8, %edx
	movl	%edx, (%eax)
	.loc 4 504 0
	movl	8(%ebp), %eax
	movl	20(%ebp), %edx
	movl	%edx, 68(%eax)
	.loc 4 505 0
	movl	8(%ebp), %eax
	movl	16(%ebp), %edx
	movl	%edx, 72(%eax)
	.loc 4 506 0
	movl	8(%ebp), %edx
	movl	24(%ebp), %eax
	movl	%eax, 76(%edx)
	.loc 4 507 0
	movl	8(%ebp), %edx
	movl	36(%ebp), %eax
	movl	%eax, 80(%edx)
	.loc 4 508 0
	movl	8(%ebp), %edx
	movl	28(%ebp), %eax
	movl	%eax, 84(%edx)
	.loc 4 509 0
	movl	8(%ebp), %edx
	movl	32(%ebp), %eax
	movl	%eax, 88(%edx)
	.loc 4 510 0
	movl	8(%ebp), %eax
	movl	76(%eax), %eax
	movl	.LC5@GOTOFF(%ebx), %edx
	movd	%eax, %xmm0
	movd	%edx, %xmm1
	ucomiss	%xmm1, %xmm0
	jp	.L24
	movl	.LC5@GOTOFF(%ebx), %edx
	movd	%eax, %xmm2
	movd	%edx, %xmm3
	ucomiss	%xmm3, %xmm2
	jne	.L24
	.loc 4 511 0
	movl	8(%ebp), %eax
	movl	$5, 8(%eax)
.L24:
.LBE7:
	.loc 4 512 0
	leal	36(%esp), %esp
	popl	%ebx
	.cfi_restore 3
	popl	%ebp
	.cfi_restore 5
	.cfi_def_cfa 4, 4
	ret
	.cfi_endproc
.LFE276:
	.size	_ZN20CIwMenuItemEditValueC2EPKcPvjffffN11CIwMenuItem8ColourIDE, .-_ZN20CIwMenuItemEditValueC2EPKcPvjffffN11CIwMenuItem8ColourIDE
	.weak	_ZN20CIwMenuItemEditValueC1EPKcPvjffffN11CIwMenuItem8ColourIDE
	.hidden	_ZN20CIwMenuItemEditValueC1EPKcPvjffffN11CIwMenuItem8ColourIDE
	.set	_ZN20CIwMenuItemEditValueC1EPKcPvjffffN11CIwMenuItem8ColourIDE,_ZN20CIwMenuItemEditValueC2EPKcPvjffffN11CIwMenuItem8ColourIDE
	.section	.text._ZN20CIwMenuItemEditValueD2Ev,"axG",@progbits,_ZN20CIwMenuItemEditValueD5Ev,comdat
	.align 2
	.weak	_ZN20CIwMenuItemEditValueD2Ev
	.hidden	_ZN20CIwMenuItemEditValueD2Ev
	.type	_ZN20CIwMenuItemEditValueD2Ev, @function
_ZN20CIwMenuItemEditValueD2Ev:
.LFB279:
	.loc 4 513 0
	.cfi_startproc
	pushl	%ebp
	.cfi_def_cfa_offset 8
	.cfi_offset 5, -8
	movl	%esp, %ebp
	.cfi_def_cfa_register 5
	pushl	%ebx
	leal	-20(%esp), %esp
	.cfi_offset 3, -12
	call	__x86.get_pc_thunk.bx
	addl	$_GLOBAL_OFFSET_TABLE_, %ebx
.LBB8:
	.loc 4 513 0
	movl	8(%ebp), %eax
	movl	_ZTV20CIwMenuItemEditValue@GOT(%ebx), %edx
	addl	$8, %edx
	movl	%edx, (%eax)
	movl	8(%ebp), %eax
	movl	%eax, (%esp)
	call	_ZN11CIwMenuItemD2Ev@PLT
.LBE8:
	movl	$0, %eax
	testl	%eax, %eax
	je	.L28
	.loc 4 513 0 is_stmt 0 discriminator 1
	movl	8(%ebp), %eax
	movl	%eax, (%esp)
	call	_ZdlPv@PLT
.L28:
	.loc 4 513 0
	leal	20(%esp), %esp
	popl	%ebx
	.cfi_restore 3
	popl	%ebp
	.cfi_restore 5
	.cfi_def_cfa 4, 4
	ret
	.cfi_endproc
.LFE279:
	.size	_ZN20CIwMenuItemEditValueD2Ev, .-_ZN20CIwMenuItemEditValueD2Ev
	.weak	_ZN20CIwMenuItemEditValueD1Ev
	.hidden	_ZN20CIwMenuItemEditValueD1Ev
	.set	_ZN20CIwMenuItemEditValueD1Ev,_ZN20CIwMenuItemEditValueD2Ev
	.section	.text._ZN20CIwMenuItemEditValueD0Ev,"axG",@progbits,_ZN20CIwMenuItemEditValueD0Ev,comdat
	.align 2
	.weak	_ZN20CIwMenuItemEditValueD0Ev
	.hidden	_ZN20CIwMenuItemEditValueD0Ev
	.type	_ZN20CIwMenuItemEditValueD0Ev, @function
_ZN20CIwMenuItemEditValueD0Ev:
.LFB281:
	.loc 4 513 0 is_stmt 1
	.cfi_startproc
	pushl	%ebp
	.cfi_def_cfa_offset 8
	.cfi_offset 5, -8
	movl	%esp, %ebp
	.cfi_def_cfa_register 5
	pushl	%ebx
	leal	-20(%esp), %esp
	.cfi_offset 3, -12
	call	__x86.get_pc_thunk.bx
	addl	$_GLOBAL_OFFSET_TABLE_, %ebx
	.loc 4 513 0
	movl	8(%ebp), %eax
	movl	%eax, (%esp)
	call	_ZN20CIwMenuItemEditValueD1Ev
	movl	8(%ebp), %eax
	movl	%eax, (%esp)
	call	_ZdlPv@PLT
	leal	20(%esp), %esp
	popl	%ebx
	.cfi_restore 3
	popl	%ebp
	.cfi_restore 5
	.cfi_def_cfa 4, 4
	ret
	.cfi_endproc
.LFE281:
	.size	_ZN20CIwMenuItemEditValueD0Ev, .-_ZN20CIwMenuItemEditValueD0Ev
	.section	.text._ZN20CIwMenuItemEditValue4BackEv,"axG",@progbits,_ZN20CIwMenuItemEditValue4BackEv,comdat
	.align 2
	.weak	_ZN20CIwMenuItemEditValue4BackEv
	.hidden	_ZN20CIwMenuItemEditValue4BackEv
	.type	_ZN20CIwMenuItemEditValue4BackEv, @function
_ZN20CIwMenuItemEditValue4BackEv:
.LFB282:
	.loc 4 514 0
	.cfi_startproc
	pushl	%ebp
	.cfi_def_cfa_offset 8
	.cfi_offset 5, -8
	movl	%esp, %ebp
	.cfi_def_cfa_register 5
	leal	-24(%esp), %esp
	.loc 4 514 0
	call	_Z16IwGetMenuManagerv
	movl	%eax, (%esp)
	call	_ZN14CIwMenuManager11DestroyMenuEv
	leave
	.cfi_restore 5
	.cfi_def_cfa 4, 4
	ret
	.cfi_endproc
.LFE282:
	.size	_ZN20CIwMenuItemEditValue4BackEv, .-_ZN20CIwMenuItemEditValue4BackEv
	.section	.text._ZN21CIwMenuItemEditUInt32C2EPKcPjffff,"axG",@progbits,_ZN21CIwMenuItemEditUInt32C5EPKcPjffff,comdat
	.align 2
	.weak	_ZN21CIwMenuItemEditUInt32C2EPKcPjffff
	.hidden	_ZN21CIwMenuItemEditUInt32C2EPKcPjffff
	.type	_ZN21CIwMenuItemEditUInt32C2EPKcPjffff, @function
_ZN21CIwMenuItemEditUInt32C2EPKcPjffff:
.LFB299:
	.loc 4 636 0
	.cfi_startproc
	pushl	%ebp
	.cfi_def_cfa_offset 8
	.cfi_offset 5, -8
	movl	%esp, %ebp
	.cfi_def_cfa_register 5
	pushl	%ebx
	leal	-52(%esp), %esp
	.cfi_offset 3, -12
	call	__x86.get_pc_thunk.bx
	addl	$_GLOBAL_OFFSET_TABLE_, %ebx
.LBB9:
	.loc 4 636 0
	movl	8(%ebp), %edx
	movl	$2, 32(%esp)
	movl	32(%ebp), %eax
	movl	%eax, 28(%esp)
	movl	28(%ebp), %eax
	movl	%eax, 24(%esp)
	movl	24(%ebp), %eax
	movl	%eax, 20(%esp)
	movl	20(%ebp), %eax
	movl	%eax, 16(%esp)
	movl	$8, 12(%esp)
	movl	16(%ebp), %eax
	movl	%eax, 8(%esp)
	movl	12(%ebp), %eax
	movl	%eax, 4(%esp)
	movl	%edx, (%esp)
	call	_ZN20CIwMenuItemEditValueC2EPKcPvjffffN11CIwMenuItem8ColourIDE
	movl	8(%ebp), %eax
	leal	8+_ZTV21CIwMenuItemEditUInt32@GOTOFF(%ebx), %edx
	movl	%edx, (%eax)
.LBE9:
	leal	52(%esp), %esp
	popl	%ebx
	.cfi_restore 3
	popl	%ebp
	.cfi_restore 5
	.cfi_def_cfa 4, 4
	ret
	.cfi_endproc
.LFE299:
	.size	_ZN21CIwMenuItemEditUInt32C2EPKcPjffff, .-_ZN21CIwMenuItemEditUInt32C2EPKcPjffff
	.weak	_ZN21CIwMenuItemEditUInt32C1EPKcPjffff
	.hidden	_ZN21CIwMenuItemEditUInt32C1EPKcPjffff
	.set	_ZN21CIwMenuItemEditUInt32C1EPKcPjffff,_ZN21CIwMenuItemEditUInt32C2EPKcPjffff
	.section	.text._ZN16CIwMenuItemTitleC2EPKc,"axG",@progbits,_ZN16CIwMenuItemTitleC5EPKc,comdat
	.align 2
	.weak	_ZN16CIwMenuItemTitleC2EPKc
	.hidden	_ZN16CIwMenuItemTitleC2EPKc
	.type	_ZN16CIwMenuItemTitleC2EPKc, @function
_ZN16CIwMenuItemTitleC2EPKc:
.LFB316:
	.loc 4 705 0
	.cfi_startproc
	pushl	%ebp
	.cfi_def_cfa_offset 8
	.cfi_offset 5, -8
	movl	%esp, %ebp
	.cfi_def_cfa_register 5
	pushl	%ebx
	leal	-36(%esp), %esp
	.cfi_offset 3, -12
	call	__x86.get_pc_thunk.bx
	addl	$_GLOBAL_OFFSET_TABLE_, %ebx
.LBB10:
	.loc 4 705 0
	movl	8(%ebp), %eax
	movl	$0, 16(%esp)
	movl	$2, 12(%esp)
	movl	12(%ebp), %edx
	movl	%edx, 8(%esp)
	leal	.LC4@GOTOFF(%ebx), %edx
	movl	%edx, 4(%esp)
	movl	%eax, (%esp)
	call	_ZN11CIwMenuItemC2EPKcS1_jNS_8ColourIDE@PLT
	movl	8(%ebp), %eax
	leal	8+_ZTV16CIwMenuItemTitle@GOTOFF(%ebx), %edx
	movl	%edx, (%eax)
.LBE10:
	leal	36(%esp), %esp
	popl	%ebx
	.cfi_restore 3
	popl	%ebp
	.cfi_restore 5
	.cfi_def_cfa 4, 4
	ret
	.cfi_endproc
.LFE316:
	.size	_ZN16CIwMenuItemTitleC2EPKc, .-_ZN16CIwMenuItemTitleC2EPKc
	.weak	_ZN16CIwMenuItemTitleC1EPKc
	.hidden	_ZN16CIwMenuItemTitleC1EPKc
	.set	_ZN16CIwMenuItemTitleC1EPKc,_ZN16CIwMenuItemTitleC2EPKc
	.section	.text._ZN21CIwMenuItemEditUInt32D2Ev,"axG",@progbits,_ZN21CIwMenuItemEditUInt32D5Ev,comdat
	.align 2
	.weak	_ZN21CIwMenuItemEditUInt32D2Ev
	.hidden	_ZN21CIwMenuItemEditUInt32D2Ev
	.type	_ZN21CIwMenuItemEditUInt32D2Ev, @function
_ZN21CIwMenuItemEditUInt32D2Ev:
.LFB320:
	.loc 4 624 0
	.cfi_startproc
	pushl	%ebp
	.cfi_def_cfa_offset 8
	.cfi_offset 5, -8
	movl	%esp, %ebp
	.cfi_def_cfa_register 5
	pushl	%ebx
	leal	-20(%esp), %esp
	.cfi_offset 3, -12
	call	__x86.get_pc_thunk.bx
	addl	$_GLOBAL_OFFSET_TABLE_, %ebx
.LBB11:
	.loc 4 624 0
	movl	8(%ebp), %eax
	leal	8+_ZTV21CIwMenuItemEditUInt32@GOTOFF(%ebx), %edx
	movl	%edx, (%eax)
	movl	8(%ebp), %eax
	movl	%eax, (%esp)
	call	_ZN20CIwMenuItemEditValueD2Ev
.LBE11:
	movl	$0, %eax
	testl	%eax, %eax
	je	.L36
	.loc 4 624 0 is_stmt 0 discriminator 1
	movl	8(%ebp), %eax
	movl	%eax, (%esp)
	call	_ZdlPv@PLT
.L36:
	.loc 4 624 0
	leal	20(%esp), %esp
	popl	%ebx
	.cfi_restore 3
	popl	%ebp
	.cfi_restore 5
	.cfi_def_cfa 4, 4
	ret
	.cfi_endproc
.LFE320:
	.size	_ZN21CIwMenuItemEditUInt32D2Ev, .-_ZN21CIwMenuItemEditUInt32D2Ev
	.weak	_ZN21CIwMenuItemEditUInt32D1Ev
	.hidden	_ZN21CIwMenuItemEditUInt32D1Ev
	.set	_ZN21CIwMenuItemEditUInt32D1Ev,_ZN21CIwMenuItemEditUInt32D2Ev
	.section	.text._ZN21CIwMenuItemEditUInt32D0Ev,"axG",@progbits,_ZN21CIwMenuItemEditUInt32D0Ev,comdat
	.align 2
	.weak	_ZN21CIwMenuItemEditUInt32D0Ev
	.hidden	_ZN21CIwMenuItemEditUInt32D0Ev
	.type	_ZN21CIwMenuItemEditUInt32D0Ev, @function
_ZN21CIwMenuItemEditUInt32D0Ev:
.LFB322:
	.loc 4 624 0 is_stmt 1
	.cfi_startproc
	pushl	%ebp
	.cfi_def_cfa_offset 8
	.cfi_offset 5, -8
	movl	%esp, %ebp
	.cfi_def_cfa_register 5
	pushl	%ebx
	leal	-20(%esp), %esp
	.cfi_offset 3, -12
	call	__x86.get_pc_thunk.bx
	addl	$_GLOBAL_OFFSET_TABLE_, %ebx
	.loc 4 624 0
	movl	8(%ebp), %eax
	movl	%eax, (%esp)
	call	_ZN21CIwMenuItemEditUInt32D1Ev
	movl	8(%ebp), %eax
	movl	%eax, (%esp)
	call	_ZdlPv@PLT
	leal	20(%esp), %esp
	popl	%ebx
	.cfi_restore 3
	popl	%ebp
	.cfi_restore 5
	.cfi_def_cfa 4, 4
	ret
	.cfi_endproc
.LFE322:
	.size	_ZN21CIwMenuItemEditUInt32D0Ev, .-_ZN21CIwMenuItemEditUInt32D0Ev
	.section	.text._ZNK12CIwSoundSpec8GetGroupEv,"axG",@progbits,_ZNK12CIwSoundSpec8GetGroupEv,comdat
	.align 2
	.weak	_ZNK12CIwSoundSpec8GetGroupEv
	.hidden	_ZNK12CIwSoundSpec8GetGroupEv
	.type	_ZNK12CIwSoundSpec8GetGroupEv, @function
_ZNK12CIwSoundSpec8GetGroupEv:
.LFB414:
	.file 5 "c:/marmalade/7.5/examples/gametutorial/cpp/modules/soundengine/h/IwSoundSpec.h"
	.loc 5 52 0
	.cfi_startproc
	pushl	%ebp
	.cfi_def_cfa_offset 8
	.cfi_offset 5, -8
	leal	(%esp), %ebp
	.cfi_def_cfa_register 5
	.loc 5 52 0
	movl	8(%ebp), %eax
	movl	36(%eax), %eax
	popl	%ebp
	.cfi_restore 5
	.cfi_def_cfa 4, 4
	ret
	.cfi_endproc
.LFE414:
	.size	_ZNK12CIwSoundSpec8GetGroupEv, .-_ZNK12CIwSoundSpec8GetGroupEv
	.section	.text._ZNK12CIwSoundSpec7GetDataEv,"axG",@progbits,_ZNK12CIwSoundSpec7GetDataEv,comdat
	.align 2
	.weak	_ZNK12CIwSoundSpec7GetDataEv
	.hidden	_ZNK12CIwSoundSpec7GetDataEv
	.type	_ZNK12CIwSoundSpec7GetDataEv, @function
_ZNK12CIwSoundSpec7GetDataEv:
.LFB416:
	.loc 5 58 0
	.cfi_startproc
	pushl	%ebp
	.cfi_def_cfa_offset 8
	.cfi_offset 5, -8
	leal	(%esp), %ebp
	.cfi_def_cfa_register 5
	.loc 5 58 0
	movl	8(%ebp), %eax
	movl	32(%eax), %eax
	popl	%ebp
	.cfi_restore 5
	.cfi_def_cfa 4, 4
	ret
	.cfi_endproc
.LFE416:
	.size	_ZNK12CIwSoundSpec7GetDataEv, .-_ZNK12CIwSoundSpec7GetDataEv
	.section	.text._ZN15CIwChannelADPCMC2Ev,"axG",@progbits,_ZN15CIwChannelADPCMC5Ev,comdat
	.align 2
	.weak	_ZN15CIwChannelADPCMC2Ev
	.hidden	_ZN15CIwChannelADPCMC2Ev
	.type	_ZN15CIwChannelADPCMC2Ev, @function
_ZN15CIwChannelADPCMC2Ev:
.LFB432:
	.file 6 "c:/marmalade/7.5/examples/gametutorial/cpp/modules/soundengine/h/IwSoundADPCM.h"
	.loc 6 55 0
	.cfi_startproc
	pushl	%ebp
	.cfi_def_cfa_offset 8
	.cfi_offset 5, -8
	movl	%esp, %ebp
	.cfi_def_cfa_register 5
	pushl	%ebx
	leal	-4(%esp), %esp
	.cfi_offset 3, -12
	call	__x86.get_pc_thunk.bx
	addl	$_GLOBAL_OFFSET_TABLE_, %ebx
.LBB12:
	.loc 6 57 0
	movl	8(%ebp), %eax
	movl	$0, (%eax)
	.loc 6 58 0
	movl	_ZN15CIwChannelADPCM13isInitializedE@GOT(%ebx), %eax
	movl	(%eax), %eax
	testl	%eax, %eax
	jne	.L45
	.loc 6 59 0
	call	_ZN15CIwChannelADPCM4InitEv@PLT
.L45:
.LBE12:
	.loc 6 60 0
	leal	4(%esp), %esp
	popl	%ebx
	.cfi_restore 3
	popl	%ebp
	.cfi_restore 5
	.cfi_def_cfa 4, 4
	ret
	.cfi_endproc
.LFE432:
	.size	_ZN15CIwChannelADPCMC2Ev, .-_ZN15CIwChannelADPCMC2Ev
	.weak	_ZN15CIwChannelADPCMC1Ev
	.hidden	_ZN15CIwChannelADPCMC1Ev
	.set	_ZN15CIwChannelADPCMC1Ev,_ZN15CIwChannelADPCMC2Ev
	.section	.text._ZN15CIwChannelADPCM15GenerateAudioCBEP20s3eSoundGenAudioInfoPS_,"axG",@progbits,_ZN15CIwChannelADPCM15GenerateAudioCBEP20s3eSoundGenAudioInfoPS_,comdat
	.weak	_ZN15CIwChannelADPCM15GenerateAudioCBEP20s3eSoundGenAudioInfoPS_
	.hidden	_ZN15CIwChannelADPCM15GenerateAudioCBEP20s3eSoundGenAudioInfoPS_
	.type	_ZN15CIwChannelADPCM15GenerateAudioCBEP20s3eSoundGenAudioInfoPS_, @function
_ZN15CIwChannelADPCM15GenerateAudioCBEP20s3eSoundGenAudioInfoPS_:
.LFB434:
	.loc 6 63 0
	.cfi_startproc
	pushl	%ebp
	.cfi_def_cfa_offset 8
	.cfi_offset 5, -8
	movl	%esp, %ebp
	.cfi_def_cfa_register 5
	pushl	%ebx
	leal	-20(%esp), %esp
	.cfi_offset 3, -12
	call	__x86.get_pc_thunk.bx
	addl	$_GLOBAL_OFFSET_TABLE_, %ebx
	.loc 6 65 0
	movl	8(%ebp), %eax
	movl	%eax, 4(%esp)
	movl	12(%ebp), %eax
	movl	%eax, (%esp)
	call	_ZN15CIwChannelADPCM13GenerateAudioEP20s3eSoundGenAudioInfo@PLT
	.loc 6 66 0
	leal	20(%esp), %esp
	popl	%ebx
	.cfi_restore 3
	popl	%ebp
	.cfi_restore 5
	.cfi_def_cfa 4, 4
	ret
	.cfi_endproc
.LFE434:
	.size	_ZN15CIwChannelADPCM15GenerateAudioCBEP20s3eSoundGenAudioInfoPS_, .-_ZN15CIwChannelADPCM15GenerateAudioCBEP20s3eSoundGenAudioInfoPS_
	.section	.text._ZNK15CIwSoundManager16GetGroupIdentityEv,"axG",@progbits,_ZNK15CIwSoundManager16GetGroupIdentityEv,comdat
	.align 2
	.weak	_ZNK15CIwSoundManager16GetGroupIdentityEv
	.hidden	_ZNK15CIwSoundManager16GetGroupIdentityEv
	.type	_ZNK15CIwSoundManager16GetGroupIdentityEv, @function
_ZNK15CIwSoundManager16GetGroupIdentityEv:
.LFB435:
	.file 7 "c:/marmalade/7.5/examples/gametutorial/cpp/modules/soundengine/h/IwSoundManager.h"
	.loc 7 77 0
	.cfi_startproc
	pushl	%ebp
	.cfi_def_cfa_offset 8
	.cfi_offset 5, -8
	leal	(%esp), %ebp
	.cfi_def_cfa_register 5
	.loc 7 77 0
	movl	8(%ebp), %eax
	movl	32(%eax), %eax
	popl	%ebp
	.cfi_restore 5
	.cfi_def_cfa 4, 4
	ret
	.cfi_endproc
.LFE435:
	.size	_ZNK15CIwSoundManager16GetGroupIdentityEv, .-_ZNK15CIwSoundManager16GetGroupIdentityEv
	.section	.text._ZNK15CIwSoundManager12GetMasterVolEv,"axG",@progbits,_ZNK15CIwSoundManager12GetMasterVolEv,comdat
	.align 2
	.weak	_ZNK15CIwSoundManager12GetMasterVolEv
	.hidden	_ZNK15CIwSoundManager12GetMasterVolEv
	.type	_ZNK15CIwSoundManager12GetMasterVolEv, @function
_ZNK15CIwSoundManager12GetMasterVolEv:
.LFB437:
	.loc 7 92 0
	.cfi_startproc
	pushl	%ebp
	.cfi_def_cfa_offset 8
	.cfi_offset 5, -8
	leal	(%esp), %ebp
	.cfi_def_cfa_register 5
	.loc 7 92 0
	movl	8(%ebp), %eax
	movzwl	24(%eax), %eax
	popl	%ebp
	.cfi_restore 5
	.cfi_def_cfa 4, 4
	ret
	.cfi_endproc
.LFE437:
	.size	_ZNK15CIwSoundManager12GetMasterVolEv, .-_ZNK15CIwSoundManager12GetMasterVolEv
	.section	.text._ZNK15CIwSoundManager14GetMasterPitchEv,"axG",@progbits,_ZNK15CIwSoundManager14GetMasterPitchEv,comdat
	.align 2
	.weak	_ZNK15CIwSoundManager14GetMasterPitchEv
	.hidden	_ZNK15CIwSoundManager14GetMasterPitchEv
	.type	_ZNK15CIwSoundManager14GetMasterPitchEv, @function
_ZNK15CIwSoundManager14GetMasterPitchEv:
.LFB439:
	.loc 7 98 0
	.cfi_startproc
	pushl	%ebp
	.cfi_def_cfa_offset 8
	.cfi_offset 5, -8
	leal	(%esp), %ebp
	.cfi_def_cfa_register 5
	.loc 7 98 0
	movl	8(%ebp), %eax
	movzwl	28(%eax), %eax
	popl	%ebp
	.cfi_restore 5
	.cfi_def_cfa 4, 4
	ret
	.cfi_endproc
.LFE439:
	.size	_ZNK15CIwSoundManager14GetMasterPitchEv, .-_ZNK15CIwSoundManager14GetMasterPitchEv
	.section	.text._ZNK15CIwSoundManager8IsActiveEv,"axG",@progbits,_ZNK15CIwSoundManager8IsActiveEv,comdat
	.align 2
	.weak	_ZNK15CIwSoundManager8IsActiveEv
	.hidden	_ZNK15CIwSoundManager8IsActiveEv
	.type	_ZNK15CIwSoundManager8IsActiveEv, @function
_ZNK15CIwSoundManager8IsActiveEv:
.LFB446:
	.loc 7 128 0
	.cfi_startproc
	pushl	%ebp
	.cfi_def_cfa_offset 8
	.cfi_offset 5, -8
	leal	(%esp), %ebp
	.cfi_def_cfa_register 5
	.loc 7 130 0
	movl	8(%ebp), %eax
	movzwl	30(%eax), %eax
	movzwl	%ax, %eax
	andl	$2, %eax
	testl	%eax, %eax
	setne	%al
	.loc 7 131 0
	popl	%ebp
	.cfi_restore 5
	.cfi_def_cfa 4, 4
	ret
	.cfi_endproc
.LFE446:
	.size	_ZNK15CIwSoundManager8IsActiveEv, .-_ZNK15CIwSoundManager8IsActiveEv
	.section	.text._Z17IwGetSoundManagerv,"axG",@progbits,_Z17IwGetSoundManagerv,comdat
	.weak	_Z17IwGetSoundManagerv
	.hidden	_Z17IwGetSoundManagerv
	.type	_Z17IwGetSoundManagerv, @function
_Z17IwGetSoundManagerv:
.LFB449:
	.loc 7 193 0
	.cfi_startproc
	pushl	%ebp
	.cfi_def_cfa_offset 8
	.cfi_offset 5, -8
	movl	%esp, %ebp
	.cfi_def_cfa_register 5
	call	__x86.get_pc_thunk.cx
	addl	$_GLOBAL_OFFSET_TABLE_, %ecx
	.loc 7 193 0
	movl	g_IwSoundManager@GOTOFF(%ecx), %eax
	popl	%ebp
	.cfi_restore 5
	.cfi_def_cfa 4, 4
	ret
	.cfi_endproc
.LFE449:
	.size	_Z17IwGetSoundManagerv, .-_Z17IwGetSoundManagerv
	.section	.text._ZNK13CIwSoundGroup6GetVolEv,"axG",@progbits,_ZNK13CIwSoundGroup6GetVolEv,comdat
	.align 2
	.weak	_ZNK13CIwSoundGroup6GetVolEv
	.hidden	_ZNK13CIwSoundGroup6GetVolEv
	.type	_ZNK13CIwSoundGroup6GetVolEv, @function
_ZNK13CIwSoundGroup6GetVolEv:
.LFB1403:
	.file 8 "c:/marmalade/7.5/examples/gametutorial/cpp/modules/soundengine/h/IwSoundGroup.h"
	.loc 8 51 0
	.cfi_startproc
	pushl	%ebp
	.cfi_def_cfa_offset 8
	.cfi_offset 5, -8
	leal	(%esp), %ebp
	.cfi_def_cfa_register 5
	.loc 8 51 0
	movl	8(%ebp), %eax
	movzwl	16(%eax), %eax
	popl	%ebp
	.cfi_restore 5
	.cfi_def_cfa 4, 4
	ret
	.cfi_endproc
.LFE1403:
	.size	_ZNK13CIwSoundGroup6GetVolEv, .-_ZNK13CIwSoundGroup6GetVolEv
	.section	.text._ZNK13CIwSoundGroup8GetPitchEv,"axG",@progbits,_ZNK13CIwSoundGroup8GetPitchEv,comdat
	.align 2
	.weak	_ZNK13CIwSoundGroup8GetPitchEv
	.hidden	_ZNK13CIwSoundGroup8GetPitchEv
	.type	_ZNK13CIwSoundGroup8GetPitchEv, @function
_ZNK13CIwSoundGroup8GetPitchEv:
.LFB1405:
	.loc 8 57 0
	.cfi_startproc
	pushl	%ebp
	.cfi_def_cfa_offset 8
	.cfi_offset 5, -8
	leal	(%esp), %ebp
	.cfi_def_cfa_register 5
	.loc 8 57 0
	movl	8(%ebp), %eax
	movzwl	20(%eax), %eax
	popl	%ebp
	.cfi_restore 5
	.cfi_def_cfa 4, 4
	ret
	.cfi_endproc
.LFE1405:
	.size	_ZNK13CIwSoundGroup8GetPitchEv, .-_ZNK13CIwSoundGroup8GetPitchEv
	.section	.text._ZNK13CIwSoundGroup8GetFlagsEv,"axG",@progbits,_ZNK13CIwSoundGroup8GetFlagsEv,comdat
	.align 2
	.weak	_ZNK13CIwSoundGroup8GetFlagsEv
	.hidden	_ZNK13CIwSoundGroup8GetFlagsEv
	.type	_ZNK13CIwSoundGroup8GetFlagsEv, @function
_ZNK13CIwSoundGroup8GetFlagsEv:
.LFB1409:
	.loc 8 69 0
	.cfi_startproc
	pushl	%ebp
	.cfi_def_cfa_offset 8
	.cfi_offset 5, -8
	leal	(%esp), %ebp
	.cfi_def_cfa_register 5
	.loc 8 69 0
	movl	8(%ebp), %eax
	movzwl	26(%eax), %eax
	popl	%ebp
	.cfi_restore 5
	.cfi_def_cfa 4, 4
	ret
	.cfi_endproc
.LFE1409:
	.size	_ZNK13CIwSoundGroup8GetFlagsEv, .-_ZNK13CIwSoundGroup8GetFlagsEv
	.section	.text._ZNK12CIwSoundInst8GetFlagsEv,"axG",@progbits,_ZNK12CIwSoundInst8GetFlagsEv,comdat
	.align 2
	.weak	_ZNK12CIwSoundInst8GetFlagsEv
	.hidden	_ZNK12CIwSoundInst8GetFlagsEv
	.type	_ZNK12CIwSoundInst8GetFlagsEv, @function
_ZNK12CIwSoundInst8GetFlagsEv:
.LFB1413:
	.file 9 "c:/marmalade/7.5/examples/gametutorial/cpp/modules/soundengine/h/IwSoundInst.h"
	.loc 9 51 0
	.cfi_startproc
	pushl	%ebp
	.cfi_def_cfa_offset 8
	.cfi_offset 5, -8
	leal	(%esp), %ebp
	.cfi_def_cfa_register 5
	.loc 9 51 0
	movl	8(%ebp), %eax
	movzwl	10(%eax), %eax
	popl	%ebp
	.cfi_restore 5
	.cfi_def_cfa 4, 4
	ret
	.cfi_endproc
.LFE1413:
	.size	_ZNK12CIwSoundInst8GetFlagsEv, .-_ZNK12CIwSoundInst8GetFlagsEv
	.section	.text._ZNK12CIwSoundInst7GetSpecEv,"axG",@progbits,_ZNK12CIwSoundInst7GetSpecEv,comdat
	.align 2
	.weak	_ZNK12CIwSoundInst7GetSpecEv
	.hidden	_ZNK12CIwSoundInst7GetSpecEv
	.type	_ZNK12CIwSoundInst7GetSpecEv, @function
_ZNK12CIwSoundInst7GetSpecEv:
.LFB1414:
	.loc 9 54 0
	.cfi_startproc
	pushl	%ebp
	.cfi_def_cfa_offset 8
	.cfi_offset 5, -8
	leal	(%esp), %ebp
	.cfi_def_cfa_register 5
	.loc 9 54 0
	movl	8(%ebp), %eax
	movl	(%eax), %eax
	popl	%ebp
	.cfi_restore 5
	.cfi_def_cfa 4, 4
	ret
	.cfi_endproc
.LFE1414:
	.size	_ZNK12CIwSoundInst7GetSpecEv, .-_ZNK12CIwSoundInst7GetSpecEv
	.section	.text._ZNK12CIwSoundInst9GetChanIDEv,"axG",@progbits,_ZNK12CIwSoundInst9GetChanIDEv,comdat
	.align 2
	.weak	_ZNK12CIwSoundInst9GetChanIDEv
	.hidden	_ZNK12CIwSoundInst9GetChanIDEv
	.type	_ZNK12CIwSoundInst9GetChanIDEv, @function
_ZNK12CIwSoundInst9GetChanIDEv:
.LFB1415:
	.loc 9 57 0
	.cfi_startproc
	pushl	%ebp
	.cfi_def_cfa_offset 8
	.cfi_offset 5, -8
	leal	(%esp), %ebp
	.cfi_def_cfa_register 5
	.loc 9 57 0
	movl	8(%ebp), %eax
	movzwl	12(%eax), %eax
	popl	%ebp
	.cfi_restore 5
	.cfi_def_cfa 4, 4
	ret
	.cfi_endproc
.LFE1415:
	.size	_ZNK12CIwSoundInst9GetChanIDEv, .-_ZNK12CIwSoundInst9GetChanIDEv
	.section	.text._ZNK12CIwSoundInst6GetVolEv,"axG",@progbits,_ZNK12CIwSoundInst6GetVolEv,comdat
	.align 2
	.weak	_ZNK12CIwSoundInst6GetVolEv
	.hidden	_ZNK12CIwSoundInst6GetVolEv
	.type	_ZNK12CIwSoundInst6GetVolEv, @function
_ZNK12CIwSoundInst6GetVolEv:
.LFB1416:
	.loc 9 60 0
	.cfi_startproc
	pushl	%ebp
	.cfi_def_cfa_offset 8
	.cfi_offset 5, -8
	leal	(%esp), %ebp
	.cfi_def_cfa_register 5
	.loc 9 60 0
	movl	8(%ebp), %eax
	movzwl	4(%eax), %eax
	popl	%ebp
	.cfi_restore 5
	.cfi_def_cfa 4, 4
	ret
	.cfi_endproc
.LFE1416:
	.size	_ZNK12CIwSoundInst6GetVolEv, .-_ZNK12CIwSoundInst6GetVolEv
	.section	.text._ZNK12CIwSoundInst8GetPitchEv,"axG",@progbits,_ZNK12CIwSoundInst8GetPitchEv,comdat
	.align 2
	.weak	_ZNK12CIwSoundInst8GetPitchEv
	.hidden	_ZNK12CIwSoundInst8GetPitchEv
	.type	_ZNK12CIwSoundInst8GetPitchEv, @function
_ZNK12CIwSoundInst8GetPitchEv:
.LFB1418:
	.loc 9 66 0
	.cfi_startproc
	pushl	%ebp
	.cfi_def_cfa_offset 8
	.cfi_offset 5, -8
	leal	(%esp), %ebp
	.cfi_def_cfa_register 5
	.loc 9 66 0
	movl	8(%ebp), %eax
	movzwl	8(%eax), %eax
	popl	%ebp
	.cfi_restore 5
	.cfi_def_cfa 4, 4
	ret
	.cfi_endproc
.LFE1418:
	.size	_ZNK12CIwSoundInst8GetPitchEv, .-_ZNK12CIwSoundInst8GetPitchEv
	.section	.text._ZNK12CIwSoundInst14GetEndSampleCBEv,"axG",@progbits,_ZNK12CIwSoundInst14GetEndSampleCBEv,comdat
	.align 2
	.weak	_ZNK12CIwSoundInst14GetEndSampleCBEv
	.hidden	_ZNK12CIwSoundInst14GetEndSampleCBEv
	.type	_ZNK12CIwSoundInst14GetEndSampleCBEv, @function
_ZNK12CIwSoundInst14GetEndSampleCBEv:
.LFB1421:
	.loc 9 96 0
	.cfi_startproc
	pushl	%ebp
	.cfi_def_cfa_offset 8
	.cfi_offset 5, -8
	leal	(%esp), %ebp
	.cfi_def_cfa_register 5
	.loc 9 96 0
	movl	8(%ebp), %eax
	movl	20(%eax), %eax
	popl	%ebp
	.cfi_restore 5
	.cfi_def_cfa 4, 4
	ret
	.cfi_endproc
.LFE1421:
	.size	_ZNK12CIwSoundInst14GetEndSampleCBEv, .-_ZNK12CIwSoundInst14GetEndSampleCBEv
	.section	.text._ZNK12CIwSoundData11GetRecPitchEv,"axG",@progbits,_ZNK12CIwSoundData11GetRecPitchEv,comdat
	.align 2
	.weak	_ZNK12CIwSoundData11GetRecPitchEv
	.hidden	_ZNK12CIwSoundData11GetRecPitchEv
	.type	_ZNK12CIwSoundData11GetRecPitchEv, @function
_ZNK12CIwSoundData11GetRecPitchEv:
.LFB1427:
	.file 10 "c:/marmalade/7.5/examples/gametutorial/cpp/modules/soundengine/h/IwSoundData.h"
	.loc 10 57 0
	.cfi_startproc
	pushl	%ebp
	.cfi_def_cfa_offset 8
	.cfi_offset 5, -8
	leal	(%esp), %ebp
	.cfi_def_cfa_register 5
	.loc 10 57 0
	movl	8(%ebp), %eax
	movl	28(%eax), %eax
	popl	%ebp
	.cfi_restore 5
	.cfi_def_cfa 4, 4
	ret
	.cfi_endproc
.LFE1427:
	.size	_ZNK12CIwSoundData11GetRecPitchEv, .-_ZNK12CIwSoundData11GetRecPitchEv
	.hidden	g_IwSoundManager
	.globl	g_IwSoundManager
	.bss
	.align 4
	.type	g_IwSoundManager, @object
	.size	g_IwSoundManager, 4
g_IwSoundManager:
	.zero	4
	.section	.rodata
.LC6:
	.string	"IwSoundInit"
.LC7:
	.string	"UTIL"
.LC8:
	.string	"CIwSoundData"
	.align 4
.LC9:
	.string	"Added class factory for %s (hash 0x%08x)"
.LC10:
	.string	"CIwSoundDataADPCM"
.LC11:
	.string	"CIwSoundGroup"
.LC12:
	.string	"CIwSoundSpec"
	.text
	.globl	_Z11IwSoundInitv
	.hidden	_Z11IwSoundInitv
	.type	_Z11IwSoundInitv, @function
_Z11IwSoundInitv:
.LFB1430:
	.file 11 "c:/Marmalade/7.5/examples/GameTutorial/CPP/modules/soundengine/source/IwSoundManager.cpp"
	.loc 11 35 0
	.cfi_startproc
	pushl	%ebp
	.cfi_def_cfa_offset 8
	.cfi_offset 5, -8
	movl	%esp, %ebp
	.cfi_def_cfa_register 5
	pushl	%ebx
	leal	-36(%esp), %esp
	.cfi_offset 3, -12
	call	__x86.get_pc_thunk.bx
	addl	$_GLOBAL_OFFSET_TABLE_, %ebx
.LBB13:
	.loc 11 36 0
	leal	.LC6@GOTOFF(%ebx), %eax
	movl	%eax, 4(%esp)
	leal	-9(%ebp), %eax
	movl	%eax, (%esp)
	call	_ZN12CIwCallStackC1EPKc
	.loc 11 38 0
	movl	$40, (%esp)
	call	_Znwj@PLT
	movl	%eax, (%esp)
	call	_ZN15CIwSoundManagerC1Ev
	.loc 11 41 0
	movl	$1, 4(%esp)
	leal	.LC7@GOTOFF(%ebx), %eax
	movl	%eax, (%esp)
	call	IwDebugTraceIsChannelOn@PLT
	testb	%al, %al
	setne	%al
	testb	%al, %al
	je	.L80
	.loc 11 41 0 is_stmt 0 discriminator 1
	leal	.LC7@GOTOFF(%ebx), %eax
	movl	%eax, (%esp)
	call	IwDebugTraceSetTraceChannel@PLT
	leal	.LC8@GOTOFF(%ebx), %eax
	movl	%eax, (%esp)
	call	_Z12IwHashStringPKc@PLT
	movl	%eax, 8(%esp)
	leal	.LC8@GOTOFF(%ebx), %eax
	movl	%eax, 4(%esp)
	leal	.LC9@GOTOFF(%ebx), %eax
	movl	%eax, (%esp)
	call	IwDebugTraceLinePrintf@PLT
.L80:
	.loc 11 41 0 discriminator 2
	call	_Z20_GetCIwSoundDataSizev@PLT
	movl	%eax, 8(%esp)
	movl	_Z20_CIwSoundDataFactoryv@GOT(%ebx), %eax
	movl	%eax, 4(%esp)
	leal	.LC8@GOTOFF(%ebx), %eax
	movl	%eax, (%esp)
	call	_Z17IwClassFactoryAddPKcPFPvvEj@PLT
	.loc 11 42 0 is_stmt 1 discriminator 2
	movl	$1, 4(%esp)
	leal	.LC7@GOTOFF(%ebx), %eax
	movl	%eax, (%esp)
	call	IwDebugTraceIsChannelOn@PLT
	testb	%al, %al
	setne	%al
	testb	%al, %al
	je	.L81
	.loc 11 42 0 is_stmt 0 discriminator 1
	leal	.LC7@GOTOFF(%ebx), %eax
	movl	%eax, (%esp)
	call	IwDebugTraceSetTraceChannel@PLT
	leal	.LC10@GOTOFF(%ebx), %eax
	movl	%eax, (%esp)
	call	_Z12IwHashStringPKc@PLT
	movl	%eax, 8(%esp)
	leal	.LC10@GOTOFF(%ebx), %eax
	movl	%eax, 4(%esp)
	leal	.LC9@GOTOFF(%ebx), %eax
	movl	%eax, (%esp)
	call	IwDebugTraceLinePrintf@PLT
.L81:
	.loc 11 42 0 discriminator 2
	call	_Z25_GetCIwSoundDataADPCMSizev@PLT
	movl	%eax, 8(%esp)
	movl	_Z25_CIwSoundDataADPCMFactoryv@GOT(%ebx), %eax
	movl	%eax, 4(%esp)
	leal	.LC10@GOTOFF(%ebx), %eax
	movl	%eax, (%esp)
	call	_Z17IwClassFactoryAddPKcPFPvvEj@PLT
	.loc 11 43 0 is_stmt 1 discriminator 2
	movl	$1, 4(%esp)
	leal	.LC7@GOTOFF(%ebx), %eax
	movl	%eax, (%esp)
	call	IwDebugTraceIsChannelOn@PLT
	testb	%al, %al
	setne	%al
	testb	%al, %al
	je	.L82
	.loc 11 43 0 is_stmt 0 discriminator 1
	leal	.LC7@GOTOFF(%ebx), %eax
	movl	%eax, (%esp)
	call	IwDebugTraceSetTraceChannel@PLT
	leal	.LC11@GOTOFF(%ebx), %eax
	movl	%eax, (%esp)
	call	_Z12IwHashStringPKc@PLT
	movl	%eax, 8(%esp)
	leal	.LC11@GOTOFF(%ebx), %eax
	movl	%eax, 4(%esp)
	leal	.LC9@GOTOFF(%ebx), %eax
	movl	%eax, (%esp)
	call	IwDebugTraceLinePrintf@PLT
.L82:
	.loc 11 43 0 discriminator 2
	call	_Z21_GetCIwSoundGroupSizev@PLT
	movl	%eax, 8(%esp)
	movl	_Z21_CIwSoundGroupFactoryv@GOT(%ebx), %eax
	movl	%eax, 4(%esp)
	leal	.LC11@GOTOFF(%ebx), %eax
	movl	%eax, (%esp)
	call	_Z17IwClassFactoryAddPKcPFPvvEj@PLT
	.loc 11 44 0 is_stmt 1 discriminator 2
	movl	$1, 4(%esp)
	leal	.LC7@GOTOFF(%ebx), %eax
	movl	%eax, (%esp)
	call	IwDebugTraceIsChannelOn@PLT
	testb	%al, %al
	setne	%al
	testb	%al, %al
	je	.L83
	.loc 11 44 0 is_stmt 0 discriminator 1
	leal	.LC7@GOTOFF(%ebx), %eax
	movl	%eax, (%esp)
	call	IwDebugTraceSetTraceChannel@PLT
	leal	.LC12@GOTOFF(%ebx), %eax
	movl	%eax, (%esp)
	call	_Z12IwHashStringPKc@PLT
	movl	%eax, 8(%esp)
	leal	.LC12@GOTOFF(%ebx), %eax
	movl	%eax, 4(%esp)
	leal	.LC9@GOTOFF(%ebx), %eax
	movl	%eax, (%esp)
	call	IwDebugTraceLinePrintf@PLT
.L83:
	.loc 11 44 0 discriminator 2
	call	_Z20_GetCIwSoundSpecSizev@PLT
	movl	%eax, 8(%esp)
	movl	_Z20_CIwSoundSpecFactoryv@GOT(%ebx), %eax
	movl	%eax, 4(%esp)
	leal	.LC12@GOTOFF(%ebx), %eax
	movl	%eax, (%esp)
	call	_Z17IwClassFactoryAddPKcPFPvvEj@PLT
	leal	-9(%ebp), %eax
	movl	%eax, (%esp)
	call	_ZN12CIwCallStackD1Ev
.LBE13:
	.loc 11 45 0 is_stmt 1 discriminator 2
	leal	36(%esp), %esp
	popl	%ebx
	.cfi_restore 3
	popl	%ebp
	.cfi_restore 5
	.cfi_def_cfa 4, 4
	ret
	.cfi_endproc
.LFE1430:
	.size	_Z11IwSoundInitv, .-_Z11IwSoundInitv
	.section	.rodata
.LC13:
	.string	"IwSoundTerminate"
	.text
	.globl	_Z16IwSoundTerminatev
	.hidden	_Z16IwSoundTerminatev
	.type	_Z16IwSoundTerminatev, @function
_Z16IwSoundTerminatev:
.LFB1431:
	.loc 11 48 0
	.cfi_startproc
	pushl	%ebp
	.cfi_def_cfa_offset 8
	.cfi_offset 5, -8
	movl	%esp, %ebp
	.cfi_def_cfa_register 5
	pushl	%ebx
	leal	-36(%esp), %esp
	.cfi_offset 3, -12
	call	__x86.get_pc_thunk.bx
	addl	$_GLOBAL_OFFSET_TABLE_, %ebx
.LBB14:
	.loc 11 49 0
	leal	.LC13@GOTOFF(%ebx), %eax
	movl	%eax, 4(%esp)
	leal	-9(%ebp), %eax
	movl	%eax, (%esp)
	call	_ZN12CIwCallStackC1EPKc
	.loc 11 51 0
	call	_Z17IwGetSoundManagerv
	movl	%eax, (%esp)
	call	_ZN15CIwSoundManager7StopAllEv
	.loc 11 53 0
	call	_Z17IwGetSoundManagerv
	testl	%eax, %eax
	je	.L85
	.loc 11 53 0 is_stmt 0 discriminator 1
	movl	(%eax), %edx
	leal	4(%edx), %edx
	movl	(%edx), %edx
	movl	%eax, (%esp)
	call	*%edx
.L85:
	.loc 11 53 0 discriminator 2
	leal	-9(%ebp), %eax
	movl	%eax, (%esp)
	call	_ZN12CIwCallStackD1Ev
.LBE14:
	.loc 11 54 0 is_stmt 1 discriminator 2
	leal	36(%esp), %esp
	popl	%ebx
	.cfi_restore 3
	popl	%ebp
	.cfi_restore 5
	.cfi_def_cfa 4, 4
	ret
	.cfi_endproc
.LFE1431:
	.size	_Z16IwSoundTerminatev, .-_Z16IwSoundTerminatev
	.hidden	_ZN15CIwSoundManager14s_ChannelsPCM8E
	.globl	_ZN15CIwSoundManager14s_ChannelsPCM8E
	.bss
	.align 4
	.type	_ZN15CIwSoundManager14s_ChannelsPCM8E, @object
	.size	_ZN15CIwSoundManager14s_ChannelsPCM8E, 4
_ZN15CIwSoundManager14s_ChannelsPCM8E:
	.zero	4
	.hidden	_ZN15CIwSoundManager15s_ChannelsPCM16E
	.globl	_ZN15CIwSoundManager15s_ChannelsPCM16E
	.align 4
	.type	_ZN15CIwSoundManager15s_ChannelsPCM16E, @object
	.size	_ZN15CIwSoundManager15s_ChannelsPCM16E, 4
_ZN15CIwSoundManager15s_ChannelsPCM16E:
	.zero	4
	.hidden	_ZN15CIwSoundManager15s_ChannelsADPCME
	.globl	_ZN15CIwSoundManager15s_ChannelsADPCME
	.align 4
	.type	_ZN15CIwSoundManager15s_ChannelsADPCME, @object
	.size	_ZN15CIwSoundManager15s_ChannelsADPCME, 4
_ZN15CIwSoundManager15s_ChannelsADPCME:
	.zero	4
	.section	.rodata
	.align 4
.LC14:
	.string	"CIwSoundManager::CIwSoundManager"
.LC15:
	.string	"CORE"
	.align 4
.LC16:
	.string	"Singleton already exists; deleting existing singleton"
	.align 4
.LC17:
	.string	"c:/Marmalade/7.5/examples/GameTutorial/CPP/modules/soundengine/source/IwSoundManager.cpp"
.LC18:
	.string	"g_IwSoundManager == NULL"
.LC19:
	.string	"MaxChannels"
.LC20:
	.string	"SOUND"
	.text
	.align 2
	.globl	_ZN15CIwSoundManagerC2Ev
	.hidden	_ZN15CIwSoundManagerC2Ev
	.type	_ZN15CIwSoundManagerC2Ev, @function
_ZN15CIwSoundManagerC2Ev:
.LFB1433:
	.loc 11 63 0
	.cfi_startproc
	pushl	%ebp
	.cfi_def_cfa_offset 8
	.cfi_offset 5, -8
	movl	%esp, %ebp
	.cfi_def_cfa_register 5
	pushl	%edi
	pushl	%esi
	pushl	%ebx
	leal	-60(%esp), %esp
	.cfi_offset 7, -12
	.cfi_offset 6, -16
	.cfi_offset 3, -20
	call	__x86.get_pc_thunk.bx
	addl	$_GLOBAL_OFFSET_TABLE_, %ebx
.LBB15:
	.loc 11 63 0
	movl	8(%ebp), %eax
	leal	8+_ZTV15CIwSoundManager@GOTOFF(%ebx), %edx
	movl	%edx, (%eax)
.LBB16:
	.loc 11 65 0
	leal	.LC14@GOTOFF(%ebx), %eax
	movl	%eax, 4(%esp)
	leal	-33(%ebp), %eax
	movl	%eax, (%esp)
	call	_ZN12CIwCallStackC1EPKc
.LBB17:
.LBB18:
	.loc 11 66 0
	movl	g_IwSoundManager@GOTOFF(%ebx), %eax
	testl	%eax, %eax
	je	.L87
	.loc 11 66 0 is_stmt 0 discriminator 1
	leal	.LC15@GOTOFF(%ebx), %eax
	movl	%eax, (%esp)
	call	IwDebugAssertIsChannelOn@PLT
	testb	%al, %al
	je	.L88
	movzbl	_ZZN15CIwSoundManagerC1EvE21_s_IwAssertIgnoreThis@GOTOFF(%ebx), %eax
	testb	%al, %al
	jne	.L88
	.loc 11 66 0 discriminator 3
	movl	$1, %eax
	jmp	.L89
.L88:
	.loc 11 66 0 discriminator 2
	movl	$0, %eax
.L89:
	.loc 11 66 0 discriminator 4
	testb	%al, %al
	je	.L90
	.loc 11 66 0 discriminator 1
	movl	$275, (%esp)
	call	IwDebugAssertSetUID@PLT
	leal	.LC16@GOTOFF(%ebx), %eax
	movl	%eax, (%esp)
	call	IwDebugAssertSetMessage@PLT
	movl	$1, 12(%esp)
	movl	$66, 8(%esp)
	leal	.LC17@GOTOFF(%ebx), %eax
	movl	%eax, 4(%esp)
	leal	.LC18@GOTOFF(%ebx), %eax
	movl	%eax, (%esp)
	call	IwDebugAssertShow@PLT
	cmpl	$1, %eax
	je	.L92
	cmpl	$2, %eax
	je	.L93
	.loc 11 66 0
	jmp	.L91
.L92:
	.loc 11 66 0 discriminator 2
	call	s3eDebugIsDebuggerPresent@PLT
	testb	%al, %al
	setne	%al
	testb	%al, %al
	je	.L94
	.loc 11 66 0 discriminator 1
	call	s3eDebugIsDebuggerPresent@PLT
	testb	%al, %al
	setne	%al
	testb	%al, %al
	je	.L95
#APP
# 66 "c:/Marmalade/7.5/examples/GameTutorial/CPP/modules/soundengine/source/IwSoundManager.cpp" 1
	 int $3 
# 0 "" 2
#NO_APP
	jmp	.L95
.L94:
	.loc 11 66 0 discriminator 2
	call	_ZL11IwDebugExitv
	jmp	.L91
.L95:
	.loc 11 66 0 discriminator 1
	jmp	.L91
.L93:
	.loc 11 66 0 discriminator 3
	movb	$1, _ZZN15CIwSoundManagerC1EvE21_s_IwAssertIgnoreThis@GOTOFF(%ebx)
	nop
.L91:
	.loc 11 66 0 discriminator 1
	movl	$0, (%esp)
	call	IwDebugAssertSetUID@PLT
.L90:
	.loc 11 66 0 discriminator 2
	movl	g_IwSoundManager@GOTOFF(%ebx), %eax
	testl	%eax, %eax
	je	.L87
	.loc 11 66 0 discriminator 1
	movl	g_IwSoundManager@GOTOFF(%ebx), %eax
	movl	(%eax), %eax
	leal	4(%eax), %eax
	movl	(%eax), %eax
	movl	g_IwSoundManager@GOTOFF(%ebx), %edx
	movl	%edx, (%esp)
	call	*%eax
.L87:
.LBE18:
	.loc 11 66 0 discriminator 2
	movl	8(%ebp), %eax
	movl	%eax, g_IwSoundManager@GOTOFF(%ebx)
.LBE17:
	.loc 11 68 0 is_stmt 1 discriminator 2
	movl	$32, (%esp)
	call	_Znwj@PLT
	movl	%eax, %esi
	movl	%esi, (%esp)
	call	_ZN13CIwSoundGroupC1Ev@PLT
	movl	8(%ebp), %eax
	movl	%esi, 32(%eax)
	.loc 11 69 0 discriminator 2
	movl	$8, (%esp)
	call	_Znwj@PLT
	movl	%eax, %esi
	movl	%esi, (%esp)
	call	_ZN14CIwSoundParamsC1Ev@PLT
	movl	8(%ebp), %eax
	movl	%esi, 36(%eax)
	.loc 11 70 0 discriminator 2
	movl	8(%ebp), %eax
	movl	$0, 8(%eax)
	.loc 11 71 0 discriminator 2
	movl	8(%ebp), %eax
	movl	$0, 12(%eax)
	.loc 11 72 0 discriminator 2
	movl	8(%ebp), %eax
	movl	$0, 20(%eax)
	.loc 11 73 0 discriminator 2
	movl	8(%ebp), %eax
	movw	$2, 30(%eax)
	.loc 11 75 0 discriminator 2
	movl	8(%ebp), %eax
	movw	$4096, 24(%eax)
	.loc 11 76 0 discriminator 2
	movl	8(%ebp), %eax
	movw	$0, 26(%eax)
	.loc 11 77 0 discriminator 2
	movl	8(%ebp), %eax
	movw	$4096, 28(%eax)
	.loc 11 81 0 discriminator 2
	movl	$8, -40(%ebp)
	.loc 11 82 0 discriminator 2
	leal	-40(%ebp), %eax
	movl	%eax, 8(%esp)
	leal	.LC19@GOTOFF(%ebx), %eax
	movl	%eax, 4(%esp)
	leal	.LC20@GOTOFF(%ebx), %eax
	movl	%eax, (%esp)
	call	s3eConfigGetInt@PLT
	.loc 11 83 0 discriminator 2
	movl	$3, (%esp)
	call	s3eSoundGetInt@PLT
	movl	%eax, -32(%ebp)
	.loc 11 85 0 discriminator 2
	movl	-40(%ebp), %eax
	cmpl	-32(%ebp), %eax
	jge	.L96
	.loc 11 85 0 is_stmt 0 discriminator 1
	movl	-40(%ebp), %eax
	jmp	.L97
.L96:
	.loc 11 85 0 discriminator 2
	movl	-32(%ebp), %eax
.L97:
	.loc 11 85 0 discriminator 3
	movl	8(%ebp), %edx
	movl	%eax, 16(%edx)
	.loc 11 87 0 is_stmt 1 discriminator 3
	movl	8(%ebp), %eax
	movl	16(%eax), %esi
	cmpl	$89128960, %esi
	ja	.L98
	.loc 11 87 0 is_stmt 0 discriminator 1
	movl	%esi, %eax
	addl	%eax, %eax
	addl	%esi, %eax
	sall	$3, %eax
	jmp	.L99
.L98:
	.loc 11 87 0 discriminator 2
	movl	$-1, %eax
.L99:
	.loc 11 87 0 discriminator 3
	movl	%eax, (%esp)
	call	_Znaj@PLT
	movl	%eax, -44(%ebp)
	leal	-1(%esi), %edx
	movl	%edx, %edi
	movl	%eax, %esi
	jmp	.L100
.L101:
	.loc 11 87 0 discriminator 5
	movl	%esi, (%esp)
	call	_ZN13CIwChannelPCMIaEC1Ev
	addl	$24, %esi
	subl	$1, %edi
.L100:
	.loc 11 87 0 discriminator 4
	cmpl	$-1, %edi
	jne	.L101
	.loc 11 87 0 discriminator 6
	movl	-44(%ebp), %eax
	movl	%eax, _ZN15CIwSoundManager14s_ChannelsPCM8E@GOTOFF(%ebx)
	.loc 11 88 0 is_stmt 1 discriminator 6
	movl	8(%ebp), %eax
	movl	16(%eax), %esi
	cmpl	$89128960, %esi
	ja	.L102
	.loc 11 88 0 is_stmt 0 discriminator 1
	movl	%esi, %eax
	addl	%eax, %eax
	addl	%esi, %eax
	sall	$3, %eax
	jmp	.L103
.L102:
	.loc 11 88 0 discriminator 2
	movl	$-1, %eax
.L103:
	.loc 11 88 0 discriminator 3
	movl	%eax, (%esp)
	call	_Znaj@PLT
	movl	%eax, -44(%ebp)
	leal	-1(%esi), %edx
	movl	%edx, %edi
	movl	%eax, %esi
	jmp	.L104
.L105:
	.loc 11 88 0 discriminator 5
	movl	%esi, (%esp)
	call	_ZN13CIwChannelPCMIsEC1Ev
	addl	$24, %esi
	subl	$1, %edi
.L104:
	.loc 11 88 0 discriminator 4
	cmpl	$-1, %edi
	jne	.L105
	.loc 11 88 0 discriminator 6
	movl	-44(%ebp), %eax
	movl	%eax, _ZN15CIwSoundManager15s_ChannelsPCM16E@GOTOFF(%ebx)
	.loc 11 89 0 is_stmt 1 discriminator 6
	movl	8(%ebp), %eax
	movl	16(%eax), %esi
	cmpl	$1605632, %esi
	ja	.L106
	.loc 11 89 0 is_stmt 0 discriminator 1
	imull	$1324, %esi, %eax
	jmp	.L107
.L106:
	.loc 11 89 0 discriminator 2
	movl	$-1, %eax
.L107:
	.loc 11 89 0 discriminator 3
	movl	%eax, (%esp)
	call	_Znaj@PLT
	movl	%eax, -44(%ebp)
	leal	-1(%esi), %edx
	movl	%edx, %edi
	movl	%eax, %esi
	jmp	.L108
.L109:
	.loc 11 89 0 discriminator 5
	movl	%esi, (%esp)
	call	_ZN15CIwChannelADPCMC1Ev
	addl	$1324, %esi
	subl	$1, %edi
.L108:
	.loc 11 89 0 discriminator 4
	cmpl	$-1, %edi
	jne	.L109
	.loc 11 89 0 discriminator 6
	movl	-44(%ebp), %eax
	movl	%eax, _ZN15CIwSoundManager15s_ChannelsADPCME@GOTOFF(%ebx)
	.loc 11 91 0 is_stmt 1 discriminator 6
	movl	8(%ebp), %eax
	movl	16(%eax), %esi
	cmpl	$89128960, %esi
	ja	.L110
	.loc 11 91 0 is_stmt 0 discriminator 1
	movl	%esi, %eax
	addl	%eax, %eax
	addl	%esi, %eax
	sall	$3, %eax
	jmp	.L111
.L110:
	.loc 11 91 0 discriminator 2
	movl	$-1, %eax
.L111:
	.loc 11 91 0 discriminator 3
	movl	%eax, (%esp)
	call	_Znaj@PLT
	movl	%eax, -44(%ebp)
	leal	-1(%esi), %edx
	movl	%edx, %edi
	movl	%eax, %esi
	jmp	.L112
.L113:
	.loc 11 91 0 discriminator 5
	movl	%esi, (%esp)
	call	_ZN12CIwSoundInstC1Ev@PLT
	addl	$24, %esi
	subl	$1, %edi
.L112:
	.loc 11 91 0 discriminator 4
	cmpl	$-1, %edi
	jne	.L113
	.loc 11 91 0 discriminator 6
	movl	8(%ebp), %eax
	movl	-44(%ebp), %ecx
	movl	%ecx, 8(%eax)
	.loc 11 92 0 is_stmt 1 discriminator 6
	movl	8(%ebp), %eax
	movl	16(%eax), %eax
	cmpl	$532676608, %eax
	ja	.L114
	.loc 11 92 0 is_stmt 0 discriminator 1
	sall	$2, %eax
	jmp	.L115
.L114:
	.loc 11 92 0 discriminator 2
	movl	$-1, %eax
.L115:
	.loc 11 92 0 discriminator 3
	movl	%eax, (%esp)
	call	_Znaj@PLT
	movl	8(%ebp), %edx
	movl	%eax, 12(%edx)
.LBB19:
	.loc 11 93 0 is_stmt 1 discriminator 3
	movl	$0, -28(%ebp)
	jmp	.L116
.L117:
	.loc 11 94 0 discriminator 2
	movl	8(%ebp), %eax
	movl	12(%eax), %eax
	movl	-28(%ebp), %edx
	sall	$2, %edx
	movl	%eax, %ecx
	addl	%edx, %ecx
	movl	8(%ebp), %eax
	movl	8(%eax), %esi
	movl	-28(%ebp), %edx
	movl	%edx, %eax
	addl	%eax, %eax
	addl	%edx, %eax
	sall	$3, %eax
	addl	%esi, %eax
	movl	%eax, (%ecx)
	.loc 11 93 0 discriminator 2
	addl	$1, -28(%ebp)
.L116:
	.loc 11 93 0 is_stmt 0 discriminator 1
	movl	8(%ebp), %eax
	movl	16(%eax), %eax
	cmpl	-28(%ebp), %eax
	ja	.L117
.LBE19:
	.loc 11 94 0 is_stmt 1
	leal	-33(%ebp), %eax
	movl	%eax, (%esp)
	call	_ZN12CIwCallStackD1Ev
.LBE16:
.LBE15:
	.loc 11 95 0
	leal	60(%esp), %esp
	popl	%ebx
	.cfi_restore 3
	popl	%esi
	.cfi_restore 6
	popl	%edi
	.cfi_restore 7
	popl	%ebp
	.cfi_restore 5
	.cfi_def_cfa 4, 4
	ret
	.cfi_endproc
.LFE1433:
	.size	_ZN15CIwSoundManagerC2Ev, .-_ZN15CIwSoundManagerC2Ev
	.globl	_ZN15CIwSoundManagerC1Ev
	.hidden	_ZN15CIwSoundManagerC1Ev
	.set	_ZN15CIwSoundManagerC1Ev,_ZN15CIwSoundManagerC2Ev
	.section	.rodata
	.align 4
.LC21:
	.string	"CIwSoundManager::~CIwSoundManager"
.LC22:
	.string	"Singleton does not exist"
.LC23:
	.string	"g_IwSoundManager != __null"
	.text
	.align 2
	.globl	_ZN15CIwSoundManagerD2Ev
	.hidden	_ZN15CIwSoundManagerD2Ev
	.type	_ZN15CIwSoundManagerD2Ev, @function
_ZN15CIwSoundManagerD2Ev:
.LFB1436:
	.loc 11 97 0
	.cfi_startproc
	pushl	%ebp
	.cfi_def_cfa_offset 8
	.cfi_offset 5, -8
	movl	%esp, %ebp
	.cfi_def_cfa_register 5
	pushl	%ebx
	leal	-36(%esp), %esp
	.cfi_offset 3, -12
	call	__x86.get_pc_thunk.bx
	addl	$_GLOBAL_OFFSET_TABLE_, %ebx
.LBB20:
	.loc 11 97 0
	movl	8(%ebp), %eax
	leal	8+_ZTV15CIwSoundManager@GOTOFF(%ebx), %edx
	movl	%edx, (%eax)
.LBB21:
	.loc 11 99 0
	leal	.LC21@GOTOFF(%ebx), %eax
	movl	%eax, 4(%esp)
	leal	-9(%ebp), %eax
	movl	%eax, (%esp)
	call	_ZN12CIwCallStackC1EPKc
.LBB22:
.LBB23:
.LBB24:
	.loc 11 100 0
	movl	g_IwSoundManager@GOTOFF(%ebx), %eax
	testl	%eax, %eax
	jne	.L119
	.loc 11 100 0 is_stmt 0 discriminator 1
	leal	.LC15@GOTOFF(%ebx), %eax
	movl	%eax, (%esp)
	call	IwDebugAssertIsChannelOn@PLT
	testb	%al, %al
	je	.L119
	movzbl	_ZZN15CIwSoundManagerD1EvE21_s_IwAssertIgnoreThis@GOTOFF(%ebx), %eax
	testb	%al, %al
	jne	.L119
	.loc 11 100 0 discriminator 3
	movl	$1, %eax
	jmp	.L120
.L119:
	.loc 11 100 0 discriminator 2
	movl	$0, %eax
.L120:
	.loc 11 100 0 discriminator 4
	testb	%al, %al
	je	.L121
	.loc 11 100 0 discriminator 1
	movl	$0, (%esp)
	call	IwDebugAssertSetSolution@PLT
	movl	$274, (%esp)
	call	IwDebugAssertSetUID@PLT
	leal	.LC22@GOTOFF(%ebx), %eax
	movl	%eax, (%esp)
	call	IwDebugAssertSetMessage@PLT
	movl	$1, 12(%esp)
	movl	$100, 8(%esp)
	leal	.LC17@GOTOFF(%ebx), %eax
	movl	%eax, 4(%esp)
	leal	.LC23@GOTOFF(%ebx), %eax
	movl	%eax, (%esp)
	call	IwDebugAssertShow@PLT
	cmpl	$1, %eax
	je	.L123
	cmpl	$2, %eax
	je	.L124
	.loc 11 100 0
	jmp	.L122
.L123:
	.loc 11 100 0 discriminator 2
	call	s3eDebugIsDebuggerPresent@PLT
	testb	%al, %al
	setne	%al
	testb	%al, %al
	je	.L125
	.loc 11 100 0 discriminator 1
	call	s3eDebugIsDebuggerPresent@PLT
	testb	%al, %al
	setne	%al
	testb	%al, %al
	je	.L126
#APP
# 100 "c:/Marmalade/7.5/examples/GameTutorial/CPP/modules/soundengine/source/IwSoundManager.cpp" 1
	 int $3 
# 0 "" 2
#NO_APP
	jmp	.L126
.L125:
	.loc 11 100 0 discriminator 2
	call	_ZL11IwDebugExitv
	jmp	.L122
.L126:
	.loc 11 100 0 discriminator 1
	jmp	.L122
.L124:
	.loc 11 100 0 discriminator 3
	movb	$1, _ZZN15CIwSoundManagerD1EvE21_s_IwAssertIgnoreThis@GOTOFF(%ebx)
	nop
.L122:
	.loc 11 100 0 discriminator 1
	movl	$0, (%esp)
	call	IwDebugAssertSetUID@PLT
.L121:
.LBE24:
.LBE23:
	.loc 11 100 0 discriminator 2
	movl	$0, g_IwSoundManager@GOTOFF(%ebx)
.LBE22:
	.loc 11 102 0 is_stmt 1 discriminator 2
	movl	8(%ebp), %eax
	movl	32(%eax), %eax
	testl	%eax, %eax
	je	.L127
	.loc 11 102 0 is_stmt 0 discriminator 1
	movl	8(%ebp), %eax
	movl	32(%eax), %eax
	movl	(%eax), %eax
	leal	4(%eax), %eax
	movl	(%eax), %eax
	movl	8(%ebp), %edx
	movl	32(%edx), %edx
	movl	%edx, (%esp)
	call	*%eax
.L127:
	.loc 11 103 0 is_stmt 1
	movl	8(%ebp), %eax
	movl	36(%eax), %eax
	movl	%eax, (%esp)
	call	_ZdlPv@PLT
	.loc 11 104 0
	movl	8(%ebp), %eax
	movl	8(%eax), %eax
	testl	%eax, %eax
	je	.L128
	.loc 11 104 0 is_stmt 0 discriminator 1
	movl	8(%ebp), %eax
	movl	8(%eax), %eax
	movl	%eax, (%esp)
	call	_ZdaPv@PLT
.L128:
	.loc 11 105 0 is_stmt 1
	movl	8(%ebp), %eax
	movl	12(%eax), %eax
	testl	%eax, %eax
	je	.L129
	.loc 11 105 0 is_stmt 0 discriminator 1
	movl	8(%ebp), %eax
	movl	12(%eax), %eax
	movl	%eax, (%esp)
	call	_ZdaPv@PLT
.L129:
	.loc 11 106 0 is_stmt 1
	movl	_ZN15CIwSoundManager14s_ChannelsPCM8E@GOTOFF(%ebx), %eax
	testl	%eax, %eax
	je	.L130
	.loc 11 106 0 is_stmt 0 discriminator 1
	movl	_ZN15CIwSoundManager14s_ChannelsPCM8E@GOTOFF(%ebx), %eax
	movl	%eax, (%esp)
	call	_ZdaPv@PLT
.L130:
	.loc 11 107 0 is_stmt 1
	movl	_ZN15CIwSoundManager15s_ChannelsPCM16E@GOTOFF(%ebx), %eax
	testl	%eax, %eax
	je	.L131
	.loc 11 107 0 is_stmt 0 discriminator 1
	movl	_ZN15CIwSoundManager15s_ChannelsPCM16E@GOTOFF(%ebx), %eax
	movl	%eax, (%esp)
	call	_ZdaPv@PLT
.L131:
	.loc 11 108 0 is_stmt 1
	movl	_ZN15CIwSoundManager15s_ChannelsADPCME@GOTOFF(%ebx), %eax
	testl	%eax, %eax
	je	.L132
	.loc 11 108 0 is_stmt 0 discriminator 1
	movl	_ZN15CIwSoundManager15s_ChannelsADPCME@GOTOFF(%ebx), %eax
	movl	%eax, (%esp)
	call	_ZdaPv@PLT
.L132:
	.loc 11 108 0 discriminator 2
	leal	-9(%ebp), %eax
	movl	%eax, (%esp)
	call	_ZN12CIwCallStackD1Ev
.LBE21:
.LBE20:
	.loc 11 109 0 is_stmt 1 discriminator 2
	movl	$0, %eax
	testl	%eax, %eax
	je	.L118
	.loc 11 109 0 is_stmt 0 discriminator 1
	movl	8(%ebp), %eax
	movl	%eax, (%esp)
	call	_ZdlPv@PLT
.L118:
	.loc 11 109 0
	leal	36(%esp), %esp
	popl	%ebx
	.cfi_restore 3
	popl	%ebp
	.cfi_restore 5
	.cfi_def_cfa 4, 4
	ret
	.cfi_endproc
.LFE1436:
	.size	_ZN15CIwSoundManagerD2Ev, .-_ZN15CIwSoundManagerD2Ev
	.globl	_ZN15CIwSoundManagerD1Ev
	.hidden	_ZN15CIwSoundManagerD1Ev
	.set	_ZN15CIwSoundManagerD1Ev,_ZN15CIwSoundManagerD2Ev
	.align 2
	.globl	_ZN15CIwSoundManagerD0Ev
	.hidden	_ZN15CIwSoundManagerD0Ev
	.type	_ZN15CIwSoundManagerD0Ev, @function
_ZN15CIwSoundManagerD0Ev:
.LFB1438:
	.loc 11 97 0 is_stmt 1
	.cfi_startproc
	pushl	%ebp
	.cfi_def_cfa_offset 8
	.cfi_offset 5, -8
	movl	%esp, %ebp
	.cfi_def_cfa_register 5
	pushl	%ebx
	leal	-20(%esp), %esp
	.cfi_offset 3, -12
	call	__x86.get_pc_thunk.bx
	addl	$_GLOBAL_OFFSET_TABLE_, %ebx
	.loc 11 109 0
	movl	8(%ebp), %eax
	movl	%eax, (%esp)
	call	_ZN15CIwSoundManagerD1Ev
	movl	8(%ebp), %eax
	movl	%eax, (%esp)
	call	_ZdlPv@PLT
	leal	20(%esp), %esp
	popl	%ebx
	.cfi_restore 3
	popl	%ebp
	.cfi_restore 5
	.cfi_def_cfa 4, 4
	ret
	.cfi_endproc
.LFE1438:
	.size	_ZN15CIwSoundManagerD0Ev, .-_ZN15CIwSoundManagerD0Ev
	.section	.rodata
	.align 4
.LC24:
	.string	"CIwSoundManager::SetMaxSoundInsts"
	.align 4
.LC25:
	.string	"DEPRECATED (max insts set via [SOUND] MaxChannels - currently %u"
.LC26:
	.string	"false"
	.text
	.align 2
	.globl	_ZN15CIwSoundManager16SetMaxSoundInstsEj
	.hidden	_ZN15CIwSoundManager16SetMaxSoundInstsEj
	.type	_ZN15CIwSoundManager16SetMaxSoundInstsEj, @function
_ZN15CIwSoundManager16SetMaxSoundInstsEj:
.LFB1439:
	.loc 11 112 0
	.cfi_startproc
	pushl	%ebp
	.cfi_def_cfa_offset 8
	.cfi_offset 5, -8
	movl	%esp, %ebp
	.cfi_def_cfa_register 5
	pushl	%ebx
	leal	-36(%esp), %esp
	.cfi_offset 3, -12
	call	__x86.get_pc_thunk.bx
	addl	$_GLOBAL_OFFSET_TABLE_, %ebx
.LBB25:
	.loc 11 113 0
	leal	.LC24@GOTOFF(%ebx), %eax
	movl	%eax, 4(%esp)
	leal	-9(%ebp), %eax
	movl	%eax, (%esp)
	call	_ZN12CIwCallStackC1EPKc
.LBB26:
.LBB27:
	.loc 11 115 0
	leal	.LC20@GOTOFF(%ebx), %eax
	movl	%eax, (%esp)
	call	IwDebugAssertIsChannelOn@PLT
	testb	%al, %al
	je	.L138
	.loc 11 115 0 is_stmt 0 discriminator 1
	movzbl	_ZZN15CIwSoundManager16SetMaxSoundInstsEjE21_s_IwAssertIgnoreThis@GOTOFF(%ebx), %eax
	testb	%al, %al
	jne	.L138
	.loc 11 115 0 discriminator 3
	movl	$1, %eax
	jmp	.L139
.L138:
	.loc 11 115 0 discriminator 2
	movl	$0, %eax
.L139:
	.loc 11 115 0 discriminator 4
	testb	%al, %al
	je	.L140
	.loc 11 115 0 discriminator 1
	movl	$0, (%esp)
	call	IwDebugAssertSetSolution@PLT
	movl	$0, (%esp)
	call	IwDebugAssertSetUID@PLT
	movl	8(%ebp), %eax
	movl	16(%eax), %eax
	movl	%eax, 4(%esp)
	leal	.LC25@GOTOFF(%ebx), %eax
	movl	%eax, (%esp)
	call	IwDebugAssertSetMessage@PLT
	movl	$1, 12(%esp)
	movl	$115, 8(%esp)
	leal	.LC17@GOTOFF(%ebx), %eax
	movl	%eax, 4(%esp)
	leal	.LC26@GOTOFF(%ebx), %eax
	movl	%eax, (%esp)
	call	IwDebugAssertShow@PLT
	cmpl	$1, %eax
	je	.L142
	cmpl	$2, %eax
	je	.L143
	.loc 11 115 0
	jmp	.L141
.L142:
	.loc 11 115 0 discriminator 2
	call	s3eDebugIsDebuggerPresent@PLT
	testb	%al, %al
	setne	%al
	testb	%al, %al
	je	.L144
	.loc 11 115 0 discriminator 1
	call	s3eDebugIsDebuggerPresent@PLT
	testb	%al, %al
	setne	%al
	testb	%al, %al
	je	.L145
#APP
# 115 "c:/Marmalade/7.5/examples/GameTutorial/CPP/modules/soundengine/source/IwSoundManager.cpp" 1
	 int $3 
# 0 "" 2
#NO_APP
	jmp	.L145
.L144:
	.loc 11 115 0 discriminator 2
	call	_ZL11IwDebugExitv
	jmp	.L141
.L145:
	.loc 11 115 0 discriminator 1
	jmp	.L141
.L143:
	.loc 11 115 0 discriminator 3
	movb	$1, _ZZN15CIwSoundManager16SetMaxSoundInstsEjE21_s_IwAssertIgnoreThis@GOTOFF(%ebx)
	nop
.L141:
	.loc 11 115 0 discriminator 1
	movl	$0, (%esp)
	call	IwDebugAssertSetUID@PLT
.L140:
.LBE27:
.LBE26:
	.loc 11 115 0 discriminator 2
	leal	-9(%ebp), %eax
	movl	%eax, (%esp)
	call	_ZN12CIwCallStackD1Ev
.LBE25:
	.loc 11 116 0 is_stmt 1 discriminator 2
	leal	36(%esp), %esp
	popl	%ebx
	.cfi_restore 3
	popl	%ebp
	.cfi_restore 5
	.cfi_def_cfa 4, 4
	ret
	.cfi_endproc
.LFE1439:
	.size	_ZN15CIwSoundManager16SetMaxSoundInstsEj, .-_ZN15CIwSoundManager16SetMaxSoundInstsEj
	.align 2
	.globl	_ZN15CIwSoundManager15UpdateCompletedEi
	.hidden	_ZN15CIwSoundManager15UpdateCompletedEi
	.type	_ZN15CIwSoundManager15UpdateCompletedEi, @function
_ZN15CIwSoundManager15UpdateCompletedEi:
.LFB1440:
	.loc 11 119 0
	.cfi_startproc
	pushl	%ebp
	.cfi_def_cfa_offset 8
	.cfi_offset 5, -8
	leal	(%esp), %ebp
	.cfi_def_cfa_register 5
	leal	-40(%esp), %esp
.LBB28:
	.loc 11 120 0
	movl	8(%ebp), %eax
	movl	12(%eax), %eax
	movl	12(%ebp), %edx
	sall	$2, %edx
	leal	(%eax,%edx), %eax
	movl	(%eax), %eax
	movl	%eax, -12(%ebp)
	.loc 11 122 0
	movl	-12(%ebp), %eax
	movl	%eax, (%esp)
	call	_ZNK12CIwSoundInst7GetSpecEv
	movl	%eax, (%esp)
	call	_ZNK12CIwSoundSpec8GetGroupEv
	testl	%eax, %eax
	setne	%al
	testb	%al, %al
	je	.L147
	.loc 11 123 0
	movl	-12(%ebp), %eax
	movl	%eax, (%esp)
	call	_ZNK12CIwSoundInst7GetSpecEv
	movl	%eax, (%esp)
	call	_ZNK12CIwSoundSpec8GetGroupEv
	movzwl	24(%eax), %edx
	subl	$1, %edx
	movw	%dx, 24(%eax)
.L147:
	.loc 11 125 0
	movl	-12(%ebp), %eax
	movl	%eax, (%esp)
	call	_ZNK12CIwSoundInst14GetEndSampleCBEv
	testl	%eax, %eax
	setne	%al
	testb	%al, %al
	je	.L148
	.loc 11 126 0
	movl	-12(%ebp), %eax
	movl	%eax, (%esp)
	call	_ZNK12CIwSoundInst14GetEndSampleCBEv
	movl	-12(%ebp), %edx
	movl	%edx, (%esp)
	call	*%eax
.L148:
	.loc 11 128 0
	movl	-12(%ebp), %eax
	movzwl	10(%eax), %eax
	andl	$-3, %eax
	movl	%eax, %edx
	movl	-12(%ebp), %eax
	movw	%dx, 10(%eax)
	.loc 11 130 0
	movl	-12(%ebp), %eax
	movl	%eax, 4(%esp)
	movl	8(%ebp), %eax
	movl	%eax, (%esp)
	call	_ZN15CIwSoundManager11SetFreeInstEP12CIwSoundInst
.LBE28:
	.loc 11 131 0
	leave
	.cfi_restore 5
	.cfi_def_cfa 4, 4
	ret
	.cfi_endproc
.LFE1440:
	.size	_ZN15CIwSoundManager15UpdateCompletedEi, .-_ZN15CIwSoundManager15UpdateCompletedEi
	.section	.rodata
.LC27:
	.string	"CIwSoundManager::Update"
	.align 4
.LC28:
	.string	"IwSoundManager::Update problem."
	.text
	.align 2
	.globl	_ZN15CIwSoundManager6UpdateEv
	.hidden	_ZN15CIwSoundManager6UpdateEv
	.type	_ZN15CIwSoundManager6UpdateEv, @function
_ZN15CIwSoundManager6UpdateEv:
.LFB1441:
	.loc 11 134 0
	.cfi_startproc
	pushl	%ebp
	.cfi_def_cfa_offset 8
	.cfi_offset 5, -8
	movl	%esp, %ebp
	.cfi_def_cfa_register 5
	pushl	%esi
	pushl	%ebx
	leal	-64(%esp), %esp
	.cfi_offset 6, -12
	.cfi_offset 3, -16
	call	__x86.get_pc_thunk.bx
	addl	$_GLOBAL_OFFSET_TABLE_, %ebx
.LBB29:
	.loc 11 135 0
	leal	.LC27@GOTOFF(%ebx), %eax
	movl	%eax, 4(%esp)
	leal	-41(%ebp), %eax
	movl	%eax, (%esp)
	call	_ZN12CIwCallStackC1EPKc
	.loc 11 137 0
	movl	8(%ebp), %eax
	movl	%eax, (%esp)
	call	_ZNK15CIwSoundManager8IsActiveEv
	xorl	$1, %eax
	testb	%al, %al
	je	.L150
	movl	$0, %esi
	.loc 11 138 0
	jmp	.L151
.L150:
	.loc 11 140 0
	movl	8(%ebp), %eax
	movl	4(%eax), %eax
	movl	%eax, %edx
	addl	$1, %edx
	movl	8(%ebp), %eax
	movl	%edx, 4(%eax)
.LBB30:
	.loc 11 144 0
	movl	$0, -12(%ebp)
	jmp	.L152
.L156:
.LBB31:
	.loc 11 146 0
	movl	8(%ebp), %eax
	movl	12(%eax), %eax
	movl	-12(%ebp), %edx
	sall	$2, %edx
	leal	(%eax,%edx), %eax
	movl	(%eax), %eax
	movl	%eax, -16(%ebp)
	.loc 11 148 0
	movl	-16(%ebp), %eax
	movl	%eax, (%esp)
	call	_ZNK12CIwSoundInst7GetSpecEv
	testl	%eax, %eax
	sete	%al
	testb	%al, %al
	je	.L153
	.loc 11 149 0
	jmp	.L154
.L153:
	.loc 11 151 0
	movl	-16(%ebp), %eax
	movl	%eax, (%esp)
	call	_ZNK12CIwSoundInst8GetFlagsEv
	movzwl	%ax, %eax
	andl	$2, %eax
	testl	%eax, %eax
	setne	%al
	testb	%al, %al
	je	.L155
	.loc 11 153 0
	movl	-12(%ebp), %eax
	movl	%eax, 4(%esp)
	movl	8(%ebp), %eax
	movl	%eax, (%esp)
	call	_ZN15CIwSoundManager15UpdateCompletedEi
	.loc 11 154 0
	subl	$1, -12(%ebp)
	jmp	.L154
.L155:
	.loc 11 159 0
	movl	-16(%ebp), %eax
	movzwl	14(%eax), %eax
	movl	%eax, %edx
	addl	$1, %edx
	movl	-16(%ebp), %eax
	movw	%dx, 14(%eax)
.L154:
.LBE31:
	.loc 11 144 0
	addl	$1, -12(%ebp)
.L152:
	.loc 11 144 0 is_stmt 0 discriminator 1
	movl	8(%ebp), %eax
	movl	20(%eax), %eax
	cmpl	-12(%ebp), %eax
	ja	.L156
.LBE30:
.LBB32:
	.loc 11 163 0 is_stmt 1
	movl	$0, -12(%ebp)
	jmp	.L157
.L173:
.LBB33:
	.loc 11 165 0
	movl	8(%ebp), %eax
	movl	12(%eax), %eax
	movl	-12(%ebp), %edx
	sall	$2, %edx
	leal	(%eax,%edx), %eax
	movl	(%eax), %eax
	movl	%eax, -20(%ebp)
.LBB34:
	.loc 11 166 0
	movl	-20(%ebp), %eax
	movl	%eax, (%esp)
	call	_ZNK12CIwSoundInst7GetSpecEv
	testl	%eax, %eax
	sete	%al
	testb	%al, %al
	je	.L158
.LBB35:
.LBB36:
.LBB37:
	.loc 11 168 0
	leal	.LC20@GOTOFF(%ebx), %eax
	movl	%eax, (%esp)
	call	IwDebugAssertIsChannelOn@PLT
	testb	%al, %al
	je	.L159
	.loc 11 168 0 is_stmt 0 discriminator 1
	movzbl	_ZZN15CIwSoundManager6UpdateEvE21_s_IwAssertIgnoreThis@GOTOFF(%ebx), %eax
	testb	%al, %al
	jne	.L159
	.loc 11 168 0 discriminator 3
	movl	$1, %eax
	jmp	.L160
.L159:
	.loc 11 168 0 discriminator 2
	movl	$0, %eax
.L160:
	.loc 11 168 0 discriminator 4
	testb	%al, %al
	je	.L161
	.loc 11 168 0 discriminator 1
	movl	$0, (%esp)
	call	IwDebugAssertSetSolution@PLT
	movl	$0, (%esp)
	call	IwDebugAssertSetUID@PLT
	leal	.LC28@GOTOFF(%ebx), %eax
	movl	%eax, (%esp)
	call	IwDebugAssertSetMessage@PLT
	movl	$1, 12(%esp)
	movl	$168, 8(%esp)
	leal	.LC17@GOTOFF(%ebx), %eax
	movl	%eax, 4(%esp)
	leal	.LC26@GOTOFF(%ebx), %eax
	movl	%eax, (%esp)
	call	IwDebugAssertShow@PLT
	cmpl	$1, %eax
	je	.L163
	cmpl	$2, %eax
	je	.L164
	.loc 11 168 0
	jmp	.L162
.L163:
	.loc 11 168 0 discriminator 2
	call	s3eDebugIsDebuggerPresent@PLT
	testb	%al, %al
	setne	%al
	testb	%al, %al
	je	.L165
	.loc 11 168 0 discriminator 1
	call	s3eDebugIsDebuggerPresent@PLT
	testb	%al, %al
	setne	%al
	testb	%al, %al
	je	.L166
#APP
# 168 "c:/Marmalade/7.5/examples/GameTutorial/CPP/modules/soundengine/source/IwSoundManager.cpp" 1
	 int $3 
# 0 "" 2
#NO_APP
	jmp	.L166
.L165:
	.loc 11 168 0 discriminator 2
	call	_ZL11IwDebugExitv
	jmp	.L162
.L166:
	.loc 11 168 0 discriminator 1
	jmp	.L162
.L164:
	.loc 11 168 0 discriminator 3
	movb	$1, _ZZN15CIwSoundManager6UpdateEvE21_s_IwAssertIgnoreThis@GOTOFF(%ebx)
	nop
.L162:
	.loc 11 168 0 discriminator 1
	movl	$0, (%esp)
	call	IwDebugAssertSetUID@PLT
.L161:
	movl	$0, %esi
.LBE37:
.LBE36:
	.loc 11 169 0 is_stmt 1 discriminator 2
	jmp	.L151
.L158:
.LBE35:
.LBE34:
	.loc 11 172 0
	movl	-20(%ebp), %eax
	movl	%eax, (%esp)
	call	_ZNK12CIwSoundInst7GetSpecEv
	movl	%eax, (%esp)
	call	_ZNK12CIwSoundSpec8GetGroupEv
	testl	%eax, %eax
	je	.L167
	.loc 11 172 0 is_stmt 0 discriminator 1
	movl	-20(%ebp), %eax
	movl	%eax, (%esp)
	call	_ZNK12CIwSoundInst7GetSpecEv
	movl	%eax, (%esp)
	call	_ZNK12CIwSoundSpec8GetGroupEv
	jmp	.L168
.L167:
	.loc 11 172 0 discriminator 2
	movl	8(%ebp), %eax
	movl	%eax, (%esp)
	call	_ZNK15CIwSoundManager16GetGroupIdentityEv
.L168:
	.loc 11 172 0 discriminator 3
	movl	%eax, -24(%ebp)
.LBB38:
	.loc 11 175 0 is_stmt 1 discriminator 3
	movl	-20(%ebp), %eax
	movl	%eax, (%esp)
	call	_ZNK12CIwSoundInst8GetFlagsEv
	movzwl	%ax, %eax
	andl	$1, %eax
	.loc 11 176 0 discriminator 3
	testl	%eax, %eax
	jne	.L169
	.loc 11 176 0 is_stmt 0 discriminator 2
	movl	-24(%ebp), %eax
	movl	%eax, (%esp)
	call	_ZNK13CIwSoundGroup8GetFlagsEv
	movzwl	%ax, %eax
	andl	$1, %eax
	.loc 11 175 0 is_stmt 1 discriminator 2
	testl	%eax, %eax
	jne	.L169
	.loc 11 177 0
	movl	8(%ebp), %eax
	movzwl	30(%eax), %eax
	movzwl	%ax, %eax
	andl	$1, %eax
	.loc 11 176 0
	testl	%eax, %eax
	je	.L170
.L169:
	.loc 11 176 0 is_stmt 0 discriminator 1
	movl	$1, %eax
	jmp	.L171
.L170:
	.loc 11 176 0 discriminator 3
	movl	$0, %eax
.L171:
	.loc 11 174 0 is_stmt 1
	testb	%al, %al
	je	.L172
.LBB39:
	.loc 11 184 0
	movl	-24(%ebp), %eax
	movl	%eax, (%esp)
	call	_ZNK13CIwSoundGroup6GetVolEv
	movswl	%ax, %esi
	movl	8(%ebp), %eax
	movl	%eax, (%esp)
	call	_ZNK15CIwSoundManager12GetMasterVolEv
	cwtl
	movl	%esi, 4(%esp)
	movl	%eax, (%esp)
	call	_ZL12IW_FIXED_MULii
	movl	%eax, %esi
	movl	-20(%ebp), %eax
	movl	%eax, (%esp)
	call	_ZNK12CIwSoundInst6GetVolEv
	cwtl
	movl	%esi, 4(%esp)
	movl	%eax, (%esp)
	call	_ZL12IW_FIXED_MULii
	movw	%ax, -26(%ebp)
	.loc 11 186 0
	movl	-24(%ebp), %eax
	movl	%eax, (%esp)
	call	_ZNK13CIwSoundGroup8GetPitchEv
	movswl	%ax, %esi
	movl	8(%ebp), %eax
	movl	%eax, (%esp)
	call	_ZNK15CIwSoundManager14GetMasterPitchEv
	cwtl
	movl	%esi, 4(%esp)
	movl	%eax, (%esp)
	call	_ZL12IW_FIXED_MULii
	movl	%eax, %esi
	movl	-20(%ebp), %eax
	movl	%eax, (%esp)
	call	_ZNK12CIwSoundInst8GetPitchEv
	cwtl
	movl	%esi, 4(%esp)
	movl	%eax, (%esp)
	call	_ZL12IW_FIXED_MULii
	movw	%ax, -28(%ebp)
	.loc 11 189 0
	movswl	-26(%ebp), %eax
	sarl	$4, %eax
	movl	$256, %edx
	cmpl	$256, %eax
	movl	%edx, %esi
	cmovle	%eax, %esi
	movl	-20(%ebp), %eax
	movl	%eax, (%esp)
	call	_ZNK12CIwSoundInst9GetChanIDEv
	movzwl	%ax, %eax
	movl	%esi, 8(%esp)
	movl	$3, 4(%esp)
	movl	%eax, (%esp)
	call	s3eSoundChannelSetInt@PLT
	.loc 11 192 0
	movl	-20(%ebp), %eax
	movl	%eax, (%esp)
	call	_ZNK12CIwSoundInst7GetSpecEv
	movl	%eax, (%esp)
	call	_ZNK12CIwSoundSpec7GetDataEv
	movl	%eax, (%esp)
	call	_ZNK12CIwSoundData11GetRecPitchEv
	movl	%eax, %edx
	movswl	-28(%ebp), %eax
	movl	%edx, 4(%esp)
	movl	%eax, (%esp)
	call	_ZL12IW_FIXED_MULii
	movl	%eax, -32(%ebp)
	.loc 11 193 0
	movl	-20(%ebp), %eax
	movl	%eax, (%esp)
	call	_ZNK12CIwSoundInst9GetChanIDEv
	movzwl	%ax, %eax
	movl	-32(%ebp), %edx
	movl	%edx, 8(%esp)
	movl	$1, 4(%esp)
	movl	%eax, (%esp)
	call	s3eSoundChannelSetInt@PLT
	.loc 11 196 0
	movl	-20(%ebp), %eax
	movzwl	10(%eax), %eax
	andl	$-2, %eax
	movl	%eax, %edx
	movl	-20(%ebp), %eax
	movw	%dx, 10(%eax)
.L172:
.LBE39:
.LBE38:
.LBE33:
	.loc 11 163 0
	addl	$1, -12(%ebp)
.L157:
	.loc 11 163 0 is_stmt 0 discriminator 1
	movl	8(%ebp), %eax
	movl	20(%eax), %eax
	cmpl	-12(%ebp), %eax
	ja	.L173
.LBE32:
.LBB40:
	.loc 11 200 0 is_stmt 1
	movl	$0, -12(%ebp)
	jmp	.L174
.L177:
.LBB41:
	.loc 11 202 0
	movl	8(%ebp), %eax
	movl	12(%eax), %eax
	movl	-12(%ebp), %edx
	sall	$2, %edx
	leal	(%eax,%edx), %eax
	movl	(%eax), %eax
	movl	%eax, -36(%ebp)
	.loc 11 204 0
	movl	-36(%ebp), %eax
	movl	%eax, (%esp)
	call	_ZNK12CIwSoundInst7GetSpecEv
	testl	%eax, %eax
	sete	%al
	testb	%al, %al
	je	.L175
	.loc 11 205 0
	jmp	.L176
.L175:
	.loc 11 207 0
	movl	-36(%ebp), %eax
	movl	%eax, (%esp)
	call	_ZNK12CIwSoundInst7GetSpecEv
	movl	%eax, (%esp)
	call	_ZNK12CIwSoundSpec8GetGroupEv
	movl	%eax, -40(%ebp)
	.loc 11 208 0
	cmpl	$0, -40(%ebp)
	je	.L176
	.loc 11 209 0
	movl	-40(%ebp), %eax
	movzwl	26(%eax), %eax
	andl	$-2, %eax
	movl	%eax, %edx
	movl	-40(%ebp), %eax
	movw	%dx, 26(%eax)
.L176:
.LBE41:
	.loc 11 200 0
	addl	$1, -12(%ebp)
.L174:
	.loc 11 200 0 is_stmt 0 discriminator 1
	movl	8(%ebp), %eax
	movl	20(%eax), %eax
	cmpl	-12(%ebp), %eax
	ja	.L177
.LBE40:
	.loc 11 213 0 is_stmt 1
	movl	8(%ebp), %eax
	movzwl	30(%eax), %eax
	andl	$-2, %eax
	movl	%eax, %edx
	movl	8(%ebp), %eax
	movw	%dx, 30(%eax)
	movl	$1, %esi
.L151:
	leal	-41(%ebp), %eax
	movl	%eax, (%esp)
	call	_ZN12CIwCallStackD1Ev
	cmpl	$1, %esi
	jne	.L149
	nop
.L149:
.LBE29:
	.loc 11 214 0
	leal	64(%esp), %esp
	popl	%ebx
	.cfi_restore 3
	popl	%esi
	.cfi_restore 6
	popl	%ebp
	.cfi_restore 5
	.cfi_def_cfa 4, 4
	ret
	.cfi_endproc
.LFE1441:
	.size	_ZN15CIwSoundManager6UpdateEv, .-_ZN15CIwSoundManager6UpdateEv
	.align 2
	.globl	_ZN15CIwSoundManager14GetFreeChannelEP12CIwSoundInst17IwSoundDataFormat
	.hidden	_ZN15CIwSoundManager14GetFreeChannelEP12CIwSoundInst17IwSoundDataFormat
	.type	_ZN15CIwSoundManager14GetFreeChannelEP12CIwSoundInst17IwSoundDataFormat, @function
_ZN15CIwSoundManager14GetFreeChannelEP12CIwSoundInst17IwSoundDataFormat:
.LFB1442:
	.loc 11 217 0
	.cfi_startproc
	pushl	%ebp
	.cfi_def_cfa_offset 8
	.cfi_offset 5, -8
	movl	%esp, %ebp
	.cfi_def_cfa_register 5
	pushl	%ebx
	leal	-36(%esp), %esp
	.cfi_offset 3, -12
	call	__x86.get_pc_thunk.bx
	addl	$_GLOBAL_OFFSET_TABLE_, %ebx
.LBB42:
	.loc 11 218 0
	movl	8(%ebp), %eax
	movl	%eax, (%esp)
	call	_ZNK15CIwSoundManager8IsActiveEv
	xorl	$1, %eax
	testb	%al, %al
	je	.L183
	.loc 11 219 0
	movl	$-1, %eax
	jmp	.L184
.L183:
	.loc 11 222 0
	call	s3eSoundGetFreeChannel@PLT
	movl	%eax, -12(%ebp)
	.loc 11 223 0
	movl	8(%ebp), %eax
	movl	16(%eax), %eax
	cmpl	-12(%ebp), %eax
	jg	.L185
	.loc 11 224 0
	movl	$-1, %eax
	jmp	.L184
.L185:
.LBB43:
	.loc 11 227 0
	movl	16(%ebp), %eax
	cmpl	$1, %eax
	je	.L187
	cmpl	$2, %eax
	je	.L188
	testl	%eax, %eax
	je	.L189
.LBB44:
	.loc 11 258 0
	jmp	.L190
.L189:
.LBB45:
	.loc 11 232 0
	movl	_ZN15CIwSoundManager14s_ChannelsPCM8E@GOTOFF(%ebx), %ecx
	movl	-12(%ebp), %edx
	movl	%edx, %eax
	addl	%eax, %eax
	addl	%edx, %eax
	sall	$3, %eax
	addl	%ecx, %eax
	movl	%eax, -16(%ebp)
	.loc 11 233 0
	movl	-16(%ebp), %eax
	movl	%eax, 12(%esp)
	leal	_ZN13CIwChannelPCMIaE15GenerateAudioCBEP20s3eSoundGenAudioInfoPS0_@GOTOFF(%ebx), %eax
	movl	%eax, 8(%esp)
	movl	$1, 4(%esp)
	movl	-12(%ebp), %eax
	movl	%eax, (%esp)
	call	s3eSoundChannelRegister@PLT
	.loc 11 234 0
	movl	-16(%ebp), %eax
	movl	$0, (%eax)
	.loc 11 235 0
	movl	-16(%ebp), %eax
	movl	12(%ebp), %edx
	movl	%edx, 20(%eax)
.LBE45:
	.loc 11 237 0
	jmp	.L190
.L187:
.LBB46:
	.loc 11 241 0
	movl	_ZN15CIwSoundManager15s_ChannelsPCM16E@GOTOFF(%ebx), %ecx
	movl	-12(%ebp), %edx
	movl	%edx, %eax
	addl	%eax, %eax
	addl	%edx, %eax
	sall	$3, %eax
	addl	%ecx, %eax
	movl	%eax, -20(%ebp)
	.loc 11 242 0
	movl	-20(%ebp), %eax
	movl	%eax, 12(%esp)
	leal	_ZN13CIwChannelPCMIsE15GenerateAudioCBEP20s3eSoundGenAudioInfoPS0_@GOTOFF(%ebx), %eax
	movl	%eax, 8(%esp)
	movl	$1, 4(%esp)
	movl	-12(%ebp), %eax
	movl	%eax, (%esp)
	call	s3eSoundChannelRegister@PLT
	.loc 11 244 0
	movl	-20(%ebp), %eax
	movl	$0, (%eax)
	.loc 11 245 0
	movl	-20(%ebp), %eax
	movl	12(%ebp), %edx
	movl	%edx, 20(%eax)
.LBE46:
	.loc 11 247 0
	jmp	.L190
.L188:
.LBB47:
	.loc 11 251 0
	movl	_ZN15CIwSoundManager15s_ChannelsADPCME@GOTOFF(%ebx), %edx
	movl	-12(%ebp), %eax
	imull	$1324, %eax, %eax
	addl	%edx, %eax
	movl	%eax, -24(%ebp)
	.loc 11 252 0
	movl	-24(%ebp), %eax
	movl	%eax, 12(%esp)
	leal	_ZN15CIwChannelADPCM15GenerateAudioCBEP20s3eSoundGenAudioInfoPS_@GOTOFF(%ebx), %eax
	movl	%eax, 8(%esp)
	movl	$1, 4(%esp)
	movl	-12(%ebp), %eax
	movl	%eax, (%esp)
	call	s3eSoundChannelRegister@PLT
	.loc 11 253 0
	movl	-24(%ebp), %eax
	movl	$0, (%eax)
.LBE47:
	.loc 11 255 0
	nop
.L190:
.LBE44:
.LBE43:
	.loc 11 261 0
	movl	-12(%ebp), %eax
.L184:
.LBE42:
	.loc 11 262 0
	leal	36(%esp), %esp
	popl	%ebx
	.cfi_restore 3
	popl	%ebp
	.cfi_restore 5
	.cfi_def_cfa 4, 4
	ret
	.cfi_endproc
.LFE1442:
	.size	_ZN15CIwSoundManager14GetFreeChannelEP12CIwSoundInst17IwSoundDataFormat, .-_ZN15CIwSoundManager14GetFreeChannelEP12CIwSoundInst17IwSoundDataFormat
	.section	.rodata
.LC29:
	.string	"CIwSoundManager::GetFreeInst"
.LC30:
	.string	"No free CIwSoundInst"
.LC31:
	.string	"m_NumActiveInsts < m_MaxInsts"
	.align 4
.LC32:
	.string	"m_SoundInstPtrs[m_NumActiveInsts - 1]->GetFlags() & CIwSoundInst::FREE_F"
	.text
	.align 2
	.globl	_ZN15CIwSoundManager11GetFreeInstEv
	.hidden	_ZN15CIwSoundManager11GetFreeInstEv
	.type	_ZN15CIwSoundManager11GetFreeInstEv, @function
_ZN15CIwSoundManager11GetFreeInstEv:
.LFB1443:
	.loc 11 265 0
	.cfi_startproc
	pushl	%ebp
	.cfi_def_cfa_offset 8
	.cfi_offset 5, -8
	movl	%esp, %ebp
	.cfi_def_cfa_register 5
	pushl	%esi
	pushl	%ebx
	leal	-32(%esp), %esp
	.cfi_offset 6, -12
	.cfi_offset 3, -16
	call	__x86.get_pc_thunk.bx
	addl	$_GLOBAL_OFFSET_TABLE_, %ebx
.LBB48:
	.loc 11 266 0
	leal	.LC29@GOTOFF(%ebx), %eax
	movl	%eax, 4(%esp)
	leal	-13(%ebp), %eax
	movl	%eax, (%esp)
	call	_ZN12CIwCallStackC1EPKc
.LBB49:
.LBB50:
	.loc 11 269 0
	movl	8(%ebp), %eax
	movl	20(%eax), %edx
	movl	8(%ebp), %eax
	movl	16(%eax), %eax
	cmpl	%eax, %edx
	jb	.L192
	.loc 11 269 0 is_stmt 0 discriminator 1
	leal	.LC20@GOTOFF(%ebx), %eax
	movl	%eax, (%esp)
	call	IwDebugAssertIsChannelOn@PLT
	testb	%al, %al
	je	.L192
	movzbl	_ZZN15CIwSoundManager11GetFreeInstEvE21_s_IwAssertIgnoreThis@GOTOFF(%ebx), %eax
	testb	%al, %al
	jne	.L192
	.loc 11 269 0 discriminator 3
	movl	$1, %eax
	jmp	.L193
.L192:
	.loc 11 269 0 discriminator 2
	movl	$0, %eax
.L193:
	.loc 11 269 0 discriminator 4
	testb	%al, %al
	je	.L194
	.loc 11 269 0 discriminator 1
	movl	$0, (%esp)
	call	IwDebugAssertSetSolution@PLT
	movl	$0, (%esp)
	call	IwDebugAssertSetUID@PLT
	leal	.LC30@GOTOFF(%ebx), %eax
	movl	%eax, (%esp)
	call	IwDebugAssertSetMessage@PLT
	movl	$1, 12(%esp)
	movl	$269, 8(%esp)
	leal	.LC17@GOTOFF(%ebx), %eax
	movl	%eax, 4(%esp)
	leal	.LC31@GOTOFF(%ebx), %eax
	movl	%eax, (%esp)
	call	IwDebugAssertShow@PLT
	cmpl	$1, %eax
	je	.L196
	cmpl	$2, %eax
	je	.L197
	.loc 11 269 0
	jmp	.L195
.L196:
	.loc 11 269 0 discriminator 2
	call	s3eDebugIsDebuggerPresent@PLT
	testb	%al, %al
	setne	%al
	testb	%al, %al
	je	.L198
	.loc 11 269 0 discriminator 1
	call	s3eDebugIsDebuggerPresent@PLT
	testb	%al, %al
	setne	%al
	testb	%al, %al
	je	.L199
#APP
# 269 "c:/Marmalade/7.5/examples/GameTutorial/CPP/modules/soundengine/source/IwSoundManager.cpp" 1
	 int $3 
# 0 "" 2
#NO_APP
	jmp	.L199
.L198:
	.loc 11 269 0 discriminator 2
	call	_ZL11IwDebugExitv
	jmp	.L195
.L199:
	.loc 11 269 0 discriminator 1
	jmp	.L195
.L197:
	.loc 11 269 0 discriminator 3
	movb	$1, _ZZN15CIwSoundManager11GetFreeInstEvE21_s_IwAssertIgnoreThis@GOTOFF(%ebx)
	nop
.L195:
	.loc 11 269 0 discriminator 1
	movl	$0, (%esp)
	call	IwDebugAssertSetUID@PLT
.L194:
.LBE50:
.LBE49:
	.loc 11 271 0 is_stmt 1
	movl	8(%ebp), %eax
	movl	20(%eax), %edx
	movl	8(%ebp), %eax
	movl	16(%eax), %eax
	cmpl	%eax, %edx
	jb	.L200
	.loc 11 272 0
	movl	$0, %esi
	jmp	.L201
.L200:
	.loc 11 274 0
	movl	8(%ebp), %eax
	movl	20(%eax), %eax
	movl	%eax, %edx
	addl	$1, %edx
	movl	8(%ebp), %eax
	movl	%edx, 20(%eax)
	.loc 11 276 0
	movl	8(%ebp), %eax
	movl	12(%eax), %edx
	movl	8(%ebp), %eax
	movl	20(%eax), %eax
	addl	$1073741823, %eax
	sall	$2, %eax
	leal	(%eax,%edx), %eax
	movl	(%eax), %eax
	movl	%eax, -12(%ebp)
.LBB51:
.LBB52:
	.loc 11 277 0
	movl	8(%ebp), %eax
	movl	12(%eax), %edx
	movl	8(%ebp), %eax
	movl	20(%eax), %eax
	addl	$1073741823, %eax
	sall	$2, %eax
	leal	(%eax,%edx), %eax
	movl	(%eax), %eax
	movl	%eax, (%esp)
	call	_ZNK12CIwSoundInst8GetFlagsEv
	movzwl	%ax, %eax
	andl	$4, %eax
	testl	%eax, %eax
	jne	.L202
	.loc 11 277 0 is_stmt 0 discriminator 1
	leal	.LC20@GOTOFF(%ebx), %eax
	movl	%eax, (%esp)
	call	IwDebugAssertIsChannelOn@PLT
	testb	%al, %al
	je	.L202
	movzbl	_ZZN15CIwSoundManager11GetFreeInstEvE21_s_IwAssertIgnoreThis_0@GOTOFF(%ebx), %eax
	testb	%al, %al
	jne	.L202
	.loc 11 277 0 discriminator 3
	movl	$1, %eax
	jmp	.L203
.L202:
	.loc 11 277 0 discriminator 2
	movl	$0, %eax
.L203:
	.loc 11 277 0 discriminator 4
	testb	%al, %al
	je	.L204
	.loc 11 277 0 discriminator 1
	movl	$0, (%esp)
	call	IwDebugAssertSetSolution@PLT
	movl	$0, (%esp)
	call	IwDebugAssertSetUID@PLT
	movl	$0, (%esp)
	call	IwDebugAssertSetMessage@PLT
	movl	$1, 12(%esp)
	movl	$277, 8(%esp)
	leal	.LC17@GOTOFF(%ebx), %eax
	movl	%eax, 4(%esp)
	leal	.LC32@GOTOFF(%ebx), %eax
	movl	%eax, (%esp)
	call	IwDebugAssertShow@PLT
	cmpl	$1, %eax
	je	.L206
	cmpl	$2, %eax
	je	.L207
	.loc 11 277 0
	jmp	.L205
.L206:
	.loc 11 277 0 discriminator 2
	call	s3eDebugIsDebuggerPresent@PLT
	testb	%al, %al
	setne	%al
	testb	%al, %al
	je	.L208
	.loc 11 277 0 discriminator 1
	call	s3eDebugIsDebuggerPresent@PLT
	testb	%al, %al
	setne	%al
	testb	%al, %al
	je	.L209
#APP
# 277 "c:/Marmalade/7.5/examples/GameTutorial/CPP/modules/soundengine/source/IwSoundManager.cpp" 1
	 int $3 
# 0 "" 2
#NO_APP
	jmp	.L209
.L208:
	.loc 11 277 0 discriminator 2
	call	_ZL11IwDebugExitv
	jmp	.L205
.L209:
	.loc 11 277 0 discriminator 1
	jmp	.L205
.L207:
	.loc 11 277 0 discriminator 3
	movb	$1, _ZZN15CIwSoundManager11GetFreeInstEvE21_s_IwAssertIgnoreThis_0@GOTOFF(%ebx)
	nop
.L205:
	.loc 11 277 0 discriminator 1
	movl	$0, (%esp)
	call	IwDebugAssertSetUID@PLT
.L204:
.LBE52:
.LBE51:
	.loc 11 278 0 is_stmt 1
	movl	-12(%ebp), %eax
	movzwl	10(%eax), %eax
	andl	$-5, %eax
	movl	%eax, %edx
	movl	-12(%ebp), %eax
	movw	%dx, 10(%eax)
	.loc 11 280 0
	movl	-12(%ebp), %esi
.L201:
	.loc 11 280 0 is_stmt 0 discriminator 1
	leal	-13(%ebp), %eax
	movl	%eax, (%esp)
	call	_ZN12CIwCallStackD1Ev
	movl	%esi, %eax
.LBE48:
	.loc 11 281 0 is_stmt 1 discriminator 1
	leal	32(%esp), %esp
	popl	%ebx
	.cfi_restore 3
	popl	%esi
	.cfi_restore 6
	popl	%ebp
	.cfi_restore 5
	.cfi_def_cfa 4, 4
	ret
	.cfi_endproc
.LFE1443:
	.size	_ZN15CIwSoundManager11GetFreeInstEv, .-_ZN15CIwSoundManager11GetFreeInstEv
	.section	.rodata
.LC33:
	.string	"CIwSoundManager::SetFreeInst"
.LC34:
	.string	"Null ptr"
.LC35:
	.string	"pInst"
	.align 4
.LC36:
	.string	"Must have at least one active inst"
.LC37:
	.string	"m_NumActiveInsts > 0"
	.align 4
.LC38:
	.string	"Failed to find ptr to this inst in the list"
	.text
	.align 2
	.globl	_ZN15CIwSoundManager11SetFreeInstEP12CIwSoundInst
	.hidden	_ZN15CIwSoundManager11SetFreeInstEP12CIwSoundInst
	.type	_ZN15CIwSoundManager11SetFreeInstEP12CIwSoundInst, @function
_ZN15CIwSoundManager11SetFreeInstEP12CIwSoundInst:
.LFB1444:
	.loc 11 284 0
	.cfi_startproc
	pushl	%ebp
	.cfi_def_cfa_offset 8
	.cfi_offset 5, -8
	movl	%esp, %ebp
	.cfi_def_cfa_register 5
	pushl	%esi
	pushl	%ebx
	leal	-32(%esp), %esp
	.cfi_offset 6, -12
	.cfi_offset 3, -16
	call	__x86.get_pc_thunk.bx
	addl	$_GLOBAL_OFFSET_TABLE_, %ebx
.LBB53:
	.loc 11 285 0
	leal	.LC33@GOTOFF(%ebx), %eax
	movl	%eax, 4(%esp)
	leal	-17(%ebp), %eax
	movl	%eax, (%esp)
	call	_ZN12CIwCallStackC1EPKc
.LBB54:
.LBB55:
	.loc 11 286 0
	cmpl	$0, 12(%ebp)
	jne	.L212
	.loc 11 286 0 is_stmt 0 discriminator 1
	leal	.LC20@GOTOFF(%ebx), %eax
	movl	%eax, (%esp)
	call	IwDebugAssertIsChannelOn@PLT
	testb	%al, %al
	je	.L212
	movzbl	_ZZN15CIwSoundManager11SetFreeInstEP12CIwSoundInstE21_s_IwAssertIgnoreThis@GOTOFF(%ebx), %eax
	testb	%al, %al
	jne	.L212
	.loc 11 286 0 discriminator 3
	movl	$1, %eax
	jmp	.L213
.L212:
	.loc 11 286 0 discriminator 2
	movl	$0, %eax
.L213:
	.loc 11 286 0 discriminator 4
	testb	%al, %al
	je	.L214
	.loc 11 286 0 discriminator 1
	movl	$0, (%esp)
	call	IwDebugAssertSetSolution@PLT
	movl	$0, (%esp)
	call	IwDebugAssertSetUID@PLT
	leal	.LC34@GOTOFF(%ebx), %eax
	movl	%eax, (%esp)
	call	IwDebugAssertSetMessage@PLT
	movl	$1, 12(%esp)
	movl	$286, 8(%esp)
	leal	.LC17@GOTOFF(%ebx), %eax
	movl	%eax, 4(%esp)
	leal	.LC35@GOTOFF(%ebx), %eax
	movl	%eax, (%esp)
	call	IwDebugAssertShow@PLT
	cmpl	$1, %eax
	je	.L216
	cmpl	$2, %eax
	je	.L217
	.loc 11 286 0
	jmp	.L215
.L216:
	.loc 11 286 0 discriminator 2
	call	s3eDebugIsDebuggerPresent@PLT
	testb	%al, %al
	setne	%al
	testb	%al, %al
	je	.L218
	.loc 11 286 0 discriminator 1
	call	s3eDebugIsDebuggerPresent@PLT
	testb	%al, %al
	setne	%al
	testb	%al, %al
	je	.L219
#APP
# 286 "c:/Marmalade/7.5/examples/GameTutorial/CPP/modules/soundengine/source/IwSoundManager.cpp" 1
	 int $3 
# 0 "" 2
#NO_APP
	jmp	.L219
.L218:
	.loc 11 286 0 discriminator 2
	call	_ZL11IwDebugExitv
	jmp	.L215
.L219:
	.loc 11 286 0 discriminator 1
	jmp	.L215
.L217:
	.loc 11 286 0 discriminator 3
	movb	$1, _ZZN15CIwSoundManager11SetFreeInstEP12CIwSoundInstE21_s_IwAssertIgnoreThis@GOTOFF(%ebx)
	nop
.L215:
	.loc 11 286 0 discriminator 1
	movl	$0, (%esp)
	call	IwDebugAssertSetUID@PLT
.L214:
.LBE55:
.LBE54:
.LBB56:
.LBB57:
	.loc 11 288 0 is_stmt 1
	movl	8(%ebp), %eax
	movl	20(%eax), %eax
	testl	%eax, %eax
	jne	.L220
	.loc 11 288 0 is_stmt 0 discriminator 1
	leal	.LC20@GOTOFF(%ebx), %eax
	movl	%eax, (%esp)
	call	IwDebugAssertIsChannelOn@PLT
	testb	%al, %al
	je	.L221
	movzbl	_ZZN15CIwSoundManager11SetFreeInstEP12CIwSoundInstE21_s_IwAssertIgnoreThis_0@GOTOFF(%ebx), %eax
	testb	%al, %al
	jne	.L221
	.loc 11 288 0 discriminator 3
	movl	$1, %eax
	jmp	.L222
.L221:
	.loc 11 288 0 discriminator 2
	movl	$0, %eax
.L222:
	.loc 11 288 0 discriminator 4
	testb	%al, %al
	je	.L223
	.loc 11 288 0 discriminator 1
	movl	$0, (%esp)
	call	IwDebugAssertSetUID@PLT
	leal	.LC36@GOTOFF(%ebx), %eax
	movl	%eax, (%esp)
	call	IwDebugAssertSetMessage@PLT
	movl	$1, 12(%esp)
	movl	$288, 8(%esp)
	leal	.LC17@GOTOFF(%ebx), %eax
	movl	%eax, 4(%esp)
	leal	.LC37@GOTOFF(%ebx), %eax
	movl	%eax, (%esp)
	call	IwDebugAssertShow@PLT
	cmpl	$1, %eax
	je	.L225
	cmpl	$2, %eax
	je	.L226
	.loc 11 288 0
	jmp	.L224
.L225:
	.loc 11 288 0 discriminator 2
	call	s3eDebugIsDebuggerPresent@PLT
	testb	%al, %al
	setne	%al
	testb	%al, %al
	je	.L227
	.loc 11 288 0 discriminator 1
	call	s3eDebugIsDebuggerPresent@PLT
	testb	%al, %al
	setne	%al
	testb	%al, %al
	je	.L228
#APP
# 288 "c:/Marmalade/7.5/examples/GameTutorial/CPP/modules/soundengine/source/IwSoundManager.cpp" 1
	 int $3 
# 0 "" 2
#NO_APP
	jmp	.L228
.L227:
	.loc 11 288 0 discriminator 2
	call	_ZL11IwDebugExitv
	jmp	.L224
.L228:
	.loc 11 288 0 discriminator 1
	jmp	.L224
.L226:
	.loc 11 288 0 discriminator 3
	movb	$1, _ZZN15CIwSoundManager11SetFreeInstEP12CIwSoundInstE21_s_IwAssertIgnoreThis_0@GOTOFF(%ebx)
	nop
.L224:
	.loc 11 288 0 discriminator 1
	movl	$0, (%esp)
	call	IwDebugAssertSetUID@PLT
.L223:
	movl	$0, %esi
	.loc 11 288 0 discriminator 2
	jmp	.L229
.L220:
.LBE57:
.LBE56:
	.loc 11 291 0 is_stmt 1
	movl	12(%ebp), %eax
	movzwl	10(%eax), %eax
	orl	$4, %eax
	movl	%eax, %edx
	movl	12(%ebp), %eax
	movw	%dx, 10(%eax)
	.loc 11 292 0
	movl	12(%ebp), %eax
	movzwl	16(%eax), %eax
	movl	%eax, %edx
	addl	$1, %edx
	movl	12(%ebp), %eax
	movw	%dx, 16(%eax)
	.loc 11 295 0
	movl	8(%ebp), %eax
	movl	12(%eax), %edx
	movl	8(%ebp), %eax
	movl	20(%eax), %eax
	addl	$1073741823, %eax
	sall	$2, %eax
	addl	%edx, %eax
	movl	%eax, -16(%ebp)
	.loc 11 298 0
	movl	8(%ebp), %eax
	movl	12(%eax), %eax
	movl	%eax, -12(%ebp)
	.loc 11 299 0
	jmp	.L230
.L232:
	.loc 11 301 0
	movl	-12(%ebp), %eax
	movl	(%eax), %eax
	cmpl	12(%ebp), %eax
	jne	.L231
	.loc 11 303 0
	movl	-16(%ebp), %eax
	movl	(%eax), %edx
	movl	-12(%ebp), %eax
	movl	%edx, (%eax)
	.loc 11 304 0
	movl	-16(%ebp), %eax
	movl	12(%ebp), %edx
	movl	%edx, (%eax)
	.loc 11 305 0
	movl	8(%ebp), %eax
	movl	20(%eax), %eax
	movl	%eax, %edx
	subl	$1, %edx
	movl	8(%ebp), %eax
	movl	%edx, 20(%eax)
	movl	$0, %esi
	.loc 11 306 0
	jmp	.L229
.L231:
	.loc 11 308 0
	addl	$4, -12(%ebp)
.L230:
	.loc 11 299 0 discriminator 1
	movl	-12(%ebp), %eax
	cmpl	-16(%ebp), %eax
	jbe	.L232
.LBB58:
.LBB59:
	.loc 11 310 0
	leal	.LC20@GOTOFF(%ebx), %eax
	movl	%eax, (%esp)
	call	IwDebugAssertIsChannelOn@PLT
	testb	%al, %al
	je	.L233
	.loc 11 310 0 is_stmt 0 discriminator 1
	movzbl	_ZZN15CIwSoundManager11SetFreeInstEP12CIwSoundInstE21_s_IwAssertIgnoreThis_1@GOTOFF(%ebx), %eax
	testb	%al, %al
	jne	.L233
	.loc 11 310 0 discriminator 3
	movl	$1, %eax
	jmp	.L234
.L233:
	.loc 11 310 0 discriminator 2
	movl	$0, %eax
.L234:
	.loc 11 310 0 discriminator 4
	testb	%al, %al
	je	.L235
	.loc 11 310 0 discriminator 1
	movl	$0, (%esp)
	call	IwDebugAssertSetSolution@PLT
	movl	$0, (%esp)
	call	IwDebugAssertSetUID@PLT
	leal	.LC38@GOTOFF(%ebx), %eax
	movl	%eax, (%esp)
	call	IwDebugAssertSetMessage@PLT
	movl	$1, 12(%esp)
	movl	$310, 8(%esp)
	leal	.LC17@GOTOFF(%ebx), %eax
	movl	%eax, 4(%esp)
	leal	.LC26@GOTOFF(%ebx), %eax
	movl	%eax, (%esp)
	call	IwDebugAssertShow@PLT
	cmpl	$1, %eax
	je	.L237
	cmpl	$2, %eax
	je	.L238
	.loc 11 310 0
	jmp	.L236
.L237:
	.loc 11 310 0 discriminator 2
	call	s3eDebugIsDebuggerPresent@PLT
	testb	%al, %al
	setne	%al
	testb	%al, %al
	je	.L239
	.loc 11 310 0 discriminator 1
	call	s3eDebugIsDebuggerPresent@PLT
	testb	%al, %al
	setne	%al
	testb	%al, %al
	je	.L240
#APP
# 310 "c:/Marmalade/7.5/examples/GameTutorial/CPP/modules/soundengine/source/IwSoundManager.cpp" 1
	 int $3 
# 0 "" 2
#NO_APP
	jmp	.L240
.L239:
	.loc 11 310 0 discriminator 2
	call	_ZL11IwDebugExitv
	jmp	.L236
.L240:
	.loc 11 310 0 discriminator 1
	jmp	.L236
.L238:
	.loc 11 310 0 discriminator 3
	movb	$1, _ZZN15CIwSoundManager11SetFreeInstEP12CIwSoundInstE21_s_IwAssertIgnoreThis_1@GOTOFF(%ebx)
	nop
.L236:
	.loc 11 310 0 discriminator 1
	movl	$0, (%esp)
	call	IwDebugAssertSetUID@PLT
.L235:
	movl	$1, %esi
.L229:
.LBE59:
.LBE58:
	leal	-17(%ebp), %eax
	movl	%eax, (%esp)
	call	_ZN12CIwCallStackD1Ev
	cmpl	$1, %esi
	jne	.L211
	.loc 11 310 0
	nop
.L211:
.LBE53:
	.loc 11 311 0 is_stmt 1
	leal	32(%esp), %esp
	popl	%ebx
	.cfi_restore 3
	popl	%esi
	.cfi_restore 6
	popl	%ebp
	.cfi_restore 5
	.cfi_def_cfa 4, 4
	ret
	.cfi_endproc
.LFE1444:
	.size	_ZN15CIwSoundManager11SetFreeInstEP12CIwSoundInst, .-_ZN15CIwSoundManager11SetFreeInstEP12CIwSoundInst
	.section	.rodata
.LC39:
	.string	"CIwSoundManager::StopAll"
	.text
	.align 2
	.globl	_ZN15CIwSoundManager7StopAllEv
	.hidden	_ZN15CIwSoundManager7StopAllEv
	.type	_ZN15CIwSoundManager7StopAllEv, @function
_ZN15CIwSoundManager7StopAllEv:
.LFB1445:
	.loc 11 314 0
	.cfi_startproc
	pushl	%ebp
	.cfi_def_cfa_offset 8
	.cfi_offset 5, -8
	movl	%esp, %ebp
	.cfi_def_cfa_register 5
	pushl	%ebx
	leal	-36(%esp), %esp
	.cfi_offset 3, -12
	call	__x86.get_pc_thunk.bx
	addl	$_GLOBAL_OFFSET_TABLE_, %ebx
.LBB60:
	.loc 11 315 0
	leal	.LC39@GOTOFF(%ebx), %eax
	movl	%eax, 4(%esp)
	leal	-17(%ebp), %eax
	movl	%eax, (%esp)
	call	_ZN12CIwCallStackC1EPKc
.LBB61:
	.loc 11 316 0
	movl	$0, -12(%ebp)
	jmp	.L246
.L247:
.LBB62:
	.loc 11 318 0 discriminator 2
	movl	8(%ebp), %eax
	movl	12(%eax), %eax
	movl	-12(%ebp), %edx
	sall	$2, %edx
	leal	(%eax,%edx), %eax
	movl	(%eax), %eax
	movl	%eax, -16(%ebp)
	.loc 11 319 0 discriminator 2
	movl	-16(%ebp), %eax
	movl	%eax, (%esp)
	call	_ZN12CIwSoundInst4StopEv@PLT
.LBE62:
	.loc 11 316 0 discriminator 2
	addl	$1, -12(%ebp)
.L246:
	.loc 11 316 0 is_stmt 0 discriminator 1
	movl	8(%ebp), %eax
	movl	20(%eax), %eax
	cmpl	-12(%ebp), %eax
	ja	.L247
.LBE61:
	.loc 11 322 0 is_stmt 1
	movl	8(%ebp), %eax
	movl	%eax, (%esp)
	call	_ZN15CIwSoundManager6UpdateEv
	.loc 11 324 0
	movl	$50, (%esp)
	call	s3eDeviceYield@PLT
	leal	-17(%ebp), %eax
	movl	%eax, (%esp)
	call	_ZN12CIwCallStackD1Ev
.LBE60:
	.loc 11 325 0
	leal	36(%esp), %esp
	popl	%ebx
	.cfi_restore 3
	popl	%ebp
	.cfi_restore 5
	.cfi_def_cfa 4, 4
	ret
	.cfi_endproc
.LFE1445:
	.size	_ZN15CIwSoundManager7StopAllEv, .-_ZN15CIwSoundManager7StopAllEv
	.section	.rodata
	.align 4
.LC40:
	.string	"CIwSoundManager::StopSoundSpec"
	.text
	.align 2
	.globl	_ZN15CIwSoundManager13StopSoundSpecEP12CIwSoundSpec
	.hidden	_ZN15CIwSoundManager13StopSoundSpecEP12CIwSoundSpec
	.type	_ZN15CIwSoundManager13StopSoundSpecEP12CIwSoundSpec, @function
_ZN15CIwSoundManager13StopSoundSpecEP12CIwSoundSpec:
.LFB1446:
	.loc 11 328 0
	.cfi_startproc
	pushl	%ebp
	.cfi_def_cfa_offset 8
	.cfi_offset 5, -8
	movl	%esp, %ebp
	.cfi_def_cfa_register 5
	pushl	%esi
	pushl	%ebx
	leal	-32(%esp), %esp
	.cfi_offset 6, -12
	.cfi_offset 3, -16
	call	__x86.get_pc_thunk.bx
	addl	$_GLOBAL_OFFSET_TABLE_, %ebx
.LBB63:
	.loc 11 329 0
	leal	.LC40@GOTOFF(%ebx), %eax
	movl	%eax, 4(%esp)
	leal	-17(%ebp), %eax
	movl	%eax, (%esp)
	call	_ZN12CIwCallStackC1EPKc
	.loc 11 330 0
	cmpl	$0, 12(%ebp)
	jne	.L249
	movl	$0, %esi
	.loc 11 331 0
	jmp	.L250
.L249:
.LBB64:
	.loc 11 332 0
	movl	8(%ebp), %eax
	movl	20(%eax), %eax
	subl	$1, %eax
	movl	%eax, -12(%ebp)
	jmp	.L251
.L253:
.LBB65:
	.loc 11 334 0
	movl	8(%ebp), %eax
	movl	12(%eax), %eax
	movl	-12(%ebp), %edx
	sall	$2, %edx
	leal	(%eax,%edx), %eax
	movl	(%eax), %eax
	movl	%eax, -16(%ebp)
	.loc 11 335 0
	movl	-16(%ebp), %eax
	movl	%eax, (%esp)
	call	_ZNK12CIwSoundInst7GetSpecEv
	cmpl	12(%ebp), %eax
	sete	%al
	testb	%al, %al
	je	.L252
	.loc 11 337 0
	movl	-16(%ebp), %eax
	movl	%eax, (%esp)
	call	_ZN12CIwSoundInst4StopEv@PLT
	.loc 11 338 0
	movl	-12(%ebp), %eax
	movl	%eax, 4(%esp)
	movl	8(%ebp), %eax
	movl	%eax, (%esp)
	call	_ZN15CIwSoundManager15UpdateCompletedEi
.L252:
.LBE65:
	.loc 11 332 0
	subl	$1, -12(%ebp)
.L251:
	.loc 11 332 0 is_stmt 0 discriminator 1
	cmpl	$0, -12(%ebp)
	jns	.L253
.LBE64:
	.loc 11 342 0 is_stmt 1
	movl	$50, (%esp)
	call	s3eDeviceYield@PLT
	movl	$1, %esi
.L250:
	leal	-17(%ebp), %eax
	movl	%eax, (%esp)
	call	_ZN12CIwCallStackD1Ev
	cmpl	$1, %esi
	jne	.L248
	nop
.L248:
.LBE63:
	.loc 11 343 0
	leal	32(%esp), %esp
	popl	%ebx
	.cfi_restore 3
	popl	%esi
	.cfi_restore 6
	popl	%ebp
	.cfi_restore 5
	.cfi_def_cfa 4, 4
	ret
	.cfi_endproc
.LFE1446:
	.size	_ZN15CIwSoundManager13StopSoundSpecEP12CIwSoundSpec, .-_ZN15CIwSoundManager13StopSoundSpecEP12CIwSoundSpec
	.section	.rodata
.LC41:
	.string	"CIwSoundManager::PauseAll"
	.text
	.align 2
	.globl	_ZN15CIwSoundManager8PauseAllEv
	.hidden	_ZN15CIwSoundManager8PauseAllEv
	.type	_ZN15CIwSoundManager8PauseAllEv, @function
_ZN15CIwSoundManager8PauseAllEv:
.LFB1447:
	.loc 11 346 0
	.cfi_startproc
	pushl	%ebp
	.cfi_def_cfa_offset 8
	.cfi_offset 5, -8
	movl	%esp, %ebp
	.cfi_def_cfa_register 5
	pushl	%ebx
	leal	-36(%esp), %esp
	.cfi_offset 3, -12
	call	__x86.get_pc_thunk.bx
	addl	$_GLOBAL_OFFSET_TABLE_, %ebx
.LBB66:
	.loc 11 347 0
	leal	.LC41@GOTOFF(%ebx), %eax
	movl	%eax, 4(%esp)
	leal	-17(%ebp), %eax
	movl	%eax, (%esp)
	call	_ZN12CIwCallStackC1EPKc
.LBB67:
	.loc 11 348 0
	movl	$0, -12(%ebp)
	jmp	.L259
.L260:
.LBB68:
	.loc 11 350 0 discriminator 2
	movl	8(%ebp), %eax
	movl	12(%eax), %eax
	movl	-12(%ebp), %edx
	sall	$2, %edx
	leal	(%eax,%edx), %eax
	movl	(%eax), %eax
	movl	%eax, -16(%ebp)
	.loc 11 351 0 discriminator 2
	movl	-16(%ebp), %eax
	movl	%eax, (%esp)
	call	_ZN12CIwSoundInst5PauseEv@PLT
.LBE68:
	.loc 11 348 0 discriminator 2
	addl	$1, -12(%ebp)
.L259:
	.loc 11 348 0 is_stmt 0 discriminator 1
	movl	8(%ebp), %eax
	movl	20(%eax), %eax
	cmpl	-12(%ebp), %eax
	ja	.L260
.LBE67:
	.loc 11 352 0 is_stmt 1
	leal	-17(%ebp), %eax
	movl	%eax, (%esp)
	call	_ZN12CIwCallStackD1Ev
.LBE66:
	.loc 11 353 0
	leal	36(%esp), %esp
	popl	%ebx
	.cfi_restore 3
	popl	%ebp
	.cfi_restore 5
	.cfi_def_cfa 4, 4
	ret
	.cfi_endproc
.LFE1447:
	.size	_ZN15CIwSoundManager8PauseAllEv, .-_ZN15CIwSoundManager8PauseAllEv
	.section	.rodata
.LC42:
	.string	"CIwSoundManager::ResumeAll"
	.text
	.align 2
	.globl	_ZN15CIwSoundManager9ResumeAllEv
	.hidden	_ZN15CIwSoundManager9ResumeAllEv
	.type	_ZN15CIwSoundManager9ResumeAllEv, @function
_ZN15CIwSoundManager9ResumeAllEv:
.LFB1448:
	.loc 11 356 0
	.cfi_startproc
	pushl	%ebp
	.cfi_def_cfa_offset 8
	.cfi_offset 5, -8
	movl	%esp, %ebp
	.cfi_def_cfa_register 5
	pushl	%ebx
	leal	-36(%esp), %esp
	.cfi_offset 3, -12
	call	__x86.get_pc_thunk.bx
	addl	$_GLOBAL_OFFSET_TABLE_, %ebx
.LBB69:
	.loc 11 357 0
	leal	.LC42@GOTOFF(%ebx), %eax
	movl	%eax, 4(%esp)
	leal	-17(%ebp), %eax
	movl	%eax, (%esp)
	call	_ZN12CIwCallStackC1EPKc
.LBB70:
	.loc 11 358 0
	movl	$0, -12(%ebp)
	jmp	.L262
.L263:
.LBB71:
	.loc 11 360 0 discriminator 2
	movl	8(%ebp), %eax
	movl	12(%eax), %eax
	movl	-12(%ebp), %edx
	sall	$2, %edx
	leal	(%eax,%edx), %eax
	movl	(%eax), %eax
	movl	%eax, -16(%ebp)
	.loc 11 361 0 discriminator 2
	movl	-16(%ebp), %eax
	movl	%eax, (%esp)
	call	_ZN12CIwSoundInst6ResumeEv@PLT
.LBE71:
	.loc 11 358 0 discriminator 2
	addl	$1, -12(%ebp)
.L262:
	.loc 11 358 0 is_stmt 0 discriminator 1
	movl	8(%ebp), %eax
	movl	20(%eax), %eax
	cmpl	-12(%ebp), %eax
	ja	.L263
.LBE70:
	.loc 11 362 0 is_stmt 1
	leal	-17(%ebp), %eax
	movl	%eax, (%esp)
	call	_ZN12CIwCallStackD1Ev
.LBE69:
	.loc 11 363 0
	leal	36(%esp), %esp
	popl	%ebx
	.cfi_restore 3
	popl	%ebp
	.cfi_restore 5
	.cfi_def_cfa 4, 4
	ret
	.cfi_endproc
.LFE1448:
	.size	_ZN15CIwSoundManager9ResumeAllEv, .-_ZN15CIwSoundManager9ResumeAllEv
	.section	.rodata
.LC43:
	.string	"CIwMenuItemSound::Select"
.LC44:
	.string	"IwSound"
.LC46:
	.string	"NumActiveInsts"
	.text
	.align 2
	.globl	_ZN16CIwMenuItemSound6SelectEv
	.hidden	_ZN16CIwMenuItemSound6SelectEv
	.type	_ZN16CIwMenuItemSound6SelectEv, @function
_ZN16CIwMenuItemSound6SelectEv:
.LFB1449:
	.loc 11 398 0
	.cfi_startproc
	pushl	%ebp
	.cfi_def_cfa_offset 8
	.cfi_offset 5, -8
	movl	%esp, %ebp
	.cfi_def_cfa_register 5
	pushl	%edi
	pushl	%esi
	pushl	%ebx
	leal	-60(%esp), %esp
	.cfi_offset 7, -12
	.cfi_offset 6, -16
	.cfi_offset 3, -20
	call	__x86.get_pc_thunk.bx
	addl	$_GLOBAL_OFFSET_TABLE_, %ebx
.LBB72:
	.loc 11 399 0
	leal	.LC43@GOTOFF(%ebx), %eax
	movl	%eax, 4(%esp)
	leal	-29(%ebp), %eax
	movl	%eax, (%esp)
	call	_ZN12CIwCallStackC1EPKc
	.loc 11 402 0
	movl	$52, (%esp)
	call	_Znwj@PLT
	movl	%eax, %esi
	movl	$0, 12(%esp)
	movl	$-1, 8(%esp)
	movl	$-1, 4(%esp)
	movl	%esi, (%esp)
	call	_ZN7CIwMenuC1Eiij@PLT
	movl	%esi, -28(%ebp)
	.loc 11 403 0
	movl	-28(%ebp), %eax
	movl	(%eax), %eax
	leal	24(%eax), %eax
	movl	(%eax), %edi
	movl	$68, (%esp)
	call	_Znwj@PLT
	movl	%eax, %esi
	leal	.LC44@GOTOFF(%ebx), %eax
	movl	%eax, 4(%esp)
	movl	%esi, (%esp)
	call	_ZN16CIwMenuItemTitleC1EPKc
	movl	$-1, 8(%esp)
	movl	%esi, 4(%esp)
	movl	-28(%ebp), %eax
	movl	%eax, (%esp)
	call	*%edi
	.loc 11 404 0
	movl	-28(%ebp), %eax
	movl	(%eax), %eax
	leal	24(%eax), %eax
	movl	(%eax), %edi
	call	_Z17IwGetSoundManagerv
	addl	$20, %eax
	movl	%eax, -44(%ebp)
	movl	$92, (%esp)
	call	_Znwj@PLT
	movl	%eax, %esi
	movl	.LC5@GOTOFF(%ebx), %eax
	movl	%eax, 24(%esp)
	movl	.LC45@GOTOFF(%ebx), %eax
	movl	%eax, 20(%esp)
	movl	.LC5@GOTOFF(%ebx), %eax
	movl	%eax, 16(%esp)
	movl	.LC5@GOTOFF(%ebx), %eax
	movl	%eax, 12(%esp)
	movl	-44(%ebp), %eax
	movl	%eax, 8(%esp)
	leal	.LC46@GOTOFF(%ebx), %eax
	movl	%eax, 4(%esp)
	movl	%esi, (%esp)
	call	_ZN21CIwMenuItemEditUInt32C1EPKcPjffff
	movl	$-1, 8(%esp)
	movl	%esi, 4(%esp)
	movl	-28(%ebp), %eax
	movl	%eax, (%esp)
	call	*%edi
	.loc 11 407 0
	movl	-28(%ebp), %eax
	movl	(%eax), %eax
	leal	36(%eax), %eax
	movl	(%eax), %eax
	movl	$1, 4(%esp)
	movl	-28(%ebp), %edx
	movl	%edx, (%esp)
	call	*%eax
	.loc 11 408 0
	call	_Z16IwGetMenuManagerv
	movl	-28(%ebp), %edx
	movl	%edx, 4(%esp)
	movl	%eax, (%esp)
	call	_ZN14CIwMenuManager7AddMenuEP7CIwMenu@PLT
	leal	-29(%ebp), %eax
	movl	%eax, (%esp)
	call	_ZN12CIwCallStackD1Ev
.LBE72:
	.loc 11 409 0
	leal	60(%esp), %esp
	popl	%ebx
	.cfi_restore 3
	popl	%esi
	.cfi_restore 6
	popl	%edi
	.cfi_restore 7
	popl	%ebp
	.cfi_restore 5
	.cfi_def_cfa 4, 4
	ret
	.cfi_endproc
.LFE1449:
	.size	_ZN16CIwMenuItemSound6SelectEv, .-_ZN16CIwMenuItemSound6SelectEv
	.section	.text._ZN13CIwChannelPCMIaEC2Ev,"axG",@progbits,_ZN13CIwChannelPCMIaEC5Ev,comdat
	.align 2
	.weak	_ZN13CIwChannelPCMIaEC2Ev
	.hidden	_ZN13CIwChannelPCMIaEC2Ev
	.type	_ZN13CIwChannelPCMIaEC2Ev, @function
_ZN13CIwChannelPCMIaEC2Ev:
.LFB1520:
	.file 12 "c:/marmalade/7.5/examples/gametutorial/cpp/modules/soundengine/h/IwSoundPCM.h"
	.loc 12 101 0
	.cfi_startproc
	pushl	%ebp
	.cfi_def_cfa_offset 8
	.cfi_offset 5, -8
	leal	(%esp), %ebp
	.cfi_def_cfa_register 5
.LBB73:
	.loc 12 105 0
	movl	8(%ebp), %eax
	movl	$0, (%eax)
	movl	8(%ebp), %eax
	movl	$0, 8(%eax)
	movl	8(%ebp), %eax
	movl	$0, 12(%eax)
	movl	8(%ebp), %eax
	movl	$0, 20(%eax)
.LBE73:
	.loc 12 107 0
	popl	%ebp
	.cfi_restore 5
	.cfi_def_cfa 4, 4
	ret
	.cfi_endproc
.LFE1520:
	.size	_ZN13CIwChannelPCMIaEC2Ev, .-_ZN13CIwChannelPCMIaEC2Ev
	.weak	_ZN13CIwChannelPCMIaEC1Ev
	.hidden	_ZN13CIwChannelPCMIaEC1Ev
	.set	_ZN13CIwChannelPCMIaEC1Ev,_ZN13CIwChannelPCMIaEC2Ev
	.section	.text._ZN13CIwChannelPCMIsEC2Ev,"axG",@progbits,_ZN13CIwChannelPCMIsEC5Ev,comdat
	.align 2
	.weak	_ZN13CIwChannelPCMIsEC2Ev
	.hidden	_ZN13CIwChannelPCMIsEC2Ev
	.type	_ZN13CIwChannelPCMIsEC2Ev, @function
_ZN13CIwChannelPCMIsEC2Ev:
.LFB1523:
	.loc 12 101 0
	.cfi_startproc
	pushl	%ebp
	.cfi_def_cfa_offset 8
	.cfi_offset 5, -8
	leal	(%esp), %ebp
	.cfi_def_cfa_register 5
.LBB74:
	.loc 12 105 0
	movl	8(%ebp), %eax
	movl	$0, (%eax)
	movl	8(%ebp), %eax
	movl	$0, 8(%eax)
	movl	8(%ebp), %eax
	movl	$0, 12(%eax)
	movl	8(%ebp), %eax
	movl	$0, 20(%eax)
.LBE74:
	.loc 12 107 0
	popl	%ebp
	.cfi_restore 5
	.cfi_def_cfa 4, 4
	ret
	.cfi_endproc
.LFE1523:
	.size	_ZN13CIwChannelPCMIsEC2Ev, .-_ZN13CIwChannelPCMIsEC2Ev
	.weak	_ZN13CIwChannelPCMIsEC1Ev
	.hidden	_ZN13CIwChannelPCMIsEC1Ev
	.set	_ZN13CIwChannelPCMIsEC1Ev,_ZN13CIwChannelPCMIsEC2Ev
	.section	.text._ZN13CIwChannelPCMIaE15GenerateAudioCBEP20s3eSoundGenAudioInfoPS0_,"axG",@progbits,_ZN13CIwChannelPCMIaE15GenerateAudioCBEP20s3eSoundGenAudioInfoPS0_,comdat
	.weak	_ZN13CIwChannelPCMIaE15GenerateAudioCBEP20s3eSoundGenAudioInfoPS0_
	.hidden	_ZN13CIwChannelPCMIaE15GenerateAudioCBEP20s3eSoundGenAudioInfoPS0_
	.type	_ZN13CIwChannelPCMIaE15GenerateAudioCBEP20s3eSoundGenAudioInfoPS0_, @function
_ZN13CIwChannelPCMIaE15GenerateAudioCBEP20s3eSoundGenAudioInfoPS0_:
.LFB1525:
	.loc 12 57 0
	.cfi_startproc
	pushl	%ebp
	.cfi_def_cfa_offset 8
	.cfi_offset 5, -8
	leal	(%esp), %ebp
	.cfi_def_cfa_register 5
	leal	-24(%esp), %esp
	.loc 12 59 0
	movl	8(%ebp), %eax
	movl	%eax, 4(%esp)
	movl	12(%ebp), %eax
	movl	%eax, (%esp)
	call	_ZN13CIwChannelPCMIaE13GenerateAudioEP20s3eSoundGenAudioInfo
	.loc 12 60 0
	leave
	.cfi_restore 5
	.cfi_def_cfa 4, 4
	ret
	.cfi_endproc
.LFE1525:
	.size	_ZN13CIwChannelPCMIaE15GenerateAudioCBEP20s3eSoundGenAudioInfoPS0_, .-_ZN13CIwChannelPCMIaE15GenerateAudioCBEP20s3eSoundGenAudioInfoPS0_
	.section	.text._ZN13CIwChannelPCMIsE15GenerateAudioCBEP20s3eSoundGenAudioInfoPS0_,"axG",@progbits,_ZN13CIwChannelPCMIsE15GenerateAudioCBEP20s3eSoundGenAudioInfoPS0_,comdat
	.weak	_ZN13CIwChannelPCMIsE15GenerateAudioCBEP20s3eSoundGenAudioInfoPS0_
	.hidden	_ZN13CIwChannelPCMIsE15GenerateAudioCBEP20s3eSoundGenAudioInfoPS0_
	.type	_ZN13CIwChannelPCMIsE15GenerateAudioCBEP20s3eSoundGenAudioInfoPS0_, @function
_ZN13CIwChannelPCMIsE15GenerateAudioCBEP20s3eSoundGenAudioInfoPS0_:
.LFB1526:
	.loc 12 57 0
	.cfi_startproc
	pushl	%ebp
	.cfi_def_cfa_offset 8
	.cfi_offset 5, -8
	leal	(%esp), %ebp
	.cfi_def_cfa_register 5
	leal	-24(%esp), %esp
	.loc 12 59 0
	movl	8(%ebp), %eax
	movl	%eax, 4(%esp)
	movl	12(%ebp), %eax
	movl	%eax, (%esp)
	call	_ZN13CIwChannelPCMIsE13GenerateAudioEP20s3eSoundGenAudioInfo
	.loc 12 60 0
	leave
	.cfi_restore 5
	.cfi_def_cfa 4, 4
	ret
	.cfi_endproc
.LFE1526:
	.size	_ZN13CIwChannelPCMIsE15GenerateAudioCBEP20s3eSoundGenAudioInfoPS0_, .-_ZN13CIwChannelPCMIsE15GenerateAudioCBEP20s3eSoundGenAudioInfoPS0_
	.section	.rodata
	.align 4
.LC47:
	.string	"c:/marmalade/7.5/examples/gametutorial/cpp/modules/soundengine/h/IwSoundPCM.h"
.LC48:
	.string	"end_pos >= pos"
.LC49:
	.string	"pos != __null"
	.section	.text._ZN13CIwChannelPCMIaE13GenerateAudioEP20s3eSoundGenAudioInfo,"axG",@progbits,_ZN13CIwChannelPCMIaE13GenerateAudioEP20s3eSoundGenAudioInfo,comdat
	.align 2
	.weak	_ZN13CIwChannelPCMIaE13GenerateAudioEP20s3eSoundGenAudioInfo
	.hidden	_ZN13CIwChannelPCMIaE13GenerateAudioEP20s3eSoundGenAudioInfo
	.type	_ZN13CIwChannelPCMIaE13GenerateAudioEP20s3eSoundGenAudioInfo, @function
_ZN13CIwChannelPCMIaE13GenerateAudioEP20s3eSoundGenAudioInfo:
.LFB1556:
	.loc 12 112 0
	.cfi_startproc
	pushl	%ebp
	.cfi_def_cfa_offset 8
	.cfi_offset 5, -8
	movl	%esp, %ebp
	.cfi_def_cfa_register 5
	pushl	%esi
	pushl	%ebx
	leal	-80(%esp), %esp
	.cfi_offset 6, -12
	.cfi_offset 3, -16
	call	__x86.get_pc_thunk.bx
	addl	$_GLOBAL_OFFSET_TABLE_, %ebx
.LBB75:
	.loc 12 114 0
	movl	12(%ebp), %eax
	movl	4(%eax), %eax
	movl	%eax, -12(%ebp)
	.loc 12 115 0
	movl	12(%ebp), %eax
	movl	8(%eax), %eax
	movl	%eax, -16(%ebp)
	.loc 12 116 0
	movl	12(%ebp), %eax
	movl	12(%eax), %eax
	movl	%eax, -24(%ebp)
	.loc 12 118 0
	movl	8(%ebp), %eax
	movl	(%eax), %eax
	testl	%eax, %eax
	jne	.L272
	.loc 12 123 0
	movl	12(%ebp), %eax
	movl	16(%eax), %edx
	movl	8(%ebp), %eax
	movl	%edx, (%eax)
	.loc 12 124 0
	movl	12(%ebp), %eax
	movl	16(%eax), %edx
	movl	12(%ebp), %eax
	movl	20(%eax), %eax
	addl	%eax, %eax
	addl	%eax, %edx
	movl	8(%ebp), %eax
	movl	%edx, 8(%eax)
	.loc 12 125 0
	movl	8(%ebp), %eax
	movl	$0, 12(%eax)
.L272:
	.loc 12 128 0
	movl	12(%ebp), %eax
	movl	(%eax), %eax
	movl	$1, 4(%esp)
	movl	%eax, (%esp)
	call	s3eSoundChannelGetInt@PLT
	sall	$12, %eax
	movl	%eax, %esi
	movl	$1, (%esp)
	call	s3eSoundGetInt@PLT
	movl	%eax, %ecx
	movl	%esi, %eax
	movl	%eax, %edx
	sarl	$31, %edx
	idivl	%ecx
	movl	%eax, -28(%ebp)
	.loc 12 129 0
	movl	12(%ebp), %eax
	movl	(%eax), %eax
	movl	$3, 4(%esp)
	movl	%eax, (%esp)
	call	s3eSoundChannelGetInt@PLT
	movl	%eax, -32(%ebp)
.LBB76:
	.loc 12 131 0
	cmpl	$4096, -28(%ebp)
	je	.L273
.LBB77:
	.loc 12 133 0
	movl	$0, -44(%ebp)
	.loc 12 134 0
	leal	-44(%ebp), %eax
	movl	%eax, 24(%esp)
	movl	-24(%ebp), %eax
	movl	%eax, 20(%esp)
	movl	-32(%ebp), %eax
	movl	%eax, 16(%esp)
	movl	-28(%ebp), %eax
	movl	%eax, 12(%esp)
	movl	-16(%ebp), %eax
	movl	%eax, 8(%esp)
	movl	-12(%ebp), %eax
	movl	%eax, 4(%esp)
	movl	8(%ebp), %eax
	movl	%eax, (%esp)
	call	_ZN13CIwChannelPCMIaE17GenerateAudioFastEPsiiiiPi
	movl	%eax, -36(%ebp)
	.loc 12 135 0
	movl	-44(%ebp), %eax
	testl	%eax, %eax
	je	.L274
	.loc 12 137 0
	movl	12(%ebp), %eax
	movb	$1, 28(%eax)
	.loc 12 138 0
	movl	8(%ebp), %eax
	movl	$0, (%eax)
.L274:
	.loc 12 140 0
	movl	-36(%ebp), %eax
	jmp	.L275
.L273:
.LBE77:
.LBE76:
.LBB78:
.LBB79:
.LBB80:
	.loc 12 143 0
	movl	8(%ebp), %eax
	movl	8(%eax), %edx
	movl	8(%ebp), %eax
	movl	(%eax), %eax
	cmpl	%eax, %edx
	jae	.L276
	.loc 12 143 0 is_stmt 0 discriminator 1
	leal	.LC20@GOTOFF(%ebx), %eax
	movl	%eax, (%esp)
	call	IwDebugAssertIsChannelOn@PLT
	testb	%al, %al
	je	.L276
	.loc 12 143 0 discriminator 3
	movzbl	_ZZN13CIwChannelPCMIaE13GenerateAudioEP20s3eSoundGenAudioInfoE21_s_IwAssertIgnoreThis@GOTOFF(%ebx), %eax
	testb	%al, %al
	jne	.L276
	.loc 12 143 0 discriminator 4
	movl	$1, %eax
	jmp	.L277
.L276:
	.loc 12 143 0 discriminator 2
	movl	$0, %eax
.L277:
	.loc 12 143 0 discriminator 5
	testb	%al, %al
	je	.L278
	.loc 12 143 0 discriminator 6
	movl	$0, (%esp)
	call	IwDebugAssertSetSolution@PLT
	movl	$0, (%esp)
	call	IwDebugAssertSetUID@PLT
	movl	$0, (%esp)
	call	IwDebugAssertSetMessage@PLT
	movl	$1, 12(%esp)
	movl	$143, 8(%esp)
	leal	.LC47@GOTOFF(%ebx), %eax
	movl	%eax, 4(%esp)
	leal	.LC48@GOTOFF(%ebx), %eax
	movl	%eax, (%esp)
	call	IwDebugAssertShow@PLT
	cmpl	$1, %eax
	je	.L280
	cmpl	$2, %eax
	je	.L281
	.loc 12 143 0
	jmp	.L279
.L280:
	.loc 12 143 0 discriminator 2
	call	s3eDebugIsDebuggerPresent@PLT
	testb	%al, %al
	setne	%al
	testb	%al, %al
	je	.L282
	.loc 12 143 0 discriminator 1
	call	s3eDebugIsDebuggerPresent@PLT
	testb	%al, %al
	setne	%al
	testb	%al, %al
	je	.L283
#APP
# 143 "c:/marmalade/7.5/examples/gametutorial/cpp/modules/soundengine/h/IwSoundPCM.h" 1
	 int $3 
# 0 "" 2
#NO_APP
	jmp	.L283
.L282:
	.loc 12 143 0 discriminator 2
	call	_ZL11IwDebugExitv
	jmp	.L279
.L283:
	.loc 12 143 0 discriminator 1
	jmp	.L279
.L281:
	.loc 12 143 0 discriminator 3
	movb	$1, _ZZN13CIwChannelPCMIaE13GenerateAudioEP20s3eSoundGenAudioInfoE21_s_IwAssertIgnoreThis@GOTOFF(%ebx)
	nop
.L279:
	.loc 12 143 0 discriminator 1
	movl	$0, (%esp)
	call	IwDebugAssertSetUID@PLT
.L278:
.LBE80:
.LBE79:
.LBB81:
.LBB82:
	.loc 12 144 0 is_stmt 1
	movl	8(%ebp), %eax
	movl	(%eax), %eax
	testl	%eax, %eax
	jne	.L284
	.loc 12 144 0 is_stmt 0 discriminator 1
	leal	.LC20@GOTOFF(%ebx), %eax
	movl	%eax, (%esp)
	call	IwDebugAssertIsChannelOn@PLT
	testb	%al, %al
	je	.L284
	.loc 12 144 0 discriminator 3
	movzbl	_ZZN13CIwChannelPCMIaE13GenerateAudioEP20s3eSoundGenAudioInfoE21_s_IwAssertIgnoreThis_0@GOTOFF(%ebx), %eax
	testb	%al, %al
	jne	.L284
	.loc 12 144 0 discriminator 4
	movl	$1, %eax
	jmp	.L285
.L284:
	.loc 12 144 0 discriminator 2
	movl	$0, %eax
.L285:
	.loc 12 144 0 discriminator 5
	testb	%al, %al
	je	.L286
	.loc 12 144 0 discriminator 6
	movl	$0, (%esp)
	call	IwDebugAssertSetSolution@PLT
	movl	$0, (%esp)
	call	IwDebugAssertSetUID@PLT
	movl	$0, (%esp)
	call	IwDebugAssertSetMessage@PLT
	movl	$1, 12(%esp)
	movl	$144, 8(%esp)
	leal	.LC47@GOTOFF(%ebx), %eax
	movl	%eax, 4(%esp)
	leal	.LC49@GOTOFF(%ebx), %eax
	movl	%eax, (%esp)
	call	IwDebugAssertShow@PLT
	cmpl	$1, %eax
	je	.L288
	cmpl	$2, %eax
	je	.L289
	.loc 12 144 0
	jmp	.L287
.L288:
	.loc 12 144 0 discriminator 2
	call	s3eDebugIsDebuggerPresent@PLT
	testb	%al, %al
	setne	%al
	testb	%al, %al
	je	.L290
	.loc 12 144 0 discriminator 1
	call	s3eDebugIsDebuggerPresent@PLT
	testb	%al, %al
	setne	%al
	testb	%al, %al
	je	.L291
#APP
# 144 "c:/marmalade/7.5/examples/gametutorial/cpp/modules/soundengine/h/IwSoundPCM.h" 1
	 int $3 
# 0 "" 2
#NO_APP
	jmp	.L291
.L290:
	.loc 12 144 0 discriminator 2
	call	_ZL11IwDebugExitv
	jmp	.L287
.L291:
	.loc 12 144 0 discriminator 1
	jmp	.L287
.L289:
	.loc 12 144 0 discriminator 3
	movb	$1, _ZZN13CIwChannelPCMIaE13GenerateAudioEP20s3eSoundGenAudioInfoE21_s_IwAssertIgnoreThis_0@GOTOFF(%ebx)
	nop
.L287:
	.loc 12 144 0 discriminator 1
	movl	$0, (%esp)
	call	IwDebugAssertSetUID@PLT
.L286:
.LBE82:
.LBE81:
	.loc 12 146 0 is_stmt 1
	movl	8(%ebp), %eax
	movl	8(%eax), %eax
	movl	%eax, %edx
	movl	8(%ebp), %eax
	movl	(%eax), %eax
	subl	%eax, %edx
	movl	%edx, %eax
	movl	%eax, -40(%ebp)
	.loc 12 147 0
	movl	-40(%ebp), %eax
	cmpl	-16(%ebp), %eax
	jge	.L292
	.loc 12 147 0 is_stmt 0 discriminator 1
	movl	-40(%ebp), %eax
	jmp	.L293
.L292:
	.loc 12 147 0 discriminator 2
	movl	-16(%ebp), %eax
.L293:
	.loc 12 147 0 discriminator 3
	movl	%eax, -20(%ebp)
	.loc 12 148 0 is_stmt 1 discriminator 3
	movl	-20(%ebp), %eax
	subl	%eax, -16(%ebp)
	.loc 12 150 0 discriminator 3
	cmpl	$0, -32(%ebp)
	jne	.L294
	.loc 12 152 0
	cmpl	$0, -24(%ebp)
	jne	.L295
	.loc 12 153 0
	movl	-20(%ebp), %eax
	addl	%eax, %eax
	movl	%eax, 8(%esp)
	movl	$0, 4(%esp)
	movl	-12(%ebp), %eax
	movl	%eax, (%esp)
	call	memset@PLT
.L295:
	.loc 12 154 0 discriminator 1
	movl	8(%ebp), %eax
	movl	(%eax), %edx
	movl	-20(%ebp), %eax
	addl	%eax, %edx
	movl	8(%ebp), %eax
	movl	%edx, (%eax)
	movl	-20(%ebp), %eax
	addl	%eax, %eax
	addl	%eax, -12(%ebp)
	movl	$0, -20(%ebp)
	jmp	.L296
.L294:
	.loc 12 158 0
	cmpl	$0, -24(%ebp)
	je	.L297
	.loc 12 159 0
	jmp	.L298
.L299:
	.loc 12 160 0 discriminator 2
	movl	-12(%ebp), %eax
	movzwl	(%eax), %eax
	movl	%eax, %edx
	movl	8(%ebp), %eax
	movl	(%eax), %eax
	movzbl	(%eax), %eax
	movsbl	%al, %eax
	imull	-32(%ebp), %eax
	sarl	$8, %eax
	addl	%edx, %eax
	movl	%eax, %edx
	movl	-12(%ebp), %eax
	movw	%dx, (%eax)
	.loc 12 159 0 discriminator 2
	subl	$1, -20(%ebp)
	movl	8(%ebp), %eax
	movl	(%eax), %eax
	movl	%eax, %edx
	addl	$1, %edx
	movl	8(%ebp), %eax
	movl	%edx, (%eax)
	addl	$2, -12(%ebp)
.L298:
	.loc 12 159 0 is_stmt 0 discriminator 1
	cmpl	$0, -20(%ebp)
	jne	.L299
	jmp	.L296
.L297:
	.loc 12 162 0 is_stmt 1
	jmp	.L300
.L301:
	.loc 12 163 0 discriminator 2
	movl	8(%ebp), %eax
	movl	(%eax), %eax
	movzbl	(%eax), %eax
	movsbl	%al, %eax
	imull	-32(%ebp), %eax
	sarl	$8, %eax
	movl	%eax, %edx
	movl	-12(%ebp), %eax
	movw	%dx, (%eax)
	.loc 12 162 0 discriminator 2
	subl	$1, -20(%ebp)
	movl	8(%ebp), %eax
	movl	(%eax), %eax
	movl	%eax, %edx
	addl	$1, %edx
	movl	8(%ebp), %eax
	movl	%edx, (%eax)
	addl	$2, -12(%ebp)
.L300:
	.loc 12 162 0 is_stmt 0 discriminator 1
	cmpl	$0, -20(%ebp)
	jne	.L301
.L296:
	.loc 12 166 0 is_stmt 1
	movl	8(%ebp), %eax
	movl	(%eax), %edx
	movl	8(%ebp), %eax
	movl	8(%eax), %eax
	cmpl	%eax, %edx
	jne	.L302
	.loc 12 169 0
	movl	8(%ebp), %eax
	movl	$0, (%eax)
	.loc 12 170 0
	movl	12(%ebp), %eax
	movb	$1, 28(%eax)
	.loc 12 171 0
	movl	12(%ebp), %eax
	movl	8(%eax), %edx
	movl	-16(%ebp), %eax
	subl	%eax, %edx
	movl	%edx, %eax
	jmp	.L275
.L302:
.LBE78:
	.loc 12 142 0
	cmpl	$0, -16(%ebp)
	jne	.L273
	.loc 12 175 0
	movl	12(%ebp), %eax
	movl	8(%eax), %eax
.L275:
.LBE75:
	.loc 12 176 0
	leal	80(%esp), %esp
	popl	%ebx
	.cfi_restore 3
	popl	%esi
	.cfi_restore 6
	popl	%ebp
	.cfi_restore 5
	.cfi_def_cfa 4, 4
	ret
	.cfi_endproc
.LFE1556:
	.size	_ZN13CIwChannelPCMIaE13GenerateAudioEP20s3eSoundGenAudioInfo, .-_ZN13CIwChannelPCMIaE13GenerateAudioEP20s3eSoundGenAudioInfo
	.section	.text._ZN13CIwChannelPCMIsE13GenerateAudioEP20s3eSoundGenAudioInfo,"axG",@progbits,_ZN13CIwChannelPCMIsE13GenerateAudioEP20s3eSoundGenAudioInfo,comdat
	.align 2
	.weak	_ZN13CIwChannelPCMIsE13GenerateAudioEP20s3eSoundGenAudioInfo
	.hidden	_ZN13CIwChannelPCMIsE13GenerateAudioEP20s3eSoundGenAudioInfo
	.type	_ZN13CIwChannelPCMIsE13GenerateAudioEP20s3eSoundGenAudioInfo, @function
_ZN13CIwChannelPCMIsE13GenerateAudioEP20s3eSoundGenAudioInfo:
.LFB1557:
	.loc 12 112 0
	.cfi_startproc
	pushl	%ebp
	.cfi_def_cfa_offset 8
	.cfi_offset 5, -8
	movl	%esp, %ebp
	.cfi_def_cfa_register 5
	pushl	%esi
	pushl	%ebx
	leal	-80(%esp), %esp
	.cfi_offset 6, -12
	.cfi_offset 3, -16
	call	__x86.get_pc_thunk.bx
	addl	$_GLOBAL_OFFSET_TABLE_, %ebx
.LBB83:
	.loc 12 114 0
	movl	12(%ebp), %eax
	movl	4(%eax), %eax
	movl	%eax, -12(%ebp)
	.loc 12 115 0
	movl	12(%ebp), %eax
	movl	8(%eax), %eax
	movl	%eax, -16(%ebp)
	.loc 12 116 0
	movl	12(%ebp), %eax
	movl	12(%eax), %eax
	movl	%eax, -24(%ebp)
	.loc 12 118 0
	movl	8(%ebp), %eax
	movl	(%eax), %eax
	testl	%eax, %eax
	jne	.L304
	.loc 12 123 0
	movl	12(%ebp), %eax
	movl	16(%eax), %edx
	movl	8(%ebp), %eax
	movl	%edx, (%eax)
	.loc 12 124 0
	movl	12(%ebp), %eax
	movl	16(%eax), %edx
	movl	12(%ebp), %eax
	movl	20(%eax), %eax
	addl	%eax, %eax
	addl	%eax, %edx
	movl	8(%ebp), %eax
	movl	%edx, 8(%eax)
	.loc 12 125 0
	movl	8(%ebp), %eax
	movl	$0, 12(%eax)
.L304:
	.loc 12 128 0
	movl	12(%ebp), %eax
	movl	(%eax), %eax
	movl	$1, 4(%esp)
	movl	%eax, (%esp)
	call	s3eSoundChannelGetInt@PLT
	sall	$12, %eax
	movl	%eax, %esi
	movl	$1, (%esp)
	call	s3eSoundGetInt@PLT
	movl	%eax, %ecx
	movl	%esi, %eax
	movl	%eax, %edx
	sarl	$31, %edx
	idivl	%ecx
	movl	%eax, -28(%ebp)
	.loc 12 129 0
	movl	12(%ebp), %eax
	movl	(%eax), %eax
	movl	$3, 4(%esp)
	movl	%eax, (%esp)
	call	s3eSoundChannelGetInt@PLT
	movl	%eax, -32(%ebp)
.LBB84:
	.loc 12 131 0
	cmpl	$4096, -28(%ebp)
	je	.L305
.LBB85:
	.loc 12 133 0
	movl	$0, -44(%ebp)
	.loc 12 134 0
	leal	-44(%ebp), %eax
	movl	%eax, 24(%esp)
	movl	-24(%ebp), %eax
	movl	%eax, 20(%esp)
	movl	-32(%ebp), %eax
	movl	%eax, 16(%esp)
	movl	-28(%ebp), %eax
	movl	%eax, 12(%esp)
	movl	-16(%ebp), %eax
	movl	%eax, 8(%esp)
	movl	-12(%ebp), %eax
	movl	%eax, 4(%esp)
	movl	8(%ebp), %eax
	movl	%eax, (%esp)
	call	_ZN13CIwChannelPCMIsE17GenerateAudioFastEPsiiiiPi
	movl	%eax, -36(%ebp)
	.loc 12 135 0
	movl	-44(%ebp), %eax
	testl	%eax, %eax
	je	.L306
	.loc 12 137 0
	movl	12(%ebp), %eax
	movb	$1, 28(%eax)
	.loc 12 138 0
	movl	8(%ebp), %eax
	movl	$0, (%eax)
.L306:
	.loc 12 140 0
	movl	-36(%ebp), %eax
	jmp	.L307
.L305:
.LBE85:
.LBE84:
.LBB86:
.LBB87:
.LBB88:
	.loc 12 143 0
	movl	8(%ebp), %eax
	movl	8(%eax), %edx
	movl	8(%ebp), %eax
	movl	(%eax), %eax
	cmpl	%eax, %edx
	jae	.L308
	.loc 12 143 0 is_stmt 0 discriminator 1
	leal	.LC20@GOTOFF(%ebx), %eax
	movl	%eax, (%esp)
	call	IwDebugAssertIsChannelOn@PLT
	testb	%al, %al
	je	.L308
	.loc 12 143 0 discriminator 3
	movzbl	_ZZN13CIwChannelPCMIsE13GenerateAudioEP20s3eSoundGenAudioInfoE21_s_IwAssertIgnoreThis@GOTOFF(%ebx), %eax
	testb	%al, %al
	jne	.L308
	.loc 12 143 0 discriminator 4
	movl	$1, %eax
	jmp	.L309
.L308:
	.loc 12 143 0 discriminator 2
	movl	$0, %eax
.L309:
	.loc 12 143 0 discriminator 5
	testb	%al, %al
	je	.L310
	.loc 12 143 0 discriminator 6
	movl	$0, (%esp)
	call	IwDebugAssertSetSolution@PLT
	movl	$0, (%esp)
	call	IwDebugAssertSetUID@PLT
	movl	$0, (%esp)
	call	IwDebugAssertSetMessage@PLT
	movl	$1, 12(%esp)
	movl	$143, 8(%esp)
	leal	.LC47@GOTOFF(%ebx), %eax
	movl	%eax, 4(%esp)
	leal	.LC48@GOTOFF(%ebx), %eax
	movl	%eax, (%esp)
	call	IwDebugAssertShow@PLT
	cmpl	$1, %eax
	je	.L312
	cmpl	$2, %eax
	je	.L313
	.loc 12 143 0
	jmp	.L311
.L312:
	.loc 12 143 0 discriminator 2
	call	s3eDebugIsDebuggerPresent@PLT
	testb	%al, %al
	setne	%al
	testb	%al, %al
	je	.L314
	.loc 12 143 0 discriminator 1
	call	s3eDebugIsDebuggerPresent@PLT
	testb	%al, %al
	setne	%al
	testb	%al, %al
	je	.L315
#APP
# 143 "c:/marmalade/7.5/examples/gametutorial/cpp/modules/soundengine/h/IwSoundPCM.h" 1
	 int $3 
# 0 "" 2
#NO_APP
	jmp	.L315
.L314:
	.loc 12 143 0 discriminator 2
	call	_ZL11IwDebugExitv
	jmp	.L311
.L315:
	.loc 12 143 0 discriminator 1
	jmp	.L311
.L313:
	.loc 12 143 0 discriminator 3
	movb	$1, _ZZN13CIwChannelPCMIsE13GenerateAudioEP20s3eSoundGenAudioInfoE21_s_IwAssertIgnoreThis@GOTOFF(%ebx)
	nop
.L311:
	.loc 12 143 0 discriminator 1
	movl	$0, (%esp)
	call	IwDebugAssertSetUID@PLT
.L310:
.LBE88:
.LBE87:
.LBB89:
.LBB90:
	.loc 12 144 0 is_stmt 1
	movl	8(%ebp), %eax
	movl	(%eax), %eax
	testl	%eax, %eax
	jne	.L316
	.loc 12 144 0 is_stmt 0 discriminator 1
	leal	.LC20@GOTOFF(%ebx), %eax
	movl	%eax, (%esp)
	call	IwDebugAssertIsChannelOn@PLT
	testb	%al, %al
	je	.L316
	.loc 12 144 0 discriminator 3
	movzbl	_ZZN13CIwChannelPCMIsE13GenerateAudioEP20s3eSoundGenAudioInfoE21_s_IwAssertIgnoreThis_0@GOTOFF(%ebx), %eax
	testb	%al, %al
	jne	.L316
	.loc 12 144 0 discriminator 4
	movl	$1, %eax
	jmp	.L317
.L316:
	.loc 12 144 0 discriminator 2
	movl	$0, %eax
.L317:
	.loc 12 144 0 discriminator 5
	testb	%al, %al
	je	.L318
	.loc 12 144 0 discriminator 6
	movl	$0, (%esp)
	call	IwDebugAssertSetSolution@PLT
	movl	$0, (%esp)
	call	IwDebugAssertSetUID@PLT
	movl	$0, (%esp)
	call	IwDebugAssertSetMessage@PLT
	movl	$1, 12(%esp)
	movl	$144, 8(%esp)
	leal	.LC47@GOTOFF(%ebx), %eax
	movl	%eax, 4(%esp)
	leal	.LC49@GOTOFF(%ebx), %eax
	movl	%eax, (%esp)
	call	IwDebugAssertShow@PLT
	cmpl	$1, %eax
	je	.L320
	cmpl	$2, %eax
	je	.L321
	.loc 12 144 0
	jmp	.L319
.L320:
	.loc 12 144 0 discriminator 2
	call	s3eDebugIsDebuggerPresent@PLT
	testb	%al, %al
	setne	%al
	testb	%al, %al
	je	.L322
	.loc 12 144 0 discriminator 1
	call	s3eDebugIsDebuggerPresent@PLT
	testb	%al, %al
	setne	%al
	testb	%al, %al
	je	.L323
#APP
# 144 "c:/marmalade/7.5/examples/gametutorial/cpp/modules/soundengine/h/IwSoundPCM.h" 1
	 int $3 
# 0 "" 2
#NO_APP
	jmp	.L323
.L322:
	.loc 12 144 0 discriminator 2
	call	_ZL11IwDebugExitv
	jmp	.L319
.L323:
	.loc 12 144 0 discriminator 1
	jmp	.L319
.L321:
	.loc 12 144 0 discriminator 3
	movb	$1, _ZZN13CIwChannelPCMIsE13GenerateAudioEP20s3eSoundGenAudioInfoE21_s_IwAssertIgnoreThis_0@GOTOFF(%ebx)
	nop
.L319:
	.loc 12 144 0 discriminator 1
	movl	$0, (%esp)
	call	IwDebugAssertSetUID@PLT
.L318:
.LBE90:
.LBE89:
	.loc 12 146 0 is_stmt 1
	movl	8(%ebp), %eax
	movl	8(%eax), %eax
	movl	%eax, %edx
	movl	8(%ebp), %eax
	movl	(%eax), %eax
	subl	%eax, %edx
	movl	%edx, %eax
	sarl	%eax
	movl	%eax, -40(%ebp)
	.loc 12 147 0
	movl	-40(%ebp), %eax
	cmpl	-16(%ebp), %eax
	jge	.L324
	.loc 12 147 0 is_stmt 0 discriminator 1
	movl	-40(%ebp), %eax
	jmp	.L325
.L324:
	.loc 12 147 0 discriminator 2
	movl	-16(%ebp), %eax
.L325:
	.loc 12 147 0 discriminator 3
	movl	%eax, -20(%ebp)
	.loc 12 148 0 is_stmt 1 discriminator 3
	movl	-20(%ebp), %eax
	subl	%eax, -16(%ebp)
	.loc 12 150 0 discriminator 3
	cmpl	$0, -32(%ebp)
	jne	.L326
	.loc 12 152 0
	cmpl	$0, -24(%ebp)
	jne	.L327
	.loc 12 153 0
	movl	-20(%ebp), %eax
	addl	%eax, %eax
	movl	%eax, 8(%esp)
	movl	$0, 4(%esp)
	movl	-12(%ebp), %eax
	movl	%eax, (%esp)
	call	memset@PLT
.L327:
	.loc 12 154 0 discriminator 1
	movl	8(%ebp), %eax
	movl	(%eax), %eax
	movl	-20(%ebp), %edx
	addl	%edx, %edx
	addl	%eax, %edx
	movl	8(%ebp), %eax
	movl	%edx, (%eax)
	movl	-20(%ebp), %eax
	addl	%eax, %eax
	addl	%eax, -12(%ebp)
	movl	$0, -20(%ebp)
	jmp	.L328
.L326:
	.loc 12 158 0
	cmpl	$0, -24(%ebp)
	je	.L329
	.loc 12 159 0
	jmp	.L330
.L331:
	.loc 12 160 0 discriminator 2
	movl	-12(%ebp), %eax
	movzwl	(%eax), %eax
	movl	%eax, %edx
	movl	8(%ebp), %eax
	movl	(%eax), %eax
	movzwl	(%eax), %eax
	cwtl
	imull	-32(%ebp), %eax
	sarl	$8, %eax
	addl	%edx, %eax
	movl	%eax, %edx
	movl	-12(%ebp), %eax
	movw	%dx, (%eax)
	.loc 12 159 0 discriminator 2
	subl	$1, -20(%ebp)
	movl	8(%ebp), %eax
	movl	(%eax), %eax
	movl	%eax, %edx
	addl	$2, %edx
	movl	8(%ebp), %eax
	movl	%edx, (%eax)
	addl	$2, -12(%ebp)
.L330:
	.loc 12 159 0 is_stmt 0 discriminator 1
	cmpl	$0, -20(%ebp)
	jne	.L331
	jmp	.L328
.L329:
	.loc 12 162 0 is_stmt 1
	jmp	.L332
.L333:
	.loc 12 163 0 discriminator 2
	movl	8(%ebp), %eax
	movl	(%eax), %eax
	movzwl	(%eax), %eax
	cwtl
	imull	-32(%ebp), %eax
	sarl	$8, %eax
	movl	%eax, %edx
	movl	-12(%ebp), %eax
	movw	%dx, (%eax)
	.loc 12 162 0 discriminator 2
	subl	$1, -20(%ebp)
	movl	8(%ebp), %eax
	movl	(%eax), %eax
	movl	%eax, %edx
	addl	$2, %edx
	movl	8(%ebp), %eax
	movl	%edx, (%eax)
	addl	$2, -12(%ebp)
.L332:
	.loc 12 162 0 is_stmt 0 discriminator 1
	cmpl	$0, -20(%ebp)
	jne	.L333
.L328:
	.loc 12 166 0 is_stmt 1
	movl	8(%ebp), %eax
	movl	(%eax), %edx
	movl	8(%ebp), %eax
	movl	8(%eax), %eax
	cmpl	%eax, %edx
	jne	.L334
	.loc 12 169 0
	movl	8(%ebp), %eax
	movl	$0, (%eax)
	.loc 12 170 0
	movl	12(%ebp), %eax
	movb	$1, 28(%eax)
	.loc 12 171 0
	movl	12(%ebp), %eax
	movl	8(%eax), %edx
	movl	-16(%ebp), %eax
	subl	%eax, %edx
	movl	%edx, %eax
	jmp	.L307
.L334:
.LBE86:
	.loc 12 142 0
	cmpl	$0, -16(%ebp)
	jne	.L305
	.loc 12 175 0
	movl	12(%ebp), %eax
	movl	8(%eax), %eax
.L307:
.LBE83:
	.loc 12 176 0
	leal	80(%esp), %esp
	popl	%ebx
	.cfi_restore 3
	popl	%esi
	.cfi_restore 6
	popl	%ebp
	.cfi_restore 5
	.cfi_def_cfa 4, 4
	ret
	.cfi_endproc
.LFE1557:
	.size	_ZN13CIwChannelPCMIsE13GenerateAudioEP20s3eSoundGenAudioInfo, .-_ZN13CIwChannelPCMIsE13GenerateAudioEP20s3eSoundGenAudioInfo
	.section	.text._ZN13CIwChannelPCMIaE17GenerateAudioFastEPsiiiiPi,"axG",@progbits,_ZN13CIwChannelPCMIaE17GenerateAudioFastEPsiiiiPi,comdat
	.align 2
	.weak	_ZN13CIwChannelPCMIaE17GenerateAudioFastEPsiiiiPi
	.hidden	_ZN13CIwChannelPCMIaE17GenerateAudioFastEPsiiiiPi
	.type	_ZN13CIwChannelPCMIaE17GenerateAudioFastEPsiiiiPi, @function
_ZN13CIwChannelPCMIaE17GenerateAudioFastEPsiiiiPi:
.LFB1573:
	.loc 12 181 0
	.cfi_startproc
	pushl	%ebp
	.cfi_def_cfa_offset 8
	.cfi_offset 5, -8
	movl	%esp, %ebp
	.cfi_def_cfa_register 5
	pushl	%edi
	pushl	%esi
	leal	-96(%esp), %esp
	.cfi_offset 7, -12
	.cfi_offset 6, -16
.LBB91:
	.loc 12 184 0
	cmpl	$0, 16(%ebp)
	jne	.L336
	.loc 12 185 0
	movl	28(%ebp), %eax
	jmp	.L337
.L336:
.LBB92:
	.loc 12 187 0
	movl	12(%ebp), %eax
	movl	%eax, -20(%ebp)
	.loc 12 188 0
	movl	8(%ebp), %eax
	movl	(%eax), %eax
	movl	%eax, -12(%ebp)
	.loc 12 190 0
	movl	8(%ebp), %eax
	movl	12(%eax), %eax
	movl	%eax, -16(%ebp)
	.loc 12 192 0
	movl	8(%ebp), %eax
	movl	8(%eax), %eax
	subl	$1, %eax
	movl	%eax, -24(%ebp)
	.loc 12 193 0
	movl	$4095, %esi
.LBB93:
	.loc 12 194 0
	cmpl	$0, 28(%ebp)
	je	.L338
.L339:
.LBB94:
	.loc 12 197 0
	jmp	.L340
.L343:
.LBB95:
.LBB96:
	.loc 12 199 0
	cmpl	$0, 16(%ebp)
	je	.L341
.LBB97:
	.loc 12 201 0
	movl	-12(%ebp), %eax
	movzbl	(%eax), %eax
	movsbl	%al, %eax
	movl	%eax, -28(%ebp)
	.loc 12 202 0
	movl	-12(%ebp), %eax
	movzbl	(%eax), %eax
	movsbl	%al, %eax
	movl	%eax, -32(%ebp)
	.loc 12 204 0
	movl	12(%ebp), %eax
	movzwl	(%eax), %eax
	cwtl
	movl	%eax, -36(%ebp)
	.loc 12 205 0
	movl	-28(%ebp), %eax
	movl	-32(%ebp), %edx
	subl	%eax, %edx
	movl	%edx, %eax
	imull	-16(%ebp), %eax
	sarl	$12, %eax
	movl	%eax, %edx
	movl	-28(%ebp), %eax
	addl	%edx, %eax
	movl	%eax, -40(%ebp)
	.loc 12 207 0
	movl	12(%ebp), %edi
	movl	%edi, %eax
	addl	$2, %eax
	movl	%eax, 12(%ebp)
	movl	-40(%ebp), %eax
	imull	24(%ebp), %eax
	sarl	$8, %eax
	movl	%eax, %edx
	movl	-36(%ebp), %eax
	addl	%edx, %eax
	movl	%eax, (%esp)
	call	_ZN13CIwChannelPCMIaE13clip_to_int16Ei
	movw	%ax, (%edi)
	.loc 12 209 0
	movl	20(%ebp), %eax
	addl	%eax, -16(%ebp)
	.loc 12 210 0
	movl	-16(%ebp), %eax
	sarl	$12, %eax
	addl	%eax, -12(%ebp)
	.loc 12 211 0
	movl	-16(%ebp), %eax
	andl	%esi, %eax
	movl	%eax, -16(%ebp)
	.loc 12 212 0
	subl	$1, 16(%ebp)
.LBE97:
	jmp	.L340
.L341:
	.loc 12 215 0
	jmp	.L342
.L340:
.LBE96:
.LBE95:
	.loc 12 197 0 discriminator 1
	movl	-12(%ebp), %eax
	cmpl	-24(%ebp), %eax
	je	.L343
	.loc 12 217 0
	movl	-12(%ebp), %eax
	cmpl	-24(%ebp), %eax
	jbe	.L344
	.loc 12 221 0
	movl	32(%ebp), %eax
	movl	$1, (%eax)
	.loc 12 222 0
	jmp	.L342
.L344:
	.loc 12 225 0
	cmpl	$0, 16(%ebp)
	jne	.L345
	.loc 12 226 0
	jmp	.L342
.L345:
.LBB98:
	.loc 12 228 0
	cmpl	$0, 24(%ebp)
	je	.L346
.L348:
.LBB99:
.LBB100:
	.loc 12 231 0
	movl	-12(%ebp), %eax
	movzbl	(%eax), %eax
	movsbl	%al, %eax
	movl	%eax, -44(%ebp)
	.loc 12 232 0
	movl	-12(%ebp), %eax
	leal	1(%eax), %eax
	movzbl	(%eax), %eax
	movsbl	%al, %eax
	movl	%eax, -48(%ebp)
	.loc 12 233 0
	movl	12(%ebp), %eax
	movzwl	(%eax), %eax
	cwtl
	movl	%eax, -52(%ebp)
	.loc 12 234 0
	movl	-44(%ebp), %eax
	movl	-48(%ebp), %edx
	subl	%eax, %edx
	movl	%edx, %eax
	imull	-16(%ebp), %eax
	sarl	$12, %eax
	movl	%eax, %edx
	movl	-44(%ebp), %eax
	addl	%edx, %eax
	movl	%eax, -56(%ebp)
	.loc 12 237 0
	movl	12(%ebp), %edi
	movl	%edi, %eax
	addl	$2, %eax
	movl	%eax, 12(%ebp)
	movl	-56(%ebp), %eax
	imull	24(%ebp), %eax
	sarl	$8, %eax
	movl	%eax, %edx
	movl	-52(%ebp), %eax
	addl	%edx, %eax
	movl	%eax, (%esp)
	call	_ZN13CIwChannelPCMIaE13clip_to_int16Ei
	movw	%ax, (%edi)
	.loc 12 239 0
	movl	20(%ebp), %eax
	addl	%eax, -16(%ebp)
	.loc 12 240 0
	movl	-16(%ebp), %eax
	sarl	$12, %eax
	addl	%eax, -12(%ebp)
	.loc 12 241 0
	movl	-16(%ebp), %eax
	andl	%esi, %eax
	movl	%eax, -16(%ebp)
	.loc 12 242 0
	subl	$1, 16(%ebp)
	.loc 12 244 0
	movl	-12(%ebp), %eax
	cmpl	-24(%ebp), %eax
	jb	.L347
	.loc 12 245 0
	jmp	.L339
.L347:
.LBE100:
	.loc 12 230 0
	cmpl	$0, 16(%ebp)
	jne	.L348
.LBE99:
	jmp	.L349
.L346:
	.loc 12 252 0
	addl	$2, 12(%ebp)
	.loc 12 253 0
	movl	20(%ebp), %eax
	addl	%eax, -16(%ebp)
	.loc 12 254 0
	movl	-16(%ebp), %eax
	sarl	$12, %eax
	addl	%eax, -12(%ebp)
	.loc 12 255 0
	movl	-16(%ebp), %eax
	andl	%esi, %eax
	movl	%eax, -16(%ebp)
	.loc 12 256 0
	subl	$1, 16(%ebp)
	.loc 12 257 0
	movl	-12(%ebp), %eax
	cmpl	-24(%ebp), %eax
	jb	.L350
	.loc 12 258 0
	jmp	.L339
.L350:
	.loc 12 251 0
	cmpl	$0, 16(%ebp)
	jne	.L346
.L349:
.LBE98:
.LBE94:
	jmp	.L342
.L338:
.LBB101:
	.loc 12 265 0
	jmp	.L351
.L353:
.LBB102:
.LBB103:
	.loc 12 267 0
	cmpl	$0, 16(%ebp)
	je	.L352
.LBB104:
	.loc 12 269 0
	movl	-12(%ebp), %eax
	movzbl	(%eax), %eax
	movsbl	%al, %eax
	movl	%eax, -60(%ebp)
	.loc 12 270 0
	movl	-12(%ebp), %eax
	movzbl	(%eax), %eax
	movsbl	%al, %eax
	movl	%eax, -64(%ebp)
	.loc 12 272 0
	movl	-60(%ebp), %eax
	movl	-64(%ebp), %edx
	subl	%eax, %edx
	movl	%edx, %eax
	imull	-16(%ebp), %eax
	sarl	$12, %eax
	movl	%eax, %edx
	movl	-60(%ebp), %eax
	addl	%edx, %eax
	movl	%eax, -68(%ebp)
	.loc 12 274 0
	movl	12(%ebp), %eax
	movl	%eax, %edx
	addl	$2, %edx
	movl	%edx, 12(%ebp)
	movl	-68(%ebp), %edx
	imull	24(%ebp), %edx
	sarl	$8, %edx
	movw	%dx, (%eax)
	.loc 12 275 0
	movl	20(%ebp), %eax
	addl	%eax, -16(%ebp)
	.loc 12 276 0
	movl	-16(%ebp), %eax
	sarl	$12, %eax
	addl	%eax, -12(%ebp)
	.loc 12 277 0
	movl	-16(%ebp), %eax
	andl	%esi, %eax
	movl	%eax, -16(%ebp)
	.loc 12 278 0
	subl	$1, 16(%ebp)
.LBE104:
	jmp	.L351
.L352:
	.loc 12 281 0
	jmp	.L342
.L351:
.LBE103:
.LBE102:
	.loc 12 265 0 discriminator 1
	movl	-12(%ebp), %eax
	cmpl	-24(%ebp), %eax
	je	.L353
	.loc 12 283 0
	movl	-12(%ebp), %eax
	cmpl	-24(%ebp), %eax
	jbe	.L354
	.loc 12 285 0
	movl	32(%ebp), %eax
	movl	$1, (%eax)
	.loc 12 286 0
	jmp	.L342
.L354:
	.loc 12 288 0
	cmpl	$0, 16(%ebp)
	jne	.L355
	.loc 12 289 0
	jmp	.L342
.L355:
.LBB105:
	.loc 12 291 0
	cmpl	$0, 24(%ebp)
	je	.L356
.L358:
.LBB106:
.LBB107:
	.loc 12 294 0
	movl	-12(%ebp), %eax
	movzbl	(%eax), %eax
	movsbl	%al, %eax
	movl	%eax, -72(%ebp)
	.loc 12 295 0
	movl	-12(%ebp), %eax
	leal	1(%eax), %eax
	movzbl	(%eax), %eax
	movsbl	%al, %eax
	movl	%eax, -76(%ebp)
	.loc 12 296 0
	movl	-72(%ebp), %eax
	movl	-76(%ebp), %edx
	subl	%eax, %edx
	movl	%edx, %eax
	imull	-16(%ebp), %eax
	sarl	$12, %eax
	movl	%eax, %edx
	movl	-72(%ebp), %eax
	addl	%edx, %eax
	movl	%eax, -80(%ebp)
	.loc 12 298 0
	movl	12(%ebp), %eax
	movl	%eax, %edx
	addl	$2, %edx
	movl	%edx, 12(%ebp)
	movl	-80(%ebp), %edx
	imull	24(%ebp), %edx
	sarl	$8, %edx
	movw	%dx, (%eax)
	.loc 12 300 0
	movl	20(%ebp), %eax
	addl	%eax, -16(%ebp)
	.loc 12 301 0
	movl	-16(%ebp), %eax
	sarl	$12, %eax
	addl	%eax, -12(%ebp)
	.loc 12 302 0
	movl	-16(%ebp), %eax
	andl	%esi, %eax
	movl	%eax, -16(%ebp)
	.loc 12 303 0
	subl	$1, 16(%ebp)
	.loc 12 305 0
	movl	-12(%ebp), %eax
	cmpl	-24(%ebp), %eax
	jb	.L357
	.loc 12 306 0
	jmp	.L338
.L357:
.LBE107:
	.loc 12 293 0
	cmpl	$0, 16(%ebp)
	jne	.L358
.LBE106:
	jmp	.L342
.L356:
	.loc 12 313 0
	movl	12(%ebp), %eax
	movl	%eax, %edx
	addl	$2, %edx
	movl	%edx, 12(%ebp)
	movw	$0, (%eax)
	.loc 12 314 0
	movl	20(%ebp), %eax
	addl	%eax, -16(%ebp)
	.loc 12 315 0
	movl	-16(%ebp), %eax
	sarl	$12, %eax
	addl	%eax, -12(%ebp)
	.loc 12 316 0
	movl	-16(%ebp), %eax
	andl	%esi, %eax
	movl	%eax, -16(%ebp)
	.loc 12 317 0
	subl	$1, 16(%ebp)
	.loc 12 318 0
	movl	-12(%ebp), %eax
	cmpl	-24(%ebp), %eax
	jb	.L359
	.loc 12 319 0
	jmp	.L338
.L359:
	.loc 12 312 0
	cmpl	$0, 16(%ebp)
	jne	.L356
.L342:
.LBE105:
.LBE101:
.LBE93:
	.loc 12 326 0
	movl	8(%ebp), %eax
	movl	-12(%ebp), %edx
	movl	%edx, (%eax)
	.loc 12 327 0
	movl	8(%ebp), %eax
	movl	-16(%ebp), %edx
	movl	%edx, 12(%eax)
	.loc 12 330 0
	movl	12(%ebp), %edx
	movl	-20(%ebp), %eax
	subl	%eax, %edx
	movl	%edx, %eax
	sarl	%eax
.L337:
.LBE92:
.LBE91:
	.loc 12 332 0
	leal	96(%esp), %esp
	popl	%esi
	.cfi_restore 6
	popl	%edi
	.cfi_restore 7
	popl	%ebp
	.cfi_restore 5
	.cfi_def_cfa 4, 4
	ret
	.cfi_endproc
.LFE1573:
	.size	_ZN13CIwChannelPCMIaE17GenerateAudioFastEPsiiiiPi, .-_ZN13CIwChannelPCMIaE17GenerateAudioFastEPsiiiiPi
	.section	.text._ZN13CIwChannelPCMIsE17GenerateAudioFastEPsiiiiPi,"axG",@progbits,_ZN13CIwChannelPCMIsE17GenerateAudioFastEPsiiiiPi,comdat
	.align 2
	.weak	_ZN13CIwChannelPCMIsE17GenerateAudioFastEPsiiiiPi
	.hidden	_ZN13CIwChannelPCMIsE17GenerateAudioFastEPsiiiiPi
	.type	_ZN13CIwChannelPCMIsE17GenerateAudioFastEPsiiiiPi, @function
_ZN13CIwChannelPCMIsE17GenerateAudioFastEPsiiiiPi:
.LFB1574:
	.loc 12 181 0
	.cfi_startproc
	pushl	%ebp
	.cfi_def_cfa_offset 8
	.cfi_offset 5, -8
	movl	%esp, %ebp
	.cfi_def_cfa_register 5
	pushl	%edi
	pushl	%esi
	leal	-96(%esp), %esp
	.cfi_offset 7, -12
	.cfi_offset 6, -16
.LBB108:
	.loc 12 184 0
	cmpl	$0, 16(%ebp)
	jne	.L361
	.loc 12 185 0
	movl	28(%ebp), %eax
	jmp	.L362
.L361:
.LBB109:
	.loc 12 187 0
	movl	12(%ebp), %eax
	movl	%eax, -20(%ebp)
	.loc 12 188 0
	movl	8(%ebp), %eax
	movl	(%eax), %eax
	movl	%eax, -12(%ebp)
	.loc 12 190 0
	movl	8(%ebp), %eax
	movl	12(%eax), %eax
	movl	%eax, -16(%ebp)
	.loc 12 192 0
	movl	8(%ebp), %eax
	movl	8(%eax), %eax
	subl	$2, %eax
	movl	%eax, -24(%ebp)
	.loc 12 193 0
	movl	$4095, %esi
.LBB110:
	.loc 12 194 0
	cmpl	$0, 28(%ebp)
	je	.L363
.L364:
.LBB111:
	.loc 12 197 0
	jmp	.L365
.L368:
.LBB112:
.LBB113:
	.loc 12 199 0
	cmpl	$0, 16(%ebp)
	je	.L366
.LBB114:
	.loc 12 201 0
	movl	-12(%ebp), %eax
	movzwl	(%eax), %eax
	cwtl
	movl	%eax, -28(%ebp)
	.loc 12 202 0
	movl	-12(%ebp), %eax
	movzwl	(%eax), %eax
	cwtl
	movl	%eax, -32(%ebp)
	.loc 12 204 0
	movl	12(%ebp), %eax
	movzwl	(%eax), %eax
	cwtl
	movl	%eax, -36(%ebp)
	.loc 12 205 0
	movl	-28(%ebp), %eax
	movl	-32(%ebp), %edx
	subl	%eax, %edx
	movl	%edx, %eax
	imull	-16(%ebp), %eax
	sarl	$12, %eax
	movl	%eax, %edx
	movl	-28(%ebp), %eax
	addl	%edx, %eax
	movl	%eax, -40(%ebp)
	.loc 12 207 0
	movl	12(%ebp), %edi
	movl	%edi, %eax
	addl	$2, %eax
	movl	%eax, 12(%ebp)
	movl	-40(%ebp), %eax
	imull	24(%ebp), %eax
	sarl	$8, %eax
	movl	%eax, %edx
	movl	-36(%ebp), %eax
	addl	%edx, %eax
	movl	%eax, (%esp)
	call	_ZN13CIwChannelPCMIsE13clip_to_int16Ei
	movw	%ax, (%edi)
	.loc 12 209 0
	movl	20(%ebp), %eax
	addl	%eax, -16(%ebp)
	.loc 12 210 0
	movl	-16(%ebp), %eax
	sarl	$12, %eax
	addl	%eax, %eax
	addl	%eax, -12(%ebp)
	.loc 12 211 0
	movl	-16(%ebp), %eax
	andl	%esi, %eax
	movl	%eax, -16(%ebp)
	.loc 12 212 0
	subl	$1, 16(%ebp)
.LBE114:
	jmp	.L365
.L366:
	.loc 12 215 0
	jmp	.L367
.L365:
.LBE113:
.LBE112:
	.loc 12 197 0 discriminator 1
	movl	-12(%ebp), %eax
	cmpl	-24(%ebp), %eax
	je	.L368
	.loc 12 217 0
	movl	-12(%ebp), %eax
	cmpl	-24(%ebp), %eax
	jbe	.L369
	.loc 12 221 0
	movl	32(%ebp), %eax
	movl	$1, (%eax)
	.loc 12 222 0
	jmp	.L367
.L369:
	.loc 12 225 0
	cmpl	$0, 16(%ebp)
	jne	.L370
	.loc 12 226 0
	jmp	.L367
.L370:
.LBB115:
	.loc 12 228 0
	cmpl	$0, 24(%ebp)
	je	.L371
.L373:
.LBB116:
.LBB117:
	.loc 12 231 0
	movl	-12(%ebp), %eax
	movzwl	(%eax), %eax
	cwtl
	movl	%eax, -44(%ebp)
	.loc 12 232 0
	movl	-12(%ebp), %eax
	leal	2(%eax), %eax
	movzwl	(%eax), %eax
	cwtl
	movl	%eax, -48(%ebp)
	.loc 12 233 0
	movl	12(%ebp), %eax
	movzwl	(%eax), %eax
	cwtl
	movl	%eax, -52(%ebp)
	.loc 12 234 0
	movl	-44(%ebp), %eax
	movl	-48(%ebp), %edx
	subl	%eax, %edx
	movl	%edx, %eax
	imull	-16(%ebp), %eax
	sarl	$12, %eax
	movl	%eax, %edx
	movl	-44(%ebp), %eax
	addl	%edx, %eax
	movl	%eax, -56(%ebp)
	.loc 12 237 0
	movl	12(%ebp), %edi
	movl	%edi, %eax
	addl	$2, %eax
	movl	%eax, 12(%ebp)
	movl	-56(%ebp), %eax
	imull	24(%ebp), %eax
	sarl	$8, %eax
	movl	%eax, %edx
	movl	-52(%ebp), %eax
	addl	%edx, %eax
	movl	%eax, (%esp)
	call	_ZN13CIwChannelPCMIsE13clip_to_int16Ei
	movw	%ax, (%edi)
	.loc 12 239 0
	movl	20(%ebp), %eax
	addl	%eax, -16(%ebp)
	.loc 12 240 0
	movl	-16(%ebp), %eax
	sarl	$12, %eax
	addl	%eax, %eax
	addl	%eax, -12(%ebp)
	.loc 12 241 0
	movl	-16(%ebp), %eax
	andl	%esi, %eax
	movl	%eax, -16(%ebp)
	.loc 12 242 0
	subl	$1, 16(%ebp)
	.loc 12 244 0
	movl	-12(%ebp), %eax
	cmpl	-24(%ebp), %eax
	jb	.L372
	.loc 12 245 0
	jmp	.L364
.L372:
.LBE117:
	.loc 12 230 0
	cmpl	$0, 16(%ebp)
	jne	.L373
.LBE116:
	jmp	.L374
.L371:
	.loc 12 252 0
	addl	$2, 12(%ebp)
	.loc 12 253 0
	movl	20(%ebp), %eax
	addl	%eax, -16(%ebp)
	.loc 12 254 0
	movl	-16(%ebp), %eax
	sarl	$12, %eax
	addl	%eax, %eax
	addl	%eax, -12(%ebp)
	.loc 12 255 0
	movl	-16(%ebp), %eax
	andl	%esi, %eax
	movl	%eax, -16(%ebp)
	.loc 12 256 0
	subl	$1, 16(%ebp)
	.loc 12 257 0
	movl	-12(%ebp), %eax
	cmpl	-24(%ebp), %eax
	jb	.L375
	.loc 12 258 0
	jmp	.L364
.L375:
	.loc 12 251 0
	cmpl	$0, 16(%ebp)
	jne	.L371
.L374:
.LBE115:
.LBE111:
	jmp	.L367
.L363:
.LBB118:
	.loc 12 265 0
	jmp	.L376
.L378:
.LBB119:
.LBB120:
	.loc 12 267 0
	cmpl	$0, 16(%ebp)
	je	.L377
.LBB121:
	.loc 12 269 0
	movl	-12(%ebp), %eax
	movzwl	(%eax), %eax
	cwtl
	movl	%eax, -60(%ebp)
	.loc 12 270 0
	movl	-12(%ebp), %eax
	movzwl	(%eax), %eax
	cwtl
	movl	%eax, -64(%ebp)
	.loc 12 272 0
	movl	-60(%ebp), %eax
	movl	-64(%ebp), %edx
	subl	%eax, %edx
	movl	%edx, %eax
	imull	-16(%ebp), %eax
	sarl	$12, %eax
	movl	%eax, %edx
	movl	-60(%ebp), %eax
	addl	%edx, %eax
	movl	%eax, -68(%ebp)
	.loc 12 274 0
	movl	12(%ebp), %eax
	movl	%eax, %edx
	addl	$2, %edx
	movl	%edx, 12(%ebp)
	movl	-68(%ebp), %edx
	imull	24(%ebp), %edx
	sarl	$8, %edx
	movw	%dx, (%eax)
	.loc 12 275 0
	movl	20(%ebp), %eax
	addl	%eax, -16(%ebp)
	.loc 12 276 0
	movl	-16(%ebp), %eax
	sarl	$12, %eax
	addl	%eax, %eax
	addl	%eax, -12(%ebp)
	.loc 12 277 0
	movl	-16(%ebp), %eax
	andl	%esi, %eax
	movl	%eax, -16(%ebp)
	.loc 12 278 0
	subl	$1, 16(%ebp)
.LBE121:
	jmp	.L376
.L377:
	.loc 12 281 0
	jmp	.L367
.L376:
.LBE120:
.LBE119:
	.loc 12 265 0 discriminator 1
	movl	-12(%ebp), %eax
	cmpl	-24(%ebp), %eax
	je	.L378
	.loc 12 283 0
	movl	-12(%ebp), %eax
	cmpl	-24(%ebp), %eax
	jbe	.L379
	.loc 12 285 0
	movl	32(%ebp), %eax
	movl	$1, (%eax)
	.loc 12 286 0
	jmp	.L367
.L379:
	.loc 12 288 0
	cmpl	$0, 16(%ebp)
	jne	.L380
	.loc 12 289 0
	jmp	.L367
.L380:
.LBB122:
	.loc 12 291 0
	cmpl	$0, 24(%ebp)
	je	.L381
.L383:
.LBB123:
.LBB124:
	.loc 12 294 0
	movl	-12(%ebp), %eax
	movzwl	(%eax), %eax
	cwtl
	movl	%eax, -72(%ebp)
	.loc 12 295 0
	movl	-12(%ebp), %eax
	leal	2(%eax), %eax
	movzwl	(%eax), %eax
	cwtl
	movl	%eax, -76(%ebp)
	.loc 12 296 0
	movl	-72(%ebp), %eax
	movl	-76(%ebp), %edx
	subl	%eax, %edx
	movl	%edx, %eax
	imull	-16(%ebp), %eax
	sarl	$12, %eax
	movl	%eax, %edx
	movl	-72(%ebp), %eax
	addl	%edx, %eax
	movl	%eax, -80(%ebp)
	.loc 12 298 0
	movl	12(%ebp), %eax
	movl	%eax, %edx
	addl	$2, %edx
	movl	%edx, 12(%ebp)
	movl	-80(%ebp), %edx
	imull	24(%ebp), %edx
	sarl	$8, %edx
	movw	%dx, (%eax)
	.loc 12 300 0
	movl	20(%ebp), %eax
	addl	%eax, -16(%ebp)
	.loc 12 301 0
	movl	-16(%ebp), %eax
	sarl	$12, %eax
	addl	%eax, %eax
	addl	%eax, -12(%ebp)
	.loc 12 302 0
	movl	-16(%ebp), %eax
	andl	%esi, %eax
	movl	%eax, -16(%ebp)
	.loc 12 303 0
	subl	$1, 16(%ebp)
	.loc 12 305 0
	movl	-12(%ebp), %eax
	cmpl	-24(%ebp), %eax
	jb	.L382
	.loc 12 306 0
	jmp	.L363
.L382:
.LBE124:
	.loc 12 293 0
	cmpl	$0, 16(%ebp)
	jne	.L383
.LBE123:
	jmp	.L367
.L381:
	.loc 12 313 0
	movl	12(%ebp), %eax
	movl	%eax, %edx
	addl	$2, %edx
	movl	%edx, 12(%ebp)
	movw	$0, (%eax)
	.loc 12 314 0
	movl	20(%ebp), %eax
	addl	%eax, -16(%ebp)
	.loc 12 315 0
	movl	-16(%ebp), %eax
	sarl	$12, %eax
	addl	%eax, %eax
	addl	%eax, -12(%ebp)
	.loc 12 316 0
	movl	-16(%ebp), %eax
	andl	%esi, %eax
	movl	%eax, -16(%ebp)
	.loc 12 317 0
	subl	$1, 16(%ebp)
	.loc 12 318 0
	movl	-12(%ebp), %eax
	cmpl	-24(%ebp), %eax
	jb	.L384
	.loc 12 319 0
	jmp	.L363
.L384:
	.loc 12 312 0
	cmpl	$0, 16(%ebp)
	jne	.L381
.L367:
.LBE122:
.LBE118:
.LBE110:
	.loc 12 326 0
	movl	8(%ebp), %eax
	movl	-12(%ebp), %edx
	movl	%edx, (%eax)
	.loc 12 327 0
	movl	8(%ebp), %eax
	movl	-16(%ebp), %edx
	movl	%edx, 12(%eax)
	.loc 12 330 0
	movl	12(%ebp), %edx
	movl	-20(%ebp), %eax
	subl	%eax, %edx
	movl	%edx, %eax
	sarl	%eax
.L362:
.LBE109:
.LBE108:
	.loc 12 332 0
	leal	96(%esp), %esp
	popl	%esi
	.cfi_restore 6
	popl	%edi
	.cfi_restore 7
	popl	%ebp
	.cfi_restore 5
	.cfi_def_cfa 4, 4
	ret
	.cfi_endproc
.LFE1574:
	.size	_ZN13CIwChannelPCMIsE17GenerateAudioFastEPsiiiiPi, .-_ZN13CIwChannelPCMIsE17GenerateAudioFastEPsiiiiPi
	.section	.rodata
.LC50:
	.string	"sval >= minval"
.LC51:
	.string	"sval <= maxval"
	.section	.text._ZN13CIwChannelPCMIaE13clip_to_int16Ei,"axG",@progbits,_ZN13CIwChannelPCMIaE13clip_to_int16Ei,comdat
	.weak	_ZN13CIwChannelPCMIaE13clip_to_int16Ei
	.hidden	_ZN13CIwChannelPCMIaE13clip_to_int16Ei
	.type	_ZN13CIwChannelPCMIaE13clip_to_int16Ei, @function
_ZN13CIwChannelPCMIaE13clip_to_int16Ei:
.LFB1584:
	.loc 12 63 0
	.cfi_startproc
	pushl	%ebp
	.cfi_def_cfa_offset 8
	.cfi_offset 5, -8
	movl	%esp, %ebp
	.cfi_def_cfa_register 5
	pushl	%ebx
	leal	-20(%esp), %esp
	.cfi_offset 3, -12
	call	__x86.get_pc_thunk.bx
	addl	$_GLOBAL_OFFSET_TABLE_, %ebx
.LBB125:
.LBB126:
	.loc 12 69 0
	movl	8(%ebp), %eax
	addl	$32768, %eax
	movw	$0, %ax
	testl	%eax, %eax
	je	.L386
.LBB127:
.LBB128:
	.loc 12 72 0
	cmpl	$32767, 8(%ebp)
	jle	.L387
	.loc 12 73 0
	movl	$32767, 8(%ebp)
	jmp	.L388
.L387:
.LBB129:
.LBB130:
	.loc 12 75 0
	cmpl	$-32768, 8(%ebp)
	jge	.L389
	.loc 12 76 0
	movl	$-32768, 8(%ebp)
	jmp	.L388
.L389:
.LBB131:
.LBB132:
.LBB133:
	.loc 12 79 0
	leal	.LC20@GOTOFF(%ebx), %eax
	movl	%eax, (%esp)
	call	IwDebugAssertIsChannelOn@PLT
	testb	%al, %al
	je	.L390
	.loc 12 79 0 is_stmt 0 discriminator 1
	movzbl	_ZZN13CIwChannelPCMIaE13clip_to_int16EiE21_s_IwAssertIgnoreThis@GOTOFF(%ebx), %eax
	testb	%al, %al
	jne	.L390
	.loc 12 79 0 discriminator 3
	movl	$1, %eax
	jmp	.L391
.L390:
	.loc 12 79 0 discriminator 2
	movl	$0, %eax
.L391:
	.loc 12 79 0 discriminator 4
	testb	%al, %al
	je	.L388
	.loc 12 79 0 discriminator 5
	movl	$0, (%esp)
	call	IwDebugAssertSetSolution@PLT
	movl	$0, (%esp)
	call	IwDebugAssertSetUID@PLT
	movl	$0, (%esp)
	call	IwDebugAssertSetMessage@PLT
	movl	$1, 12(%esp)
	movl	$79, 8(%esp)
	leal	.LC47@GOTOFF(%ebx), %eax
	movl	%eax, 4(%esp)
	leal	.LC26@GOTOFF(%ebx), %eax
	movl	%eax, (%esp)
	call	IwDebugAssertShow@PLT
	cmpl	$1, %eax
	je	.L393
	cmpl	$2, %eax
	je	.L394
	.loc 12 79 0
	jmp	.L392
.L393:
	.loc 12 79 0 discriminator 2
	call	s3eDebugIsDebuggerPresent@PLT
	testb	%al, %al
	setne	%al
	testb	%al, %al
	je	.L395
	.loc 12 79 0 discriminator 1
	call	s3eDebugIsDebuggerPresent@PLT
	testb	%al, %al
	setne	%al
	testb	%al, %al
	je	.L396
#APP
# 79 "c:/marmalade/7.5/examples/gametutorial/cpp/modules/soundengine/h/IwSoundPCM.h" 1
	 int $3 
# 0 "" 2
#NO_APP
	jmp	.L396
.L395:
	.loc 12 79 0 discriminator 2
	call	_ZL11IwDebugExitv
	jmp	.L392
.L396:
	.loc 12 79 0 discriminator 1
	jmp	.L392
.L394:
	.loc 12 79 0 discriminator 3
	movb	$1, _ZZN13CIwChannelPCMIaE13clip_to_int16EiE21_s_IwAssertIgnoreThis@GOTOFF(%ebx)
	nop
.L392:
	.loc 12 79 0 discriminator 1
	movl	$0, (%esp)
	call	IwDebugAssertSetUID@PLT
.L388:
.L386:
.LBE133:
.LBE132:
.LBE131:
.LBE130:
.LBE129:
.LBE128:
.LBE127:
.LBE126:
.LBB134:
.LBB135:
	.loc 12 83 0 is_stmt 1
	cmpl	$-32768, 8(%ebp)
	jge	.L397
	.loc 12 83 0 is_stmt 0 discriminator 1
	leal	.LC20@GOTOFF(%ebx), %eax
	movl	%eax, (%esp)
	call	IwDebugAssertIsChannelOn@PLT
	testb	%al, %al
	je	.L397
	.loc 12 83 0 discriminator 3
	movzbl	_ZZN13CIwChannelPCMIaE13clip_to_int16EiE21_s_IwAssertIgnoreThis_0@GOTOFF(%ebx), %eax
	testb	%al, %al
	jne	.L397
	.loc 12 83 0 discriminator 4
	movl	$1, %eax
	jmp	.L398
.L397:
	.loc 12 83 0 discriminator 2
	movl	$0, %eax
.L398:
	.loc 12 83 0 discriminator 5
	testb	%al, %al
	je	.L399
	.loc 12 83 0 discriminator 6
	movl	$0, (%esp)
	call	IwDebugAssertSetSolution@PLT
	movl	$0, (%esp)
	call	IwDebugAssertSetUID@PLT
	movl	$0, (%esp)
	call	IwDebugAssertSetMessage@PLT
	movl	$1, 12(%esp)
	movl	$83, 8(%esp)
	leal	.LC47@GOTOFF(%ebx), %eax
	movl	%eax, 4(%esp)
	leal	.LC50@GOTOFF(%ebx), %eax
	movl	%eax, (%esp)
	call	IwDebugAssertShow@PLT
	cmpl	$1, %eax
	je	.L401
	cmpl	$2, %eax
	je	.L402
	.loc 12 83 0
	jmp	.L400
.L401:
	.loc 12 83 0 discriminator 2
	call	s3eDebugIsDebuggerPresent@PLT
	testb	%al, %al
	setne	%al
	testb	%al, %al
	je	.L403
	.loc 12 83 0 discriminator 1
	call	s3eDebugIsDebuggerPresent@PLT
	testb	%al, %al
	setne	%al
	testb	%al, %al
	je	.L404
#APP
# 83 "c:/marmalade/7.5/examples/gametutorial/cpp/modules/soundengine/h/IwSoundPCM.h" 1
	 int $3 
# 0 "" 2
#NO_APP
	jmp	.L404
.L403:
	.loc 12 83 0 discriminator 2
	call	_ZL11IwDebugExitv
	jmp	.L400
.L404:
	.loc 12 83 0 discriminator 1
	jmp	.L400
.L402:
	.loc 12 83 0 discriminator 3
	movb	$1, _ZZN13CIwChannelPCMIaE13clip_to_int16EiE21_s_IwAssertIgnoreThis_0@GOTOFF(%ebx)
	nop
.L400:
	.loc 12 83 0 discriminator 1
	movl	$0, (%esp)
	call	IwDebugAssertSetUID@PLT
.L399:
.LBE135:
.LBE134:
.LBB136:
.LBB137:
	.loc 12 84 0 is_stmt 1
	cmpl	$32767, 8(%ebp)
	jle	.L405
	.loc 12 84 0 is_stmt 0 discriminator 1
	leal	.LC20@GOTOFF(%ebx), %eax
	movl	%eax, (%esp)
	call	IwDebugAssertIsChannelOn@PLT
	testb	%al, %al
	je	.L405
	.loc 12 84 0 discriminator 3
	movzbl	_ZZN13CIwChannelPCMIaE13clip_to_int16EiE21_s_IwAssertIgnoreThis_1@GOTOFF(%ebx), %eax
	testb	%al, %al
	jne	.L405
	.loc 12 84 0 discriminator 4
	movl	$1, %eax
	jmp	.L406
.L405:
	.loc 12 84 0 discriminator 2
	movl	$0, %eax
.L406:
	.loc 12 84 0 discriminator 5
	testb	%al, %al
	je	.L407
	.loc 12 84 0 discriminator 6
	movl	$0, (%esp)
	call	IwDebugAssertSetSolution@PLT
	movl	$0, (%esp)
	call	IwDebugAssertSetUID@PLT
	movl	$0, (%esp)
	call	IwDebugAssertSetMessage@PLT
	movl	$1, 12(%esp)
	movl	$84, 8(%esp)
	leal	.LC47@GOTOFF(%ebx), %eax
	movl	%eax, 4(%esp)
	leal	.LC51@GOTOFF(%ebx), %eax
	movl	%eax, (%esp)
	call	IwDebugAssertShow@PLT
	cmpl	$1, %eax
	je	.L409
	cmpl	$2, %eax
	je	.L410
	.loc 12 84 0
	jmp	.L408
.L409:
	.loc 12 84 0 discriminator 2
	call	s3eDebugIsDebuggerPresent@PLT
	testb	%al, %al
	setne	%al
	testb	%al, %al
	je	.L411
	.loc 12 84 0 discriminator 1
	call	s3eDebugIsDebuggerPresent@PLT
	testb	%al, %al
	setne	%al
	testb	%al, %al
	je	.L412
#APP
# 84 "c:/marmalade/7.5/examples/gametutorial/cpp/modules/soundengine/h/IwSoundPCM.h" 1
	 int $3 
# 0 "" 2
#NO_APP
	jmp	.L412
.L411:
	.loc 12 84 0 discriminator 2
	call	_ZL11IwDebugExitv
	jmp	.L408
.L412:
	.loc 12 84 0 discriminator 1
	jmp	.L408
.L410:
	.loc 12 84 0 discriminator 3
	movb	$1, _ZZN13CIwChannelPCMIaE13clip_to_int16EiE21_s_IwAssertIgnoreThis_1@GOTOFF(%ebx)
	nop
.L408:
	.loc 12 84 0 discriminator 1
	movl	$0, (%esp)
	call	IwDebugAssertSetUID@PLT
.L407:
.LBE137:
.LBE136:
	.loc 12 86 0 is_stmt 1
	movl	8(%ebp), %eax
.LBE125:
	.loc 12 87 0
	leal	20(%esp), %esp
	popl	%ebx
	.cfi_restore 3
	popl	%ebp
	.cfi_restore 5
	.cfi_def_cfa 4, 4
	ret
	.cfi_endproc
.LFE1584:
	.size	_ZN13CIwChannelPCMIaE13clip_to_int16Ei, .-_ZN13CIwChannelPCMIaE13clip_to_int16Ei
	.section	.text._ZN13CIwChannelPCMIsE13clip_to_int16Ei,"axG",@progbits,_ZN13CIwChannelPCMIsE13clip_to_int16Ei,comdat
	.weak	_ZN13CIwChannelPCMIsE13clip_to_int16Ei
	.hidden	_ZN13CIwChannelPCMIsE13clip_to_int16Ei
	.type	_ZN13CIwChannelPCMIsE13clip_to_int16Ei, @function
_ZN13CIwChannelPCMIsE13clip_to_int16Ei:
.LFB1585:
	.loc 12 63 0
	.cfi_startproc
	pushl	%ebp
	.cfi_def_cfa_offset 8
	.cfi_offset 5, -8
	movl	%esp, %ebp
	.cfi_def_cfa_register 5
	pushl	%ebx
	leal	-20(%esp), %esp
	.cfi_offset 3, -12
	call	__x86.get_pc_thunk.bx
	addl	$_GLOBAL_OFFSET_TABLE_, %ebx
.LBB138:
.LBB139:
	.loc 12 69 0
	movl	8(%ebp), %eax
	addl	$32768, %eax
	movw	$0, %ax
	testl	%eax, %eax
	je	.L415
.LBB140:
.LBB141:
	.loc 12 72 0
	cmpl	$32767, 8(%ebp)
	jle	.L416
	.loc 12 73 0
	movl	$32767, 8(%ebp)
	jmp	.L417
.L416:
.LBB142:
.LBB143:
	.loc 12 75 0
	cmpl	$-32768, 8(%ebp)
	jge	.L418
	.loc 12 76 0
	movl	$-32768, 8(%ebp)
	jmp	.L417
.L418:
.LBB144:
.LBB145:
.LBB146:
	.loc 12 79 0
	leal	.LC20@GOTOFF(%ebx), %eax
	movl	%eax, (%esp)
	call	IwDebugAssertIsChannelOn@PLT
	testb	%al, %al
	je	.L419
	.loc 12 79 0 is_stmt 0 discriminator 1
	movzbl	_ZZN13CIwChannelPCMIsE13clip_to_int16EiE21_s_IwAssertIgnoreThis@GOTOFF(%ebx), %eax
	testb	%al, %al
	jne	.L419
	.loc 12 79 0 discriminator 3
	movl	$1, %eax
	jmp	.L420
.L419:
	.loc 12 79 0 discriminator 2
	movl	$0, %eax
.L420:
	.loc 12 79 0 discriminator 4
	testb	%al, %al
	je	.L417
	.loc 12 79 0 discriminator 5
	movl	$0, (%esp)
	call	IwDebugAssertSetSolution@PLT
	movl	$0, (%esp)
	call	IwDebugAssertSetUID@PLT
	movl	$0, (%esp)
	call	IwDebugAssertSetMessage@PLT
	movl	$1, 12(%esp)
	movl	$79, 8(%esp)
	leal	.LC47@GOTOFF(%ebx), %eax
	movl	%eax, 4(%esp)
	leal	.LC26@GOTOFF(%ebx), %eax
	movl	%eax, (%esp)
	call	IwDebugAssertShow@PLT
	cmpl	$1, %eax
	je	.L422
	cmpl	$2, %eax
	je	.L423
	.loc 12 79 0
	jmp	.L421
.L422:
	.loc 12 79 0 discriminator 2
	call	s3eDebugIsDebuggerPresent@PLT
	testb	%al, %al
	setne	%al
	testb	%al, %al
	je	.L424
	.loc 12 79 0 discriminator 1
	call	s3eDebugIsDebuggerPresent@PLT
	testb	%al, %al
	setne	%al
	testb	%al, %al
	je	.L425
#APP
# 79 "c:/marmalade/7.5/examples/gametutorial/cpp/modules/soundengine/h/IwSoundPCM.h" 1
	 int $3 
# 0 "" 2
#NO_APP
	jmp	.L425
.L424:
	.loc 12 79 0 discriminator 2
	call	_ZL11IwDebugExitv
	jmp	.L421
.L425:
	.loc 12 79 0 discriminator 1
	jmp	.L421
.L423:
	.loc 12 79 0 discriminator 3
	movb	$1, _ZZN13CIwChannelPCMIsE13clip_to_int16EiE21_s_IwAssertIgnoreThis@GOTOFF(%ebx)
	nop
.L421:
	.loc 12 79 0 discriminator 1
	movl	$0, (%esp)
	call	IwDebugAssertSetUID@PLT
.L417:
.L415:
.LBE146:
.LBE145:
.LBE144:
.LBE143:
.LBE142:
.LBE141:
.LBE140:
.LBE139:
.LBB147:
.LBB148:
	.loc 12 83 0 is_stmt 1
	cmpl	$-32768, 8(%ebp)
	jge	.L426
	.loc 12 83 0 is_stmt 0 discriminator 1
	leal	.LC20@GOTOFF(%ebx), %eax
	movl	%eax, (%esp)
	call	IwDebugAssertIsChannelOn@PLT
	testb	%al, %al
	je	.L426
	.loc 12 83 0 discriminator 3
	movzbl	_ZZN13CIwChannelPCMIsE13clip_to_int16EiE21_s_IwAssertIgnoreThis_0@GOTOFF(%ebx), %eax
	testb	%al, %al
	jne	.L426
	.loc 12 83 0 discriminator 4
	movl	$1, %eax
	jmp	.L427
.L426:
	.loc 12 83 0 discriminator 2
	movl	$0, %eax
.L427:
	.loc 12 83 0 discriminator 5
	testb	%al, %al
	je	.L428
	.loc 12 83 0 discriminator 6
	movl	$0, (%esp)
	call	IwDebugAssertSetSolution@PLT
	movl	$0, (%esp)
	call	IwDebugAssertSetUID@PLT
	movl	$0, (%esp)
	call	IwDebugAssertSetMessage@PLT
	movl	$1, 12(%esp)
	movl	$83, 8(%esp)
	leal	.LC47@GOTOFF(%ebx), %eax
	movl	%eax, 4(%esp)
	leal	.LC50@GOTOFF(%ebx), %eax
	movl	%eax, (%esp)
	call	IwDebugAssertShow@PLT
	cmpl	$1, %eax
	je	.L430
	cmpl	$2, %eax
	je	.L431
	.loc 12 83 0
	jmp	.L429
.L430:
	.loc 12 83 0 discriminator 2
	call	s3eDebugIsDebuggerPresent@PLT
	testb	%al, %al
	setne	%al
	testb	%al, %al
	je	.L432
	.loc 12 83 0 discriminator 1
	call	s3eDebugIsDebuggerPresent@PLT
	testb	%al, %al
	setne	%al
	testb	%al, %al
	je	.L433
#APP
# 83 "c:/marmalade/7.5/examples/gametutorial/cpp/modules/soundengine/h/IwSoundPCM.h" 1
	 int $3 
# 0 "" 2
#NO_APP
	jmp	.L433
.L432:
	.loc 12 83 0 discriminator 2
	call	_ZL11IwDebugExitv
	jmp	.L429
.L433:
	.loc 12 83 0 discriminator 1
	jmp	.L429
.L431:
	.loc 12 83 0 discriminator 3
	movb	$1, _ZZN13CIwChannelPCMIsE13clip_to_int16EiE21_s_IwAssertIgnoreThis_0@GOTOFF(%ebx)
	nop
.L429:
	.loc 12 83 0 discriminator 1
	movl	$0, (%esp)
	call	IwDebugAssertSetUID@PLT
.L428:
.LBE148:
.LBE147:
.LBB149:
.LBB150:
	.loc 12 84 0 is_stmt 1
	cmpl	$32767, 8(%ebp)
	jle	.L434
	.loc 12 84 0 is_stmt 0 discriminator 1
	leal	.LC20@GOTOFF(%ebx), %eax
	movl	%eax, (%esp)
	call	IwDebugAssertIsChannelOn@PLT
	testb	%al, %al
	je	.L434
	.loc 12 84 0 discriminator 3
	movzbl	_ZZN13CIwChannelPCMIsE13clip_to_int16EiE21_s_IwAssertIgnoreThis_1@GOTOFF(%ebx), %eax
	testb	%al, %al
	jne	.L434
	.loc 12 84 0 discriminator 4
	movl	$1, %eax
	jmp	.L435
.L434:
	.loc 12 84 0 discriminator 2
	movl	$0, %eax
.L435:
	.loc 12 84 0 discriminator 5
	testb	%al, %al
	je	.L436
	.loc 12 84 0 discriminator 6
	movl	$0, (%esp)
	call	IwDebugAssertSetSolution@PLT
	movl	$0, (%esp)
	call	IwDebugAssertSetUID@PLT
	movl	$0, (%esp)
	call	IwDebugAssertSetMessage@PLT
	movl	$1, 12(%esp)
	movl	$84, 8(%esp)
	leal	.LC47@GOTOFF(%ebx), %eax
	movl	%eax, 4(%esp)
	leal	.LC51@GOTOFF(%ebx), %eax
	movl	%eax, (%esp)
	call	IwDebugAssertShow@PLT
	cmpl	$1, %eax
	je	.L438
	cmpl	$2, %eax
	je	.L439
	.loc 12 84 0
	jmp	.L437
.L438:
	.loc 12 84 0 discriminator 2
	call	s3eDebugIsDebuggerPresent@PLT
	testb	%al, %al
	setne	%al
	testb	%al, %al
	je	.L440
	.loc 12 84 0 discriminator 1
	call	s3eDebugIsDebuggerPresent@PLT
	testb	%al, %al
	setne	%al
	testb	%al, %al
	je	.L441
#APP
# 84 "c:/marmalade/7.5/examples/gametutorial/cpp/modules/soundengine/h/IwSoundPCM.h" 1
	 int $3 
# 0 "" 2
#NO_APP
	jmp	.L441
.L440:
	.loc 12 84 0 discriminator 2
	call	_ZL11IwDebugExitv
	jmp	.L437
.L441:
	.loc 12 84 0 discriminator 1
	jmp	.L437
.L439:
	.loc 12 84 0 discriminator 3
	movb	$1, _ZZN13CIwChannelPCMIsE13clip_to_int16EiE21_s_IwAssertIgnoreThis_1@GOTOFF(%ebx)
	nop
.L437:
	.loc 12 84 0 discriminator 1
	movl	$0, (%esp)
	call	IwDebugAssertSetUID@PLT
.L436:
.LBE150:
.LBE149:
	.loc 12 86 0 is_stmt 1
	movl	8(%ebp), %eax
.LBE138:
	.loc 12 87 0
	leal	20(%esp), %esp
	popl	%ebx
	.cfi_restore 3
	popl	%ebp
	.cfi_restore 5
	.cfi_def_cfa 4, 4
	ret
	.cfi_endproc
.LFE1585:
	.size	_ZN13CIwChannelPCMIsE13clip_to_int16Ei, .-_ZN13CIwChannelPCMIsE13clip_to_int16Ei
	.hidden	_ZTV16CIwMenuItemSound
	.weak	_ZTV16CIwMenuItemSound
	.section	.data.rel.ro._ZTV16CIwMenuItemSound,"awG",@progbits,_ZTV16CIwMenuItemSound,comdat
	.align 32
	.type	_ZTV16CIwMenuItemSound, @object
	.size	_ZTV16CIwMenuItemSound, 52
_ZTV16CIwMenuItemSound:
	.long	0
	.long	_ZTI16CIwMenuItemSound
	.long	_ZN16CIwMenuItemSoundD1Ev
	.long	_ZN16CIwMenuItemSoundD0Ev
	.long	_ZN11CIwMenuItem6UpdateEb
	.long	_ZN11CIwMenuItem6RenderEii
	.long	_ZN11CIwMenuItem5EnterEv
	.long	_ZN11CIwMenuItem4ExitEv
	.long	_ZN16CIwMenuItemSound6SelectEv
	.long	_ZN11CIwMenuItem4BackEv
	.long	_ZN11CIwMenuItem3RunEv
	.long	_ZN11CIwMenuItem4PlusEv
	.long	_ZN11CIwMenuItem5MinusEv
	.section	.text._ZN16CIwMenuItemSoundD2Ev,"axG",@progbits,_ZN16CIwMenuItemSoundD5Ev,comdat
	.align 2
	.weak	_ZN16CIwMenuItemSoundD2Ev
	.hidden	_ZN16CIwMenuItemSoundD2Ev
	.type	_ZN16CIwMenuItemSoundD2Ev, @function
_ZN16CIwMenuItemSoundD2Ev:
.LFB1600:
	.loc 7 200 0
	.cfi_startproc
	pushl	%ebp
	.cfi_def_cfa_offset 8
	.cfi_offset 5, -8
	movl	%esp, %ebp
	.cfi_def_cfa_register 5
	pushl	%ebx
	leal	-20(%esp), %esp
	.cfi_offset 3, -12
	call	__x86.get_pc_thunk.bx
	addl	$_GLOBAL_OFFSET_TABLE_, %ebx
.LBB151:
	.loc 7 200 0
	movl	8(%ebp), %eax
	leal	8+_ZTV16CIwMenuItemSound@GOTOFF(%ebx), %edx
	movl	%edx, (%eax)
	movl	8(%ebp), %eax
	movl	%eax, (%esp)
	call	_ZN11CIwMenuItemD2Ev@PLT
.LBE151:
	movl	$0, %eax
	testl	%eax, %eax
	je	.L443
	.loc 7 200 0 is_stmt 0 discriminator 1
	movl	8(%ebp), %eax
	movl	%eax, (%esp)
	call	_ZdlPv@PLT
.L443:
	.loc 7 200 0
	leal	20(%esp), %esp
	popl	%ebx
	.cfi_restore 3
	popl	%ebp
	.cfi_restore 5
	.cfi_def_cfa 4, 4
	ret
	.cfi_endproc
.LFE1600:
	.size	_ZN16CIwMenuItemSoundD2Ev, .-_ZN16CIwMenuItemSoundD2Ev
	.weak	_ZN16CIwMenuItemSoundD1Ev
	.hidden	_ZN16CIwMenuItemSoundD1Ev
	.set	_ZN16CIwMenuItemSoundD1Ev,_ZN16CIwMenuItemSoundD2Ev
	.section	.text._ZN16CIwMenuItemSoundD0Ev,"axG",@progbits,_ZN16CIwMenuItemSoundD0Ev,comdat
	.align 2
	.weak	_ZN16CIwMenuItemSoundD0Ev
	.hidden	_ZN16CIwMenuItemSoundD0Ev
	.type	_ZN16CIwMenuItemSoundD0Ev, @function
_ZN16CIwMenuItemSoundD0Ev:
.LFB1602:
	.loc 7 200 0 is_stmt 1
	.cfi_startproc
	pushl	%ebp
	.cfi_def_cfa_offset 8
	.cfi_offset 5, -8
	movl	%esp, %ebp
	.cfi_def_cfa_register 5
	pushl	%ebx
	leal	-20(%esp), %esp
	.cfi_offset 3, -12
	call	__x86.get_pc_thunk.bx
	addl	$_GLOBAL_OFFSET_TABLE_, %ebx
	.loc 7 200 0
	movl	8(%ebp), %eax
	movl	%eax, (%esp)
	call	_ZN16CIwMenuItemSoundD1Ev
	movl	8(%ebp), %eax
	movl	%eax, (%esp)
	call	_ZdlPv@PLT
	leal	20(%esp), %esp
	popl	%ebx
	.cfi_restore 3
	popl	%ebp
	.cfi_restore 5
	.cfi_def_cfa 4, 4
	ret
	.cfi_endproc
.LFE1602:
	.size	_ZN16CIwMenuItemSoundD0Ev, .-_ZN16CIwMenuItemSoundD0Ev
	.hidden	_ZTV15CIwSoundManager
	.weak	_ZTV15CIwSoundManager
	.section	.data.rel.ro._ZTV15CIwSoundManager,"awG",@progbits,_ZTV15CIwSoundManager,comdat
	.align 8
	.type	_ZTV15CIwSoundManager, @object
	.size	_ZTV15CIwSoundManager, 16
_ZTV15CIwSoundManager:
	.long	0
	.long	_ZTI15CIwSoundManager
	.long	_ZN15CIwSoundManagerD1Ev
	.long	_ZN15CIwSoundManagerD0Ev
	.hidden	_ZTV16CIwMenuItemTitle
	.weak	_ZTV16CIwMenuItemTitle
	.section	.data.rel.ro._ZTV16CIwMenuItemTitle,"awG",@progbits,_ZTV16CIwMenuItemTitle,comdat
	.align 32
	.type	_ZTV16CIwMenuItemTitle, @object
	.size	_ZTV16CIwMenuItemTitle, 52
_ZTV16CIwMenuItemTitle:
	.long	0
	.long	_ZTI16CIwMenuItemTitle
	.long	_ZN16CIwMenuItemTitleD1Ev
	.long	_ZN16CIwMenuItemTitleD0Ev
	.long	_ZN11CIwMenuItem6UpdateEb
	.long	_ZN11CIwMenuItem6RenderEii
	.long	_ZN11CIwMenuItem5EnterEv
	.long	_ZN11CIwMenuItem4ExitEv
	.long	_ZN11CIwMenuItem6SelectEv
	.long	_ZN11CIwMenuItem4BackEv
	.long	_ZN11CIwMenuItem3RunEv
	.long	_ZN11CIwMenuItem4PlusEv
	.long	_ZN11CIwMenuItem5MinusEv
	.section	.text._ZN16CIwMenuItemTitleD2Ev,"axG",@progbits,_ZN16CIwMenuItemTitleD5Ev,comdat
	.align 2
	.weak	_ZN16CIwMenuItemTitleD2Ev
	.hidden	_ZN16CIwMenuItemTitleD2Ev
	.type	_ZN16CIwMenuItemTitleD2Ev, @function
_ZN16CIwMenuItemTitleD2Ev:
.LFB1636:
	.loc 4 698 0
	.cfi_startproc
	pushl	%ebp
	.cfi_def_cfa_offset 8
	.cfi_offset 5, -8
	movl	%esp, %ebp
	.cfi_def_cfa_register 5
	pushl	%ebx
	leal	-20(%esp), %esp
	.cfi_offset 3, -12
	call	__x86.get_pc_thunk.bx
	addl	$_GLOBAL_OFFSET_TABLE_, %ebx
.LBB152:
	.loc 4 698 0
	movl	8(%ebp), %eax
	leal	8+_ZTV16CIwMenuItemTitle@GOTOFF(%ebx), %edx
	movl	%edx, (%eax)
	movl	8(%ebp), %eax
	movl	%eax, (%esp)
	call	_ZN11CIwMenuItemD2Ev@PLT
.LBE152:
	movl	$0, %eax
	testl	%eax, %eax
	je	.L448
	.loc 4 698 0 is_stmt 0 discriminator 1
	movl	8(%ebp), %eax
	movl	%eax, (%esp)
	call	_ZdlPv@PLT
.L448:
	.loc 4 698 0
	leal	20(%esp), %esp
	popl	%ebx
	.cfi_restore 3
	popl	%ebp
	.cfi_restore 5
	.cfi_def_cfa 4, 4
	ret
	.cfi_endproc
.LFE1636:
	.size	_ZN16CIwMenuItemTitleD2Ev, .-_ZN16CIwMenuItemTitleD2Ev
	.weak	_ZN16CIwMenuItemTitleD1Ev
	.hidden	_ZN16CIwMenuItemTitleD1Ev
	.set	_ZN16CIwMenuItemTitleD1Ev,_ZN16CIwMenuItemTitleD2Ev
	.section	.text._ZN16CIwMenuItemTitleD0Ev,"axG",@progbits,_ZN16CIwMenuItemTitleD0Ev,comdat
	.align 2
	.weak	_ZN16CIwMenuItemTitleD0Ev
	.hidden	_ZN16CIwMenuItemTitleD0Ev
	.type	_ZN16CIwMenuItemTitleD0Ev, @function
_ZN16CIwMenuItemTitleD0Ev:
.LFB1638:
	.loc 4 698 0 is_stmt 1
	.cfi_startproc
	pushl	%ebp
	.cfi_def_cfa_offset 8
	.cfi_offset 5, -8
	movl	%esp, %ebp
	.cfi_def_cfa_register 5
	pushl	%ebx
	leal	-20(%esp), %esp
	.cfi_offset 3, -12
	call	__x86.get_pc_thunk.bx
	addl	$_GLOBAL_OFFSET_TABLE_, %ebx
	.loc 4 698 0
	movl	8(%ebp), %eax
	movl	%eax, (%esp)
	call	_ZN16CIwMenuItemTitleD1Ev
	movl	8(%ebp), %eax
	movl	%eax, (%esp)
	call	_ZdlPv@PLT
	leal	20(%esp), %esp
	popl	%ebx
	.cfi_restore 3
	popl	%ebp
	.cfi_restore 5
	.cfi_def_cfa 4, 4
	ret
	.cfi_endproc
.LFE1638:
	.size	_ZN16CIwMenuItemTitleD0Ev, .-_ZN16CIwMenuItemTitleD0Ev
	.hidden	_ZTV21CIwMenuItemEditUInt32
	.weak	_ZTV21CIwMenuItemEditUInt32
	.section	.data.rel.ro._ZTV21CIwMenuItemEditUInt32,"awG",@progbits,_ZTV21CIwMenuItemEditUInt32,comdat
	.align 32
	.type	_ZTV21CIwMenuItemEditUInt32, @object
	.size	_ZTV21CIwMenuItemEditUInt32, 56
_ZTV21CIwMenuItemEditUInt32:
	.long	0
	.long	_ZTI21CIwMenuItemEditUInt32
	.long	_ZN21CIwMenuItemEditUInt32D1Ev
	.long	_ZN21CIwMenuItemEditUInt32D0Ev
	.long	_ZN11CIwMenuItem6UpdateEb
	.long	_ZN20CIwMenuItemEditValue6RenderEii
	.long	_ZN11CIwMenuItem5EnterEv
	.long	_ZN11CIwMenuItem4ExitEv
	.long	_ZN11CIwMenuItem6SelectEv
	.long	_ZN20CIwMenuItemEditValue4BackEv
	.long	_ZN11CIwMenuItem3RunEv
	.long	_ZN20CIwMenuItemEditValue4PlusEv
	.long	_ZN20CIwMenuItemEditValue5MinusEv
	.long	_ZN20CIwMenuItemEditValue10EditMemberEf
	.hidden	_ZTI16CIwMenuItemSound
	.weak	_ZTI16CIwMenuItemSound
	.section	.data.rel.ro._ZTI16CIwMenuItemSound,"awG",@progbits,_ZTI16CIwMenuItemSound,comdat
	.align 4
	.type	_ZTI16CIwMenuItemSound, @object
	.size	_ZTI16CIwMenuItemSound, 12
_ZTI16CIwMenuItemSound:
	.long	_ZTVN10__cxxabiv120__si_class_type_infoE+8
	.long	_ZTS16CIwMenuItemSound
	.long	_ZTI11CIwMenuItem
	.hidden	_ZTS16CIwMenuItemSound
	.weak	_ZTS16CIwMenuItemSound
	.section	.rodata._ZTS16CIwMenuItemSound,"aG",@progbits,_ZTS16CIwMenuItemSound,comdat
	.type	_ZTS16CIwMenuItemSound, @object
	.size	_ZTS16CIwMenuItemSound, 19
_ZTS16CIwMenuItemSound:
	.string	"16CIwMenuItemSound"
	.hidden	_ZTI15CIwSoundManager
	.weak	_ZTI15CIwSoundManager
	.section	.data.rel.ro._ZTI15CIwSoundManager,"awG",@progbits,_ZTI15CIwSoundManager,comdat
	.align 4
	.type	_ZTI15CIwSoundManager, @object
	.size	_ZTI15CIwSoundManager, 8
_ZTI15CIwSoundManager:
	.long	_ZTVN10__cxxabiv117__class_type_infoE+8
	.long	_ZTS15CIwSoundManager
	.hidden	_ZTS15CIwSoundManager
	.weak	_ZTS15CIwSoundManager
	.section	.rodata._ZTS15CIwSoundManager,"aG",@progbits,_ZTS15CIwSoundManager,comdat
	.type	_ZTS15CIwSoundManager, @object
	.size	_ZTS15CIwSoundManager, 18
_ZTS15CIwSoundManager:
	.string	"15CIwSoundManager"
	.hidden	_ZTS16CIwMenuItemTitle
	.weak	_ZTS16CIwMenuItemTitle
	.section	.rodata._ZTS16CIwMenuItemTitle,"aG",@progbits,_ZTS16CIwMenuItemTitle,comdat
	.type	_ZTS16CIwMenuItemTitle, @object
	.size	_ZTS16CIwMenuItemTitle, 19
_ZTS16CIwMenuItemTitle:
	.string	"16CIwMenuItemTitle"
	.hidden	_ZTI16CIwMenuItemTitle
	.weak	_ZTI16CIwMenuItemTitle
	.section	.data.rel.ro._ZTI16CIwMenuItemTitle,"awG",@progbits,_ZTI16CIwMenuItemTitle,comdat
	.align 4
	.type	_ZTI16CIwMenuItemTitle, @object
	.size	_ZTI16CIwMenuItemTitle, 12
_ZTI16CIwMenuItemTitle:
	.long	_ZTVN10__cxxabiv120__si_class_type_infoE+8
	.long	_ZTS16CIwMenuItemTitle
	.long	_ZTI11CIwMenuItem
	.hidden	_ZTS21CIwMenuItemEditUInt32
	.weak	_ZTS21CIwMenuItemEditUInt32
	.section	.rodata._ZTS21CIwMenuItemEditUInt32,"aG",@progbits,_ZTS21CIwMenuItemEditUInt32,comdat
	.type	_ZTS21CIwMenuItemEditUInt32, @object
	.size	_ZTS21CIwMenuItemEditUInt32, 24
_ZTS21CIwMenuItemEditUInt32:
	.string	"21CIwMenuItemEditUInt32"
	.hidden	_ZTI21CIwMenuItemEditUInt32
	.weak	_ZTI21CIwMenuItemEditUInt32
	.section	.data.rel.ro._ZTI21CIwMenuItemEditUInt32,"awG",@progbits,_ZTI21CIwMenuItemEditUInt32,comdat
	.align 4
	.type	_ZTI21CIwMenuItemEditUInt32, @object
	.size	_ZTI21CIwMenuItemEditUInt32, 12
_ZTI21CIwMenuItemEditUInt32:
	.long	_ZTVN10__cxxabiv120__si_class_type_infoE+8
	.long	_ZTS21CIwMenuItemEditUInt32
	.long	_ZTI20CIwMenuItemEditValue
	.local	_ZZN15CIwSoundManagerC1EvE21_s_IwAssertIgnoreThis
	.comm	_ZZN15CIwSoundManagerC1EvE21_s_IwAssertIgnoreThis,1,1
	.local	_ZZN15CIwSoundManagerD1EvE21_s_IwAssertIgnoreThis
	.comm	_ZZN15CIwSoundManagerD1EvE21_s_IwAssertIgnoreThis,1,1
	.local	_ZZN15CIwSoundManager16SetMaxSoundInstsEjE21_s_IwAssertIgnoreThis
	.comm	_ZZN15CIwSoundManager16SetMaxSoundInstsEjE21_s_IwAssertIgnoreThis,1,1
	.local	_ZZN15CIwSoundManager6UpdateEvE21_s_IwAssertIgnoreThis
	.comm	_ZZN15CIwSoundManager6UpdateEvE21_s_IwAssertIgnoreThis,1,1
	.local	_ZZL12IW_FIXED_MULiiE21_s_IwAssertIgnoreThis
	.comm	_ZZL12IW_FIXED_MULiiE21_s_IwAssertIgnoreThis,1,1
	.hidden	_ZZN13CIwChannelPCMIsE13GenerateAudioEP20s3eSoundGenAudioInfoE21_s_IwAssertIgnoreThis
	.weak	_ZZN13CIwChannelPCMIsE13GenerateAudioEP20s3eSoundGenAudioInfoE21_s_IwAssertIgnoreThis
	.section	.bss._ZZN13CIwChannelPCMIsE13GenerateAudioEP20s3eSoundGenAudioInfoE21_s_IwAssertIgnoreThis,"awG",@nobits,_ZZN13CIwChannelPCMIsE13GenerateAudioEP20s3eSoundGenAudioInfoE21_s_IwAssertIgnoreThis,comdat
	.type	_ZZN13CIwChannelPCMIsE13GenerateAudioEP20s3eSoundGenAudioInfoE21_s_IwAssertIgnoreThis, @object
	.size	_ZZN13CIwChannelPCMIsE13GenerateAudioEP20s3eSoundGenAudioInfoE21_s_IwAssertIgnoreThis, 1
_ZZN13CIwChannelPCMIsE13GenerateAudioEP20s3eSoundGenAudioInfoE21_s_IwAssertIgnoreThis:
	.zero	1
	.hidden	_ZZN13CIwChannelPCMIsE13GenerateAudioEP20s3eSoundGenAudioInfoE21_s_IwAssertIgnoreThis_0
	.weak	_ZZN13CIwChannelPCMIsE13GenerateAudioEP20s3eSoundGenAudioInfoE21_s_IwAssertIgnoreThis_0
	.section	.bss._ZZN13CIwChannelPCMIsE13GenerateAudioEP20s3eSoundGenAudioInfoE21_s_IwAssertIgnoreThis_0,"awG",@nobits,_ZZN13CIwChannelPCMIsE13GenerateAudioEP20s3eSoundGenAudioInfoE21_s_IwAssertIgnoreThis_0,comdat
	.type	_ZZN13CIwChannelPCMIsE13GenerateAudioEP20s3eSoundGenAudioInfoE21_s_IwAssertIgnoreThis_0, @object
	.size	_ZZN13CIwChannelPCMIsE13GenerateAudioEP20s3eSoundGenAudioInfoE21_s_IwAssertIgnoreThis_0, 1
_ZZN13CIwChannelPCMIsE13GenerateAudioEP20s3eSoundGenAudioInfoE21_s_IwAssertIgnoreThis_0:
	.zero	1
	.hidden	_ZZN13CIwChannelPCMIsE13clip_to_int16EiE21_s_IwAssertIgnoreThis
	.weak	_ZZN13CIwChannelPCMIsE13clip_to_int16EiE21_s_IwAssertIgnoreThis
	.section	.bss._ZZN13CIwChannelPCMIsE13clip_to_int16EiE21_s_IwAssertIgnoreThis,"awG",@nobits,_ZZN13CIwChannelPCMIsE13clip_to_int16EiE21_s_IwAssertIgnoreThis,comdat
	.type	_ZZN13CIwChannelPCMIsE13clip_to_int16EiE21_s_IwAssertIgnoreThis, @object
	.size	_ZZN13CIwChannelPCMIsE13clip_to_int16EiE21_s_IwAssertIgnoreThis, 1
_ZZN13CIwChannelPCMIsE13clip_to_int16EiE21_s_IwAssertIgnoreThis:
	.zero	1
	.hidden	_ZZN13CIwChannelPCMIsE13clip_to_int16EiE21_s_IwAssertIgnoreThis_0
	.weak	_ZZN13CIwChannelPCMIsE13clip_to_int16EiE21_s_IwAssertIgnoreThis_0
	.section	.bss._ZZN13CIwChannelPCMIsE13clip_to_int16EiE21_s_IwAssertIgnoreThis_0,"awG",@nobits,_ZZN13CIwChannelPCMIsE13clip_to_int16EiE21_s_IwAssertIgnoreThis_0,comdat
	.type	_ZZN13CIwChannelPCMIsE13clip_to_int16EiE21_s_IwAssertIgnoreThis_0, @object
	.size	_ZZN13CIwChannelPCMIsE13clip_to_int16EiE21_s_IwAssertIgnoreThis_0, 1
_ZZN13CIwChannelPCMIsE13clip_to_int16EiE21_s_IwAssertIgnoreThis_0:
	.zero	1
	.hidden	_ZZN13CIwChannelPCMIsE13clip_to_int16EiE21_s_IwAssertIgnoreThis_1
	.weak	_ZZN13CIwChannelPCMIsE13clip_to_int16EiE21_s_IwAssertIgnoreThis_1
	.section	.bss._ZZN13CIwChannelPCMIsE13clip_to_int16EiE21_s_IwAssertIgnoreThis_1,"awG",@nobits,_ZZN13CIwChannelPCMIsE13clip_to_int16EiE21_s_IwAssertIgnoreThis_1,comdat
	.type	_ZZN13CIwChannelPCMIsE13clip_to_int16EiE21_s_IwAssertIgnoreThis_1, @object
	.size	_ZZN13CIwChannelPCMIsE13clip_to_int16EiE21_s_IwAssertIgnoreThis_1, 1
_ZZN13CIwChannelPCMIsE13clip_to_int16EiE21_s_IwAssertIgnoreThis_1:
	.zero	1
	.hidden	_ZZN13CIwChannelPCMIaE13GenerateAudioEP20s3eSoundGenAudioInfoE21_s_IwAssertIgnoreThis
	.weak	_ZZN13CIwChannelPCMIaE13GenerateAudioEP20s3eSoundGenAudioInfoE21_s_IwAssertIgnoreThis
	.section	.bss._ZZN13CIwChannelPCMIaE13GenerateAudioEP20s3eSoundGenAudioInfoE21_s_IwAssertIgnoreThis,"awG",@nobits,_ZZN13CIwChannelPCMIaE13GenerateAudioEP20s3eSoundGenAudioInfoE21_s_IwAssertIgnoreThis,comdat
	.type	_ZZN13CIwChannelPCMIaE13GenerateAudioEP20s3eSoundGenAudioInfoE21_s_IwAssertIgnoreThis, @object
	.size	_ZZN13CIwChannelPCMIaE13GenerateAudioEP20s3eSoundGenAudioInfoE21_s_IwAssertIgnoreThis, 1
_ZZN13CIwChannelPCMIaE13GenerateAudioEP20s3eSoundGenAudioInfoE21_s_IwAssertIgnoreThis:
	.zero	1
	.hidden	_ZZN13CIwChannelPCMIaE13GenerateAudioEP20s3eSoundGenAudioInfoE21_s_IwAssertIgnoreThis_0
	.weak	_ZZN13CIwChannelPCMIaE13GenerateAudioEP20s3eSoundGenAudioInfoE21_s_IwAssertIgnoreThis_0
	.section	.bss._ZZN13CIwChannelPCMIaE13GenerateAudioEP20s3eSoundGenAudioInfoE21_s_IwAssertIgnoreThis_0,"awG",@nobits,_ZZN13CIwChannelPCMIaE13GenerateAudioEP20s3eSoundGenAudioInfoE21_s_IwAssertIgnoreThis_0,comdat
	.type	_ZZN13CIwChannelPCMIaE13GenerateAudioEP20s3eSoundGenAudioInfoE21_s_IwAssertIgnoreThis_0, @object
	.size	_ZZN13CIwChannelPCMIaE13GenerateAudioEP20s3eSoundGenAudioInfoE21_s_IwAssertIgnoreThis_0, 1
_ZZN13CIwChannelPCMIaE13GenerateAudioEP20s3eSoundGenAudioInfoE21_s_IwAssertIgnoreThis_0:
	.zero	1
	.hidden	_ZZN13CIwChannelPCMIaE13clip_to_int16EiE21_s_IwAssertIgnoreThis
	.weak	_ZZN13CIwChannelPCMIaE13clip_to_int16EiE21_s_IwAssertIgnoreThis
	.section	.bss._ZZN13CIwChannelPCMIaE13clip_to_int16EiE21_s_IwAssertIgnoreThis,"awG",@nobits,_ZZN13CIwChannelPCMIaE13clip_to_int16EiE21_s_IwAssertIgnoreThis,comdat
	.type	_ZZN13CIwChannelPCMIaE13clip_to_int16EiE21_s_IwAssertIgnoreThis, @object
	.size	_ZZN13CIwChannelPCMIaE13clip_to_int16EiE21_s_IwAssertIgnoreThis, 1
_ZZN13CIwChannelPCMIaE13clip_to_int16EiE21_s_IwAssertIgnoreThis:
	.zero	1
	.hidden	_ZZN13CIwChannelPCMIaE13clip_to_int16EiE21_s_IwAssertIgnoreThis_0
	.weak	_ZZN13CIwChannelPCMIaE13clip_to_int16EiE21_s_IwAssertIgnoreThis_0
	.section	.bss._ZZN13CIwChannelPCMIaE13clip_to_int16EiE21_s_IwAssertIgnoreThis_0,"awG",@nobits,_ZZN13CIwChannelPCMIaE13clip_to_int16EiE21_s_IwAssertIgnoreThis_0,comdat
	.type	_ZZN13CIwChannelPCMIaE13clip_to_int16EiE21_s_IwAssertIgnoreThis_0, @object
	.size	_ZZN13CIwChannelPCMIaE13clip_to_int16EiE21_s_IwAssertIgnoreThis_0, 1
_ZZN13CIwChannelPCMIaE13clip_to_int16EiE21_s_IwAssertIgnoreThis_0:
	.zero	1
	.hidden	_ZZN13CIwChannelPCMIaE13clip_to_int16EiE21_s_IwAssertIgnoreThis_1
	.weak	_ZZN13CIwChannelPCMIaE13clip_to_int16EiE21_s_IwAssertIgnoreThis_1
	.section	.bss._ZZN13CIwChannelPCMIaE13clip_to_int16EiE21_s_IwAssertIgnoreThis_1,"awG",@nobits,_ZZN13CIwChannelPCMIaE13clip_to_int16EiE21_s_IwAssertIgnoreThis_1,comdat
	.type	_ZZN13CIwChannelPCMIaE13clip_to_int16EiE21_s_IwAssertIgnoreThis_1, @object
	.size	_ZZN13CIwChannelPCMIaE13clip_to_int16EiE21_s_IwAssertIgnoreThis_1, 1
_ZZN13CIwChannelPCMIaE13clip_to_int16EiE21_s_IwAssertIgnoreThis_1:
	.zero	1
	.local	_ZZN15CIwSoundManager11GetFreeInstEvE21_s_IwAssertIgnoreThis
	.comm	_ZZN15CIwSoundManager11GetFreeInstEvE21_s_IwAssertIgnoreThis,1,1
	.local	_ZZN15CIwSoundManager11GetFreeInstEvE21_s_IwAssertIgnoreThis_0
	.comm	_ZZN15CIwSoundManager11GetFreeInstEvE21_s_IwAssertIgnoreThis_0,1,1
	.local	_ZZN15CIwSoundManager11SetFreeInstEP12CIwSoundInstE21_s_IwAssertIgnoreThis
	.comm	_ZZN15CIwSoundManager11SetFreeInstEP12CIwSoundInstE21_s_IwAssertIgnoreThis,1,1
	.local	_ZZN15CIwSoundManager11SetFreeInstEP12CIwSoundInstE21_s_IwAssertIgnoreThis_0
	.comm	_ZZN15CIwSoundManager11SetFreeInstEP12CIwSoundInstE21_s_IwAssertIgnoreThis_0,1,1
	.local	_ZZN15CIwSoundManager11SetFreeInstEP12CIwSoundInstE21_s_IwAssertIgnoreThis_1
	.comm	_ZZN15CIwSoundManager11SetFreeInstEP12CIwSoundInstE21_s_IwAssertIgnoreThis_1,1,1
	.section	.rodata
	.align 4
.LC5:
	.long	0
	.align 4
.LC45:
	.long	1199570688
	.section	.text.__x86.get_pc_thunk.cx,"axG",@progbits,__x86.get_pc_thunk.cx,comdat
	.globl	__x86.get_pc_thunk.cx
	.hidden	__x86.get_pc_thunk.cx
	.type	__x86.get_pc_thunk.cx, @function
__x86.get_pc_thunk.cx:
.LFB1671:
	.cfi_startproc
	nop
	nop
	nop
	nop
	nop
	nop
	nop
	nop
	movl	(%esp), %ecx
	ret
	.cfi_endproc
.LFE1671:
	.section	.text.__x86.get_pc_thunk.bx,"axG",@progbits,__x86.get_pc_thunk.bx,comdat
	.globl	__x86.get_pc_thunk.bx
	.hidden	__x86.get_pc_thunk.bx
	.type	__x86.get_pc_thunk.bx, @function
__x86.get_pc_thunk.bx:
.LFB1672:
	.cfi_startproc
	nop
	nop
	nop
	nop
	nop
	nop
	nop
	nop
	movl	(%esp), %ebx
	ret
	.cfi_endproc
.LFE1672:
	.text
.Letext0:
	.file 13 "c:/marmalade/7.5/s3e/h/s3eTypes.h"
	.file 14 "c:/marmalade/7.5/s3e/h/std/stddef.h"
	.file 15 "c:/marmalade/7.5/s3e/h/std/c++/typeinfo.h"
	.file 16 "c:/marmalade/7.5/s3e/h/std/c++/exception"
	.file 17 "c:/marmalade/7.5/s3e/h/std/c++/typeinfo"
	.file 18 "c:/marmalade/7.5/s3e/h/std/c++/cstddef"
	.file 19 "c:/marmalade/7.5/s3e/h/std/c++/stl/_config.h"
	.file 20 "c:/marmalade/7.5/s3e/h/s3eFile.h"
	.file 21 "c:/marmalade/7.5/modules/iwutil/h/IwSerialise.h"
	.file 22 "c:/marmalade/7.5/modules/iwutil/h/IwString.h"
	.file 23 "c:/marmalade/7.5/modules/iwutil/h/IwAllocator.h"
	.file 24 "c:/marmalade/7.5/modules/iwutil/h/IwManaged.h"
	.file 25 "c:/marmalade/7.5/modules/iwutil/h/IwArray.h"
	.file 26 "c:/marmalade/7.5/modules/iwutil/h/IwManagedList.h"
	.file 27 "c:/marmalade/7.5/s3e/h/s3eDebug.h"
	.file 28 "c:/marmalade/7.5/s3e/h/s3eSound.h"
	.file 29 "c:/marmalade/7.5/modules/iwresmanager/h/IwResGroup.h"
	.file 30 "c:/marmalade/7.5/modules/iwresmanager/h/IwResManagerClass.h"
	.file 31 "c:/marmalade/7.5/examples/gametutorial/cpp/modules/soundengine/h/IwSoundParams.h"
	.file 32 "c:/marmalade/7.5/modules/iwgeom/h/IwGeomSqrt.h"
	.file 33 "c:/marmalade/7.5/modules/iwutil/h/IwTextParserITX.h"
	.file 34 "<built-in>"
	.file 35 "c:/marmalade/7.5/modules/iwutil/h/IwTypes.h"
	.section	.note.GNU-stack,"",@progbits
