	.arch armv6
	.fpu softvfp
	.eabi_attribute 20, 1
	.eabi_attribute 21, 1
	.eabi_attribute 23, 3
	.eabi_attribute 24, 1
	.eabi_attribute 25, 1
	.eabi_attribute 26, 2
	.eabi_attribute 30, 6
	.eabi_attribute 34, 1
	.eabi_attribute 18, 2
	.file	"IwSoundData.cpp"
	.text
.Ltext0:
	.cfi_sections	.debug_frame
	.section	.text._ZnwjPv,"axG",%progbits,_ZnwjPv,comdat
	.align	2
	.weak	_ZnwjPv
	.hidden	_ZnwjPv
	.type	_ZnwjPv, %function
_ZnwjPv:
.LFB0:
	.file 1 "c:/marmalade/7.5/s3e/h/std/c++/new.h"
	.loc 1 52 0
	.cfi_startproc
	@ args = 0, pretend = 0, frame = 8
	@ frame_needed = 0, uses_anonymous_args = 0
	@ link register save eliminated.
	sub	sp, sp, #8
.LCFI0:
	.cfi_def_cfa_offset 8
	str	r0, [sp, #4]
	str	r1, [sp]
	.loc 1 52 0
	ldr	r3, [sp]
	mov	r0, r3
	add	sp, sp, #8
	@ sp needed
	bx	lr
	.cfi_endproc
.LFE0:
	.size	_ZnwjPv, .-_ZnwjPv
	.section	.text._ZL11IwDebugExitv,"ax",%progbits
	.align	2
	.type	_ZL11IwDebugExitv, %function
_ZL11IwDebugExitv:
.LFB24:
	.file 2 "c:/marmalade/7.5/modules/iwutil/h/IwDebug.h"
	.loc 2 348 0
	.cfi_startproc
	@ args = 0, pretend = 0, frame = 0
	@ frame_needed = 0, uses_anonymous_args = 0
	stmfd	sp!, {r3, lr}
.LCFI1:
	.cfi_def_cfa_offset 8
	.cfi_offset 3, -8
	.cfi_offset 14, -4
	.loc 2 349 0
	bl	abort(PLT)
	.cfi_endproc
.LFE24:
	.size	_ZL11IwDebugExitv, .-_ZL11IwDebugExitv
	.section	.text._ZN12CIwCallStackC2EPKc,"axG",%progbits,_ZN12CIwCallStackC5EPKc,comdat
	.align	2
	.weak	_ZN12CIwCallStackC2EPKc
	.hidden	_ZN12CIwCallStackC2EPKc
	.type	_ZN12CIwCallStackC2EPKc, %function
_ZN12CIwCallStackC2EPKc:
.LFB135:
	.file 3 "c:/marmalade/7.5/modules/iwutil/h/IwRuntime.h"
	.loc 3 97 0
	.cfi_startproc
	@ args = 0, pretend = 0, frame = 8
	@ frame_needed = 0, uses_anonymous_args = 0
	str	lr, [sp, #-4]!
.LCFI2:
	.cfi_def_cfa_offset 4
	.cfi_offset 14, -4
	sub	sp, sp, #12
.LCFI3:
	.cfi_def_cfa_offset 16
	str	r0, [sp, #4]
	str	r1, [sp]
.LBB2:
	.loc 3 99 0
	ldr	r0, [sp]
	ldr	r1, [sp, #4]
	bl	IwCallStackEnter(PLT)
	mov	r3, r0
	mov	r2, r3
	ldr	r3, [sp, #4]
	strb	r2, [r3]
.LBE2:
	.loc 3 100 0
	ldr	r3, [sp, #4]
	mov	r0, r3
	add	sp, sp, #12
	@ sp needed
	ldr	pc, [sp], #4
	.cfi_endproc
.LFE135:
	.size	_ZN12CIwCallStackC2EPKc, .-_ZN12CIwCallStackC2EPKc
	.weak	_ZN12CIwCallStackC1EPKc
	.hidden	_ZN12CIwCallStackC1EPKc
	.set	_ZN12CIwCallStackC1EPKc,_ZN12CIwCallStackC2EPKc
	.section	.text._ZN12CIwCallStackD2Ev,"axG",%progbits,_ZN12CIwCallStackD5Ev,comdat
	.align	2
	.weak	_ZN12CIwCallStackD2Ev
	.hidden	_ZN12CIwCallStackD2Ev
	.type	_ZN12CIwCallStackD2Ev, %function
_ZN12CIwCallStackD2Ev:
.LFB138:
	.loc 3 101 0
	.cfi_startproc
	@ args = 0, pretend = 0, frame = 8
	@ frame_needed = 0, uses_anonymous_args = 0
	str	lr, [sp, #-4]!
.LCFI4:
	.cfi_def_cfa_offset 4
	.cfi_offset 14, -4
	sub	sp, sp, #12
.LCFI5:
	.cfi_def_cfa_offset 16
	str	r0, [sp, #4]
.LBB3:
	.loc 3 103 0
	ldr	r3, [sp, #4]
	ldrb	r3, [r3]	@ zero_extendqisi2
	cmp	r3, #0
	beq	.L8
	.loc 3 104 0
	ldr	r0, [sp, #4]
	bl	IwCallStackLeave(PLT)
.L8:
.LBE3:
	.loc 3 105 0
	ldr	r3, [sp, #4]
	mov	r0, r3
	add	sp, sp, #12
	@ sp needed
	ldr	pc, [sp], #4
	.cfi_endproc
.LFE138:
	.size	_ZN12CIwCallStackD2Ev, .-_ZN12CIwCallStackD2Ev
	.weak	_ZN12CIwCallStackD1Ev
	.hidden	_ZN12CIwCallStackD1Ev
	.set	_ZN12CIwCallStackD1Ev,_ZN12CIwCallStackD2Ev
	.section	.text._ZN10CIwManaged9ParseOpenEP16CIwTextParserITX,"axG",%progbits,_ZN10CIwManaged9ParseOpenEP16CIwTextParserITX,comdat
	.align	2
	.weak	_ZN10CIwManaged9ParseOpenEP16CIwTextParserITX
	.hidden	_ZN10CIwManaged9ParseOpenEP16CIwTextParserITX
	.type	_ZN10CIwManaged9ParseOpenEP16CIwTextParserITX, %function
_ZN10CIwManaged9ParseOpenEP16CIwTextParserITX:
.LFB318:
	.file 4 "c:/marmalade/7.5/modules/iwutil/h/IwManaged.h"
	.loc 4 143 0
	.cfi_startproc
	@ args = 0, pretend = 0, frame = 8
	@ frame_needed = 0, uses_anonymous_args = 0
	@ link register save eliminated.
	sub	sp, sp, #8
.LCFI6:
	.cfi_def_cfa_offset 8
	str	r0, [sp, #4]
	str	r1, [sp]
	.loc 4 143 0
	add	sp, sp, #8
	@ sp needed
	bx	lr
	.cfi_endproc
.LFE318:
	.size	_ZN10CIwManaged9ParseOpenEP16CIwTextParserITX, .-_ZN10CIwManaged9ParseOpenEP16CIwTextParserITX
	.section	.text._ZN10CIwManaged11HandleEventEP8CIwEvent,"axG",%progbits,_ZN10CIwManaged11HandleEventEP8CIwEvent,comdat
	.align	2
	.weak	_ZN10CIwManaged11HandleEventEP8CIwEvent
	.hidden	_ZN10CIwManaged11HandleEventEP8CIwEvent
	.type	_ZN10CIwManaged11HandleEventEP8CIwEvent, %function
_ZN10CIwManaged11HandleEventEP8CIwEvent:
.LFB319:
	.loc 4 187 0
	.cfi_startproc
	@ args = 0, pretend = 0, frame = 8
	@ frame_needed = 0, uses_anonymous_args = 0
	@ link register save eliminated.
	sub	sp, sp, #8
.LCFI7:
	.cfi_def_cfa_offset 8
	str	r0, [sp, #4]
	str	r1, [sp]
	.loc 4 187 0
	mov	r3, #0
	mov	r0, r3
	add	sp, sp, #8
	@ sp needed
	bx	lr
	.cfi_endproc
.LFE319:
	.size	_ZN10CIwManaged11HandleEventEP8CIwEvent, .-_ZN10CIwManaged11HandleEventEP8CIwEvent
	.section	.text._ZN10CIwManaged11DebugRenderEv,"axG",%progbits,_ZN10CIwManaged11DebugRenderEv,comdat
	.align	2
	.weak	_ZN10CIwManaged11DebugRenderEv
	.hidden	_ZN10CIwManaged11DebugRenderEv
	.type	_ZN10CIwManaged11DebugRenderEv, %function
_ZN10CIwManaged11DebugRenderEv:
.LFB321:
	.loc 4 213 0
	.cfi_startproc
	@ args = 0, pretend = 0, frame = 8
	@ frame_needed = 0, uses_anonymous_args = 0
	@ link register save eliminated.
	sub	sp, sp, #8
.LCFI8:
	.cfi_def_cfa_offset 8
	str	r0, [sp, #4]
	.loc 4 213 0
	add	sp, sp, #8
	@ sp needed
	bx	lr
	.cfi_endproc
.LFE321:
	.size	_ZN10CIwManaged11DebugRenderEv, .-_ZN10CIwManaged11DebugRenderEv
	.section	.text._ZN18CIwManagedRefCountC2Ev,"axG",%progbits,_ZN18CIwManagedRefCountC5Ev,comdat
	.align	2
	.weak	_ZN18CIwManagedRefCountC2Ev
	.hidden	_ZN18CIwManagedRefCountC2Ev
	.type	_ZN18CIwManagedRefCountC2Ev, %function
_ZN18CIwManagedRefCountC2Ev:
.LFB330:
	.file 5 "c:/marmalade/7.5/modules/iwutil/h/IwResource.h"
	.loc 5 57 0
	.cfi_startproc
	@ args = 0, pretend = 0, frame = 8
	@ frame_needed = 0, uses_anonymous_args = 0
	stmfd	sp!, {r4, lr}
.LCFI9:
	.cfi_def_cfa_offset 8
	.cfi_offset 4, -8
	.cfi_offset 14, -4
	sub	sp, sp, #8
.LCFI10:
	.cfi_def_cfa_offset 16
	str	r0, [sp, #4]
	ldr	r4, .L17
.LPIC0:
	add	r4, pc, r4
.LBB4:
	.loc 5 58 0
	ldr	r3, [sp, #4]
	mov	r0, r3
	bl	_ZN10CIwManagedC2Ev(PLT)
	ldr	r3, [sp, #4]
	ldr	r2, .L17+4
	ldr	r2, [r4, r2]
	add	r2, r2, #8
	str	r2, [r3]
	.loc 5 59 0
	ldr	r3, [sp, #4]
	mov	r2, #0
	strh	r2, [r3, #12]	@ movhi
	.loc 5 60 0
	ldr	r3, [sp, #4]
	mov	r2, #0
	strh	r2, [r3, #14]	@ movhi
.LBE4:
	.loc 5 61 0
	ldr	r3, [sp, #4]
	mov	r0, r3
	add	sp, sp, #8
	@ sp needed
	ldmfd	sp!, {r4, pc}
.L18:
	.align	2
.L17:
	.word	_GLOBAL_OFFSET_TABLE_-(.LPIC0+8)
	.word	_ZTV18CIwManagedRefCount(GOT)
	.cfi_endproc
.LFE330:
	.size	_ZN18CIwManagedRefCountC2Ev, .-_ZN18CIwManagedRefCountC2Ev
	.weak	_ZN18CIwManagedRefCountC1Ev
	.hidden	_ZN18CIwManagedRefCountC1Ev
	.set	_ZN18CIwManagedRefCountC1Ev,_ZN18CIwManagedRefCountC2Ev
	.section	.text._ZN18CIwManagedRefCountD2Ev,"axG",%progbits,_ZN18CIwManagedRefCountD5Ev,comdat
	.align	2
	.weak	_ZN18CIwManagedRefCountD2Ev
	.hidden	_ZN18CIwManagedRefCountD2Ev
	.type	_ZN18CIwManagedRefCountD2Ev, %function
_ZN18CIwManagedRefCountD2Ev:
.LFB342:
	.loc 5 48 0
	.cfi_startproc
	@ args = 0, pretend = 0, frame = 8
	@ frame_needed = 0, uses_anonymous_args = 0
	str	lr, [sp, #-4]!
.LCFI11:
	.cfi_def_cfa_offset 4
	.cfi_offset 14, -4
	sub	sp, sp, #12
.LCFI12:
	.cfi_def_cfa_offset 16
	str	r0, [sp, #4]
	ldr	r1, .L23
.LPIC1:
	add	r1, pc, r1
.LBB5:
	.loc 5 48 0
	ldr	r3, [sp, #4]
	ldr	r2, .L23+4
	ldr	r2, [r1, r2]
	add	r2, r2, #8
	str	r2, [r3]
	ldr	r3, [sp, #4]
	mov	r0, r3
	bl	_ZN10CIwManagedD2Ev(PLT)
.LBE5:
	mov	r3, #0
	cmp	r3, #0
	beq	.L21
	.loc 5 48 0 is_stmt 0 discriminator 1
	ldr	r0, [sp, #4]
	bl	_ZdlPv(PLT)
.L21:
	.loc 5 48 0 discriminator 2
	ldr	r3, [sp, #4]
	mov	r0, r3
	add	sp, sp, #12
	@ sp needed
	ldr	pc, [sp], #4
.L24:
	.align	2
.L23:
	.word	_GLOBAL_OFFSET_TABLE_-(.LPIC1+8)
	.word	_ZTV18CIwManagedRefCount(GOT)
	.cfi_endproc
.LFE342:
	.size	_ZN18CIwManagedRefCountD2Ev, .-_ZN18CIwManagedRefCountD2Ev
	.weak	_ZN18CIwManagedRefCountD1Ev
	.hidden	_ZN18CIwManagedRefCountD1Ev
	.set	_ZN18CIwManagedRefCountD1Ev,_ZN18CIwManagedRefCountD2Ev
	.section	.text._ZN18CIwManagedRefCountD0Ev,"axG",%progbits,_ZN18CIwManagedRefCountD0Ev,comdat
	.align	2
	.weak	_ZN18CIwManagedRefCountD0Ev
	.hidden	_ZN18CIwManagedRefCountD0Ev
	.type	_ZN18CIwManagedRefCountD0Ev, %function
_ZN18CIwManagedRefCountD0Ev:
.LFB344:
	.loc 5 48 0 is_stmt 1
	.cfi_startproc
	@ args = 0, pretend = 0, frame = 8
	@ frame_needed = 0, uses_anonymous_args = 0
	str	lr, [sp, #-4]!
.LCFI13:
	.cfi_def_cfa_offset 4
	.cfi_offset 14, -4
	sub	sp, sp, #12
.LCFI14:
	.cfi_def_cfa_offset 16
	str	r0, [sp, #4]
	.loc 5 48 0
	ldr	r0, [sp, #4]
	bl	_ZN18CIwManagedRefCountD1Ev(PLT)
	ldr	r0, [sp, #4]
	bl	_ZdlPv(PLT)
	ldr	r3, [sp, #4]
	mov	r0, r3
	add	sp, sp, #12
	@ sp needed
	ldr	pc, [sp], #4
	.cfi_endproc
.LFE344:
	.size	_ZN18CIwManagedRefCountD0Ev, .-_ZN18CIwManagedRefCountD0Ev
	.section	.text._ZN11CIwResourceC2Ev,"axG",%progbits,_ZN11CIwResourceC5Ev,comdat
	.align	2
	.weak	_ZN11CIwResourceC2Ev
	.hidden	_ZN11CIwResourceC2Ev
	.type	_ZN11CIwResourceC2Ev, %function
_ZN11CIwResourceC2Ev:
.LFB345:
	.loc 5 98 0
	.cfi_startproc
	@ args = 0, pretend = 0, frame = 8
	@ frame_needed = 0, uses_anonymous_args = 0
	stmfd	sp!, {r4, lr}
.LCFI15:
	.cfi_def_cfa_offset 8
	.cfi_offset 4, -8
	.cfi_offset 14, -4
	sub	sp, sp, #8
.LCFI16:
	.cfi_def_cfa_offset 16
	str	r0, [sp, #4]
	ldr	r4, .L31
.LPIC2:
	add	r4, pc, r4
.LBB6:
	.loc 5 98 0
	ldr	r3, [sp, #4]
	mov	r0, r3
	bl	_ZN18CIwManagedRefCountC2Ev(PLT)
	ldr	r3, [sp, #4]
	ldr	r2, .L31+4
	ldr	r2, [r4, r2]
	add	r2, r2, #8
	str	r2, [r3]
.LBE6:
	ldr	r3, [sp, #4]
	mov	r0, r3
	add	sp, sp, #8
	@ sp needed
	ldmfd	sp!, {r4, pc}
.L32:
	.align	2
.L31:
	.word	_GLOBAL_OFFSET_TABLE_-(.LPIC2+8)
	.word	_ZTV11CIwResource(GOT)
	.cfi_endproc
.LFE345:
	.size	_ZN11CIwResourceC2Ev, .-_ZN11CIwResourceC2Ev
	.weak	_ZN11CIwResourceC1Ev
	.hidden	_ZN11CIwResourceC1Ev
	.set	_ZN11CIwResourceC1Ev,_ZN11CIwResourceC2Ev
	.section	.text._ZN11CIwResource10ApplyScaleEi,"axG",%progbits,_ZN11CIwResource10ApplyScaleEi,comdat
	.align	2
	.weak	_ZN11CIwResource10ApplyScaleEi
	.hidden	_ZN11CIwResource10ApplyScaleEi
	.type	_ZN11CIwResource10ApplyScaleEi, %function
_ZN11CIwResource10ApplyScaleEi:
.LFB347:
	.loc 5 101 0
	.cfi_startproc
	@ args = 0, pretend = 0, frame = 8
	@ frame_needed = 0, uses_anonymous_args = 0
	@ link register save eliminated.
	sub	sp, sp, #8
.LCFI17:
	.cfi_def_cfa_offset 8
	str	r0, [sp, #4]
	str	r1, [sp]
	.loc 5 101 0
	add	sp, sp, #8
	@ sp needed
	bx	lr
	.cfi_endproc
.LFE347:
	.size	_ZN11CIwResource10ApplyScaleEi, .-_ZN11CIwResource10ApplyScaleEi
	.section	.text._ZN11CIwResource10ApplyScaleEf,"axG",%progbits,_ZN11CIwResource10ApplyScaleEf,comdat
	.align	2
	.weak	_ZN11CIwResource10ApplyScaleEf
	.hidden	_ZN11CIwResource10ApplyScaleEf
	.type	_ZN11CIwResource10ApplyScaleEf, %function
_ZN11CIwResource10ApplyScaleEf:
.LFB348:
	.loc 5 103 0
	.cfi_startproc
	@ args = 0, pretend = 0, frame = 8
	@ frame_needed = 0, uses_anonymous_args = 0
	@ link register save eliminated.
	sub	sp, sp, #8
.LCFI18:
	.cfi_def_cfa_offset 8
	str	r0, [sp, #4]
	str	r1, [sp]	@ float
	.loc 5 103 0
	add	sp, sp, #8
	@ sp needed
	bx	lr
	.cfi_endproc
.LFE348:
	.size	_ZN11CIwResource10ApplyScaleEf, .-_ZN11CIwResource10ApplyScaleEf
	.section	.text._ZN11CIwResourceD2Ev,"axG",%progbits,_ZN11CIwResourceD5Ev,comdat
	.align	2
	.weak	_ZN11CIwResourceD2Ev
	.hidden	_ZN11CIwResourceD2Ev
	.type	_ZN11CIwResourceD2Ev, %function
_ZN11CIwResourceD2Ev:
.LFB384:
	.loc 5 93 0
	.cfi_startproc
	@ args = 0, pretend = 0, frame = 8
	@ frame_needed = 0, uses_anonymous_args = 0
	str	lr, [sp, #-4]!
.LCFI19:
	.cfi_def_cfa_offset 4
	.cfi_offset 14, -4
	sub	sp, sp, #12
.LCFI20:
	.cfi_def_cfa_offset 16
	str	r0, [sp, #4]
	ldr	r1, .L39
.LPIC3:
	add	r1, pc, r1
.LBB7:
	.loc 5 93 0
	ldr	r3, [sp, #4]
	ldr	r2, .L39+4
	ldr	r2, [r1, r2]
	add	r2, r2, #8
	str	r2, [r3]
	ldr	r3, [sp, #4]
	mov	r0, r3
	bl	_ZN18CIwManagedRefCountD2Ev(PLT)
.LBE7:
	mov	r3, #0
	cmp	r3, #0
	beq	.L37
	.loc 5 93 0 is_stmt 0 discriminator 1
	ldr	r0, [sp, #4]
	bl	_ZdlPv(PLT)
.L37:
	.loc 5 93 0 discriminator 2
	ldr	r3, [sp, #4]
	mov	r0, r3
	add	sp, sp, #12
	@ sp needed
	ldr	pc, [sp], #4
.L40:
	.align	2
.L39:
	.word	_GLOBAL_OFFSET_TABLE_-(.LPIC3+8)
	.word	_ZTV11CIwResource(GOT)
	.cfi_endproc
.LFE384:
	.size	_ZN11CIwResourceD2Ev, .-_ZN11CIwResourceD2Ev
	.weak	_ZN11CIwResourceD1Ev
	.hidden	_ZN11CIwResourceD1Ev
	.set	_ZN11CIwResourceD1Ev,_ZN11CIwResourceD2Ev
	.section	.text._ZN11CIwResourceD0Ev,"axG",%progbits,_ZN11CIwResourceD0Ev,comdat
	.align	2
	.weak	_ZN11CIwResourceD0Ev
	.hidden	_ZN11CIwResourceD0Ev
	.type	_ZN11CIwResourceD0Ev, %function
_ZN11CIwResourceD0Ev:
.LFB386:
	.loc 5 93 0 is_stmt 1
	.cfi_startproc
	@ args = 0, pretend = 0, frame = 8
	@ frame_needed = 0, uses_anonymous_args = 0
	str	lr, [sp, #-4]!
.LCFI21:
	.cfi_def_cfa_offset 4
	.cfi_offset 14, -4
	sub	sp, sp, #12
.LCFI22:
	.cfi_def_cfa_offset 16
	str	r0, [sp, #4]
	.loc 5 93 0
	ldr	r0, [sp, #4]
	bl	_ZN11CIwResourceD1Ev(PLT)
	ldr	r0, [sp, #4]
	bl	_ZdlPv(PLT)
	ldr	r3, [sp, #4]
	mov	r0, r3
	add	sp, sp, #12
	@ sp needed
	ldr	pc, [sp], #4
	.cfi_endproc
.LFE386:
	.size	_ZN11CIwResourceD0Ev, .-_ZN11CIwResourceD0Ev
	.section	.text._ZN15CIwChannelADPCMC2Ev,"axG",%progbits,_ZN15CIwChannelADPCMC5Ev,comdat
	.align	2
	.weak	_ZN15CIwChannelADPCMC2Ev
	.hidden	_ZN15CIwChannelADPCMC2Ev
	.type	_ZN15CIwChannelADPCMC2Ev, %function
_ZN15CIwChannelADPCMC2Ev:
.LFB1358:
	.file 6 "c:/stage4/modules/soundengine/h/IwSoundADPCM.h"
	.loc 6 55 0
	.cfi_startproc
	@ args = 0, pretend = 0, frame = 8
	@ frame_needed = 0, uses_anonymous_args = 0
	str	lr, [sp, #-4]!
.LCFI23:
	.cfi_def_cfa_offset 4
	.cfi_offset 14, -4
	sub	sp, sp, #12
.LCFI24:
	.cfi_def_cfa_offset 16
	str	r0, [sp, #4]
	ldr	r2, .L47
.LPIC4:
	add	r2, pc, r2
.LBB8:
	.loc 6 57 0
	ldr	r3, [sp, #4]
	mov	r1, #0
	str	r1, [r3]
	.loc 6 58 0
	ldr	r3, .L47+4
	ldr	r3, [r2, r3]
	ldr	r3, [r3]
	cmp	r3, #0
	bne	.L45
	.loc 6 59 0
	bl	_ZN15CIwChannelADPCM4InitEv(PLT)
.L45:
.LBE8:
	.loc 6 60 0
	ldr	r3, [sp, #4]
	mov	r0, r3
	add	sp, sp, #12
	@ sp needed
	ldr	pc, [sp], #4
.L48:
	.align	2
.L47:
	.word	_GLOBAL_OFFSET_TABLE_-(.LPIC4+8)
	.word	_ZN15CIwChannelADPCM13isInitializedE(GOT)
	.cfi_endproc
.LFE1358:
	.size	_ZN15CIwChannelADPCMC2Ev, .-_ZN15CIwChannelADPCMC2Ev
	.weak	_ZN15CIwChannelADPCMC1Ev
	.hidden	_ZN15CIwChannelADPCMC1Ev
	.set	_ZN15CIwChannelADPCMC1Ev,_ZN15CIwChannelADPCMC2Ev
	.section	.text._ZN12CIwSoundData14GetSampleCountEv,"axG",%progbits,_ZN12CIwSoundData14GetSampleCountEv,comdat
	.align	2
	.weak	_ZN12CIwSoundData14GetSampleCountEv
	.hidden	_ZN12CIwSoundData14GetSampleCountEv
	.type	_ZN12CIwSoundData14GetSampleCountEv, %function
_ZN12CIwSoundData14GetSampleCountEv:
.LFB1421:
	.file 7 "c:/stage4/modules/soundengine/h/IwSoundData.h"
	.loc 7 45 0
	.cfi_startproc
	@ args = 0, pretend = 0, frame = 8
	@ frame_needed = 0, uses_anonymous_args = 0
	@ link register save eliminated.
	sub	sp, sp, #8
.LCFI25:
	.cfi_def_cfa_offset 8
	str	r0, [sp, #4]
	.loc 7 45 0
	ldr	r3, [sp, #4]
	ldr	r3, [r3, #20]
	mov	r0, r3
	add	sp, sp, #8
	@ sp needed
	bx	lr
	.cfi_endproc
.LFE1421:
	.size	_ZN12CIwSoundData14GetSampleCountEv, .-_ZN12CIwSoundData14GetSampleCountEv
	.section	.text._ZNK12CIwSoundData7GetDataER8CIwArrayIa12CIwAllocatorIa15CIwMallocRouterIaEE17ReallocateDefaultIaS4_EE,"axG",%progbits,_ZNK12CIwSoundData7GetDataER8CIwArrayIa12CIwAllocatorIa15CIwMallocRouterIaEE17ReallocateDefaultIaS4_EE,comdat
	.align	2
	.weak	_ZNK12CIwSoundData7GetDataER8CIwArrayIa12CIwAllocatorIa15CIwMallocRouterIaEE17ReallocateDefaultIaS4_EE
	.hidden	_ZNK12CIwSoundData7GetDataER8CIwArrayIa12CIwAllocatorIa15CIwMallocRouterIaEE17ReallocateDefaultIaS4_EE
	.type	_ZNK12CIwSoundData7GetDataER8CIwArrayIa12CIwAllocatorIa15CIwMallocRouterIaEE17ReallocateDefaultIaS4_EE, %function
_ZNK12CIwSoundData7GetDataER8CIwArrayIa12CIwAllocatorIa15CIwMallocRouterIaEE17ReallocateDefaultIaS4_EE:
.LFB1423:
	.loc 7 54 0
	.cfi_startproc
	@ args = 0, pretend = 0, frame = 8
	@ frame_needed = 0, uses_anonymous_args = 0
	stmfd	sp!, {r4, r5, lr}
.LCFI26:
	.cfi_def_cfa_offset 12
	.cfi_offset 4, -12
	.cfi_offset 5, -8
	.cfi_offset 14, -4
	sub	sp, sp, #12
.LCFI27:
	.cfi_def_cfa_offset 24
	str	r0, [sp, #4]
	str	r1, [sp]
	.loc 7 54 0
	ldr	r3, [sp, #4]
	ldr	r5, [r3, #24]
	ldr	r0, [sp, #4]
	bl	_ZNK12CIwSoundData13GetBufferSizeEv(PLT)
	mov	r3, r0
	mov	r4, r3
	ldr	r0, [sp, #4]
	bl	_ZNK12CIwSoundData13GetBufferSizeEv(PLT)
	mov	r3, r0
	ldr	r0, [sp]
	mov	r1, r5
	mov	r2, r4
	bl	_ZN8CIwArrayIa12CIwAllocatorIa15CIwMallocRouterIaEE17ReallocateDefaultIaS3_EE5ShareEPaii(PLT)
	add	sp, sp, #12
	@ sp needed
	ldmfd	sp!, {r4, r5, pc}
	.cfi_endproc
.LFE1423:
	.size	_ZNK12CIwSoundData7GetDataER8CIwArrayIa12CIwAllocatorIa15CIwMallocRouterIaEE17ReallocateDefaultIaS4_EE, .-_ZNK12CIwSoundData7GetDataER8CIwArrayIa12CIwAllocatorIa15CIwMallocRouterIaEE17ReallocateDefaultIaS4_EE
	.section	.rodata
	.align	2
.LC0:
	.ascii	"_CIwSoundDataFactory\000"
	.section	.text._Z20_CIwSoundDataFactoryv,"ax",%progbits
	.align	2
	.global	_Z20_CIwSoundDataFactoryv
	.hidden	_Z20_CIwSoundDataFactoryv
	.type	_Z20_CIwSoundDataFactoryv, %function
_Z20_CIwSoundDataFactoryv:
.LFB1427:
	.file 8 "c:/Stage4/modules/soundengine/source/IwSoundData.cpp"
	.loc 8 24 0
	.cfi_startproc
	@ args = 0, pretend = 0, frame = 8
	@ frame_needed = 0, uses_anonymous_args = 0
	stmfd	sp!, {r4, lr}
.LCFI28:
	.cfi_def_cfa_offset 8
	.cfi_offset 4, -8
	.cfi_offset 14, -4
	sub	sp, sp, #8
.LCFI29:
	.cfi_def_cfa_offset 16
.LBB9:
	.loc 8 24 0
	add	r3, sp, #4
	mov	r0, r3
	ldr	r3, .L54
.LPIC5:
	add	r3, pc, r3
	mov	r1, r3
	bl	_ZN12CIwCallStackC1EPKc(PLT)
	mov	r0, #36
	bl	_Znwj(PLT)
	mov	r4, r0
	mov	r0, r4
	bl	_ZN12CIwSoundDataC1Ev(PLT)
	add	r3, sp, #4
	mov	r0, r3
	bl	_ZN12CIwCallStackD1Ev(PLT)
	mov	r3, r4
.LBE9:
	mov	r0, r3
	add	sp, sp, #8
	@ sp needed
	ldmfd	sp!, {r4, pc}
.L55:
	.align	2
.L54:
	.word	.LC0-(.LPIC5+8)
	.cfi_endproc
.LFE1427:
	.size	_Z20_CIwSoundDataFactoryv, .-_Z20_CIwSoundDataFactoryv
	.section	.text._Z20_GetCIwSoundDataSizev,"ax",%progbits
	.align	2
	.global	_Z20_GetCIwSoundDataSizev
	.hidden	_Z20_GetCIwSoundDataSizev
	.type	_Z20_GetCIwSoundDataSizev, %function
_Z20_GetCIwSoundDataSizev:
.LFB1428:
	.loc 8 24 0
	.cfi_startproc
	@ args = 0, pretend = 0, frame = 0
	@ frame_needed = 0, uses_anonymous_args = 0
	@ link register save eliminated.
	.loc 8 24 0
	mov	r3, #36
	mov	r0, r3
	bx	lr
	.cfi_endproc
.LFE1428:
	.size	_Z20_GetCIwSoundDataSizev, .-_Z20_GetCIwSoundDataSizev
	.section	.rodata
	.align	2
.LC1:
	.ascii	"CIwSoundData\000"
	.section	.text._ZNK12CIwSoundData12GetClassNameEv,"ax",%progbits
	.align	2
	.global	_ZNK12CIwSoundData12GetClassNameEv
	.hidden	_ZNK12CIwSoundData12GetClassNameEv
	.type	_ZNK12CIwSoundData12GetClassNameEv, %function
_ZNK12CIwSoundData12GetClassNameEv:
.LFB1429:
	.loc 8 25 0
	.cfi_startproc
	@ args = 0, pretend = 0, frame = 8
	@ frame_needed = 0, uses_anonymous_args = 0
	@ link register save eliminated.
	sub	sp, sp, #8
.LCFI30:
	.cfi_def_cfa_offset 8
	str	r0, [sp, #4]
	.loc 8 25 0
	ldr	r3, .L60
.LPIC6:
	add	r3, pc, r3
	mov	r0, r3
	add	sp, sp, #8
	@ sp needed
	bx	lr
.L61:
	.align	2
.L60:
	.word	.LC1-(.LPIC6+8)
	.cfi_endproc
.LFE1429:
	.size	_ZNK12CIwSoundData12GetClassNameEv, .-_ZNK12CIwSoundData12GetClassNameEv
	.section	.text._ZN12CIwSoundDataC2Ev,"ax",%progbits
	.align	2
	.global	_ZN12CIwSoundDataC2Ev
	.hidden	_ZN12CIwSoundDataC2Ev
	.type	_ZN12CIwSoundDataC2Ev, %function
_ZN12CIwSoundDataC2Ev:
.LFB1431:
	.loc 8 26 0
	.cfi_startproc
	@ args = 0, pretend = 0, frame = 8
	@ frame_needed = 0, uses_anonymous_args = 0
	str	lr, [sp, #-4]!
.LCFI31:
	.cfi_def_cfa_offset 4
	.cfi_offset 14, -4
	sub	sp, sp, #12
.LCFI32:
	.cfi_def_cfa_offset 16
	str	r0, [sp, #4]
.LBB10:
	.loc 8 32 0
	ldr	r3, [sp, #4]
	mov	r0, r3
	bl	_ZN11CIwResourceC2Ev(PLT)
	ldr	r3, [sp, #4]
	ldr	r2, .L65
.LPIC7:
	add	r2, pc, r2
	add	r2, r2, #8
	str	r2, [r3]
	ldr	r3, [sp, #4]
	mov	r2, #0
	str	r2, [r3, #16]
	ldr	r3, [sp, #4]
	mov	r2, #0
	str	r2, [r3, #20]
	ldr	r3, [sp, #4]
	mov	r2, #0
	str	r2, [r3, #24]
	ldr	r3, [sp, #4]
	ldr	r2, .L65+4
	str	r2, [r3, #28]
	ldr	r3, [sp, #4]
	mov	r2, #1
	str	r2, [r3, #32]
.LBE10:
	.loc 8 34 0
	ldr	r3, [sp, #4]
	mov	r0, r3
	add	sp, sp, #12
	@ sp needed
	ldr	pc, [sp], #4
.L66:
	.align	2
.L65:
	.word	_ZTV12CIwSoundData-(.LPIC7+8)
	.word	44100
	.cfi_endproc
.LFE1431:
	.size	_ZN12CIwSoundDataC2Ev, .-_ZN12CIwSoundDataC2Ev
	.global	_ZN12CIwSoundDataC1Ev
	.hidden	_ZN12CIwSoundDataC1Ev
	.set	_ZN12CIwSoundDataC1Ev,_ZN12CIwSoundDataC2Ev
	.section	.text._ZN12CIwSoundDataC2E17IwSoundDataFormatj,"ax",%progbits
	.align	2
	.global	_ZN12CIwSoundDataC2E17IwSoundDataFormatj
	.hidden	_ZN12CIwSoundDataC2E17IwSoundDataFormatj
	.type	_ZN12CIwSoundDataC2E17IwSoundDataFormatj, %function
_ZN12CIwSoundDataC2E17IwSoundDataFormatj:
.LFB1434:
	.loc 8 36 0
	.cfi_startproc
	@ args = 0, pretend = 0, frame = 16
	@ frame_needed = 0, uses_anonymous_args = 0
	str	lr, [sp, #-4]!
.LCFI33:
	.cfi_def_cfa_offset 4
	.cfi_offset 14, -4
	sub	sp, sp, #20
.LCFI34:
	.cfi_def_cfa_offset 24
	str	r0, [sp, #12]
	str	r1, [sp, #8]
	str	r2, [sp, #4]
.LBB11:
	.loc 8 42 0
	ldr	r3, [sp, #12]
	mov	r0, r3
	bl	_ZN11CIwResourceC2Ev(PLT)
	ldr	r3, [sp, #12]
	ldr	r2, .L70
.LPIC8:
	add	r2, pc, r2
	add	r2, r2, #8
	str	r2, [r3]
	ldr	r3, [sp, #12]
	mov	r2, #0
	str	r2, [r3, #16]
	ldr	r3, [sp, #12]
	mov	r2, #0
	str	r2, [r3, #20]
	ldr	r3, [sp, #12]
	mov	r2, #0
	str	r2, [r3, #24]
	ldr	r3, [sp, #12]
	ldr	r2, [sp, #4]
	str	r2, [r3, #28]
	ldr	r3, [sp, #12]
	ldr	r2, [sp, #8]
	str	r2, [r3, #32]
.LBE11:
	.loc 8 44 0
	ldr	r3, [sp, #12]
	mov	r0, r3
	add	sp, sp, #20
	@ sp needed
	ldr	pc, [sp], #4
.L71:
	.align	2
.L70:
	.word	_ZTV12CIwSoundData-(.LPIC8+8)
	.cfi_endproc
.LFE1434:
	.size	_ZN12CIwSoundDataC2E17IwSoundDataFormatj, .-_ZN12CIwSoundDataC2E17IwSoundDataFormatj
	.global	_ZN12CIwSoundDataC1E17IwSoundDataFormatj
	.hidden	_ZN12CIwSoundDataC1E17IwSoundDataFormatj
	.set	_ZN12CIwSoundDataC1E17IwSoundDataFormatj,_ZN12CIwSoundDataC2E17IwSoundDataFormatj
	.section	.text._ZN12CIwSoundDataD2Ev,"ax",%progbits
	.align	2
	.global	_ZN12CIwSoundDataD2Ev
	.hidden	_ZN12CIwSoundDataD2Ev
	.type	_ZN12CIwSoundDataD2Ev, %function
_ZN12CIwSoundDataD2Ev:
.LFB1437:
	.loc 8 46 0
	.cfi_startproc
	@ args = 0, pretend = 0, frame = 8
	@ frame_needed = 0, uses_anonymous_args = 0
	str	lr, [sp, #-4]!
.LCFI35:
	.cfi_def_cfa_offset 4
	.cfi_offset 14, -4
	sub	sp, sp, #12
.LCFI36:
	.cfi_def_cfa_offset 16
	str	r0, [sp, #4]
.LBB12:
	.loc 8 46 0
	ldr	r3, [sp, #4]
	ldr	r2, .L77
.LPIC9:
	add	r2, pc, r2
	add	r2, r2, #8
	str	r2, [r3]
	.loc 8 48 0
	ldr	r3, [sp, #4]
	ldr	r3, [r3, #24]
	cmp	r3, #0
	beq	.L73
	.loc 8 48 0 is_stmt 0 discriminator 1
	ldr	r3, [sp, #4]
	ldr	r3, [r3, #24]
	mov	r0, r3
	bl	_ZdaPv(PLT)
.L73:
	.loc 8 46 0 is_stmt 1
	ldr	r3, [sp, #4]
	.loc 8 49 0
	mov	r0, r3
	bl	_ZN11CIwResourceD2Ev(PLT)
.LBE12:
	mov	r3, #0
	cmp	r3, #0
	beq	.L75
	.loc 8 49 0 is_stmt 0 discriminator 1
	ldr	r0, [sp, #4]
	bl	_ZdlPv(PLT)
.L75:
	.loc 8 49 0 discriminator 2
	ldr	r3, [sp, #4]
	mov	r0, r3
	add	sp, sp, #12
	@ sp needed
	ldr	pc, [sp], #4
.L78:
	.align	2
.L77:
	.word	_ZTV12CIwSoundData-(.LPIC9+8)
	.cfi_endproc
.LFE1437:
	.size	_ZN12CIwSoundDataD2Ev, .-_ZN12CIwSoundDataD2Ev
	.global	_ZN12CIwSoundDataD1Ev
	.hidden	_ZN12CIwSoundDataD1Ev
	.set	_ZN12CIwSoundDataD1Ev,_ZN12CIwSoundDataD2Ev
	.section	.text._ZN12CIwSoundDataD0Ev,"ax",%progbits
	.align	2
	.global	_ZN12CIwSoundDataD0Ev
	.hidden	_ZN12CIwSoundDataD0Ev
	.type	_ZN12CIwSoundDataD0Ev, %function
_ZN12CIwSoundDataD0Ev:
.LFB1439:
	.loc 8 46 0 is_stmt 1
	.cfi_startproc
	@ args = 0, pretend = 0, frame = 8
	@ frame_needed = 0, uses_anonymous_args = 0
	str	lr, [sp, #-4]!
.LCFI37:
	.cfi_def_cfa_offset 4
	.cfi_offset 14, -4
	sub	sp, sp, #12
.LCFI38:
	.cfi_def_cfa_offset 16
	str	r0, [sp, #4]
	.loc 8 49 0
	ldr	r0, [sp, #4]
	bl	_ZN12CIwSoundDataD1Ev(PLT)
	ldr	r0, [sp, #4]
	bl	_ZdlPv(PLT)
	ldr	r3, [sp, #4]
	mov	r0, r3
	add	sp, sp, #12
	@ sp needed
	ldr	pc, [sp], #4
	.cfi_endproc
.LFE1439:
	.size	_ZN12CIwSoundDataD0Ev, .-_ZN12CIwSoundDataD0Ev
	.section	.text._ZN12CIwSoundData13SetBufferSizeEj,"ax",%progbits
	.align	2
	.global	_ZN12CIwSoundData13SetBufferSizeEj
	.hidden	_ZN12CIwSoundData13SetBufferSizeEj
	.type	_ZN12CIwSoundData13SetBufferSizeEj, %function
_ZN12CIwSoundData13SetBufferSizeEj:
.LFB1440:
	.loc 8 52 0
	.cfi_startproc
	@ args = 0, pretend = 0, frame = 8
	@ frame_needed = 0, uses_anonymous_args = 0
	str	lr, [sp, #-4]!
.LCFI39:
	.cfi_def_cfa_offset 4
	.cfi_offset 14, -4
	sub	sp, sp, #12
.LCFI40:
	.cfi_def_cfa_offset 16
	str	r0, [sp, #4]
	str	r1, [sp]
	.loc 8 54 0
	ldr	r3, [sp, #4]
	ldr	r2, [r3, #16]
	ldr	r3, [sp]
	cmp	r2, r3
	bne	.L83
	.loc 8 54 0 is_stmt 0 discriminator 1
	ldr	r3, [sp, #4]
	ldr	r3, [r3, #24]
	cmp	r3, #0
	beq	.L83
	.loc 8 55 0 is_stmt 1
	b	.L82
.L83:
	.loc 8 57 0
	ldr	r3, [sp, #4]
	ldr	r3, [r3, #24]
	cmp	r3, #0
	beq	.L85
	.loc 8 58 0
	ldr	r3, [sp, #4]
	ldr	r3, [r3, #24]
	mov	r0, r3
	bl	_ZdlPv(PLT)
.L85:
	.loc 8 61 0
	ldr	r3, [sp, #4]
	ldr	r2, [sp]
	str	r2, [r3, #20]
	.loc 8 63 0
	ldr	r3, [sp, #4]
	ldr	r3, [r3, #32]
	cmp	r3, #0
	beq	.L87
	cmp	r3, #2
	bne	.L90
	.loc 8 66 0
	ldr	r3, [sp]
	mov	r2, r3, asl #1
	ldr	r3, [sp, #4]
	str	r2, [r3, #20]
	.loc 8 67 0
	b	.L89
.L87:
	.loc 8 70 0
	ldr	r3, [sp, #4]
	ldr	r2, [sp]
	str	r2, [r3, #20]
	.loc 8 71 0
	b	.L89
.L90:
	.loc 8 74 0
	ldr	r3, [sp]
	mov	r2, r3, lsr #1
	ldr	r3, [sp, #4]
	str	r2, [r3, #20]
	.loc 8 75 0
	mov	r0, r0	@ nop
.L89:
	.loc 8 78 0
	ldr	r3, [sp, #4]
	ldr	r2, [sp]
	str	r2, [r3, #16]
	.loc 8 79 0
	ldr	r3, [sp, #4]
	ldr	r3, [r3, #16]
	mov	r0, r3
	bl	_Znaj(PLT)
	mov	r2, r0
	ldr	r3, [sp, #4]
	str	r2, [r3, #24]
.L82:
	.loc 8 80 0
	add	sp, sp, #12
	@ sp needed
	ldr	pc, [sp], #4
	.cfi_endproc
.LFE1440:
	.size	_ZN12CIwSoundData13SetBufferSizeEj, .-_ZN12CIwSoundData13SetBufferSizeEj
	.section	.text._ZNK12CIwSoundData13GetBufferSizeEv,"ax",%progbits
	.align	2
	.global	_ZNK12CIwSoundData13GetBufferSizeEv
	.hidden	_ZNK12CIwSoundData13GetBufferSizeEv
	.type	_ZNK12CIwSoundData13GetBufferSizeEv, %function
_ZNK12CIwSoundData13GetBufferSizeEv:
.LFB1441:
	.loc 8 83 0
	.cfi_startproc
	@ args = 0, pretend = 0, frame = 8
	@ frame_needed = 0, uses_anonymous_args = 0
	@ link register save eliminated.
	sub	sp, sp, #8
.LCFI41:
	.cfi_def_cfa_offset 8
	str	r0, [sp, #4]
	.loc 8 84 0
	ldr	r3, [sp, #4]
	ldr	r3, [r3, #16]
	.loc 8 85 0
	mov	r0, r3
	add	sp, sp, #8
	@ sp needed
	bx	lr
	.cfi_endproc
.LFE1441:
	.size	_ZNK12CIwSoundData13GetBufferSizeEv, .-_ZNK12CIwSoundData13GetBufferSizeEv
	.section	.text._ZN12CIwSoundData14SwitchDataSignEv,"ax",%progbits
	.align	2
	.global	_ZN12CIwSoundData14SwitchDataSignEv
	.hidden	_ZN12CIwSoundData14SwitchDataSignEv
	.type	_ZN12CIwSoundData14SwitchDataSignEv, %function
_ZN12CIwSoundData14SwitchDataSignEv:
.LFB1442:
	.loc 8 88 0
	.cfi_startproc
	@ args = 0, pretend = 0, frame = 32
	@ frame_needed = 0, uses_anonymous_args = 0
	str	lr, [sp, #-4]!
.LCFI42:
	.cfi_def_cfa_offset 4
	.cfi_offset 14, -4
	sub	sp, sp, #36
.LCFI43:
	.cfi_def_cfa_offset 40
	str	r0, [sp, #4]
.LBB13:
	.loc 8 89 0
	add	r3, sp, #12
	mov	r0, r3
	mov	r1, #0
	bl	_ZN8CIwArrayIa12CIwAllocatorIa15CIwMallocRouterIaEE17ReallocateDefaultIaS3_EEC1Ej(PLT)
	.loc 8 90 0
	add	r3, sp, #12
	ldr	r0, [sp, #4]
	mov	r1, r3
	bl	_ZNK12CIwSoundData7GetDataER8CIwArrayIa12CIwAllocatorIa15CIwMallocRouterIaEE17ReallocateDefaultIaS4_EE(PLT)
.LBB14:
	.loc 8 91 0
	mov	r3, #0
	str	r3, [sp, #28]
	b	.L94
.L95:
	.loc 8 92 0 discriminator 2
	ldr	r3, [sp, #28]
	add	r2, sp, #12
	mov	r0, r2
	mov	r1, r3
	bl	_ZNK8CIwArrayIa12CIwAllocatorIa15CIwMallocRouterIaEE17ReallocateDefaultIaS3_EEixEi(PLT)
	mov	r3, r0
	ldrb	r2, [r3]	@ zero_extendqisi2
	uxtb	r2, r2
	sub	r2, r2, #128
	uxtb	r2, r2
	uxtb	r2, r2
	strb	r2, [r3]
	.loc 8 91 0 discriminator 2
	ldr	r3, [sp, #28]
	add	r3, r3, #1
	str	r3, [sp, #28]
.L94:
	.loc 8 91 0 is_stmt 0 discriminator 1
	add	r3, sp, #12
	mov	r0, r3
	bl	_ZNK8CIwArrayIa12CIwAllocatorIa15CIwMallocRouterIaEE17ReallocateDefaultIaS3_EE4sizeEv(PLT)
	mov	r2, r0
	ldr	r3, [sp, #28]
	cmp	r2, r3
	movls	r3, #0
	movhi	r3, #1
	uxtb	r3, r3
	cmp	r3, #0
	bne	.L95
.LBE14:
	.loc 8 92 0 is_stmt 1
	add	r3, sp, #12
	mov	r0, r3
	bl	_ZN8CIwArrayIa12CIwAllocatorIa15CIwMallocRouterIaEE17ReallocateDefaultIaS3_EED1Ev(PLT)
.LBE13:
	.loc 8 93 0
	add	sp, sp, #36
	@ sp needed
	ldr	pc, [sp], #4
	.cfi_endproc
.LFE1442:
	.size	_ZN12CIwSoundData14SwitchDataSignEv, .-_ZN12CIwSoundData14SwitchDataSignEv
	.section	.rodata
	.align	2
.LC2:
	.ascii	"CIwSoundData::Serialise\000"
	.section	.text._ZN12CIwSoundData9SerialiseEv,"ax",%progbits
	.align	2
	.global	_ZN12CIwSoundData9SerialiseEv
	.hidden	_ZN12CIwSoundData9SerialiseEv
	.type	_ZN12CIwSoundData9SerialiseEv, %function
_ZN12CIwSoundData9SerialiseEv:
.LFB1443:
	.loc 8 96 0
	.cfi_startproc
	@ args = 0, pretend = 0, frame = 16
	@ frame_needed = 0, uses_anonymous_args = 0
	stmfd	sp!, {r4, lr}
.LCFI44:
	.cfi_def_cfa_offset 8
	.cfi_offset 4, -8
	.cfi_offset 14, -4
	sub	sp, sp, #16
.LCFI45:
	.cfi_def_cfa_offset 24
	str	r0, [sp, #4]
.LBB15:
	.loc 8 97 0
	add	r3, sp, #12
	mov	r0, r3
	ldr	r3, .L97
.LPIC10:
	add	r3, pc, r3
	mov	r1, r3
	bl	_ZN12CIwCallStackC1EPKc(PLT)
	.loc 8 99 0
	ldr	r3, [sp, #4]
	mov	r0, r3
	bl	_ZN10CIwManaged9SerialiseEv(PLT)
	.loc 8 101 0
	ldr	r3, [sp, #4]
	add	r2, r3, #16
	.file 9 "c:/marmalade/7.5/modules/iwutil/h/IwSerialise.h"
	.loc 9 316 0
	mov	r3, #32
	.loc 8 101 0
	mov	r0, r2
	mov	r1, #1
	mov	r2, r3
	mov	r3, #4
	bl	_Z17IwSerialiseUInt32Rjiii(PLT)
	.loc 8 102 0
	ldr	r3, [sp, #4]
	ldr	r3, [r3, #16]
	ldr	r0, [sp, #4]
	mov	r1, r3
	bl	_ZN12CIwSoundData13SetBufferSizeEj(PLT)
	.loc 8 104 0
	ldr	r3, [sp, #4]
	add	r2, r3, #20
	.loc 9 316 0
	mov	r3, #32
	.loc 8 104 0
	mov	r0, r2
	mov	r1, #1
	mov	r2, r3
	mov	r3, #4
	bl	_Z17IwSerialiseUInt32Rjiii(PLT)
	.loc 8 105 0
	ldr	r3, [sp, #4]
	ldr	r4, [r3, #24]
	ldr	r0, [sp, #4]
	bl	_ZNK12CIwSoundData13GetBufferSizeEv(PLT)
	mov	r3, r0
	mov	r2, r3
	.loc 9 371 0
	mov	r3, #8
	sub	r3, r3, #1
	.loc 8 105 0
	mov	r0, r4
	mov	r1, r2
	mov	r2, r3
	mov	r3, #1
	bl	_Z15IwSerialiseInt8Raiii(PLT)
	.loc 8 107 0
	ldr	r3, [sp, #4]
	add	r2, r3, #28
	.loc 9 316 0
	mov	r3, #32
	.loc 8 107 0
	mov	r0, r2
	mov	r1, #1
	mov	r2, r3
	mov	r3, #4
	bl	_Z17IwSerialiseUInt32Rjiii(PLT)
	.loc 8 108 0
	ldr	r3, [sp, #4]
	add	r2, r3, #32
	.loc 9 338 0
	mov	r3, #16
	.loc 8 108 0
	mov	r0, r2
	mov	r1, #1
	mov	r2, r3
	mov	r3, #2
	bl	_Z17IwSerialiseUInt16Rtiii(PLT)
	add	r3, sp, #12
	mov	r0, r3
	bl	_ZN12CIwCallStackD1Ev(PLT)
.LBE15:
	.loc 8 109 0
	add	sp, sp, #16
	@ sp needed
	ldmfd	sp!, {r4, pc}
.L98:
	.align	2
.L97:
	.word	.LC2-(.LPIC10+8)
	.cfi_endproc
.LFE1443:
	.size	_ZN12CIwSoundData9SerialiseEv, .-_ZN12CIwSoundData9SerialiseEv
	.section	.rodata
	.align	2
.LC3:
	.ascii	"_CIwSoundDataADPCMFactory\000"
	.section	.text._Z25_CIwSoundDataADPCMFactoryv,"ax",%progbits
	.align	2
	.global	_Z25_CIwSoundDataADPCMFactoryv
	.hidden	_Z25_CIwSoundDataADPCMFactoryv
	.type	_Z25_CIwSoundDataADPCMFactoryv, %function
_Z25_CIwSoundDataADPCMFactoryv:
.LFB1444:
	.loc 8 112 0
	.cfi_startproc
	@ args = 0, pretend = 0, frame = 8
	@ frame_needed = 0, uses_anonymous_args = 0
	stmfd	sp!, {r4, lr}
.LCFI46:
	.cfi_def_cfa_offset 8
	.cfi_offset 4, -8
	.cfi_offset 14, -4
	sub	sp, sp, #8
.LCFI47:
	.cfi_def_cfa_offset 16
.LBB16:
	.loc 8 112 0
	add	r3, sp, #4
	mov	r0, r3
	ldr	r3, .L101
.LPIC11:
	add	r3, pc, r3
	mov	r1, r3
	bl	_ZN12CIwCallStackC1EPKc(PLT)
	mov	r0, #44
	bl	_Znwj(PLT)
	mov	r4, r0
	mov	r0, r4
	bl	_ZN17CIwSoundDataADPCMC1Ev(PLT)
	add	r3, sp, #4
	mov	r0, r3
	bl	_ZN12CIwCallStackD1Ev(PLT)
	mov	r3, r4
.LBE16:
	mov	r0, r3
	add	sp, sp, #8
	@ sp needed
	ldmfd	sp!, {r4, pc}
.L102:
	.align	2
.L101:
	.word	.LC3-(.LPIC11+8)
	.cfi_endproc
.LFE1444:
	.size	_Z25_CIwSoundDataADPCMFactoryv, .-_Z25_CIwSoundDataADPCMFactoryv
	.section	.text._Z25_GetCIwSoundDataADPCMSizev,"ax",%progbits
	.align	2
	.global	_Z25_GetCIwSoundDataADPCMSizev
	.hidden	_Z25_GetCIwSoundDataADPCMSizev
	.type	_Z25_GetCIwSoundDataADPCMSizev, %function
_Z25_GetCIwSoundDataADPCMSizev:
.LFB1445:
	.loc 8 112 0
	.cfi_startproc
	@ args = 0, pretend = 0, frame = 0
	@ frame_needed = 0, uses_anonymous_args = 0
	@ link register save eliminated.
	.loc 8 112 0
	mov	r3, #44
	mov	r0, r3
	bx	lr
	.cfi_endproc
.LFE1445:
	.size	_Z25_GetCIwSoundDataADPCMSizev, .-_Z25_GetCIwSoundDataADPCMSizev
	.section	.rodata
	.align	2
.LC4:
	.ascii	"CIwSoundDataADPCM\000"
	.section	.text._ZNK17CIwSoundDataADPCM12GetClassNameEv,"ax",%progbits
	.align	2
	.global	_ZNK17CIwSoundDataADPCM12GetClassNameEv
	.hidden	_ZNK17CIwSoundDataADPCM12GetClassNameEv
	.type	_ZNK17CIwSoundDataADPCM12GetClassNameEv, %function
_ZNK17CIwSoundDataADPCM12GetClassNameEv:
.LFB1446:
	.loc 8 114 0
	.cfi_startproc
	@ args = 0, pretend = 0, frame = 8
	@ frame_needed = 0, uses_anonymous_args = 0
	@ link register save eliminated.
	sub	sp, sp, #8
.LCFI48:
	.cfi_def_cfa_offset 8
	str	r0, [sp, #4]
	.loc 8 114 0
	ldr	r3, .L107
.LPIC12:
	add	r3, pc, r3
	mov	r0, r3
	add	sp, sp, #8
	@ sp needed
	bx	lr
.L108:
	.align	2
.L107:
	.word	.LC4-(.LPIC12+8)
	.cfi_endproc
.LFE1446:
	.size	_ZNK17CIwSoundDataADPCM12GetClassNameEv, .-_ZNK17CIwSoundDataADPCM12GetClassNameEv
	.section	.text._ZN17CIwSoundDataADPCMC2Ev,"ax",%progbits
	.align	2
	.global	_ZN17CIwSoundDataADPCMC2Ev
	.hidden	_ZN17CIwSoundDataADPCMC2Ev
	.type	_ZN17CIwSoundDataADPCMC2Ev, %function
_ZN17CIwSoundDataADPCMC2Ev:
.LFB1448:
	.loc 8 115 0
	.cfi_startproc
	@ args = 0, pretend = 0, frame = 8
	@ frame_needed = 0, uses_anonymous_args = 0
	str	lr, [sp, #-4]!
.LCFI49:
	.cfi_def_cfa_offset 4
	.cfi_offset 14, -4
	sub	sp, sp, #12
.LCFI50:
	.cfi_def_cfa_offset 16
	str	r0, [sp, #4]
.LBB17:
	.loc 8 117 0
	ldr	r3, [sp, #4]
	mov	r0, r3
	bl	_ZN12CIwSoundDataC2Ev(PLT)
	ldr	r3, [sp, #4]
	ldr	r2, .L112
.LPIC13:
	add	r2, pc, r2
	add	r2, r2, #8
	str	r2, [r3]
	ldr	r3, [sp, #4]
	mov	r2, #0
	str	r2, [r3, #36]
	ldr	r3, [sp, #4]
	mov	r2, #0
	str	r2, [r3, #40]
.LBE17:
	.loc 8 119 0
	ldr	r3, [sp, #4]
	mov	r0, r3
	add	sp, sp, #12
	@ sp needed
	ldr	pc, [sp], #4
.L113:
	.align	2
.L112:
	.word	_ZTV17CIwSoundDataADPCM-(.LPIC13+8)
	.cfi_endproc
.LFE1448:
	.size	_ZN17CIwSoundDataADPCMC2Ev, .-_ZN17CIwSoundDataADPCMC2Ev
	.global	_ZN17CIwSoundDataADPCMC1Ev
	.hidden	_ZN17CIwSoundDataADPCMC1Ev
	.set	_ZN17CIwSoundDataADPCMC1Ev,_ZN17CIwSoundDataADPCMC2Ev
	.section	.text._ZN17CIwSoundDataADPCMC2E17IwSoundDataFormatjjj,"ax",%progbits
	.align	2
	.global	_ZN17CIwSoundDataADPCMC2E17IwSoundDataFormatjjj
	.hidden	_ZN17CIwSoundDataADPCMC2E17IwSoundDataFormatjjj
	.type	_ZN17CIwSoundDataADPCMC2E17IwSoundDataFormatjjj, %function
_ZN17CIwSoundDataADPCMC2E17IwSoundDataFormatjjj:
.LFB1451:
	.loc 8 121 0
	.cfi_startproc
	@ args = 4, pretend = 0, frame = 16
	@ frame_needed = 0, uses_anonymous_args = 0
	str	lr, [sp, #-4]!
.LCFI51:
	.cfi_def_cfa_offset 4
	.cfi_offset 14, -4
	sub	sp, sp, #20
.LCFI52:
	.cfi_def_cfa_offset 24
	str	r0, [sp, #12]
	str	r1, [sp, #8]
	str	r2, [sp, #4]
	str	r3, [sp]
.LBB18:
	.loc 8 125 0
	ldr	r3, [sp, #12]
	mov	r0, r3
	ldr	r1, [sp, #8]
	ldr	r2, [sp, #4]
	bl	_ZN12CIwSoundDataC2E17IwSoundDataFormatj(PLT)
	ldr	r3, [sp, #12]
	ldr	r2, .L117
.LPIC14:
	add	r2, pc, r2
	add	r2, r2, #8
	str	r2, [r3]
	ldr	r3, [sp, #12]
	ldr	r2, [sp]
	str	r2, [r3, #36]
	ldr	r3, [sp, #12]
	ldr	r2, [sp, #24]
	str	r2, [r3, #40]
.LBE18:
	.loc 8 127 0
	ldr	r3, [sp, #12]
	mov	r0, r3
	add	sp, sp, #20
	@ sp needed
	ldr	pc, [sp], #4
.L118:
	.align	2
.L117:
	.word	_ZTV17CIwSoundDataADPCM-(.LPIC14+8)
	.cfi_endproc
.LFE1451:
	.size	_ZN17CIwSoundDataADPCMC2E17IwSoundDataFormatjjj, .-_ZN17CIwSoundDataADPCMC2E17IwSoundDataFormatjjj
	.global	_ZN17CIwSoundDataADPCMC1E17IwSoundDataFormatjjj
	.hidden	_ZN17CIwSoundDataADPCMC1E17IwSoundDataFormatjjj
	.set	_ZN17CIwSoundDataADPCMC1E17IwSoundDataFormatjjj,_ZN17CIwSoundDataADPCMC2E17IwSoundDataFormatjjj
	.section	.rodata
	.align	2
.LC5:
	.ascii	"RIFF\244\374\000\000WAVEfmt \020\000\000\000\001\000"
	.ascii	"\001\000@\037\000\000\200>\000\000\002\000\020\000d"
	.ascii	"ata\200\374\000\000\000"
	.section	.text._ZN17CIwSoundDataADPCM9SerialiseEv,"ax",%progbits
	.align	2
	.global	_ZN17CIwSoundDataADPCM9SerialiseEv
	.hidden	_ZN17CIwSoundDataADPCM9SerialiseEv
	.type	_ZN17CIwSoundDataADPCM9SerialiseEv, %function
_ZN17CIwSoundDataADPCM9SerialiseEv:
.LFB1453:
	.loc 8 130 0
	.cfi_startproc
	@ args = 0, pretend = 0, frame = 1456
	@ frame_needed = 0, uses_anonymous_args = 0
	stmfd	sp!, {r4, lr}
.LCFI53:
	.cfi_def_cfa_offset 8
	.cfi_offset 4, -8
	.cfi_offset 14, -4
	sub	sp, sp, #1456
.LCFI54:
	.cfi_def_cfa_offset 1464
	str	r0, [sp, #4]
	ldr	r4, .L125
.LPIC15:
	add	r4, pc, r4
.LBB19:
	.loc 8 131 0
	ldr	r3, [sp, #4]
	mov	r0, r3
	bl	_ZN12CIwSoundData9SerialiseEv(PLT)
	.loc 8 132 0
	ldr	r3, [sp, #4]
	add	r2, r3, #36
	.loc 9 316 0
	mov	r3, #32
	.loc 8 132 0
	mov	r0, r2
	mov	r1, #1
	mov	r2, r3
	mov	r3, #4
	bl	_Z17IwSerialiseUInt32Rjiii(PLT)
	.loc 8 133 0
	ldr	r3, [sp, #4]
	add	r2, r3, #40
	.loc 9 316 0
	mov	r3, #32
	.loc 8 133 0
	mov	r0, r2
	mov	r1, #1
	mov	r2, r3
	mov	r3, #4
	bl	_Z17IwSerialiseUInt32Rjiii(PLT)
.LBB20:
	.loc 8 137 0
	ldr	r3, .L125+4
	ldr	r3, [r4, r3]
	ldrb	r3, [r3]	@ zero_extendqisi2
	cmp	r3, #0
	beq	.L120
	.loc 8 137 0 is_stmt 0 discriminator 1
	mov	r0, #5
	bl	s3eSoundGetInt(PLT)
	mov	r3, r0
	cmp	r3, #123
	bne	.L120
	.loc 8 137 0 discriminator 3
	mov	r3, #1
	b	.L121
.L120:
	.loc 8 137 0 discriminator 2
	mov	r3, #0
.L121:
	.loc 8 137 0 discriminator 4
	cmp	r3, #0
	beq	.L119
.LBB21:
.LBB22:
	.loc 8 139 0 is_stmt 1
	ldr	r3, [sp, #4]
	ldr	r3, [r3, #32]
	cmp	r3, #2
	bne	.L123
.LBB23:
	.loc 8 141 0
	mov	r3, #44
	str	r3, [sp, #1452]
	.loc 8 143 0
	ldr	r3, [sp, #4]
	mov	r0, r3
	bl	_ZN12CIwSoundData14GetSampleCountEv(PLT)
	mov	r3, r0
	add	r3, r3, #22
	mov	r3, r3, asl #1
	mov	r0, r3
	bl	_Znaj(PLT)
	str	r0, [sp, #1448]
	.loc 8 145 0
	ldr	r3, [sp, #1448]
	str	r3, [sp, #1444]
	.loc 8 146 0
	ldr	r3, [sp, #1444]
	add	r3, r3, #44
	str	r3, [sp, #1440]
	.loc 8 148 0
	add	r3, sp, #96
	sub	r3, r3, #4
	mov	r0, r3
	bl	_ZN15CIwChannelADPCMC1Ev(PLT)
	.loc 8 151 0
	mov	r3, #0
	str	r3, [sp, #12]
	.loc 8 152 0
	mov	r3, #0
	strb	r3, [sp, #40]
	.loc 8 153 0
	mov	r3, #0
	str	r3, [sp, #24]
	.loc 8 154 0
	ldr	r3, [sp, #4]
	mov	r0, r3
	bl	_ZN12CIwSoundData14GetSampleCountEv(PLT)
	mov	r3, r0
	str	r3, [sp, #20]
	.loc 8 155 0
	ldr	r3, [sp, #4]
	mov	r0, r3
	bl	_ZNK12CIwSoundData13GetBufferSizeEv(PLT)
	mov	r3, r0
	mov	r3, r3, lsr #1
	str	r3, [sp, #32]
	.loc 8 156 0
	mov	r3, #0
	str	r3, [sp, #36]
	.loc 8 157 0
	ldr	r3, [sp, #4]
	ldr	r3, [r3, #24]
	str	r3, [sp, #28]
	.loc 8 158 0
	ldr	r3, [sp, #1440]
	str	r3, [sp, #16]
	.loc 8 160 0
	ldr	r3, [sp, #12]
	mov	r0, r3
	bl	s3eSoundChannelStop(PLT)
	.loc 8 165 0
	ldr	r2, [sp, #12]
	ldr	r3, [sp, #4]
	mov	r0, r2
	mov	r1, #2
	mov	r2, r3
	bl	s3eSoundChannelSetInt(PLT)
	.loc 8 167 0
	ldr	r4, [sp, #12]
	mov	r0, #1
	bl	s3eSoundGetInt(PLT)
	mov	r3, r0
	mov	r0, r4
	mov	r1, #1
	mov	r2, r3
	bl	s3eSoundChannelSetInt(PLT)
	.loc 8 168 0
	ldr	r3, [sp, #12]
	mov	r0, r3
	mov	r1, #3
	mov	r2, #256
	bl	s3eSoundChannelSetInt(PLT)
	.loc 8 170 0
	add	r2, sp, #96
	sub	r2, r2, #4
	add	r3, sp, #16
	sub	r3, r3, #4
	mov	r0, r2
	mov	r1, r3
	bl	_ZN15CIwChannelADPCM13GenerateAudioEP20s3eSoundGenAudioInfo(PLT)
	str	r0, [sp, #1436]
	.loc 8 173 0
	ldr	r3, [sp, #1436]
	str	r3, [sp, #1432]
	.loc 8 174 0
	ldr	r3, [sp, #1436]
	add	r3, r3, #22
	mov	r3, r3, asl #1
	str	r3, [sp, #1428]
.LBB24:
	.loc 8 178 0
	ldr	r3, .L125+8
.LPIC16:
	add	r3, pc, r3
	add	ip, sp, #48
	sub	ip, ip, #4
	mov	lr, r3
	ldmia	lr!, {r0, r1, r2, r3}
	stmia	ip!, {r0, r1, r2, r3}
	ldmia	lr!, {r0, r1, r2, r3}
	stmia	ip!, {r0, r1, r2, r3}
	ldmia	lr, {r0, r1, r2, r3}
	stmia	ip!, {r0, r1, r2}
	strb	r3, [ip]
	.loc 8 179 0
	ldr	r3, [sp, #4]
	ldr	r3, [r3, #28]
	str	r3, [sp, #1424]
	.loc 8 180 0
	ldr	r3, [sp, #1432]
	mov	r3, r3, asl #1
	str	r3, [sp, #1420]
	.loc 8 182 0
	add	r3, sp, #48
	sub	r3, r3, #4
	ldr	r0, [sp, #1444]
	mov	r1, r3
	mov	r2, #44
	bl	memcpy(PLT)
	.loc 8 184 0
	ldr	r3, [sp, #1420]
	add	r3, r3, #36
	str	r3, [sp, #1416]
	.loc 8 185 0
	ldr	r3, [sp, #1444]
	add	r3, r3, #4
	ldr	r2, [sp, #1416]
	uxtb	r2, r2
	strb	r2, [r3]
	.loc 8 186 0
	ldr	r3, [sp, #1444]
	add	r3, r3, #5
	ldr	r2, [sp, #1416]
	mov	r2, r2, asr #8
	uxtb	r2, r2
	strb	r2, [r3]
	.loc 8 187 0
	ldr	r3, [sp, #1444]
	add	r3, r3, #6
	ldr	r2, [sp, #1416]
	mov	r2, r2, asr #16
	uxtb	r2, r2
	strb	r2, [r3]
	.loc 8 188 0
	ldr	r3, [sp, #1444]
	add	r3, r3, #7
	ldr	r2, [sp, #1416]
	mov	r2, r2, lsr #24
	uxtb	r2, r2
	strb	r2, [r3]
	.loc 8 190 0
	ldr	r3, [sp, #1444]
	add	r3, r3, #34
	mov	r2, #16
	strb	r2, [r3]
	.loc 8 191 0
	ldr	r3, [sp, #1444]
	add	r3, r3, #22
	mov	r2, #1
	strb	r2, [r3]
	.loc 8 193 0
	ldr	r3, [sp, #1444]
	add	r3, r3, #24
	ldr	r2, [sp, #1424]
	uxtb	r2, r2
	strb	r2, [r3]
	.loc 8 194 0
	ldr	r3, [sp, #1444]
	add	r3, r3, #25
	ldr	r2, [sp, #1424]
	mov	r2, r2, asr #8
	uxtb	r2, r2
	strb	r2, [r3]
	.loc 8 195 0
	ldr	r3, [sp, #1444]
	add	r3, r3, #26
	ldr	r2, [sp, #1424]
	mov	r2, r2, asr #16
	uxtb	r2, r2
	strb	r2, [r3]
	.loc 8 196 0
	ldr	r3, [sp, #1444]
	add	r3, r3, #27
	ldr	r2, [sp, #1424]
	mov	r2, r2, lsr #24
	uxtb	r2, r2
	strb	r2, [r3]
	.loc 8 198 0
	ldr	r3, [sp, #1444]
	add	r3, r3, #40
	ldr	r2, [sp, #1420]
	uxtb	r2, r2
	strb	r2, [r3]
	.loc 8 199 0
	ldr	r3, [sp, #1444]
	add	r3, r3, #41
	ldr	r2, [sp, #1420]
	mov	r2, r2, asr #8
	uxtb	r2, r2
	strb	r2, [r3]
	.loc 8 200 0
	ldr	r3, [sp, #1444]
	add	r3, r3, #42
	ldr	r2, [sp, #1420]
	mov	r2, r2, asr #16
	uxtb	r2, r2
	strb	r2, [r3]
	.loc 8 201 0
	ldr	r3, [sp, #1444]
	add	r3, r3, #43
	ldr	r2, [sp, #1420]
	mov	r2, r2, lsr #24
	uxtb	r2, r2
	strb	r2, [r3]
.LBE24:
	.loc 8 215 0
	ldr	r3, [sp, #4]
	ldr	r3, [r3, #24]
	cmp	r3, #0
	beq	.L124
	.loc 8 215 0 is_stmt 0 discriminator 1
	ldr	r3, [sp, #4]
	ldr	r3, [r3, #24]
	mov	r0, r3
	bl	_ZdaPv(PLT)
.L124:
	.loc 8 216 0 is_stmt 1 discriminator 1
	ldr	r3, [sp, #4]
	ldr	r2, [sp, #1448]
	str	r2, [r3, #24]
	.loc 8 218 0 discriminator 1
	ldr	r2, [sp, #1428]
	ldr	r3, [sp, #4]
	str	r2, [r3, #16]
	.loc 8 219 0 discriminator 1
	ldr	r2, [sp, #1432]
	ldr	r3, [sp, #4]
	str	r2, [r3, #20]
	.loc 8 220 0 discriminator 1
	ldr	r3, [sp, #4]
	mov	r2, #1
	str	r2, [r3, #32]
.L123:
.L119:
.LBE23:
.LBE22:
.LBE21:
.LBE20:
.LBE19:
	.loc 8 223 0
	add	sp, sp, #1456
	@ sp needed
	ldmfd	sp!, {r4, pc}
.L126:
	.align	2
.L125:
	.word	_GLOBAL_OFFSET_TABLE_-(.LPIC15+8)
	.word	g_IwSerialiseContext(GOT)
	.word	.LC5-(.LPIC16+8)
	.cfi_endproc
.LFE1453:
	.size	_ZN17CIwSoundDataADPCM9SerialiseEv, .-_ZN17CIwSoundDataADPCM9SerialiseEv
	.section	.text._ZN8CIwArrayIa12CIwAllocatorIa15CIwMallocRouterIaEE17ReallocateDefaultIaS3_EE5ShareEPaii,"axG",%progbits,_ZN8CIwArrayIa12CIwAllocatorIa15CIwMallocRouterIaEE17ReallocateDefaultIaS3_EE5ShareEPaii,comdat
	.align	2
	.weak	_ZN8CIwArrayIa12CIwAllocatorIa15CIwMallocRouterIaEE17ReallocateDefaultIaS3_EE5ShareEPaii
	.hidden	_ZN8CIwArrayIa12CIwAllocatorIa15CIwMallocRouterIaEE17ReallocateDefaultIaS3_EE5ShareEPaii
	.type	_ZN8CIwArrayIa12CIwAllocatorIa15CIwMallocRouterIaEE17ReallocateDefaultIaS3_EE5ShareEPaii, %function
_ZN8CIwArrayIa12CIwAllocatorIa15CIwMallocRouterIaEE17ReallocateDefaultIaS3_EE5ShareEPaii:
.LFB1522:
	.file 10 "c:/marmalade/7.5/modules/iwutil/h/IwArray.h"
	.loc 10 741 0
	.cfi_startproc
	@ args = 0, pretend = 0, frame = 16
	@ frame_needed = 0, uses_anonymous_args = 0
	str	lr, [sp, #-4]!
.LCFI55:
	.cfi_def_cfa_offset 4
	.cfi_offset 14, -4
	sub	sp, sp, #20
.LCFI56:
	.cfi_def_cfa_offset 24
	str	r0, [sp, #12]
	str	r1, [sp, #8]
	str	r2, [sp, #4]
	str	r3, [sp]
	.loc 10 743 0
	ldr	r3, [sp, #12]
	ldrb	r3, [r3, #12]
	and	r3, r3, #1
	uxtb	r3, r3
	eor	r3, r3, #1
	uxtb	r3, r3
	cmp	r3, #0
	beq	.L128
	.loc 10 744 0
	ldr	r0, [sp, #12]
	bl	_ZN8CIwArrayIa12CIwAllocatorIa15CIwMallocRouterIaEE17ReallocateDefaultIaS3_EE15clear_optimisedEv(PLT)
.L128:
	.loc 10 745 0
	ldr	r3, [sp, #12]
	ldr	r2, [sp, #8]
	str	r2, [r3]
	.loc 10 746 0
	ldr	r2, [sp, #4]
	ldr	r3, [sp, #12]
	str	r2, [r3, #4]
	.loc 10 747 0
	ldr	r2, [sp]
	ldr	r3, [sp, #12]
	str	r2, [r3, #8]
	.loc 10 748 0
	ldr	r2, [sp, #12]
	ldrb	r3, [r2, #12]
	orr	r3, r3, #1
	strb	r3, [r2, #12]
	.loc 10 749 0
	add	sp, sp, #20
	@ sp needed
	ldr	pc, [sp], #4
	.cfi_endproc
.LFE1522:
	.size	_ZN8CIwArrayIa12CIwAllocatorIa15CIwMallocRouterIaEE17ReallocateDefaultIaS3_EE5ShareEPaii, .-_ZN8CIwArrayIa12CIwAllocatorIa15CIwMallocRouterIaEE17ReallocateDefaultIaS3_EE5ShareEPaii
	.section	.text._ZN8CIwArrayIa12CIwAllocatorIa15CIwMallocRouterIaEE17ReallocateDefaultIaS3_EEC2Ej,"axG",%progbits,_ZN8CIwArrayIa12CIwAllocatorIa15CIwMallocRouterIaEE17ReallocateDefaultIaS3_EEC5Ej,comdat
	.align	2
	.weak	_ZN8CIwArrayIa12CIwAllocatorIa15CIwMallocRouterIaEE17ReallocateDefaultIaS3_EEC2Ej
	.hidden	_ZN8CIwArrayIa12CIwAllocatorIa15CIwMallocRouterIaEE17ReallocateDefaultIaS3_EEC2Ej
	.type	_ZN8CIwArrayIa12CIwAllocatorIa15CIwMallocRouterIaEE17ReallocateDefaultIaS3_EEC2Ej, %function
_ZN8CIwArrayIa12CIwAllocatorIa15CIwMallocRouterIaEE17ReallocateDefaultIaS3_EEC2Ej:
.LFB1524:
	.loc 10 131 0
	.cfi_startproc
	@ args = 0, pretend = 0, frame = 8
	@ frame_needed = 0, uses_anonymous_args = 0
	str	lr, [sp, #-4]!
.LCFI57:
	.cfi_def_cfa_offset 4
	.cfi_offset 14, -4
	sub	sp, sp, #12
.LCFI58:
	.cfi_def_cfa_offset 16
	str	r0, [sp, #4]
	str	r1, [sp]
.LBB25:
	.loc 10 131 0
	ldr	r3, [sp, #4]
	mov	r2, #0
	str	r2, [r3]
	ldr	r3, [sp, #4]
	mov	r2, #0
	str	r2, [r3, #4]
	ldr	r3, [sp, #4]
	mov	r2, #0
	str	r2, [r3, #8]
	ldr	r2, [sp, #4]
	ldrb	r3, [r2, #12]
	bic	r3, r3, #1
	strb	r3, [r2, #12]
	ldr	r2, [sp, #4]
	ldrb	r3, [r2, #12]
	bic	r3, r3, #2
	strb	r3, [r2, #12]
	.loc 10 133 0
	ldr	r0, [sp, #4]
	ldr	r1, [sp]
	bl	_ZN8CIwArrayIa12CIwAllocatorIa15CIwMallocRouterIaEE17ReallocateDefaultIaS3_EE6resizeEj(PLT)
	.loc 10 134 0
	ldr	r0, [sp, #4]
	bl	_ZN8CIwArrayIa12CIwAllocatorIa15CIwMallocRouterIaEE17ReallocateDefaultIaS3_EE5clearEv(PLT)
.LBE25:
	.loc 10 135 0
	ldr	r3, [sp, #4]
	mov	r0, r3
	add	sp, sp, #12
	@ sp needed
	ldr	pc, [sp], #4
	.cfi_endproc
.LFE1524:
	.size	_ZN8CIwArrayIa12CIwAllocatorIa15CIwMallocRouterIaEE17ReallocateDefaultIaS3_EEC2Ej, .-_ZN8CIwArrayIa12CIwAllocatorIa15CIwMallocRouterIaEE17ReallocateDefaultIaS3_EEC2Ej
	.weak	_ZN8CIwArrayIa12CIwAllocatorIa15CIwMallocRouterIaEE17ReallocateDefaultIaS3_EEC1Ej
	.hidden	_ZN8CIwArrayIa12CIwAllocatorIa15CIwMallocRouterIaEE17ReallocateDefaultIaS3_EEC1Ej
	.set	_ZN8CIwArrayIa12CIwAllocatorIa15CIwMallocRouterIaEE17ReallocateDefaultIaS3_EEC1Ej,_ZN8CIwArrayIa12CIwAllocatorIa15CIwMallocRouterIaEE17ReallocateDefaultIaS3_EEC2Ej
	.section	.text._ZN8CIwArrayIa12CIwAllocatorIa15CIwMallocRouterIaEE17ReallocateDefaultIaS3_EED2Ev,"axG",%progbits,_ZN8CIwArrayIa12CIwAllocatorIa15CIwMallocRouterIaEE17ReallocateDefaultIaS3_EED5Ev,comdat
	.align	2
	.weak	_ZN8CIwArrayIa12CIwAllocatorIa15CIwMallocRouterIaEE17ReallocateDefaultIaS3_EED2Ev
	.hidden	_ZN8CIwArrayIa12CIwAllocatorIa15CIwMallocRouterIaEE17ReallocateDefaultIaS3_EED2Ev
	.type	_ZN8CIwArrayIa12CIwAllocatorIa15CIwMallocRouterIaEE17ReallocateDefaultIaS3_EED2Ev, %function
_ZN8CIwArrayIa12CIwAllocatorIa15CIwMallocRouterIaEE17ReallocateDefaultIaS3_EED2Ev:
.LFB1527:
	.loc 10 137 0
	.cfi_startproc
	@ args = 0, pretend = 0, frame = 16
	@ frame_needed = 0, uses_anonymous_args = 0
	str	lr, [sp, #-4]!
.LCFI59:
	.cfi_def_cfa_offset 4
	.cfi_offset 14, -4
	sub	sp, sp, #20
.LCFI60:
	.cfi_def_cfa_offset 24
	str	r0, [sp, #4]
.LBB26:
.LBB27:
.LBB28:
	.loc 10 139 0
	mov	r3, #0
	str	r3, [sp, #12]
	b	.L133
.L134:
	.loc 10 139 0 is_stmt 0 discriminator 2
	ldr	r3, [sp, #12]
	add	r3, r3, #1
	str	r3, [sp, #12]
.L133:
	.loc 10 139 0 discriminator 1
	ldr	r3, [sp, #4]
	ldr	r2, [r3, #4]
	ldr	r3, [sp, #12]
	cmp	r2, r3
	bhi	.L134
.LBE28:
	.loc 10 141 0 is_stmt 1
	ldr	r3, [sp, #4]
	ldrb	r3, [r3, #12]
	and	r3, r3, #1
	uxtb	r3, r3
	eor	r3, r3, #1
	uxtb	r3, r3
	cmp	r3, #0
	beq	.L135
	.loc 10 143 0
	ldr	r3, [sp, #4]
	add	r1, r3, #13
	ldr	r3, [sp, #4]
	ldr	r2, [r3]
	ldr	r3, [sp, #4]
	ldr	r3, [r3, #4]
	mov	r0, r1
	mov	r1, r2
	mov	r2, r3
	bl	_ZN12CIwAllocatorIa15CIwMallocRouterIaEE10deallocateEPaj(PLT)
	.loc 10 144 0
	ldr	r3, [sp, #4]
	mov	r2, #0
	str	r2, [r3]
.L135:
.LBE27:
.LBE26:
	.loc 10 146 0
	ldr	r3, [sp, #4]
	mov	r0, r3
	add	sp, sp, #20
	@ sp needed
	ldr	pc, [sp], #4
	.cfi_endproc
.LFE1527:
	.size	_ZN8CIwArrayIa12CIwAllocatorIa15CIwMallocRouterIaEE17ReallocateDefaultIaS3_EED2Ev, .-_ZN8CIwArrayIa12CIwAllocatorIa15CIwMallocRouterIaEE17ReallocateDefaultIaS3_EED2Ev
	.weak	_ZN8CIwArrayIa12CIwAllocatorIa15CIwMallocRouterIaEE17ReallocateDefaultIaS3_EED1Ev
	.hidden	_ZN8CIwArrayIa12CIwAllocatorIa15CIwMallocRouterIaEE17ReallocateDefaultIaS3_EED1Ev
	.set	_ZN8CIwArrayIa12CIwAllocatorIa15CIwMallocRouterIaEE17ReallocateDefaultIaS3_EED1Ev,_ZN8CIwArrayIa12CIwAllocatorIa15CIwMallocRouterIaEE17ReallocateDefaultIaS3_EED2Ev
	.section	.text._ZNK8CIwArrayIa12CIwAllocatorIa15CIwMallocRouterIaEE17ReallocateDefaultIaS3_EE4sizeEv,"axG",%progbits,_ZNK8CIwArrayIa12CIwAllocatorIa15CIwMallocRouterIaEE17ReallocateDefaultIaS3_EE4sizeEv,comdat
	.align	2
	.weak	_ZNK8CIwArrayIa12CIwAllocatorIa15CIwMallocRouterIaEE17ReallocateDefaultIaS3_EE4sizeEv
	.hidden	_ZNK8CIwArrayIa12CIwAllocatorIa15CIwMallocRouterIaEE17ReallocateDefaultIaS3_EE4sizeEv
	.type	_ZNK8CIwArrayIa12CIwAllocatorIa15CIwMallocRouterIaEE17ReallocateDefaultIaS3_EE4sizeEv, %function
_ZNK8CIwArrayIa12CIwAllocatorIa15CIwMallocRouterIaEE17ReallocateDefaultIaS3_EE4sizeEv:
.LFB1529:
	.loc 10 113 0
	.cfi_startproc
	@ args = 0, pretend = 0, frame = 8
	@ frame_needed = 0, uses_anonymous_args = 0
	@ link register save eliminated.
	sub	sp, sp, #8
.LCFI61:
	.cfi_def_cfa_offset 8
	str	r0, [sp, #4]
	.loc 10 113 0
	ldr	r3, [sp, #4]
	ldr	r3, [r3, #4]
	mov	r0, r3
	add	sp, sp, #8
	@ sp needed
	bx	lr
	.cfi_endproc
.LFE1529:
	.size	_ZNK8CIwArrayIa12CIwAllocatorIa15CIwMallocRouterIaEE17ReallocateDefaultIaS3_EE4sizeEv, .-_ZNK8CIwArrayIa12CIwAllocatorIa15CIwMallocRouterIaEE17ReallocateDefaultIaS3_EE4sizeEv
	.section	.rodata
	.align	2
.LC6:
	.ascii	"CORE\000"
	.align	2
.LC7:
	.ascii	"invalid index (%d) into array of size %u\000"
	.align	2
.LC8:
	.ascii	"i>=0 && index<num_p\000"
	.align	2
.LC9:
	.ascii	"c:/marmalade/7.5/modules/iwutil/h/IwArray.h\000"
	.section	.text._ZNK8CIwArrayIa12CIwAllocatorIa15CIwMallocRouterIaEE17ReallocateDefaultIaS3_EEixEi,"axG",%progbits,_ZNK8CIwArrayIa12CIwAllocatorIa15CIwMallocRouterIaEE17ReallocateDefaultIaS3_EEixEi,comdat
	.align	2
	.weak	_ZNK8CIwArrayIa12CIwAllocatorIa15CIwMallocRouterIaEE17ReallocateDefaultIaS3_EEixEi
	.hidden	_ZNK8CIwArrayIa12CIwAllocatorIa15CIwMallocRouterIaEE17ReallocateDefaultIaS3_EEixEi
	.type	_ZNK8CIwArrayIa12CIwAllocatorIa15CIwMallocRouterIaEE17ReallocateDefaultIaS3_EEixEi, %function
_ZNK8CIwArrayIa12CIwAllocatorIa15CIwMallocRouterIaEE17ReallocateDefaultIaS3_EEixEi:
.LFB1530:
	.loc 10 712 0
	.cfi_startproc
	@ args = 0, pretend = 0, frame = 16
	@ frame_needed = 0, uses_anonymous_args = 0
	str	lr, [sp, #-4]!
.LCFI62:
	.cfi_def_cfa_offset 4
	.cfi_offset 14, -4
	sub	sp, sp, #20
.LCFI63:
	.cfi_def_cfa_offset 24
	str	r0, [sp, #4]
	str	r1, [sp]
.LBB29:
	.loc 10 714 0
	ldr	r3, [sp]
	str	r3, [sp, #12]
.LBB30:
.LBB31:
	.loc 10 715 0
	ldr	r3, [sp]
	cmp	r3, #0
	blt	.L140
	.loc 10 715 0 is_stmt 0 discriminator 2
	ldr	r3, [sp, #4]
	ldr	r2, [r3, #4]
	ldr	r3, [sp, #12]
	cmp	r2, r3
	bhi	.L141
.L140:
	.loc 10 715 0 discriminator 1
	ldr	r3, .L150
.LPIC17:
	add	r3, pc, r3
	mov	r0, r3
	bl	IwDebugAssertIsChannelOn(PLT)
	mov	r3, r0
	cmp	r3, #0
	beq	.L141
	.loc 10 715 0 discriminator 3
	ldr	r3, .L150+4
.LPIC18:
	add	r3, pc, r3
	ldrb	r3, [r3]	@ zero_extendqisi2
	cmp	r3, #0
	bne	.L141
	.loc 10 715 0 discriminator 4
	mov	r3, #1
	b	.L142
.L141:
	.loc 10 715 0 discriminator 1
	mov	r3, #0
.L142:
	.loc 10 715 0 discriminator 5
	cmp	r3, #0
	beq	.L143
	.loc 10 715 0 discriminator 6
	mov	r0, #0
	bl	IwDebugAssertSetSolution(PLT)
	ldr	r0, .L150+8
	bl	IwDebugAssertSetUID(PLT)
	ldr	r3, [sp, #4]
	ldr	r3, [r3, #4]
	ldr	r2, .L150+12
.LPIC19:
	add	r2, pc, r2
	mov	r0, r2
	ldr	r1, [sp]
	mov	r2, r3
	bl	IwDebugAssertSetMessage(PLT)
	ldr	r3, .L150+16
.LPIC20:
	add	r3, pc, r3
	mov	r0, r3
	ldr	r3, .L150+20
.LPIC21:
	add	r3, pc, r3
	mov	r1, r3
	ldr	r2, .L150+24
	mov	r3, #1
	bl	IwDebugAssertShow(PLT)
	mov	r3, r0
	cmp	r3, #1
	beq	.L145
	cmp	r3, #2
	beq	.L146
	.loc 10 715 0
	b	.L144
.L145:
	.loc 10 715 0 discriminator 2
	bl	s3eDebugIsDebuggerPresent(PLT)
	mov	r3, r0
	cmp	r3, #0
	moveq	r3, #0
	movne	r3, #1
	uxtb	r3, r3
	cmp	r3, #0
	beq	.L147
	.loc 10 715 0 discriminator 1
	bl	s3eDebugIsDebuggerPresent(PLT)
	mov	r3, r0
	cmp	r3, #0
	moveq	r3, #0
	movne	r3, #1
	uxtb	r3, r3
	cmp	r3, #0
	beq	.L148
	mvn	r3, #11
	mov	r2, #0
	str	r2, [r3]
	b	.L148
.L147:
	.loc 10 715 0 discriminator 2
	bl	_ZL11IwDebugExitv(PLT)
	b	.L144
.L148:
	.loc 10 715 0 discriminator 1
	b	.L144
.L146:
	.loc 10 715 0 discriminator 3
	ldr	r3, .L150+28
.LPIC22:
	add	r3, pc, r3
	mov	r2, #1
	strb	r2, [r3]
	mov	r0, r0	@ nop
.L144:
	.loc 10 715 0 discriminator 1
	mov	r0, #0
	bl	IwDebugAssertSetUID(PLT)
.L143:
.LBE31:
.LBE30:
	.loc 10 716 0 is_stmt 1
	ldr	r3, [sp, #4]
	ldr	r2, [r3]
	ldr	r3, [sp, #12]
	add	r3, r2, r3
.LBE29:
	.loc 10 717 0
	mov	r0, r3
	add	sp, sp, #20
	@ sp needed
	ldr	pc, [sp], #4
.L151:
	.align	2
.L150:
	.word	.LC6-(.LPIC17+8)
	.word	_ZZNK8CIwArrayIa12CIwAllocatorIa15CIwMallocRouterIaEE17ReallocateDefaultIaS3_EEixEiE21_s_IwAssertIgnoreThis-(.LPIC18+8)
	.word	1731
	.word	.LC7-(.LPIC19+8)
	.word	.LC8-(.LPIC20+8)
	.word	.LC9-(.LPIC21+8)
	.word	715
	.word	_ZZNK8CIwArrayIa12CIwAllocatorIa15CIwMallocRouterIaEE17ReallocateDefaultIaS3_EEixEiE21_s_IwAssertIgnoreThis-(.LPIC22+8)
	.cfi_endproc
.LFE1530:
	.size	_ZNK8CIwArrayIa12CIwAllocatorIa15CIwMallocRouterIaEE17ReallocateDefaultIaS3_EEixEi, .-_ZNK8CIwArrayIa12CIwAllocatorIa15CIwMallocRouterIaEE17ReallocateDefaultIaS3_EEixEi
	.section	.text._ZN8CIwArrayIa12CIwAllocatorIa15CIwMallocRouterIaEE17ReallocateDefaultIaS3_EE15clear_optimisedEv,"axG",%progbits,_ZN8CIwArrayIa12CIwAllocatorIa15CIwMallocRouterIaEE17ReallocateDefaultIaS3_EE15clear_optimisedEv,comdat
	.align	2
	.weak	_ZN8CIwArrayIa12CIwAllocatorIa15CIwMallocRouterIaEE17ReallocateDefaultIaS3_EE15clear_optimisedEv
	.hidden	_ZN8CIwArrayIa12CIwAllocatorIa15CIwMallocRouterIaEE17ReallocateDefaultIaS3_EE15clear_optimisedEv
	.type	_ZN8CIwArrayIa12CIwAllocatorIa15CIwMallocRouterIaEE17ReallocateDefaultIaS3_EE15clear_optimisedEv, %function
_ZN8CIwArrayIa12CIwAllocatorIa15CIwMallocRouterIaEE17ReallocateDefaultIaS3_EE15clear_optimisedEv:
.LFB1559:
	.loc 10 209 0
	.cfi_startproc
	@ args = 0, pretend = 0, frame = 8
	@ frame_needed = 0, uses_anonymous_args = 0
	str	lr, [sp, #-4]!
.LCFI64:
	.cfi_def_cfa_offset 4
	.cfi_offset 14, -4
	sub	sp, sp, #12
.LCFI65:
	.cfi_def_cfa_offset 16
	str	r0, [sp, #4]
	.loc 10 211 0
	ldr	r0, [sp, #4]
	mov	r1, #0
	bl	_ZN8CIwArrayIa12CIwAllocatorIa15CIwMallocRouterIaEE17ReallocateDefaultIaS3_EE8truncateEj(PLT)
	.loc 10 212 0
	ldr	r0, [sp, #4]
	mov	r1, #0
	bl	_ZN8CIwArrayIa12CIwAllocatorIa15CIwMallocRouterIaEE17ReallocateDefaultIaS3_EE12set_capacityEj(PLT)
	.loc 10 213 0
	add	sp, sp, #12
	@ sp needed
	ldr	pc, [sp], #4
	.cfi_endproc
.LFE1559:
	.size	_ZN8CIwArrayIa12CIwAllocatorIa15CIwMallocRouterIaEE17ReallocateDefaultIaS3_EE15clear_optimisedEv, .-_ZN8CIwArrayIa12CIwAllocatorIa15CIwMallocRouterIaEE17ReallocateDefaultIaS3_EE15clear_optimisedEv
	.section	.text._ZN8CIwArrayIa12CIwAllocatorIa15CIwMallocRouterIaEE17ReallocateDefaultIaS3_EE6resizeEj,"axG",%progbits,_ZN8CIwArrayIa12CIwAllocatorIa15CIwMallocRouterIaEE17ReallocateDefaultIaS3_EE6resizeEj,comdat
	.align	2
	.weak	_ZN8CIwArrayIa12CIwAllocatorIa15CIwMallocRouterIaEE17ReallocateDefaultIaS3_EE6resizeEj
	.hidden	_ZN8CIwArrayIa12CIwAllocatorIa15CIwMallocRouterIaEE17ReallocateDefaultIaS3_EE6resizeEj
	.type	_ZN8CIwArrayIa12CIwAllocatorIa15CIwMallocRouterIaEE17ReallocateDefaultIaS3_EE6resizeEj, %function
_ZN8CIwArrayIa12CIwAllocatorIa15CIwMallocRouterIaEE17ReallocateDefaultIaS3_EE6resizeEj:
.LFB1560:
	.loc 10 292 0
	.cfi_startproc
	@ args = 0, pretend = 0, frame = 8
	@ frame_needed = 0, uses_anonymous_args = 0
	str	lr, [sp, #-4]!
.LCFI66:
	.cfi_def_cfa_offset 4
	.cfi_offset 14, -4
	sub	sp, sp, #12
.LCFI67:
	.cfi_def_cfa_offset 16
	str	r0, [sp, #4]
	str	r1, [sp]
	.loc 10 294 0
	ldr	r3, [sp, #4]
	ldr	r2, [r3, #4]
	ldr	r3, [sp]
	cmp	r2, r3
	bcc	.L154
	.loc 10 295 0
	ldr	r0, [sp, #4]
	ldr	r1, [sp]
	bl	_ZN8CIwArrayIa12CIwAllocatorIa15CIwMallocRouterIaEE17ReallocateDefaultIaS3_EE8truncateEj(PLT)
	b	.L153
.L154:
	.loc 10 297 0
	ldr	r3, [sp, #4]
	ldr	r3, [r3, #4]
	ldr	r2, [sp]
	rsb	r3, r3, r2
	ldr	r0, [sp, #4]
	mov	r1, r3
	bl	_ZN8CIwArrayIa12CIwAllocatorIa15CIwMallocRouterIaEE17ReallocateDefaultIaS3_EE13push_back_qtyEi(PLT)
.L153:
	.loc 10 298 0
	add	sp, sp, #12
	@ sp needed
	ldr	pc, [sp], #4
	.cfi_endproc
.LFE1560:
	.size	_ZN8CIwArrayIa12CIwAllocatorIa15CIwMallocRouterIaEE17ReallocateDefaultIaS3_EE6resizeEj, .-_ZN8CIwArrayIa12CIwAllocatorIa15CIwMallocRouterIaEE17ReallocateDefaultIaS3_EE6resizeEj
	.section	.text._ZN8CIwArrayIa12CIwAllocatorIa15CIwMallocRouterIaEE17ReallocateDefaultIaS3_EE5clearEv,"axG",%progbits,_ZN8CIwArrayIa12CIwAllocatorIa15CIwMallocRouterIaEE17ReallocateDefaultIaS3_EE5clearEv,comdat
	.align	2
	.weak	_ZN8CIwArrayIa12CIwAllocatorIa15CIwMallocRouterIaEE17ReallocateDefaultIaS3_EE5clearEv
	.hidden	_ZN8CIwArrayIa12CIwAllocatorIa15CIwMallocRouterIaEE17ReallocateDefaultIaS3_EE5clearEv
	.type	_ZN8CIwArrayIa12CIwAllocatorIa15CIwMallocRouterIaEE17ReallocateDefaultIaS3_EE5clearEv, %function
_ZN8CIwArrayIa12CIwAllocatorIa15CIwMallocRouterIaEE17ReallocateDefaultIaS3_EE5clearEv:
.LFB1561:
	.loc 10 199 0
	.cfi_startproc
	@ args = 0, pretend = 0, frame = 8
	@ frame_needed = 0, uses_anonymous_args = 0
	str	lr, [sp, #-4]!
.LCFI68:
	.cfi_def_cfa_offset 4
	.cfi_offset 14, -4
	sub	sp, sp, #12
.LCFI69:
	.cfi_def_cfa_offset 16
	str	r0, [sp, #4]
	.loc 10 201 0
	ldr	r0, [sp, #4]
	mov	r1, #0
	bl	_ZN8CIwArrayIa12CIwAllocatorIa15CIwMallocRouterIaEE17ReallocateDefaultIaS3_EE8truncateEj(PLT)
	.loc 10 202 0
	add	sp, sp, #12
	@ sp needed
	ldr	pc, [sp], #4
	.cfi_endproc
.LFE1561:
	.size	_ZN8CIwArrayIa12CIwAllocatorIa15CIwMallocRouterIaEE17ReallocateDefaultIaS3_EE5clearEv, .-_ZN8CIwArrayIa12CIwAllocatorIa15CIwMallocRouterIaEE17ReallocateDefaultIaS3_EE5clearEv
	.section	.text._ZN12CIwAllocatorIa15CIwMallocRouterIaEE10deallocateEPaj,"axG",%progbits,_ZN12CIwAllocatorIa15CIwMallocRouterIaEE10deallocateEPaj,comdat
	.align	2
	.weak	_ZN12CIwAllocatorIa15CIwMallocRouterIaEE10deallocateEPaj
	.hidden	_ZN12CIwAllocatorIa15CIwMallocRouterIaEE10deallocateEPaj
	.type	_ZN12CIwAllocatorIa15CIwMallocRouterIaEE10deallocateEPaj, %function
_ZN12CIwAllocatorIa15CIwMallocRouterIaEE10deallocateEPaj:
.LFB1562:
	.file 11 "c:/marmalade/7.5/modules/iwutil/h/IwAllocator.h"
	.loc 11 147 0
	.cfi_startproc
	@ args = 0, pretend = 0, frame = 16
	@ frame_needed = 0, uses_anonymous_args = 0
	str	lr, [sp, #-4]!
.LCFI70:
	.cfi_def_cfa_offset 4
	.cfi_offset 14, -4
	sub	sp, sp, #20
.LCFI71:
	.cfi_def_cfa_offset 24
	str	r0, [sp, #12]
	str	r1, [sp, #8]
	str	r2, [sp, #4]
	.loc 11 147 0
	ldr	r0, [sp, #8]
	bl	_ZN15CIwMallocRouterIaE6DoFreeEPv(PLT)
	add	sp, sp, #20
	@ sp needed
	ldr	pc, [sp], #4
	.cfi_endproc
.LFE1562:
	.size	_ZN12CIwAllocatorIa15CIwMallocRouterIaEE10deallocateEPaj, .-_ZN12CIwAllocatorIa15CIwMallocRouterIaEE10deallocateEPaj
	.section	.rodata
	.align	2
.LC10:
	.ascii	"q<=num_p\000"
	.section	.text._ZN8CIwArrayIa12CIwAllocatorIa15CIwMallocRouterIaEE17ReallocateDefaultIaS3_EE8truncateEj,"axG",%progbits,_ZN8CIwArrayIa12CIwAllocatorIa15CIwMallocRouterIaEE17ReallocateDefaultIaS3_EE8truncateEj,comdat
	.align	2
	.weak	_ZN8CIwArrayIa12CIwAllocatorIa15CIwMallocRouterIaEE17ReallocateDefaultIaS3_EE8truncateEj
	.hidden	_ZN8CIwArrayIa12CIwAllocatorIa15CIwMallocRouterIaEE17ReallocateDefaultIaS3_EE8truncateEj
	.type	_ZN8CIwArrayIa12CIwAllocatorIa15CIwMallocRouterIaEE17ReallocateDefaultIaS3_EE8truncateEj, %function
_ZN8CIwArrayIa12CIwAllocatorIa15CIwMallocRouterIaEE17ReallocateDefaultIaS3_EE8truncateEj:
.LFB1576:
	.loc 10 783 0
	.cfi_startproc
	@ args = 0, pretend = 0, frame = 16
	@ frame_needed = 0, uses_anonymous_args = 0
	str	lr, [sp, #-4]!
.LCFI72:
	.cfi_def_cfa_offset 4
	.cfi_offset 14, -4
	sub	sp, sp, #20
.LCFI73:
	.cfi_def_cfa_offset 24
	str	r0, [sp, #4]
	str	r1, [sp]
.LBB32:
.LBB33:
.LBB34:
	.loc 10 785 0
	ldr	r3, [sp, #4]
	ldr	r2, [r3, #4]
	ldr	r3, [sp]
	cmp	r2, r3
	bcs	.L159
	.loc 10 785 0 is_stmt 0 discriminator 1
	ldr	r3, .L169
.LPIC23:
	add	r3, pc, r3
	mov	r0, r3
	bl	IwDebugAssertIsChannelOn(PLT)
	mov	r3, r0
	cmp	r3, #0
	beq	.L159
	.loc 10 785 0 discriminator 3
	ldr	r3, .L169+4
.LPIC24:
	add	r3, pc, r3
	ldrb	r3, [r3]	@ zero_extendqisi2
	cmp	r3, #0
	bne	.L159
	.loc 10 785 0 discriminator 4
	mov	r3, #1
	b	.L160
.L159:
	.loc 10 785 0 discriminator 2
	mov	r3, #0
.L160:
	.loc 10 785 0 discriminator 5
	cmp	r3, #0
	beq	.L161
	.loc 10 785 0 discriminator 6
	mov	r0, #0
	bl	IwDebugAssertSetSolution(PLT)
	mov	r0, #0
	bl	IwDebugAssertSetUID(PLT)
	mov	r0, #0
	bl	IwDebugAssertSetMessage(PLT)
	ldr	r3, .L169+8
.LPIC25:
	add	r3, pc, r3
	mov	r0, r3
	ldr	r3, .L169+12
.LPIC26:
	add	r3, pc, r3
	mov	r1, r3
	ldr	r2, .L169+16
	mov	r3, #1
	bl	IwDebugAssertShow(PLT)
	mov	r3, r0
	cmp	r3, #1
	beq	.L163
	cmp	r3, #2
	beq	.L164
	.loc 10 785 0
	b	.L162
.L163:
	.loc 10 785 0 discriminator 2
	bl	s3eDebugIsDebuggerPresent(PLT)
	mov	r3, r0
	cmp	r3, #0
	moveq	r3, #0
	movne	r3, #1
	uxtb	r3, r3
	cmp	r3, #0
	beq	.L165
	.loc 10 785 0 discriminator 1
	bl	s3eDebugIsDebuggerPresent(PLT)
	mov	r3, r0
	cmp	r3, #0
	moveq	r3, #0
	movne	r3, #1
	uxtb	r3, r3
	cmp	r3, #0
	beq	.L166
	mvn	r3, #11
	mov	r2, #0
	str	r2, [r3]
	b	.L166
.L165:
	.loc 10 785 0 discriminator 2
	bl	_ZL11IwDebugExitv(PLT)
	b	.L162
.L166:
	.loc 10 785 0 discriminator 1
	b	.L162
.L164:
	.loc 10 785 0 discriminator 3
	ldr	r3, .L169+20
.LPIC27:
	add	r3, pc, r3
	mov	r2, #1
	strb	r2, [r3]
	mov	r0, r0	@ nop
.L162:
	.loc 10 785 0 discriminator 1
	mov	r0, #0
	bl	IwDebugAssertSetUID(PLT)
.L161:
.LBE34:
.LBE33:
.LBB35:
	.loc 10 787 0 is_stmt 1
	ldr	r3, [sp]
	str	r3, [sp, #12]
	b	.L167
.L168:
	.loc 10 787 0 is_stmt 0 discriminator 2
	ldr	r3, [sp, #12]
	add	r3, r3, #1
	str	r3, [sp, #12]
.L167:
	.loc 10 787 0 discriminator 1
	ldr	r3, [sp, #4]
	ldr	r2, [r3, #4]
	ldr	r3, [sp, #12]
	cmp	r2, r3
	bhi	.L168
.LBE35:
	.loc 10 789 0 is_stmt 1
	ldr	r3, [sp, #4]
	ldr	r2, [sp]
	str	r2, [r3, #4]
.LBE32:
	.loc 10 790 0
	add	sp, sp, #20
	@ sp needed
	ldr	pc, [sp], #4
.L170:
	.align	2
.L169:
	.word	.LC6-(.LPIC23+8)
	.word	_ZZN8CIwArrayIa12CIwAllocatorIa15CIwMallocRouterIaEE17ReallocateDefaultIaS3_EE8truncateEjE21_s_IwAssertIgnoreThis-(.LPIC24+8)
	.word	.LC10-(.LPIC25+8)
	.word	.LC9-(.LPIC26+8)
	.word	785
	.word	_ZZN8CIwArrayIa12CIwAllocatorIa15CIwMallocRouterIaEE17ReallocateDefaultIaS3_EE8truncateEjE21_s_IwAssertIgnoreThis-(.LPIC27+8)
	.cfi_endproc
.LFE1576:
	.size	_ZN8CIwArrayIa12CIwAllocatorIa15CIwMallocRouterIaEE17ReallocateDefaultIaS3_EE8truncateEj, .-_ZN8CIwArrayIa12CIwAllocatorIa15CIwMallocRouterIaEE17ReallocateDefaultIaS3_EE8truncateEj
	.section	.rodata
	.align	2
.LC11:
	.ascii	"Attempting to change capacity of an array that does"
	.ascii	"n't own its data allocation.\000"
	.align	2
.LC12:
	.ascii	"!block_delete\000"
	.align	2
.LC13:
	.ascii	"Attempting to expand an array that has its size loc"
	.ascii	"ked.\000"
	.align	2
.LC14:
	.ascii	"!no_grow || q <= max_p\000"
	.align	2
.LC15:
	.ascii	"q>=num_p\000"
	.section	.text._ZN8CIwArrayIa12CIwAllocatorIa15CIwMallocRouterIaEE17ReallocateDefaultIaS3_EE12set_capacityEj,"axG",%progbits,_ZN8CIwArrayIa12CIwAllocatorIa15CIwMallocRouterIaEE17ReallocateDefaultIaS3_EE12set_capacityEj,comdat
	.align	2
	.weak	_ZN8CIwArrayIa12CIwAllocatorIa15CIwMallocRouterIaEE17ReallocateDefaultIaS3_EE12set_capacityEj
	.hidden	_ZN8CIwArrayIa12CIwAllocatorIa15CIwMallocRouterIaEE17ReallocateDefaultIaS3_EE12set_capacityEj
	.type	_ZN8CIwArrayIa12CIwAllocatorIa15CIwMallocRouterIaEE17ReallocateDefaultIaS3_EE12set_capacityEj, %function
_ZN8CIwArrayIa12CIwAllocatorIa15CIwMallocRouterIaEE17ReallocateDefaultIaS3_EE12set_capacityEj:
.LFB1577:
	.loc 10 822 0
	.cfi_startproc
	@ args = 0, pretend = 0, frame = 8
	@ frame_needed = 0, uses_anonymous_args = 0
	str	lr, [sp, #-4]!
.LCFI74:
	.cfi_def_cfa_offset 4
	.cfi_offset 14, -4
	sub	sp, sp, #20
.LCFI75:
	.cfi_def_cfa_offset 24
	str	r0, [sp, #12]
	str	r1, [sp, #8]
.LBB36:
.LBB37:
	.loc 10 824 0
	ldr	r3, [sp, #12]
	ldrb	r3, [r3, #12]
	and	r3, r3, #1
	uxtb	r3, r3
	cmp	r3, #0
	beq	.L172
	.loc 10 824 0 is_stmt 0 discriminator 1
	ldr	r3, .L200
.LPIC28:
	add	r3, pc, r3
	mov	r0, r3
	bl	IwDebugAssertIsChannelOn(PLT)
	mov	r3, r0
	cmp	r3, #0
	beq	.L173
	ldr	r3, .L200+4
.LPIC29:
	add	r3, pc, r3
	ldrb	r3, [r3]	@ zero_extendqisi2
	cmp	r3, #0
	bne	.L173
	.loc 10 824 0 discriminator 3
	mov	r3, #1
	b	.L174
.L173:
	.loc 10 824 0 discriminator 2
	mov	r3, #0
.L174:
	.loc 10 824 0 discriminator 4
	cmp	r3, #0
	beq	.L175
	.loc 10 824 0 discriminator 5
	ldr	r0, .L200+8
	bl	IwDebugAssertSetUID(PLT)
	ldr	r3, .L200+12
.LPIC30:
	add	r3, pc, r3
	mov	r0, r3
	bl	IwDebugAssertSetMessage(PLT)
	ldr	r3, .L200+16
.LPIC31:
	add	r3, pc, r3
	mov	r0, r3
	ldr	r3, .L200+20
.LPIC32:
	add	r3, pc, r3
	mov	r1, r3
	mov	r2, #824
	mov	r3, #1
	bl	IwDebugAssertShow(PLT)
	mov	r3, r0
	cmp	r3, #1
	beq	.L177
	cmp	r3, #2
	beq	.L178
	.loc 10 824 0
	b	.L176
.L177:
	.loc 10 824 0 discriminator 2
	bl	s3eDebugIsDebuggerPresent(PLT)
	mov	r3, r0
	cmp	r3, #0
	moveq	r3, #0
	movne	r3, #1
	uxtb	r3, r3
	cmp	r3, #0
	beq	.L179
	.loc 10 824 0 discriminator 1
	bl	s3eDebugIsDebuggerPresent(PLT)
	mov	r3, r0
	cmp	r3, #0
	moveq	r3, #0
	movne	r3, #1
	uxtb	r3, r3
	cmp	r3, #0
	beq	.L180
	mvn	r3, #11
	mov	r2, #0
	str	r2, [r3]
	b	.L180
.L179:
	.loc 10 824 0 discriminator 2
	bl	_ZL11IwDebugExitv(PLT)
	b	.L176
.L180:
	.loc 10 824 0 discriminator 1
	b	.L176
.L178:
	.loc 10 824 0 discriminator 3
	ldr	r3, .L200+24
.LPIC33:
	add	r3, pc, r3
	mov	r2, #1
	strb	r2, [r3]
	mov	r0, r0	@ nop
.L176:
	.loc 10 824 0 discriminator 1
	mov	r0, #0
	bl	IwDebugAssertSetUID(PLT)
.L175:
	.loc 10 824 0 discriminator 6
	b	.L171
.L172:
.LBE37:
.LBB38:
.LBB39:
	.loc 10 825 0 is_stmt 1
	ldr	r3, [sp, #12]
	ldrb	r3, [r3, #12]	@ zero_extendqisi2
	mov	r3, r3, lsr #1
	and	r3, r3, #1
	uxtb	r3, r3
	cmp	r3, #0
	beq	.L182
	.loc 10 825 0 is_stmt 0 discriminator 1
	ldr	r3, [sp, #12]
	ldr	r2, [r3, #8]
	ldr	r3, [sp, #8]
	cmp	r2, r3
	bcs	.L182
	ldr	r3, .L200+28
.LPIC34:
	add	r3, pc, r3
	mov	r0, r3
	bl	IwDebugAssertIsChannelOn(PLT)
	mov	r3, r0
	cmp	r3, #0
	beq	.L182
	.loc 10 825 0 discriminator 3
	ldr	r3, .L200+32
.LPIC35:
	add	r3, pc, r3
	ldrb	r3, [r3]	@ zero_extendqisi2
	cmp	r3, #0
	bne	.L182
	.loc 10 825 0 discriminator 4
	mov	r3, #1
	b	.L183
.L182:
	.loc 10 825 0 discriminator 2
	mov	r3, #0
.L183:
	.loc 10 825 0 discriminator 5
	cmp	r3, #0
	beq	.L184
	.loc 10 825 0 discriminator 6
	mov	r0, #0
	bl	IwDebugAssertSetSolution(PLT)
	ldr	r0, .L200+36
	bl	IwDebugAssertSetUID(PLT)
	ldr	r3, .L200+40
.LPIC36:
	add	r3, pc, r3
	mov	r0, r3
	bl	IwDebugAssertSetMessage(PLT)
	ldr	r3, .L200+44
.LPIC37:
	add	r3, pc, r3
	mov	r0, r3
	ldr	r3, .L200+48
.LPIC38:
	add	r3, pc, r3
	mov	r1, r3
	ldr	r2, .L200+52
	mov	r3, #1
	bl	IwDebugAssertShow(PLT)
	mov	r3, r0
	cmp	r3, #1
	beq	.L186
	cmp	r3, #2
	beq	.L187
	.loc 10 825 0
	b	.L185
.L186:
	.loc 10 825 0 discriminator 2
	bl	s3eDebugIsDebuggerPresent(PLT)
	mov	r3, r0
	cmp	r3, #0
	moveq	r3, #0
	movne	r3, #1
	uxtb	r3, r3
	cmp	r3, #0
	beq	.L188
	.loc 10 825 0 discriminator 1
	bl	s3eDebugIsDebuggerPresent(PLT)
	mov	r3, r0
	cmp	r3, #0
	moveq	r3, #0
	movne	r3, #1
	uxtb	r3, r3
	cmp	r3, #0
	beq	.L189
	mvn	r3, #11
	mov	r2, #0
	str	r2, [r3]
	b	.L189
.L188:
	.loc 10 825 0 discriminator 2
	bl	_ZL11IwDebugExitv(PLT)
	b	.L185
.L189:
	.loc 10 825 0 discriminator 1
	b	.L185
.L187:
	.loc 10 825 0 discriminator 3
	ldr	r3, .L200+56
.LPIC39:
	add	r3, pc, r3
	mov	r2, #1
	strb	r2, [r3]
	mov	r0, r0	@ nop
.L185:
	.loc 10 825 0 discriminator 1
	mov	r0, #0
	bl	IwDebugAssertSetUID(PLT)
.L184:
.LBE39:
.LBE38:
.LBB40:
.LBB41:
	.loc 10 826 0 is_stmt 1
	ldr	r3, [sp, #12]
	ldr	r2, [r3, #4]
	ldr	r3, [sp, #8]
	cmp	r2, r3
	bls	.L190
	.loc 10 826 0 is_stmt 0 discriminator 1
	ldr	r3, .L200+60
.LPIC40:
	add	r3, pc, r3
	mov	r0, r3
	bl	IwDebugAssertIsChannelOn(PLT)
	mov	r3, r0
	cmp	r3, #0
	beq	.L190
	.loc 10 826 0 discriminator 3
	ldr	r3, .L200+64
.LPIC41:
	add	r3, pc, r3
	ldrb	r3, [r3]	@ zero_extendqisi2
	cmp	r3, #0
	bne	.L190
	.loc 10 826 0 discriminator 4
	mov	r3, #1
	b	.L191
.L190:
	.loc 10 826 0 discriminator 2
	mov	r3, #0
.L191:
	.loc 10 826 0 discriminator 5
	cmp	r3, #0
	beq	.L192
	.loc 10 826 0 discriminator 6
	mov	r0, #0
	bl	IwDebugAssertSetSolution(PLT)
	mov	r0, #0
	bl	IwDebugAssertSetUID(PLT)
	mov	r0, #0
	bl	IwDebugAssertSetMessage(PLT)
	ldr	r3, .L200+68
.LPIC42:
	add	r3, pc, r3
	mov	r0, r3
	ldr	r3, .L200+72
.LPIC43:
	add	r3, pc, r3
	mov	r1, r3
	ldr	r2, .L200+76
	mov	r3, #1
	bl	IwDebugAssertShow(PLT)
	mov	r3, r0
	cmp	r3, #1
	beq	.L194
	cmp	r3, #2
	beq	.L195
	.loc 10 826 0
	b	.L193
.L194:
	.loc 10 826 0 discriminator 2
	bl	s3eDebugIsDebuggerPresent(PLT)
	mov	r3, r0
	cmp	r3, #0
	moveq	r3, #0
	movne	r3, #1
	uxtb	r3, r3
	cmp	r3, #0
	beq	.L196
	.loc 10 826 0 discriminator 1
	bl	s3eDebugIsDebuggerPresent(PLT)
	mov	r3, r0
	cmp	r3, #0
	moveq	r3, #0
	movne	r3, #1
	uxtb	r3, r3
	cmp	r3, #0
	beq	.L197
	mvn	r3, #11
	mov	r2, #0
	str	r2, [r3]
	b	.L197
.L196:
	.loc 10 826 0 discriminator 2
	bl	_ZL11IwDebugExitv(PLT)
	b	.L193
.L197:
	.loc 10 826 0 discriminator 1
	b	.L193
.L195:
	.loc 10 826 0 discriminator 3
	ldr	r3, .L200+80
.LPIC44:
	add	r3, pc, r3
	mov	r2, #1
	strb	r2, [r3]
	mov	r0, r0	@ nop
.L193:
	.loc 10 826 0 discriminator 1
	mov	r0, #0
	bl	IwDebugAssertSetUID(PLT)
.L192:
.LBE41:
.LBE40:
	.loc 10 827 0 is_stmt 1
	ldr	r3, [sp, #12]
	ldr	r2, [r3, #8]
	ldr	r3, [sp, #8]
	cmp	r2, r3
	bne	.L198
	.loc 10 827 0 is_stmt 0 discriminator 1
	b	.L171
.L198:
	.loc 10 828 0 is_stmt 1
	ldr	r3, [sp, #12]
	ldr	r2, [sp, #8]
	str	r2, [r3, #8]
	.loc 10 829 0
	ldr	r3, [sp, #8]
	cmp	r3, #0
	bne	.L199
	.loc 10 831 0
	ldr	r3, [sp, #12]
	add	r1, r3, #13
	ldr	r3, [sp, #12]
	ldr	r2, [r3]
	ldr	r3, [sp, #12]
	ldr	r3, [r3, #8]
	mov	r0, r1
	mov	r1, r2
	mov	r2, r3
	bl	_ZN12CIwAllocatorIa15CIwMallocRouterIaEE10deallocateEPaj(PLT)
	.loc 10 832 0
	ldr	r3, [sp, #12]
	mov	r2, #0
	str	r2, [r3]
	b	.L171
.L199:
	.loc 10 836 0
	ldr	r3, [sp, #12]
	ldr	r1, [r3, #4]
	ldr	r3, [sp, #12]
	ldr	r2, [r3, #8]
	ldr	r3, [sp, #12]
	ldr	r3, [r3]
	ldr	r0, [sp, #12]
	add	r0, r0, #13
	str	r0, [sp]
	ldr	r0, [sp, #8]
	bl	_ZN17ReallocateDefaultIa12CIwAllocatorIa15CIwMallocRouterIaEEE10ReallocateEjjjPaRS3_(PLT)
	mov	r2, r0
	ldr	r3, [sp, #12]
	str	r2, [r3]
.L171:
.LBE36:
	.loc 10 838 0
	add	sp, sp, #20
	@ sp needed
	ldr	pc, [sp], #4
.L201:
	.align	2
.L200:
	.word	.LC6-(.LPIC28+8)
	.word	_ZZN8CIwArrayIa12CIwAllocatorIa15CIwMallocRouterIaEE17ReallocateDefaultIaS3_EE12set_capacityEjE21_s_IwAssertIgnoreThis-(.LPIC29+8)
	.word	1733
	.word	.LC11-(.LPIC30+8)
	.word	.LC12-(.LPIC31+8)
	.word	.LC9-(.LPIC32+8)
	.word	_ZZN8CIwArrayIa12CIwAllocatorIa15CIwMallocRouterIaEE17ReallocateDefaultIaS3_EE12set_capacityEjE21_s_IwAssertIgnoreThis-(.LPIC33+8)
	.word	.LC6-(.LPIC34+8)
	.word	_ZZN8CIwArrayIa12CIwAllocatorIa15CIwMallocRouterIaEE17ReallocateDefaultIaS3_EE12set_capacityEjE21_s_IwAssertIgnoreThis_0-(.LPIC35+8)
	.word	1732
	.word	.LC13-(.LPIC36+8)
	.word	.LC14-(.LPIC37+8)
	.word	.LC9-(.LPIC38+8)
	.word	825
	.word	_ZZN8CIwArrayIa12CIwAllocatorIa15CIwMallocRouterIaEE17ReallocateDefaultIaS3_EE12set_capacityEjE21_s_IwAssertIgnoreThis_0-(.LPIC39+8)
	.word	.LC6-(.LPIC40+8)
	.word	_ZZN8CIwArrayIa12CIwAllocatorIa15CIwMallocRouterIaEE17ReallocateDefaultIaS3_EE12set_capacityEjE21_s_IwAssertIgnoreThis_1-(.LPIC41+8)
	.word	.LC15-(.LPIC42+8)
	.word	.LC9-(.LPIC43+8)
	.word	826
	.word	_ZZN8CIwArrayIa12CIwAllocatorIa15CIwMallocRouterIaEE17ReallocateDefaultIaS3_EE12set_capacityEjE21_s_IwAssertIgnoreThis_1-(.LPIC44+8)
	.cfi_endproc
.LFE1577:
	.size	_ZN8CIwArrayIa12CIwAllocatorIa15CIwMallocRouterIaEE17ReallocateDefaultIaS3_EE12set_capacityEj, .-_ZN8CIwArrayIa12CIwAllocatorIa15CIwMallocRouterIaEE17ReallocateDefaultIaS3_EE12set_capacityEj
	.section	.rodata
	.align	2
.LC16:
	.ascii	"qty>=0\000"
	.section	.text._ZN8CIwArrayIa12CIwAllocatorIa15CIwMallocRouterIaEE17ReallocateDefaultIaS3_EE13push_back_qtyEi,"axG",%progbits,_ZN8CIwArrayIa12CIwAllocatorIa15CIwMallocRouterIaEE17ReallocateDefaultIaS3_EE13push_back_qtyEi,comdat
	.align	2
	.weak	_ZN8CIwArrayIa12CIwAllocatorIa15CIwMallocRouterIaEE17ReallocateDefaultIaS3_EE13push_back_qtyEi
	.hidden	_ZN8CIwArrayIa12CIwAllocatorIa15CIwMallocRouterIaEE17ReallocateDefaultIaS3_EE13push_back_qtyEi
	.type	_ZN8CIwArrayIa12CIwAllocatorIa15CIwMallocRouterIaEE17ReallocateDefaultIaS3_EE13push_back_qtyEi, %function
_ZN8CIwArrayIa12CIwAllocatorIa15CIwMallocRouterIaEE17ReallocateDefaultIaS3_EE13push_back_qtyEi:
.LFB1578:
	.loc 10 697 0
	.cfi_startproc
	@ args = 0, pretend = 0, frame = 16
	@ frame_needed = 0, uses_anonymous_args = 0
	str	lr, [sp, #-4]!
.LCFI76:
	.cfi_def_cfa_offset 4
	.cfi_offset 14, -4
	sub	sp, sp, #20
.LCFI77:
	.cfi_def_cfa_offset 24
	str	r0, [sp, #4]
	str	r1, [sp]
.LBB42:
.LBB43:
.LBB44:
	.loc 10 699 0
	ldr	r3, [sp]
	cmp	r3, #0
	bge	.L203
	.loc 10 699 0 is_stmt 0 discriminator 1
	ldr	r3, .L213
.LPIC45:
	add	r3, pc, r3
	mov	r0, r3
	bl	IwDebugAssertIsChannelOn(PLT)
	mov	r3, r0
	cmp	r3, #0
	beq	.L203
	.loc 10 699 0 discriminator 3
	ldr	r3, .L213+4
.LPIC46:
	add	r3, pc, r3
	ldrb	r3, [r3]	@ zero_extendqisi2
	cmp	r3, #0
	bne	.L203
	.loc 10 699 0 discriminator 4
	mov	r3, #1
	b	.L204
.L203:
	.loc 10 699 0 discriminator 2
	mov	r3, #0
.L204:
	.loc 10 699 0 discriminator 5
	cmp	r3, #0
	beq	.L205
	.loc 10 699 0 discriminator 6
	mov	r0, #0
	bl	IwDebugAssertSetSolution(PLT)
	mov	r0, #0
	bl	IwDebugAssertSetUID(PLT)
	mov	r0, #0
	bl	IwDebugAssertSetMessage(PLT)
	ldr	r3, .L213+8
.LPIC47:
	add	r3, pc, r3
	mov	r0, r3
	ldr	r3, .L213+12
.LPIC48:
	add	r3, pc, r3
	mov	r1, r3
	ldr	r2, .L213+16
	mov	r3, #1
	bl	IwDebugAssertShow(PLT)
	mov	r3, r0
	cmp	r3, #1
	beq	.L207
	cmp	r3, #2
	beq	.L208
	.loc 10 699 0
	b	.L206
.L207:
	.loc 10 699 0 discriminator 2
	bl	s3eDebugIsDebuggerPresent(PLT)
	mov	r3, r0
	cmp	r3, #0
	moveq	r3, #0
	movne	r3, #1
	uxtb	r3, r3
	cmp	r3, #0
	beq	.L209
	.loc 10 699 0 discriminator 1
	bl	s3eDebugIsDebuggerPresent(PLT)
	mov	r3, r0
	cmp	r3, #0
	moveq	r3, #0
	movne	r3, #1
	uxtb	r3, r3
	cmp	r3, #0
	beq	.L210
	mvn	r3, #11
	mov	r2, #0
	str	r2, [r3]
	b	.L210
.L209:
	.loc 10 699 0 discriminator 2
	bl	_ZL11IwDebugExitv(PLT)
	b	.L206
.L210:
	.loc 10 699 0 discriminator 1
	b	.L206
.L208:
	.loc 10 699 0 discriminator 3
	ldr	r3, .L213+20
.LPIC49:
	add	r3, pc, r3
	mov	r2, #1
	strb	r2, [r3]
	mov	r0, r0	@ nop
.L206:
	.loc 10 699 0 discriminator 1
	mov	r0, #0
	bl	IwDebugAssertSetUID(PLT)
.L205:
.LBE44:
.LBE43:
	.loc 10 700 0 is_stmt 1
	ldr	r3, [sp, #4]
	ldr	r2, [r3, #4]
	ldr	r3, [sp]
	add	r3, r2, r3
	ldr	r0, [sp, #4]
	mov	r1, r3
	bl	_ZN8CIwArrayIa12CIwAllocatorIa15CIwMallocRouterIaEE17ReallocateDefaultIaS3_EE7reserveEj(PLT)
.LBB45:
	.loc 10 701 0
	mov	r3, #0
	str	r3, [sp, #12]
	b	.L211
.L212:
	.loc 10 702 0 discriminator 2
	ldr	r3, [sp, #4]
	ldr	r2, [r3]
	ldr	r3, [sp, #4]
	ldr	r1, [r3, #4]
	ldr	r3, [sp, #12]
	add	r3, r1, r3
	add	r3, r2, r3
	mov	r0, #1
	mov	r1, r3
	bl	_ZnwjPv(PLT)
	.loc 10 701 0 discriminator 2
	ldr	r3, [sp, #12]
	add	r3, r3, #1
	str	r3, [sp, #12]
.L211:
	.loc 10 701 0 is_stmt 0 discriminator 1
	ldr	r2, [sp, #12]
	ldr	r3, [sp]
	cmp	r2, r3
	blt	.L212
.LBE45:
	.loc 10 703 0 is_stmt 1
	ldr	r3, [sp, #4]
	ldr	r2, [r3, #4]
	ldr	r3, [sp]
	add	r2, r2, r3
	ldr	r3, [sp, #4]
	str	r2, [r3, #4]
.LBE42:
	.loc 10 704 0
	add	sp, sp, #20
	@ sp needed
	ldr	pc, [sp], #4
.L214:
	.align	2
.L213:
	.word	.LC6-(.LPIC45+8)
	.word	_ZZN8CIwArrayIa12CIwAllocatorIa15CIwMallocRouterIaEE17ReallocateDefaultIaS3_EE13push_back_qtyEiE21_s_IwAssertIgnoreThis-(.LPIC46+8)
	.word	.LC16-(.LPIC47+8)
	.word	.LC9-(.LPIC48+8)
	.word	699
	.word	_ZZN8CIwArrayIa12CIwAllocatorIa15CIwMallocRouterIaEE17ReallocateDefaultIaS3_EE13push_back_qtyEiE21_s_IwAssertIgnoreThis-(.LPIC49+8)
	.cfi_endproc
.LFE1578:
	.size	_ZN8CIwArrayIa12CIwAllocatorIa15CIwMallocRouterIaEE17ReallocateDefaultIaS3_EE13push_back_qtyEi, .-_ZN8CIwArrayIa12CIwAllocatorIa15CIwMallocRouterIaEE17ReallocateDefaultIaS3_EE13push_back_qtyEi
	.section	.text._ZN15CIwMallocRouterIaE6DoFreeEPv,"axG",%progbits,_ZN15CIwMallocRouterIaE6DoFreeEPv,comdat
	.align	2
	.weak	_ZN15CIwMallocRouterIaE6DoFreeEPv
	.hidden	_ZN15CIwMallocRouterIaE6DoFreeEPv
	.type	_ZN15CIwMallocRouterIaE6DoFreeEPv, %function
_ZN15CIwMallocRouterIaE6DoFreeEPv:
.LFB1579:
	.loc 11 93 0
	.cfi_startproc
	@ args = 0, pretend = 0, frame = 8
	@ frame_needed = 0, uses_anonymous_args = 0
	str	lr, [sp, #-4]!
.LCFI78:
	.cfi_def_cfa_offset 4
	.cfi_offset 14, -4
	sub	sp, sp, #12
.LCFI79:
	.cfi_def_cfa_offset 16
	str	r0, [sp, #4]
	.loc 11 95 0
	ldr	r0, [sp, #4]
	mov	r1, #1
	bl	_ZN22CIwDefaultMallocRouter8BaseFreeEPvj(PLT)
	.loc 11 96 0
	add	sp, sp, #12
	@ sp needed
	ldr	pc, [sp], #4
	.cfi_endproc
.LFE1579:
	.size	_ZN15CIwMallocRouterIaE6DoFreeEPv, .-_ZN15CIwMallocRouterIaE6DoFreeEPv
	.section	.text._ZN17ReallocateDefaultIa12CIwAllocatorIa15CIwMallocRouterIaEEE10ReallocateEjjjPaRS3_,"axG",%progbits,_ZN17ReallocateDefaultIa12CIwAllocatorIa15CIwMallocRouterIaEEE10ReallocateEjjjPaRS3_,comdat
	.align	2
	.weak	_ZN17ReallocateDefaultIa12CIwAllocatorIa15CIwMallocRouterIaEEE10ReallocateEjjjPaRS3_
	.hidden	_ZN17ReallocateDefaultIa12CIwAllocatorIa15CIwMallocRouterIaEEE10ReallocateEjjjPaRS3_
	.type	_ZN17ReallocateDefaultIa12CIwAllocatorIa15CIwMallocRouterIaEEE10ReallocateEjjjPaRS3_, %function
_ZN17ReallocateDefaultIa12CIwAllocatorIa15CIwMallocRouterIaEEE10ReallocateEjjjPaRS3_:
.LFB1587:
	.loc 10 52 0
	.cfi_startproc
	@ args = 4, pretend = 0, frame = 16
	@ frame_needed = 0, uses_anonymous_args = 0
	str	lr, [sp, #-4]!
.LCFI80:
	.cfi_def_cfa_offset 4
	.cfi_offset 14, -4
	sub	sp, sp, #20
.LCFI81:
	.cfi_def_cfa_offset 24
	str	r0, [sp, #12]
	str	r1, [sp, #8]
	str	r2, [sp, #4]
	str	r3, [sp]
	.loc 10 54 0
	ldr	r0, [sp, #24]
	ldr	r1, [sp]
	ldr	r2, [sp, #12]
	bl	_ZN12CIwAllocatorIa15CIwMallocRouterIaEE10reallocateEPaj(PLT)
	mov	r3, r0
	.loc 10 55 0
	mov	r0, r3
	add	sp, sp, #20
	@ sp needed
	ldr	pc, [sp], #4
	.cfi_endproc
.LFE1587:
	.size	_ZN17ReallocateDefaultIa12CIwAllocatorIa15CIwMallocRouterIaEEE10ReallocateEjjjPaRS3_, .-_ZN17ReallocateDefaultIa12CIwAllocatorIa15CIwMallocRouterIaEEE10ReallocateEjjjPaRS3_
	.section	.text._ZN8CIwArrayIa12CIwAllocatorIa15CIwMallocRouterIaEE17ReallocateDefaultIaS3_EE7reserveEj,"axG",%progbits,_ZN8CIwArrayIa12CIwAllocatorIa15CIwMallocRouterIaEE17ReallocateDefaultIaS3_EE7reserveEj,comdat
	.align	2
	.weak	_ZN8CIwArrayIa12CIwAllocatorIa15CIwMallocRouterIaEE17ReallocateDefaultIaS3_EE7reserveEj
	.hidden	_ZN8CIwArrayIa12CIwAllocatorIa15CIwMallocRouterIaEE17ReallocateDefaultIaS3_EE7reserveEj
	.type	_ZN8CIwArrayIa12CIwAllocatorIa15CIwMallocRouterIaEE17ReallocateDefaultIaS3_EE7reserveEj, %function
_ZN8CIwArrayIa12CIwAllocatorIa15CIwMallocRouterIaEE17ReallocateDefaultIaS3_EE7reserveEj:
.LFB1588:
	.loc 10 253 0
	.cfi_startproc
	@ args = 0, pretend = 0, frame = 8
	@ frame_needed = 0, uses_anonymous_args = 0
	str	lr, [sp, #-4]!
.LCFI82:
	.cfi_def_cfa_offset 4
	.cfi_offset 14, -4
	sub	sp, sp, #12
.LCFI83:
	.cfi_def_cfa_offset 16
	str	r0, [sp, #4]
	str	r1, [sp]
	.loc 10 255 0
	ldr	r3, [sp, #4]
	ldr	r2, [r3, #8]
	ldr	r3, [sp]
	cmp	r2, r3
	bcs	.L218
	.loc 10 257 0
	ldr	r3, [sp, #4]
	ldr	r3, [r3, #8]
	cmp	r3, #15
	bls	.L220
	.loc 10 257 0 is_stmt 0 discriminator 1
	ldr	r3, [sp, #4]
	ldr	r3, [r3, #8]
	mov	r3, r3, lsr #3
	b	.L221
.L220:
	.loc 10 257 0 discriminator 2
	mov	r3, #2
.L221:
	.loc 10 257 0 discriminator 1
	ldr	r2, [sp]
	add	r3, r3, r2
	ldr	r0, [sp, #4]
	mov	r1, r3
	bl	_ZN8CIwArrayIa12CIwAllocatorIa15CIwMallocRouterIaEE17ReallocateDefaultIaS3_EE12set_capacityEj(PLT)
.L218:
	.loc 10 259 0 is_stmt 1
	add	sp, sp, #12
	@ sp needed
	ldr	pc, [sp], #4
	.cfi_endproc
.LFE1588:
	.size	_ZN8CIwArrayIa12CIwAllocatorIa15CIwMallocRouterIaEE17ReallocateDefaultIaS3_EE7reserveEj, .-_ZN8CIwArrayIa12CIwAllocatorIa15CIwMallocRouterIaEE17ReallocateDefaultIaS3_EE7reserveEj
	.section	.text._ZN12CIwAllocatorIa15CIwMallocRouterIaEE10reallocateEPaj,"axG",%progbits,_ZN12CIwAllocatorIa15CIwMallocRouterIaEE10reallocateEPaj,comdat
	.align	2
	.weak	_ZN12CIwAllocatorIa15CIwMallocRouterIaEE10reallocateEPaj
	.hidden	_ZN12CIwAllocatorIa15CIwMallocRouterIaEE10reallocateEPaj
	.type	_ZN12CIwAllocatorIa15CIwMallocRouterIaEE10reallocateEPaj, %function
_ZN12CIwAllocatorIa15CIwMallocRouterIaEE10reallocateEPaj:
.LFB1596:
	.loc 11 142 0
	.cfi_startproc
	@ args = 0, pretend = 0, frame = 16
	@ frame_needed = 0, uses_anonymous_args = 0
	str	lr, [sp, #-4]!
.LCFI84:
	.cfi_def_cfa_offset 4
	.cfi_offset 14, -4
	sub	sp, sp, #20
.LCFI85:
	.cfi_def_cfa_offset 24
	str	r0, [sp, #12]
	str	r1, [sp, #8]
	str	r2, [sp, #4]
	.loc 11 144 0
	ldr	r0, [sp, #8]
	ldr	r1, [sp, #4]
	bl	_ZN15CIwMallocRouterIaE9DoReallocEPvj(PLT)
	mov	r3, r0
	.loc 11 145 0
	mov	r0, r3
	add	sp, sp, #20
	@ sp needed
	ldr	pc, [sp], #4
	.cfi_endproc
.LFE1596:
	.size	_ZN12CIwAllocatorIa15CIwMallocRouterIaEE10reallocateEPaj, .-_ZN12CIwAllocatorIa15CIwMallocRouterIaEE10reallocateEPaj
	.section	.text._ZN15CIwMallocRouterIaE9DoReallocEPvj,"axG",%progbits,_ZN15CIwMallocRouterIaE9DoReallocEPvj,comdat
	.align	2
	.weak	_ZN15CIwMallocRouterIaE9DoReallocEPvj
	.hidden	_ZN15CIwMallocRouterIaE9DoReallocEPvj
	.type	_ZN15CIwMallocRouterIaE9DoReallocEPvj, %function
_ZN15CIwMallocRouterIaE9DoReallocEPvj:
.LFB1600:
	.loc 11 97 0
	.cfi_startproc
	@ args = 0, pretend = 0, frame = 8
	@ frame_needed = 0, uses_anonymous_args = 0
	str	lr, [sp, #-4]!
.LCFI86:
	.cfi_def_cfa_offset 4
	.cfi_offset 14, -4
	sub	sp, sp, #12
.LCFI87:
	.cfi_def_cfa_offset 16
	str	r0, [sp, #4]
	str	r1, [sp]
	.loc 11 99 0
	ldr	r0, [sp, #4]
	ldr	r1, [sp]
	mov	r2, #1
	bl	_ZN22CIwDefaultMallocRouter11BaseReallocEPvjj(PLT)
	mov	r3, r0
	.loc 11 100 0
	mov	r0, r3
	add	sp, sp, #12
	@ sp needed
	ldr	pc, [sp], #4
	.cfi_endproc
.LFE1600:
	.size	_ZN15CIwMallocRouterIaE9DoReallocEPvj, .-_ZN15CIwMallocRouterIaE9DoReallocEPvj
	.hidden	_ZTV17CIwSoundDataADPCM
	.global	_ZTV17CIwSoundDataADPCM
	.section	.data.rel.ro,"aw",%progbits
	.align	3
	.type	_ZTV17CIwSoundDataADPCM, %object
	.size	_ZTV17CIwSoundDataADPCM, 72
_ZTV17CIwSoundDataADPCM:
	.word	0
	.word	_ZTI17CIwSoundDataADPCM
	.word	_ZN17CIwSoundDataADPCMD1Ev
	.word	_ZN17CIwSoundDataADPCMD0Ev
	.word	_ZN10CIwManaged9ParseOpenEP16CIwTextParserITX
	.word	_ZN10CIwManaged10ParseCloseEP16CIwTextParserITX
	.word	_ZN10CIwManaged14ParseAttributeEP16CIwTextParserITXPKc
	.word	_ZN17CIwSoundDataADPCM9SerialiseEv
	.word	_ZN10CIwManaged7ResolveEv
	.word	_ZN10CIwManaged15ParseCloseChildEP16CIwTextParserITXPS_
	.word	_ZN10CIwManaged11HandleEventEP8CIwEvent
	.word	_ZN10CIwManaged7SetNameEPKc
	.word	_ZNK17CIwSoundDataADPCM12GetClassNameEv
	.word	_ZN10CIwManaged11DebugRenderEv
	.word	_ZN18CIwManagedRefCount17DebugAddMenuItemsEP7CIwMenu
	.word	_ZN18CIwManagedRefCount8_ReplaceEP10CIwManaged
	.word	_ZN11CIwResource10ApplyScaleEi
	.word	_ZN11CIwResource10ApplyScaleEf
	.section	.text._ZN17CIwSoundDataADPCMD2Ev,"axG",%progbits,_ZN17CIwSoundDataADPCMD5Ev,comdat
	.align	2
	.weak	_ZN17CIwSoundDataADPCMD2Ev
	.hidden	_ZN17CIwSoundDataADPCMD2Ev
	.type	_ZN17CIwSoundDataADPCMD2Ev, %function
_ZN17CIwSoundDataADPCMD2Ev:
.LFB1602:
	.loc 7 86 0
	.cfi_startproc
	@ args = 0, pretend = 0, frame = 8
	@ frame_needed = 0, uses_anonymous_args = 0
	str	lr, [sp, #-4]!
.LCFI88:
	.cfi_def_cfa_offset 4
	.cfi_offset 14, -4
	sub	sp, sp, #12
.LCFI89:
	.cfi_def_cfa_offset 16
	str	r0, [sp, #4]
.LBB46:
	.loc 7 86 0
	ldr	r3, [sp, #4]
	ldr	r2, .L230
.LPIC50:
	add	r2, pc, r2
	add	r2, r2, #8
	str	r2, [r3]
	ldr	r3, [sp, #4]
	mov	r0, r3
	bl	_ZN12CIwSoundDataD2Ev(PLT)
.LBE46:
	mov	r3, #0
	cmp	r3, #0
	beq	.L228
	.loc 7 86 0 is_stmt 0 discriminator 1
	ldr	r0, [sp, #4]
	bl	_ZdlPv(PLT)
.L228:
	.loc 7 86 0 discriminator 2
	ldr	r3, [sp, #4]
	mov	r0, r3
	add	sp, sp, #12
	@ sp needed
	ldr	pc, [sp], #4
.L231:
	.align	2
.L230:
	.word	_ZTV17CIwSoundDataADPCM-(.LPIC50+8)
	.cfi_endproc
.LFE1602:
	.size	_ZN17CIwSoundDataADPCMD2Ev, .-_ZN17CIwSoundDataADPCMD2Ev
	.weak	_ZN17CIwSoundDataADPCMD1Ev
	.hidden	_ZN17CIwSoundDataADPCMD1Ev
	.set	_ZN17CIwSoundDataADPCMD1Ev,_ZN17CIwSoundDataADPCMD2Ev
	.section	.text._ZN17CIwSoundDataADPCMD0Ev,"axG",%progbits,_ZN17CIwSoundDataADPCMD0Ev,comdat
	.align	2
	.weak	_ZN17CIwSoundDataADPCMD0Ev
	.hidden	_ZN17CIwSoundDataADPCMD0Ev
	.type	_ZN17CIwSoundDataADPCMD0Ev, %function
_ZN17CIwSoundDataADPCMD0Ev:
.LFB1604:
	.loc 7 86 0 is_stmt 1
	.cfi_startproc
	@ args = 0, pretend = 0, frame = 8
	@ frame_needed = 0, uses_anonymous_args = 0
	str	lr, [sp, #-4]!
.LCFI90:
	.cfi_def_cfa_offset 4
	.cfi_offset 14, -4
	sub	sp, sp, #12
.LCFI91:
	.cfi_def_cfa_offset 16
	str	r0, [sp, #4]
	.loc 7 86 0
	ldr	r0, [sp, #4]
	bl	_ZN17CIwSoundDataADPCMD1Ev(PLT)
	ldr	r0, [sp, #4]
	bl	_ZdlPv(PLT)
	ldr	r3, [sp, #4]
	mov	r0, r3
	add	sp, sp, #12
	@ sp needed
	ldr	pc, [sp], #4
	.cfi_endproc
.LFE1604:
	.size	_ZN17CIwSoundDataADPCMD0Ev, .-_ZN17CIwSoundDataADPCMD0Ev
	.hidden	_ZTV12CIwSoundData
	.global	_ZTV12CIwSoundData
	.section	.data.rel.ro
	.align	3
	.type	_ZTV12CIwSoundData, %object
	.size	_ZTV12CIwSoundData, 72
_ZTV12CIwSoundData:
	.word	0
	.word	_ZTI12CIwSoundData
	.word	_ZN12CIwSoundDataD1Ev
	.word	_ZN12CIwSoundDataD0Ev
	.word	_ZN10CIwManaged9ParseOpenEP16CIwTextParserITX
	.word	_ZN10CIwManaged10ParseCloseEP16CIwTextParserITX
	.word	_ZN10CIwManaged14ParseAttributeEP16CIwTextParserITXPKc
	.word	_ZN12CIwSoundData9SerialiseEv
	.word	_ZN10CIwManaged7ResolveEv
	.word	_ZN10CIwManaged15ParseCloseChildEP16CIwTextParserITXPS_
	.word	_ZN10CIwManaged11HandleEventEP8CIwEvent
	.word	_ZN10CIwManaged7SetNameEPKc
	.word	_ZNK12CIwSoundData12GetClassNameEv
	.word	_ZN10CIwManaged11DebugRenderEv
	.word	_ZN18CIwManagedRefCount17DebugAddMenuItemsEP7CIwMenu
	.word	_ZN18CIwManagedRefCount8_ReplaceEP10CIwManaged
	.word	_ZN11CIwResource10ApplyScaleEi
	.word	_ZN11CIwResource10ApplyScaleEf
	.hidden	_ZTI17CIwSoundDataADPCM
	.global	_ZTI17CIwSoundDataADPCM
	.align	2
	.type	_ZTI17CIwSoundDataADPCM, %object
	.size	_ZTI17CIwSoundDataADPCM, 12
_ZTI17CIwSoundDataADPCM:
	.word	_ZTVN10__cxxabiv120__si_class_type_infoE+8
	.word	_ZTS17CIwSoundDataADPCM
	.word	_ZTI12CIwSoundData
	.hidden	_ZTS17CIwSoundDataADPCM
	.global	_ZTS17CIwSoundDataADPCM
	.section	.rodata
	.align	2
	.type	_ZTS17CIwSoundDataADPCM, %object
	.size	_ZTS17CIwSoundDataADPCM, 20
_ZTS17CIwSoundDataADPCM:
	.ascii	"17CIwSoundDataADPCM\000"
	.hidden	_ZTI12CIwSoundData
	.global	_ZTI12CIwSoundData
	.section	.data.rel.ro
	.align	2
	.type	_ZTI12CIwSoundData, %object
	.size	_ZTI12CIwSoundData, 12
_ZTI12CIwSoundData:
	.word	_ZTVN10__cxxabiv120__si_class_type_infoE+8
	.word	_ZTS12CIwSoundData
	.word	_ZTI11CIwResource
	.hidden	_ZTS12CIwSoundData
	.global	_ZTS12CIwSoundData
	.section	.rodata
	.align	2
	.type	_ZTS12CIwSoundData, %object
	.size	_ZTS12CIwSoundData, 15
_ZTS12CIwSoundData:
	.ascii	"12CIwSoundData\000"
	.hidden	_ZZN8CIwArrayIa12CIwAllocatorIa15CIwMallocRouterIaEE17ReallocateDefaultIaS3_EE8truncateEjE21_s_IwAssertIgnoreThis
	.weak	_ZZN8CIwArrayIa12CIwAllocatorIa15CIwMallocRouterIaEE17ReallocateDefaultIaS3_EE8truncateEjE21_s_IwAssertIgnoreThis
	.section	.bss._ZZN8CIwArrayIa12CIwAllocatorIa15CIwMallocRouterIaEE17ReallocateDefaultIaS3_EE8truncateEjE21_s_IwAssertIgnoreThis,"awG",%nobits,_ZZN8CIwArrayIa12CIwAllocatorIa15CIwMallocRouterIaEE17ReallocateDefaultIaS3_EE8truncateEjE21_s_IwAssertIgnoreThis,comdat
	.type	_ZZN8CIwArrayIa12CIwAllocatorIa15CIwMallocRouterIaEE17ReallocateDefaultIaS3_EE8truncateEjE21_s_IwAssertIgnoreThis, %object
	.size	_ZZN8CIwArrayIa12CIwAllocatorIa15CIwMallocRouterIaEE17ReallocateDefaultIaS3_EE8truncateEjE21_s_IwAssertIgnoreThis, 1
_ZZN8CIwArrayIa12CIwAllocatorIa15CIwMallocRouterIaEE17ReallocateDefaultIaS3_EE8truncateEjE21_s_IwAssertIgnoreThis:
	.space	1
	.hidden	_ZZN8CIwArrayIa12CIwAllocatorIa15CIwMallocRouterIaEE17ReallocateDefaultIaS3_EE13push_back_qtyEiE21_s_IwAssertIgnoreThis
	.weak	_ZZN8CIwArrayIa12CIwAllocatorIa15CIwMallocRouterIaEE17ReallocateDefaultIaS3_EE13push_back_qtyEiE21_s_IwAssertIgnoreThis
	.section	.bss._ZZN8CIwArrayIa12CIwAllocatorIa15CIwMallocRouterIaEE17ReallocateDefaultIaS3_EE13push_back_qtyEiE21_s_IwAssertIgnoreThis,"awG",%nobits,_ZZN8CIwArrayIa12CIwAllocatorIa15CIwMallocRouterIaEE17ReallocateDefaultIaS3_EE13push_back_qtyEiE21_s_IwAssertIgnoreThis,comdat
	.type	_ZZN8CIwArrayIa12CIwAllocatorIa15CIwMallocRouterIaEE17ReallocateDefaultIaS3_EE13push_back_qtyEiE21_s_IwAssertIgnoreThis, %object
	.size	_ZZN8CIwArrayIa12CIwAllocatorIa15CIwMallocRouterIaEE17ReallocateDefaultIaS3_EE13push_back_qtyEiE21_s_IwAssertIgnoreThis, 1
_ZZN8CIwArrayIa12CIwAllocatorIa15CIwMallocRouterIaEE17ReallocateDefaultIaS3_EE13push_back_qtyEiE21_s_IwAssertIgnoreThis:
	.space	1
	.hidden	_ZZN8CIwArrayIa12CIwAllocatorIa15CIwMallocRouterIaEE17ReallocateDefaultIaS3_EE12set_capacityEjE21_s_IwAssertIgnoreThis
	.weak	_ZZN8CIwArrayIa12CIwAllocatorIa15CIwMallocRouterIaEE17ReallocateDefaultIaS3_EE12set_capacityEjE21_s_IwAssertIgnoreThis
	.section	.bss._ZZN8CIwArrayIa12CIwAllocatorIa15CIwMallocRouterIaEE17ReallocateDefaultIaS3_EE12set_capacityEjE21_s_IwAssertIgnoreThis,"awG",%nobits,_ZZN8CIwArrayIa12CIwAllocatorIa15CIwMallocRouterIaEE17ReallocateDefaultIaS3_EE12set_capacityEjE21_s_IwAssertIgnoreThis,comdat
	.type	_ZZN8CIwArrayIa12CIwAllocatorIa15CIwMallocRouterIaEE17ReallocateDefaultIaS3_EE12set_capacityEjE21_s_IwAssertIgnoreThis, %object
	.size	_ZZN8CIwArrayIa12CIwAllocatorIa15CIwMallocRouterIaEE17ReallocateDefaultIaS3_EE12set_capacityEjE21_s_IwAssertIgnoreThis, 1
_ZZN8CIwArrayIa12CIwAllocatorIa15CIwMallocRouterIaEE17ReallocateDefaultIaS3_EE12set_capacityEjE21_s_IwAssertIgnoreThis:
	.space	1
	.hidden	_ZZN8CIwArrayIa12CIwAllocatorIa15CIwMallocRouterIaEE17ReallocateDefaultIaS3_EE12set_capacityEjE21_s_IwAssertIgnoreThis_0
	.weak	_ZZN8CIwArrayIa12CIwAllocatorIa15CIwMallocRouterIaEE17ReallocateDefaultIaS3_EE12set_capacityEjE21_s_IwAssertIgnoreThis_0
	.section	.bss._ZZN8CIwArrayIa12CIwAllocatorIa15CIwMallocRouterIaEE17ReallocateDefaultIaS3_EE12set_capacityEjE21_s_IwAssertIgnoreThis_0,"awG",%nobits,_ZZN8CIwArrayIa12CIwAllocatorIa15CIwMallocRouterIaEE17ReallocateDefaultIaS3_EE12set_capacityEjE21_s_IwAssertIgnoreThis_0,comdat
	.type	_ZZN8CIwArrayIa12CIwAllocatorIa15CIwMallocRouterIaEE17ReallocateDefaultIaS3_EE12set_capacityEjE21_s_IwAssertIgnoreThis_0, %object
	.size	_ZZN8CIwArrayIa12CIwAllocatorIa15CIwMallocRouterIaEE17ReallocateDefaultIaS3_EE12set_capacityEjE21_s_IwAssertIgnoreThis_0, 1
_ZZN8CIwArrayIa12CIwAllocatorIa15CIwMallocRouterIaEE17ReallocateDefaultIaS3_EE12set_capacityEjE21_s_IwAssertIgnoreThis_0:
	.space	1
	.hidden	_ZZN8CIwArrayIa12CIwAllocatorIa15CIwMallocRouterIaEE17ReallocateDefaultIaS3_EE12set_capacityEjE21_s_IwAssertIgnoreThis_1
	.weak	_ZZN8CIwArrayIa12CIwAllocatorIa15CIwMallocRouterIaEE17ReallocateDefaultIaS3_EE12set_capacityEjE21_s_IwAssertIgnoreThis_1
	.section	.bss._ZZN8CIwArrayIa12CIwAllocatorIa15CIwMallocRouterIaEE17ReallocateDefaultIaS3_EE12set_capacityEjE21_s_IwAssertIgnoreThis_1,"awG",%nobits,_ZZN8CIwArrayIa12CIwAllocatorIa15CIwMallocRouterIaEE17ReallocateDefaultIaS3_EE12set_capacityEjE21_s_IwAssertIgnoreThis_1,comdat
	.type	_ZZN8CIwArrayIa12CIwAllocatorIa15CIwMallocRouterIaEE17ReallocateDefaultIaS3_EE12set_capacityEjE21_s_IwAssertIgnoreThis_1, %object
	.size	_ZZN8CIwArrayIa12CIwAllocatorIa15CIwMallocRouterIaEE17ReallocateDefaultIaS3_EE12set_capacityEjE21_s_IwAssertIgnoreThis_1, 1
_ZZN8CIwArrayIa12CIwAllocatorIa15CIwMallocRouterIaEE17ReallocateDefaultIaS3_EE12set_capacityEjE21_s_IwAssertIgnoreThis_1:
	.space	1
	.hidden	_ZZNK8CIwArrayIa12CIwAllocatorIa15CIwMallocRouterIaEE17ReallocateDefaultIaS3_EEixEiE21_s_IwAssertIgnoreThis
	.weak	_ZZNK8CIwArrayIa12CIwAllocatorIa15CIwMallocRouterIaEE17ReallocateDefaultIaS3_EEixEiE21_s_IwAssertIgnoreThis
	.section	.bss._ZZNK8CIwArrayIa12CIwAllocatorIa15CIwMallocRouterIaEE17ReallocateDefaultIaS3_EEixEiE21_s_IwAssertIgnoreThis,"awG",%nobits,_ZZNK8CIwArrayIa12CIwAllocatorIa15CIwMallocRouterIaEE17ReallocateDefaultIaS3_EEixEiE21_s_IwAssertIgnoreThis,comdat
	.type	_ZZNK8CIwArrayIa12CIwAllocatorIa15CIwMallocRouterIaEE17ReallocateDefaultIaS3_EEixEiE21_s_IwAssertIgnoreThis, %object
	.size	_ZZNK8CIwArrayIa12CIwAllocatorIa15CIwMallocRouterIaEE17ReallocateDefaultIaS3_EEixEiE21_s_IwAssertIgnoreThis, 1
_ZZNK8CIwArrayIa12CIwAllocatorIa15CIwMallocRouterIaEE17ReallocateDefaultIaS3_EEixEiE21_s_IwAssertIgnoreThis:
	.space	1
	.text
.Letext0:
	.file 12 "c:/marmalade/7.5/s3e/h/std/c++/typeinfo.h"
	.file 13 "c:/marmalade/7.5/s3e/h/std/c++/cstddef"
	.file 14 "c:/marmalade/7.5/s3e/h/std/c++/exception"
	.file 15 "c:/marmalade/7.5/s3e/h/std/c++/typeinfo"
	.file 16 "c:/marmalade/7.5/s3e/h/std/c++/stl/_config.h"
	.file 17 "c:/marmalade/7.5/s3e/h/ext/../std/stddef.h"
	.file 18 "c:/marmalade/7.5/s3e/h/s3eTypes.h"
	.file 19 "c:/marmalade/7.5/s3e/h/s3eFile.h"
	.file 20 "c:/marmalade/7.5/modules/iwutil/h/IwString.h"
	.file 21 "c:/marmalade/7.5/modules/iwutil/h/IwTextParseable.h"
	.file 22 "c:/marmalade/7.5/modules/iwutil/h/IwManagedList.h"
	.file 23 "c:/marmalade/7.5/modules/iwresmanager/h/IwResGroup.h"
	.file 24 "c:/marmalade/7.5/s3e/h/s3eDebug.h"
	.file 25 "c:/marmalade/7.5/modules/iwresmanager/h/IwResManagerClass.h"
	.file 26 "c:/marmalade/7.5/s3e/h/s3eSound.h"
	.file 27 "c:/stage4/modules/soundengine/h/IwSoundManager.h"
	.file 28 "c:/marmalade/7.5/modules/iwutil/h/IwMenu.h"
	.file 29 "c:/marmalade/7.5/modules/iwgeom/h/IwGeomSqrt.h"
	.file 30 "c:/marmalade/7.5/modules/iwutil/h/IwTextParserITX.h"
	.file 31 "<built-in>"
	.file 32 "c:/marmalade/7.5/modules/iwutil/h/IwTypes.h"