	.file	"IwSoundWAV.cpp"
	.text
.Ltext0:
	.type	_ZL11IwDebugExitv, @function
_ZL11IwDebugExitv:
.LFB24:
	.file 1 "c:/marmalade/7.5/modules/iwutil/h/IwDebug.h"
	.loc 1 348 0
	.cfi_startproc
	pushl	%ebp
	.cfi_def_cfa_offset 8
	.cfi_offset 5, -8
	movl	%esp, %ebp
	.cfi_def_cfa_register 5
	pushl	%ebx
	leal	-4(%esp), %esp
	.cfi_offset 3, -12
	call	__x86.get_pc_thunk.bx
	addl	$_GLOBAL_OFFSET_TABLE_, %ebx
	.loc 1 349 0
	call	abort@PLT
	.cfi_endproc
.LFE24:
	.size	_ZL11IwDebugExitv, .-_ZL11IwDebugExitv
	.section	.text._ZN12CIwCallStackC2EPKc,"axG",@progbits,_ZN12CIwCallStackC5EPKc,comdat
	.align 2
	.weak	_ZN12CIwCallStackC2EPKc
	.hidden	_ZN12CIwCallStackC2EPKc
	.type	_ZN12CIwCallStackC2EPKc, @function
_ZN12CIwCallStackC2EPKc:
.LFB137:
	.file 2 "c:/marmalade/7.5/modules/iwutil/h/IwRuntime.h"
	.loc 2 97 0
	.cfi_startproc
	pushl	%ebp
	.cfi_def_cfa_offset 8
	.cfi_offset 5, -8
	movl	%esp, %ebp
	.cfi_def_cfa_register 5
	pushl	%ebx
	leal	-20(%esp), %esp
	.cfi_offset 3, -12
	call	__x86.get_pc_thunk.bx
	addl	$_GLOBAL_OFFSET_TABLE_, %ebx
.LBB2:
	.loc 2 99 0
	movl	8(%ebp), %eax
	movl	%eax, 4(%esp)
	movl	12(%ebp), %eax
	movl	%eax, (%esp)
	call	IwCallStackEnter@PLT
	movl	8(%ebp), %edx
	movb	%al, (%edx)
.LBE2:
	.loc 2 100 0
	leal	20(%esp), %esp
	popl	%ebx
	.cfi_restore 3
	popl	%ebp
	.cfi_restore 5
	.cfi_def_cfa 4, 4
	ret
	.cfi_endproc
.LFE137:
	.size	_ZN12CIwCallStackC2EPKc, .-_ZN12CIwCallStackC2EPKc
	.weak	_ZN12CIwCallStackC1EPKc
	.hidden	_ZN12CIwCallStackC1EPKc
	.set	_ZN12CIwCallStackC1EPKc,_ZN12CIwCallStackC2EPKc
	.section	.text._ZN12CIwCallStackD2Ev,"axG",@progbits,_ZN12CIwCallStackD5Ev,comdat
	.align 2
	.weak	_ZN12CIwCallStackD2Ev
	.hidden	_ZN12CIwCallStackD2Ev
	.type	_ZN12CIwCallStackD2Ev, @function
_ZN12CIwCallStackD2Ev:
.LFB140:
	.loc 2 101 0
	.cfi_startproc
	pushl	%ebp
	.cfi_def_cfa_offset 8
	.cfi_offset 5, -8
	movl	%esp, %ebp
	.cfi_def_cfa_register 5
	pushl	%ebx
	leal	-20(%esp), %esp
	.cfi_offset 3, -12
	call	__x86.get_pc_thunk.bx
	addl	$_GLOBAL_OFFSET_TABLE_, %ebx
.LBB3:
	.loc 2 103 0
	movl	8(%ebp), %eax
	movzbl	(%eax), %eax
	testb	%al, %al
	je	.L3
	.loc 2 104 0
	movl	8(%ebp), %eax
	movl	%eax, (%esp)
	call	IwCallStackLeave@PLT
.L3:
.LBE3:
	.loc 2 105 0
	leal	20(%esp), %esp
	popl	%ebx
	.cfi_restore 3
	popl	%ebp
	.cfi_restore 5
	.cfi_def_cfa 4, 4
	ret
	.cfi_endproc
.LFE140:
	.size	_ZN12CIwCallStackD2Ev, .-_ZN12CIwCallStackD2Ev
	.weak	_ZN12CIwCallStackD1Ev
	.hidden	_ZN12CIwCallStackD1Ev
	.set	_ZN12CIwCallStackD1Ev,_ZN12CIwCallStackD2Ev
	.section	.text._ZN12CIwSoundData14SetSampleCountEj,"axG",@progbits,_ZN12CIwSoundData14SetSampleCountEj,comdat
	.align 2
	.weak	_ZN12CIwSoundData14SetSampleCountEj
	.hidden	_ZN12CIwSoundData14SetSampleCountEj
	.type	_ZN12CIwSoundData14SetSampleCountEj, @function
_ZN12CIwSoundData14SetSampleCountEj:
.LFB1382:
	.file 3 "c:/marmalade/7.5/examples/gametutorial/cpp/modules/soundengine/h/IwSoundData.h"
	.loc 3 44 0
	.cfi_startproc
	pushl	%ebp
	.cfi_def_cfa_offset 8
	.cfi_offset 5, -8
	leal	(%esp), %ebp
	.cfi_def_cfa_register 5
	.loc 3 44 0
	movl	8(%ebp), %eax
	movl	12(%ebp), %edx
	movl	%edx, 20(%eax)
	popl	%ebp
	.cfi_restore 5
	.cfi_def_cfa 4, 4
	ret
	.cfi_endproc
.LFE1382:
	.size	_ZN12CIwSoundData14SetSampleCountEj, .-_ZN12CIwSoundData14SetSampleCountEj
	.text
	.align 2
	.globl	_ZN11CIwSoundWAVC2Ev
	.hidden	_ZN11CIwSoundWAVC2Ev
	.type	_ZN11CIwSoundWAVC2Ev, @function
_ZN11CIwSoundWAVC2Ev:
.LFB1431:
	.file 4 "c:/Marmalade/7.5/examples/GameTutorial/CPP/modules/soundengine/source/IwSoundWAV.cpp"
	.loc 4 28 0
	.cfi_startproc
	pushl	%ebp
	.cfi_def_cfa_offset 8
	.cfi_offset 5, -8
	movl	%esp, %ebp
	.cfi_def_cfa_register 5
	.loc 4 30 0
	popl	%ebp
	.cfi_restore 5
	.cfi_def_cfa 4, 4
	ret
	.cfi_endproc
.LFE1431:
	.size	_ZN11CIwSoundWAVC2Ev, .-_ZN11CIwSoundWAVC2Ev
	.globl	_ZN11CIwSoundWAVC1Ev
	.hidden	_ZN11CIwSoundWAVC1Ev
	.set	_ZN11CIwSoundWAVC1Ev,_ZN11CIwSoundWAVC2Ev
	.section	.rodata
.LC0:
	.string	"CIwSoundWAV::Create"
.LC1:
	.string	"rb"
.LC2:
	.string	"SOUND"
.LC3:
	.string	"Could not load file %s"
	.align 4
.LC4:
	.string	"c:/Marmalade/7.5/examples/GameTutorial/CPP/modules/soundengine/source/IwSoundWAV.cpp"
.LC5:
	.string	"pFile"
.LC6:
	.string	"RIFF"
.LC7:
	.string	"WAVE"
	.align 4
.LC8:
	.string	"Invalid header in %s (RIFF Header)"
.LC9:
	.string	"false"
.LC10:
	.string	"fmt "
.LC11:
	.string	"data"
.LC12:
	.string	"fact"
.LC13:
	.string	"LISTDISP"
	.align 4
.LC14:
	.string	"Unhandled chunk type '%s' in %s. Ignoring this data."
.LC15:
	.string	"strstr(g_IgnoreTypes, typeID)"
.LC16:
	.string	"No data chunk read in %s"
.LC17:
	.string	"readData"
	.text
	.align 2
	.globl	_ZN11CIwSoundWAV6CreateERK9CIwStringILi160EEPvj
	.hidden	_ZN11CIwSoundWAV6CreateERK9CIwStringILi160EEPvj
	.type	_ZN11CIwSoundWAV6CreateERK9CIwStringILi160EEPvj, @function
_ZN11CIwSoundWAV6CreateERK9CIwStringILi160EEPvj:
.LFB1433:
	.loc 4 34 0
	.cfi_startproc
	pushl	%ebp
	.cfi_def_cfa_offset 8
	.cfi_offset 5, -8
	movl	%esp, %ebp
	.cfi_def_cfa_register 5
	pushl	%esi
	pushl	%ebx
	leal	-80(%esp), %esp
	.cfi_offset 6, -12
	.cfi_offset 3, -16
	call	__x86.get_pc_thunk.bx
	addl	$_GLOBAL_OFFSET_TABLE_, %ebx
.LBB4:
	.loc 4 35 0
	leal	.LC0@GOTOFF(%ebx), %eax
	movl	%eax, 4(%esp)
	leal	-29(%ebp), %eax
	movl	%eax, (%esp)
	call	_ZN12CIwCallStackC1EPKc
	.loc 4 37 0
	movl	$0, -36(%ebp)
	.loc 4 40 0
	movl	$0, -12(%ebp)
	.loc 4 42 0
	cmpl	$0, 12(%ebp)
	je	.L8
	.loc 4 43 0
	movl	16(%ebp), %eax
	movl	%eax, 4(%esp)
	movl	12(%ebp), %eax
	movl	%eax, (%esp)
	call	s3eFileOpenFromMemory@PLT
	movl	%eax, -12(%ebp)
	jmp	.L9
.L8:
	.loc 4 45 0
	movl	8(%ebp), %eax
	movl	%eax, (%esp)
	call	_ZNK9CIwStringILi160EE5c_strEv
	leal	.LC1@GOTOFF(%ebx), %edx
	movl	%edx, 4(%esp)
	movl	%eax, (%esp)
	call	_Z18IwFileOpenPrefixedPKcS0_@PLT
	movl	%eax, -12(%ebp)
.L9:
.LBB5:
.LBB6:
	.loc 4 47 0
	cmpl	$0, -12(%ebp)
	jne	.L10
	.loc 4 47 0 is_stmt 0 discriminator 1
	leal	.LC2@GOTOFF(%ebx), %eax
	movl	%eax, (%esp)
	call	IwDebugAssertIsChannelOn@PLT
	testb	%al, %al
	je	.L10
	movzbl	_ZZN11CIwSoundWAV6CreateERK9CIwStringILi160EEPvjE21_s_IwAssertIgnoreThis@GOTOFF(%ebx), %eax
	testb	%al, %al
	jne	.L10
	.loc 4 47 0 discriminator 3
	movl	$1, %eax
	jmp	.L11
.L10:
	.loc 4 47 0 discriminator 2
	movl	$0, %eax
.L11:
	.loc 4 47 0 discriminator 4
	testb	%al, %al
	je	.L12
	.loc 4 47 0 discriminator 1
	movl	$0, (%esp)
	call	IwDebugAssertSetSolution@PLT
	movl	$0, (%esp)
	call	IwDebugAssertSetUID@PLT
	movl	8(%ebp), %eax
	movl	%eax, (%esp)
	call	_ZNK9CIwStringILi160EE5c_strEv
	movl	%eax, 4(%esp)
	leal	.LC3@GOTOFF(%ebx), %eax
	movl	%eax, (%esp)
	call	IwDebugAssertSetMessage@PLT
	movl	$1, 12(%esp)
	movl	$47, 8(%esp)
	leal	.LC4@GOTOFF(%ebx), %eax
	movl	%eax, 4(%esp)
	leal	.LC5@GOTOFF(%ebx), %eax
	movl	%eax, (%esp)
	call	IwDebugAssertShow@PLT
	cmpl	$1, %eax
	je	.L14
	cmpl	$2, %eax
	je	.L15
	.loc 4 47 0
	jmp	.L13
.L14:
	.loc 4 47 0 discriminator 2
	call	s3eDebugIsDebuggerPresent@PLT
	testb	%al, %al
	setne	%al
	testb	%al, %al
	je	.L16
	.loc 4 47 0 discriminator 1
	call	s3eDebugIsDebuggerPresent@PLT
	testb	%al, %al
	setne	%al
	testb	%al, %al
	je	.L17
#APP
# 47 "c:/Marmalade/7.5/examples/GameTutorial/CPP/modules/soundengine/source/IwSoundWAV.cpp" 1
	 int $3 
# 0 "" 2
#NO_APP
	jmp	.L17
.L16:
	.loc 4 47 0 discriminator 2
	call	_ZL11IwDebugExitv
	jmp	.L13
.L17:
	.loc 4 47 0 discriminator 1
	jmp	.L13
.L15:
	.loc 4 47 0 discriminator 3
	movb	$1, _ZZN11CIwSoundWAV6CreateERK9CIwStringILi160EEPvjE21_s_IwAssertIgnoreThis@GOTOFF(%ebx)
	nop
.L13:
	.loc 4 47 0 discriminator 1
	movl	$0, (%esp)
	call	IwDebugAssertSetUID@PLT
.L12:
.LBE6:
.LBE5:
	.loc 4 48 0 is_stmt 1
	cmpl	$0, -12(%ebp)
	jne	.L18
	.loc 4 49 0
	movl	$0, %esi
	jmp	.L19
.L18:
.LBB7:
	.loc 4 54 0
	movl	-12(%ebp), %eax
	movl	%eax, 12(%esp)
	movl	$1, 8(%esp)
	movl	$12, 4(%esp)
	leal	-48(%ebp), %eax
	movl	%eax, (%esp)
	call	s3eFileRead@PLT
	.loc 4 56 0
	cmpl	$1, %eax
	jne	.L20
	.loc 4 55 0
	movl	$4, 8(%esp)
	leal	.LC6@GOTOFF(%ebx), %eax
	movl	%eax, 4(%esp)
	leal	-48(%ebp), %eax
	movl	%eax, (%esp)
	call	strncmp@PLT
	testl	%eax, %eax
	jne	.L20
	.loc 4 56 0
	movl	$4, 8(%esp)
	leal	.LC7@GOTOFF(%ebx), %eax
	movl	%eax, 4(%esp)
	leal	-48(%ebp), %eax
	addl	$8, %eax
	movl	%eax, (%esp)
	call	strncmp@PLT
	testl	%eax, %eax
	je	.L21
.L20:
	.loc 4 56 0 is_stmt 0 discriminator 1
	movl	$1, %eax
	jmp	.L22
.L21:
	.loc 4 56 0 discriminator 2
	movl	$0, %eax
.L22:
	.loc 4 54 0 is_stmt 1
	testb	%al, %al
	je	.L23
.LBB8:
.LBB9:
.LBB10:
	.loc 4 58 0
	leal	.LC2@GOTOFF(%ebx), %eax
	movl	%eax, (%esp)
	call	IwDebugAssertIsChannelOn@PLT
	testb	%al, %al
	je	.L24
	.loc 4 58 0 is_stmt 0 discriminator 1
	movzbl	_ZZN11CIwSoundWAV6CreateERK9CIwStringILi160EEPvjE21_s_IwAssertIgnoreThis_0@GOTOFF(%ebx), %eax
	testb	%al, %al
	jne	.L24
	.loc 4 58 0 discriminator 3
	movl	$1, %eax
	jmp	.L25
.L24:
	.loc 4 58 0 discriminator 2
	movl	$0, %eax
.L25:
	.loc 4 58 0 discriminator 4
	testb	%al, %al
	je	.L26
	.loc 4 58 0 discriminator 1
	movl	$0, (%esp)
	call	IwDebugAssertSetSolution@PLT
	movl	$0, (%esp)
	call	IwDebugAssertSetUID@PLT
	movl	8(%ebp), %eax
	movl	%eax, (%esp)
	call	_ZNK9CIwStringILi160EE5c_strEv
	movl	%eax, 4(%esp)
	leal	.LC8@GOTOFF(%ebx), %eax
	movl	%eax, (%esp)
	call	IwDebugAssertSetMessage@PLT
	movl	$1, 12(%esp)
	movl	$58, 8(%esp)
	leal	.LC4@GOTOFF(%ebx), %eax
	movl	%eax, 4(%esp)
	leal	.LC9@GOTOFF(%ebx), %eax
	movl	%eax, (%esp)
	call	IwDebugAssertShow@PLT
	cmpl	$1, %eax
	je	.L28
	cmpl	$2, %eax
	je	.L29
	.loc 4 58 0
	jmp	.L27
.L28:
	.loc 4 58 0 discriminator 2
	call	s3eDebugIsDebuggerPresent@PLT
	testb	%al, %al
	setne	%al
	testb	%al, %al
	je	.L30
	.loc 4 58 0 discriminator 1
	call	s3eDebugIsDebuggerPresent@PLT
	testb	%al, %al
	setne	%al
	testb	%al, %al
	je	.L31
#APP
# 58 "c:/Marmalade/7.5/examples/GameTutorial/CPP/modules/soundengine/source/IwSoundWAV.cpp" 1
	 int $3 
# 0 "" 2
#NO_APP
	jmp	.L31
.L30:
	.loc 4 58 0 discriminator 2
	call	_ZL11IwDebugExitv
	jmp	.L27
.L31:
	.loc 4 58 0 discriminator 1
	jmp	.L27
.L29:
	.loc 4 58 0 discriminator 3
	movb	$1, _ZZN11CIwSoundWAV6CreateERK9CIwStringILi160EEPvjE21_s_IwAssertIgnoreThis_0@GOTOFF(%ebx)
	nop
.L27:
	.loc 4 58 0 discriminator 1
	movl	$0, (%esp)
	call	IwDebugAssertSetUID@PLT
.L26:
.LBE10:
.LBE9:
	.loc 4 59 0 is_stmt 1
	movl	-12(%ebp), %eax
	movl	%eax, (%esp)
	call	s3eFileClose@PLT
	.loc 4 60 0
	movl	$0, %esi
	jmp	.L19
.L23:
.LBE8:
.LBE7:
	.loc 4 66 0
	movb	$0, -13(%ebp)
	.loc 4 67 0
	movl	-12(%ebp), %eax
	movl	%eax, (%esp)
	call	s3eFileGetSize@PLT
	movl	%eax, -20(%ebp)
	.loc 4 69 0
	jmp	.L32
.L48:
.LBB11:
	.loc 4 71 0
	movl	-12(%ebp), %eax
	movl	%eax, (%esp)
	call	s3eFileTell@PLT
	movl	%eax, -24(%ebp)
.LBB12:
	.loc 4 75 0
	movl	$4, 8(%esp)
	leal	.LC10@GOTOFF(%ebx), %eax
	movl	%eax, 4(%esp)
	leal	-56(%ebp), %eax
	movl	%eax, (%esp)
	call	strncmp@PLT
	testl	%eax, %eax
	jne	.L33
	.loc 4 78 0
	movl	-12(%ebp), %eax
	movl	%eax, 12(%esp)
	leal	-36(%ebp), %eax
	movl	%eax, 8(%esp)
	leal	-56(%ebp), %eax
	movl	%eax, 4(%esp)
	movl	8(%ebp), %eax
	movl	%eax, (%esp)
	call	_ZN11CIwSoundWAV15ReadChunkFormatERK9CIwStringILi160EERK17IwRIFFChunkHeaderRP12CIwSoundDataR7s3eFile
	xorl	$1, %eax
	testb	%al, %al
	je	.L34
	.loc 4 80 0
	movl	-12(%ebp), %eax
	movl	%eax, (%esp)
	call	s3eFileClose@PLT
	.loc 4 81 0
	movl	$0, %esi
	jmp	.L19
.L33:
.LBB13:
.LBB14:
	.loc 4 84 0
	movl	$4, 8(%esp)
	leal	.LC11@GOTOFF(%ebx), %eax
	movl	%eax, 4(%esp)
	leal	-56(%ebp), %eax
	movl	%eax, (%esp)
	call	strncmp@PLT
	testl	%eax, %eax
	jne	.L35
	.loc 4 86 0
	movl	-12(%ebp), %eax
	movl	%eax, 12(%esp)
	leal	-36(%ebp), %eax
	movl	%eax, 8(%esp)
	leal	-56(%ebp), %eax
	movl	%eax, 4(%esp)
	movl	8(%ebp), %eax
	movl	%eax, (%esp)
	call	_ZN11CIwSoundWAV13ReadChunkDataERK9CIwStringILi160EERK17IwRIFFChunkHeaderRP12CIwSoundDataR7s3eFile
	xorl	$1, %eax
	testb	%al, %al
	je	.L36
	.loc 4 88 0
	movl	-12(%ebp), %eax
	movl	%eax, (%esp)
	call	s3eFileClose@PLT
	.loc 4 89 0
	movl	$0, %esi
	jmp	.L19
.L36:
	.loc 4 91 0
	movb	$1, -13(%ebp)
	jmp	.L34
.L35:
.LBB15:
.LBB16:
	.loc 4 93 0
	movl	$4, 8(%esp)
	leal	.LC12@GOTOFF(%ebx), %eax
	movl	%eax, 4(%esp)
	leal	-56(%ebp), %eax
	movl	%eax, (%esp)
	call	strncmp@PLT
	testl	%eax, %eax
	jne	.L37
	.loc 4 95 0
	movl	-12(%ebp), %eax
	movl	%eax, 12(%esp)
	leal	-36(%ebp), %eax
	movl	%eax, 8(%esp)
	leal	-56(%ebp), %eax
	movl	%eax, 4(%esp)
	movl	8(%ebp), %eax
	movl	%eax, (%esp)
	call	_ZN11CIwSoundWAV13ReadChunkFactERK9CIwStringILi160EERK17IwRIFFChunkHeaderRP12CIwSoundDataR7s3eFile
	xorl	$1, %eax
	testb	%al, %al
	je	.L34
	.loc 4 97 0
	movl	-12(%ebp), %eax
	movl	%eax, (%esp)
	call	s3eFileClose@PLT
	.loc 4 98 0
	movl	$0, %esi
	jmp	.L19
.L37:
.LBB17:
	.loc 4 106 0
	movl	$4, 8(%esp)
	leal	-56(%ebp), %eax
	movl	%eax, 4(%esp)
	leal	-61(%ebp), %eax
	movl	%eax, (%esp)
	call	strncpy@PLT
	.loc 4 107 0
	movb	$0, -57(%ebp)
	.loc 4 110 0
	leal	.LC13@GOTOFF(%ebx), %eax
	movl	%eax, -28(%ebp)
.LBB18:
.LBB19:
	.loc 4 112 0
	leal	-61(%ebp), %eax
	movl	%eax, 4(%esp)
	movl	-28(%ebp), %eax
	movl	%eax, (%esp)
	call	strstr@PLT
	testl	%eax, %eax
	jne	.L38
	.loc 4 112 0 is_stmt 0 discriminator 1
	leal	.LC2@GOTOFF(%ebx), %eax
	movl	%eax, (%esp)
	call	IwDebugAssertIsChannelOn@PLT
	testb	%al, %al
	je	.L38
	movzbl	_ZZN11CIwSoundWAV6CreateERK9CIwStringILi160EEPvjE21_s_IwAssertIgnoreThis_1@GOTOFF(%ebx), %eax
	testb	%al, %al
	jne	.L38
	.loc 4 112 0 discriminator 3
	movl	$1, %eax
	jmp	.L39
.L38:
	.loc 4 112 0 discriminator 2
	movl	$0, %eax
.L39:
	.loc 4 112 0 discriminator 4
	testb	%al, %al
	je	.L34
	.loc 4 112 0 discriminator 1
	movl	$0, (%esp)
	call	IwDebugAssertSetSolution@PLT
	movl	$0, (%esp)
	call	IwDebugAssertSetUID@PLT
	movl	8(%ebp), %eax
	movl	%eax, (%esp)
	call	_ZNK9CIwStringILi160EE5c_strEv
	movl	%eax, 8(%esp)
	leal	-61(%ebp), %eax
	movl	%eax, 4(%esp)
	leal	.LC14@GOTOFF(%ebx), %eax
	movl	%eax, (%esp)
	call	IwDebugAssertSetMessage@PLT
	movl	$1, 12(%esp)
	movl	$112, 8(%esp)
	leal	.LC4@GOTOFF(%ebx), %eax
	movl	%eax, 4(%esp)
	leal	.LC15@GOTOFF(%ebx), %eax
	movl	%eax, (%esp)
	call	IwDebugAssertShow@PLT
	cmpl	$1, %eax
	je	.L42
	cmpl	$2, %eax
	je	.L43
	.loc 4 112 0
	jmp	.L41
.L42:
	.loc 4 112 0 discriminator 2
	call	s3eDebugIsDebuggerPresent@PLT
	testb	%al, %al
	setne	%al
	testb	%al, %al
	je	.L44
	.loc 4 112 0 discriminator 1
	call	s3eDebugIsDebuggerPresent@PLT
	testb	%al, %al
	setne	%al
	testb	%al, %al
	je	.L45
#APP
# 112 "c:/Marmalade/7.5/examples/GameTutorial/CPP/modules/soundengine/source/IwSoundWAV.cpp" 1
	 int $3 
# 0 "" 2
#NO_APP
	jmp	.L45
.L44:
	.loc 4 112 0 discriminator 2
	call	_ZL11IwDebugExitv
	jmp	.L41
.L45:
	.loc 4 112 0 discriminator 1
	jmp	.L41
.L43:
	.loc 4 112 0 discriminator 3
	movb	$1, _ZZN11CIwSoundWAV6CreateERK9CIwStringILi160EEPvjE21_s_IwAssertIgnoreThis_1@GOTOFF(%ebx)
	nop
.L41:
	.loc 4 112 0 discriminator 1
	movl	$0, (%esp)
	call	IwDebugAssertSetUID@PLT
.L34:
.LBE19:
.LBE18:
.LBE17:
.LBE16:
.LBE15:
.LBE14:
.LBE13:
.LBE12:
	.loc 4 116 0 is_stmt 1
	movl	-52(%ebp), %edx
	movl	-24(%ebp), %eax
	addl	%edx, %eax
	cmpl	-20(%ebp), %eax
	jb	.L46
	.loc 4 117 0
	jmp	.L47
.L46:
	.loc 4 120 0
	movl	-52(%ebp), %edx
	movl	-24(%ebp), %eax
	addl	%edx, %eax
	movl	$0, 8(%esp)
	movl	%eax, 4(%esp)
	movl	-12(%ebp), %eax
	movl	%eax, (%esp)
	call	s3eFileSeek@PLT
.L32:
.LBE11:
	.loc 4 69 0 discriminator 1
	movl	-12(%ebp), %eax
	movl	%eax, 4(%esp)
	leal	-56(%ebp), %eax
	movl	%eax, (%esp)
	call	_ZN11CIwSoundWAV15ReadChunkHeaderER17IwRIFFChunkHeaderR7s3eFile
	testb	%al, %al
	jne	.L48
.L47:
.LBB20:
.LBB21:
	.loc 4 124 0
	movzbl	-13(%ebp), %eax
	xorl	$1, %eax
	testb	%al, %al
	je	.L49
	.loc 4 124 0 is_stmt 0 discriminator 1
	leal	.LC2@GOTOFF(%ebx), %eax
	movl	%eax, (%esp)
	call	IwDebugAssertIsChannelOn@PLT
	testb	%al, %al
	je	.L49
	movzbl	_ZZN11CIwSoundWAV6CreateERK9CIwStringILi160EEPvjE21_s_IwAssertIgnoreThis_2@GOTOFF(%ebx), %eax
	testb	%al, %al
	jne	.L49
	.loc 4 124 0 discriminator 3
	movl	$1, %eax
	jmp	.L50
.L49:
	.loc 4 124 0 discriminator 2
	movl	$0, %eax
.L50:
	.loc 4 124 0 discriminator 4
	testb	%al, %al
	je	.L51
	.loc 4 124 0 discriminator 1
	movl	$0, (%esp)
	call	IwDebugAssertSetSolution@PLT
	movl	$0, (%esp)
	call	IwDebugAssertSetUID@PLT
	movl	8(%ebp), %eax
	movl	%eax, (%esp)
	call	_ZNK9CIwStringILi160EE5c_strEv
	movl	%eax, 4(%esp)
	leal	.LC16@GOTOFF(%ebx), %eax
	movl	%eax, (%esp)
	call	IwDebugAssertSetMessage@PLT
	movl	$1, 12(%esp)
	movl	$124, 8(%esp)
	leal	.LC4@GOTOFF(%ebx), %eax
	movl	%eax, 4(%esp)
	leal	.LC17@GOTOFF(%ebx), %eax
	movl	%eax, (%esp)
	call	IwDebugAssertShow@PLT
	cmpl	$1, %eax
	je	.L53
	cmpl	$2, %eax
	je	.L54
	.loc 4 124 0
	jmp	.L52
.L53:
	.loc 4 124 0 discriminator 2
	call	s3eDebugIsDebuggerPresent@PLT
	testb	%al, %al
	setne	%al
	testb	%al, %al
	je	.L55
	.loc 4 124 0 discriminator 1
	call	s3eDebugIsDebuggerPresent@PLT
	testb	%al, %al
	setne	%al
	testb	%al, %al
	je	.L56
#APP
# 124 "c:/Marmalade/7.5/examples/GameTutorial/CPP/modules/soundengine/source/IwSoundWAV.cpp" 1
	 int $3 
# 0 "" 2
#NO_APP
	jmp	.L56
.L55:
	.loc 4 124 0 discriminator 2
	call	_ZL11IwDebugExitv
	jmp	.L52
.L56:
	.loc 4 124 0 discriminator 1
	jmp	.L52
.L54:
	.loc 4 124 0 discriminator 3
	movb	$1, _ZZN11CIwSoundWAV6CreateERK9CIwStringILi160EEPvjE21_s_IwAssertIgnoreThis_2@GOTOFF(%ebx)
	nop
.L52:
	.loc 4 124 0 discriminator 1
	movl	$0, (%esp)
	call	IwDebugAssertSetUID@PLT
.L51:
.LBE21:
.LBE20:
	.loc 4 125 0 is_stmt 1
	movl	-12(%ebp), %eax
	movl	%eax, (%esp)
	call	s3eFileClose@PLT
	.loc 4 126 0
	movl	-36(%ebp), %esi
.L19:
	.loc 4 126 0 is_stmt 0 discriminator 1
	leal	-29(%ebp), %eax
	movl	%eax, (%esp)
	call	_ZN12CIwCallStackD1Ev
	movl	%esi, %eax
.LBE4:
	.loc 4 127 0 is_stmt 1 discriminator 1
	leal	80(%esp), %esp
	popl	%ebx
	.cfi_restore 3
	popl	%esi
	.cfi_restore 6
	popl	%ebp
	.cfi_restore 5
	.cfi_def_cfa 4, 4
	ret
	.cfi_endproc
.LFE1433:
	.size	_ZN11CIwSoundWAV6CreateERK9CIwStringILi160EEPvj, .-_ZN11CIwSoundWAV6CreateERK9CIwStringILi160EEPvj
	.align 2
	.globl	_ZN11CIwSoundWAV15ReadChunkHeaderER17IwRIFFChunkHeaderR7s3eFile
	.hidden	_ZN11CIwSoundWAV15ReadChunkHeaderER17IwRIFFChunkHeaderR7s3eFile
	.type	_ZN11CIwSoundWAV15ReadChunkHeaderER17IwRIFFChunkHeaderR7s3eFile, @function
_ZN11CIwSoundWAV15ReadChunkHeaderER17IwRIFFChunkHeaderR7s3eFile:
.LFB1434:
	.loc 4 130 0
	.cfi_startproc
	pushl	%ebp
	.cfi_def_cfa_offset 8
	.cfi_offset 5, -8
	movl	%esp, %ebp
	.cfi_def_cfa_register 5
	pushl	%ebx
	leal	-20(%esp), %esp
	.cfi_offset 3, -12
	call	__x86.get_pc_thunk.bx
	addl	$_GLOBAL_OFFSET_TABLE_, %ebx
	.loc 4 131 0
	movl	12(%ebp), %eax
	movl	%eax, 12(%esp)
	movl	$1, 8(%esp)
	movl	$8, 4(%esp)
	movl	8(%ebp), %eax
	movl	%eax, (%esp)
	call	s3eFileRead@PLT
	cmpl	$1, %eax
	sete	%al
	.loc 4 132 0
	leal	20(%esp), %esp
	popl	%ebx
	.cfi_restore 3
	popl	%ebp
	.cfi_restore 5
	.cfi_def_cfa 4, 4
	ret
	.cfi_endproc
.LFE1434:
	.size	_ZN11CIwSoundWAV15ReadChunkHeaderER17IwRIFFChunkHeaderR7s3eFile, .-_ZN11CIwSoundWAV15ReadChunkHeaderER17IwRIFFChunkHeaderR7s3eFile
	.section	.rodata
	.align 4
.LC18:
	.string	"Invalid format chunk in WAV file"
	.align 4
.LC19:
	.string	"%s has more than 1 channel. IwSound is mono only"
.LC20:
	.string	"format.channels == 1"
	.align 4
.LC21:
	.string	"Unsupported WAVE file format (%d)"
	.align 4
.LC22:
	.string	"Unsupported bits-per-sample (%d)"
	.text
	.align 2
	.globl	_ZN11CIwSoundWAV15ReadChunkFormatERK9CIwStringILi160EERK17IwRIFFChunkHeaderRP12CIwSoundDataR7s3eFile
	.hidden	_ZN11CIwSoundWAV15ReadChunkFormatERK9CIwStringILi160EERK17IwRIFFChunkHeaderRP12CIwSoundDataR7s3eFile
	.type	_ZN11CIwSoundWAV15ReadChunkFormatERK9CIwStringILi160EERK17IwRIFFChunkHeaderRP12CIwSoundDataR7s3eFile, @function
_ZN11CIwSoundWAV15ReadChunkFormatERK9CIwStringILi160EERK17IwRIFFChunkHeaderRP12CIwSoundDataR7s3eFile:
.LFB1435:
	.loc 4 135 0
	.cfi_startproc
	pushl	%ebp
	.cfi_def_cfa_offset 8
	.cfi_offset 5, -8
	movl	%esp, %ebp
	.cfi_def_cfa_register 5
	pushl	%esi
	pushl	%ebx
	leal	-64(%esp), %esp
	.cfi_offset 6, -12
	.cfi_offset 3, -16
	call	__x86.get_pc_thunk.bx
	addl	$_GLOBAL_OFFSET_TABLE_, %ebx
.LBB22:
.LBB23:
	.loc 4 139 0
	movl	12(%ebp), %eax
	movl	4(%eax), %eax
	.loc 4 140 0
	cmpl	$16, %eax
	jb	.L61
	.loc 4 140 0 is_stmt 0 discriminator 2
	movl	20(%ebp), %eax
	movl	%eax, 12(%esp)
	movl	$1, 8(%esp)
	movl	$20, 4(%esp)
	leal	-28(%ebp), %eax
	movl	%eax, (%esp)
	call	s3eFileRead@PLT
	cmpl	$1, %eax
	je	.L62
.L61:
	.loc 4 140 0 discriminator 1
	movl	$1, %eax
	jmp	.L63
.L62:
	.loc 4 140 0 discriminator 3
	movl	$0, %eax
.L63:
	.loc 4 139 0 is_stmt 1
	testb	%al, %al
	je	.L64
.LBB24:
.LBB25:
.LBB26:
	.loc 4 142 0
	leal	.LC2@GOTOFF(%ebx), %eax
	movl	%eax, (%esp)
	call	IwDebugAssertIsChannelOn@PLT
	testb	%al, %al
	je	.L65
	.loc 4 142 0 is_stmt 0 discriminator 1
	movzbl	_ZZN11CIwSoundWAV15ReadChunkFormatERK9CIwStringILi160EERK17IwRIFFChunkHeaderRP12CIwSoundDataR7s3eFileE21_s_IwAssertIgnoreThis@GOTOFF(%ebx), %eax
	testb	%al, %al
	jne	.L65
	.loc 4 142 0 discriminator 3
	movl	$1, %eax
	jmp	.L66
.L65:
	.loc 4 142 0 discriminator 2
	movl	$0, %eax
.L66:
	.loc 4 142 0 discriminator 4
	testb	%al, %al
	je	.L67
	.loc 4 142 0 discriminator 1
	movl	$0, (%esp)
	call	IwDebugAssertSetSolution@PLT
	movl	$0, (%esp)
	call	IwDebugAssertSetUID@PLT
	leal	.LC18@GOTOFF(%ebx), %eax
	movl	%eax, (%esp)
	call	IwDebugAssertSetMessage@PLT
	movl	$1, 12(%esp)
	movl	$142, 8(%esp)
	leal	.LC4@GOTOFF(%ebx), %eax
	movl	%eax, 4(%esp)
	leal	.LC9@GOTOFF(%ebx), %eax
	movl	%eax, (%esp)
	call	IwDebugAssertShow@PLT
	cmpl	$1, %eax
	je	.L69
	cmpl	$2, %eax
	je	.L70
	.loc 4 142 0
	jmp	.L68
.L69:
	.loc 4 142 0 discriminator 2
	call	s3eDebugIsDebuggerPresent@PLT
	testb	%al, %al
	setne	%al
	testb	%al, %al
	je	.L71
	.loc 4 142 0 discriminator 1
	call	s3eDebugIsDebuggerPresent@PLT
	testb	%al, %al
	setne	%al
	testb	%al, %al
	je	.L72
#APP
# 142 "c:/Marmalade/7.5/examples/GameTutorial/CPP/modules/soundengine/source/IwSoundWAV.cpp" 1
	 int $3 
# 0 "" 2
#NO_APP
	jmp	.L72
.L71:
	.loc 4 142 0 discriminator 2
	call	_ZL11IwDebugExitv
	jmp	.L68
.L72:
	.loc 4 142 0 discriminator 1
	jmp	.L68
.L70:
	.loc 4 142 0 discriminator 3
	movb	$1, _ZZN11CIwSoundWAV15ReadChunkFormatERK9CIwStringILi160EERK17IwRIFFChunkHeaderRP12CIwSoundDataR7s3eFileE21_s_IwAssertIgnoreThis@GOTOFF(%ebx)
	nop
.L68:
	.loc 4 142 0 discriminator 1
	movl	$0, (%esp)
	call	IwDebugAssertSetUID@PLT
.L67:
.LBE26:
.LBE25:
	.loc 4 143 0 is_stmt 1
	movl	$0, %eax
	jmp	.L106
.L64:
.LBE24:
.LBE23:
.LBB27:
.LBB28:
	.loc 4 146 0
	movzwl	-26(%ebp), %eax
	cmpw	$1, %ax
	je	.L74
	.loc 4 146 0 is_stmt 0 discriminator 1
	leal	.LC2@GOTOFF(%ebx), %eax
	movl	%eax, (%esp)
	call	IwDebugAssertIsChannelOn@PLT
	testb	%al, %al
	je	.L74
	movzbl	_ZZN11CIwSoundWAV15ReadChunkFormatERK9CIwStringILi160EERK17IwRIFFChunkHeaderRP12CIwSoundDataR7s3eFileE21_s_IwAssertIgnoreThis_0@GOTOFF(%ebx), %eax
	testb	%al, %al
	jne	.L74
	.loc 4 146 0 discriminator 3
	movl	$1, %eax
	jmp	.L75
.L74:
	.loc 4 146 0 discriminator 2
	movl	$0, %eax
.L75:
	.loc 4 146 0 discriminator 4
	testb	%al, %al
	je	.L76
	.loc 4 146 0 discriminator 1
	movl	$0, (%esp)
	call	IwDebugAssertSetSolution@PLT
	movl	$0, (%esp)
	call	IwDebugAssertSetUID@PLT
	movl	8(%ebp), %eax
	movl	%eax, (%esp)
	call	_ZNK9CIwStringILi160EE5c_strEv
	movl	%eax, 4(%esp)
	leal	.LC19@GOTOFF(%ebx), %eax
	movl	%eax, (%esp)
	call	IwDebugAssertSetMessage@PLT
	movl	$1, 12(%esp)
	movl	$146, 8(%esp)
	leal	.LC4@GOTOFF(%ebx), %eax
	movl	%eax, 4(%esp)
	leal	.LC20@GOTOFF(%ebx), %eax
	movl	%eax, (%esp)
	call	IwDebugAssertShow@PLT
	cmpl	$1, %eax
	je	.L78
	cmpl	$2, %eax
	je	.L79
	.loc 4 146 0
	jmp	.L77
.L78:
	.loc 4 146 0 discriminator 2
	call	s3eDebugIsDebuggerPresent@PLT
	testb	%al, %al
	setne	%al
	testb	%al, %al
	je	.L80
	.loc 4 146 0 discriminator 1
	call	s3eDebugIsDebuggerPresent@PLT
	testb	%al, %al
	setne	%al
	testb	%al, %al
	je	.L81
#APP
# 146 "c:/Marmalade/7.5/examples/GameTutorial/CPP/modules/soundengine/source/IwSoundWAV.cpp" 1
	 int $3 
# 0 "" 2
#NO_APP
	jmp	.L81
.L80:
	.loc 4 146 0 discriminator 2
	call	_ZL11IwDebugExitv
	jmp	.L77
.L81:
	.loc 4 146 0 discriminator 1
	jmp	.L77
.L79:
	.loc 4 146 0 discriminator 3
	movb	$1, _ZZN11CIwSoundWAV15ReadChunkFormatERK9CIwStringILi160EERK17IwRIFFChunkHeaderRP12CIwSoundDataR7s3eFileE21_s_IwAssertIgnoreThis_0@GOTOFF(%ebx)
	nop
.L77:
	.loc 4 146 0 discriminator 1
	movl	$0, (%esp)
	call	IwDebugAssertSetUID@PLT
.L76:
.LBE28:
.LBE27:
.LBB29:
	.loc 4 149 0 is_stmt 1
	movzwl	-28(%ebp), %eax
	movzwl	%ax, %eax
	cmpl	$1, %eax
	je	.L83
	cmpl	$17, %eax
	je	.L84
.LBB30:
.LBB31:
.LBB32:
	.loc 4 152 0
	leal	.LC2@GOTOFF(%ebx), %eax
	movl	%eax, (%esp)
	call	IwDebugAssertIsChannelOn@PLT
	testb	%al, %al
	je	.L85
	.loc 4 152 0 is_stmt 0 discriminator 1
	movzbl	_ZZN11CIwSoundWAV15ReadChunkFormatERK9CIwStringILi160EERK17IwRIFFChunkHeaderRP12CIwSoundDataR7s3eFileE21_s_IwAssertIgnoreThis_1@GOTOFF(%ebx), %eax
	testb	%al, %al
	jne	.L85
	.loc 4 152 0 discriminator 3
	movl	$1, %eax
	jmp	.L86
.L85:
	.loc 4 152 0 discriminator 2
	movl	$0, %eax
.L86:
	.loc 4 152 0 discriminator 4
	testb	%al, %al
	je	.L87
	.loc 4 152 0 discriminator 1
	movl	$0, (%esp)
	call	IwDebugAssertSetSolution@PLT
	movl	$0, (%esp)
	call	IwDebugAssertSetUID@PLT
	movzwl	-28(%ebp), %eax
	movzwl	%ax, %eax
	movl	%eax, 4(%esp)
	leal	.LC21@GOTOFF(%ebx), %eax
	movl	%eax, (%esp)
	call	IwDebugAssertSetMessage@PLT
	movl	$1, 12(%esp)
	movl	$152, 8(%esp)
	leal	.LC4@GOTOFF(%ebx), %eax
	movl	%eax, 4(%esp)
	leal	.LC9@GOTOFF(%ebx), %eax
	movl	%eax, (%esp)
	call	IwDebugAssertShow@PLT
	cmpl	$1, %eax
	je	.L89
	cmpl	$2, %eax
	je	.L90
	.loc 4 152 0
	jmp	.L88
.L89:
	.loc 4 152 0 discriminator 2
	call	s3eDebugIsDebuggerPresent@PLT
	testb	%al, %al
	setne	%al
	testb	%al, %al
	je	.L91
	.loc 4 152 0 discriminator 1
	call	s3eDebugIsDebuggerPresent@PLT
	testb	%al, %al
	setne	%al
	testb	%al, %al
	je	.L92
#APP
# 152 "c:/Marmalade/7.5/examples/GameTutorial/CPP/modules/soundengine/source/IwSoundWAV.cpp" 1
	 int $3 
# 0 "" 2
#NO_APP
	jmp	.L92
.L91:
	.loc 4 152 0 discriminator 2
	call	_ZL11IwDebugExitv
	jmp	.L88
.L92:
	.loc 4 152 0 discriminator 1
	jmp	.L88
.L90:
	.loc 4 152 0 discriminator 3
	movb	$1, _ZZN11CIwSoundWAV15ReadChunkFormatERK9CIwStringILi160EERK17IwRIFFChunkHeaderRP12CIwSoundDataR7s3eFileE21_s_IwAssertIgnoreThis_1@GOTOFF(%ebx)
	nop
.L88:
	.loc 4 152 0 discriminator 1
	movl	$0, (%esp)
	call	IwDebugAssertSetUID@PLT
.L87:
.LBE32:
.LBE31:
	.loc 4 153 0 is_stmt 1
	movl	$0, %eax
	jmp	.L106
.L83:
.LBB33:
	.loc 4 158 0
	movzwl	-14(%ebp), %eax
	movzwl	%ax, %eax
	cmpl	$8, %eax
	je	.L94
	cmpl	$16, %eax
	je	.L95
	jmp	.L107
.L94:
.LBB34:
	.loc 4 161 0
	movl	$36, (%esp)
	call	_Znwj@PLT
	movl	%eax, %esi
	movl	-24(%ebp), %eax
	movl	%eax, 8(%esp)
	movl	$0, 4(%esp)
	movl	%esi, (%esp)
	call	_ZN12CIwSoundDataC1E17IwSoundDataFormatj@PLT
	movl	16(%ebp), %eax
	movl	%esi, (%eax)
	.loc 4 162 0
	jmp	.L96
.L95:
	.loc 4 165 0
	movl	$36, (%esp)
	call	_Znwj@PLT
	movl	%eax, %esi
	movl	-24(%ebp), %eax
	movl	%eax, 8(%esp)
	movl	$1, 4(%esp)
	movl	%esi, (%esp)
	call	_ZN12CIwSoundDataC1E17IwSoundDataFormatj@PLT
	movl	16(%ebp), %eax
	movl	%esi, (%eax)
	.loc 4 166 0
	jmp	.L96
.L107:
.LBB35:
.LBB36:
	.loc 4 169 0
	leal	.LC2@GOTOFF(%ebx), %eax
	movl	%eax, (%esp)
	call	IwDebugAssertIsChannelOn@PLT
	testb	%al, %al
	je	.L97
	.loc 4 169 0 is_stmt 0 discriminator 1
	movzbl	_ZZN11CIwSoundWAV15ReadChunkFormatERK9CIwStringILi160EERK17IwRIFFChunkHeaderRP12CIwSoundDataR7s3eFileE21_s_IwAssertIgnoreThis_2@GOTOFF(%ebx), %eax
	testb	%al, %al
	jne	.L97
	.loc 4 169 0 discriminator 3
	movl	$1, %eax
	jmp	.L98
.L97:
	.loc 4 169 0 discriminator 2
	movl	$0, %eax
.L98:
	.loc 4 169 0 discriminator 4
	testb	%al, %al
	je	.L99
	.loc 4 169 0 discriminator 1
	movl	$0, (%esp)
	call	IwDebugAssertSetSolution@PLT
	movl	$0, (%esp)
	call	IwDebugAssertSetUID@PLT
	movzwl	-14(%ebp), %eax
	movzwl	%ax, %eax
	movl	%eax, 4(%esp)
	leal	.LC22@GOTOFF(%ebx), %eax
	movl	%eax, (%esp)
	call	IwDebugAssertSetMessage@PLT
	movl	$1, 12(%esp)
	movl	$169, 8(%esp)
	leal	.LC4@GOTOFF(%ebx), %eax
	movl	%eax, 4(%esp)
	leal	.LC9@GOTOFF(%ebx), %eax
	movl	%eax, (%esp)
	call	IwDebugAssertShow@PLT
	cmpl	$1, %eax
	je	.L101
	cmpl	$2, %eax
	je	.L102
	.loc 4 169 0
	jmp	.L100
.L101:
	.loc 4 169 0 discriminator 2
	call	s3eDebugIsDebuggerPresent@PLT
	testb	%al, %al
	setne	%al
	testb	%al, %al
	je	.L103
	.loc 4 169 0 discriminator 1
	call	s3eDebugIsDebuggerPresent@PLT
	testb	%al, %al
	setne	%al
	testb	%al, %al
	je	.L104
#APP
# 169 "c:/Marmalade/7.5/examples/GameTutorial/CPP/modules/soundengine/source/IwSoundWAV.cpp" 1
	 int $3 
# 0 "" 2
#NO_APP
	jmp	.L104
.L103:
	.loc 4 169 0 discriminator 2
	call	_ZL11IwDebugExitv
	jmp	.L100
.L104:
	.loc 4 169 0 discriminator 1
	jmp	.L100
.L102:
	.loc 4 169 0 discriminator 3
	movb	$1, _ZZN11CIwSoundWAV15ReadChunkFormatERK9CIwStringILi160EERK17IwRIFFChunkHeaderRP12CIwSoundDataR7s3eFileE21_s_IwAssertIgnoreThis_2@GOTOFF(%ebx)
	nop
.L100:
	.loc 4 169 0 discriminator 1
	movl	$0, (%esp)
	call	IwDebugAssertSetUID@PLT
.L99:
.LBE36:
.LBE35:
	.loc 4 170 0 is_stmt 1
	movl	$0, %eax
	jmp	.L106
.L96:
.LBE34:
.LBE33:
	.loc 4 173 0
	jmp	.L105
.L84:
	.loc 4 179 0
	movl	$44, (%esp)
	call	_Znwj@PLT
	movl	%eax, %esi
	movzwl	-16(%ebp), %eax
	movzwl	%ax, %ecx
	movzwl	-10(%ebp), %eax
	movzwl	%ax, %edx
	movl	-24(%ebp), %eax
	movl	%ecx, 16(%esp)
	movl	%edx, 12(%esp)
	movl	%eax, 8(%esp)
	movl	$2, 4(%esp)
	movl	%esi, (%esp)
	call	_ZN17CIwSoundDataADPCMC1E17IwSoundDataFormatjjj@PLT
	movl	16(%ebp), %eax
	movl	%esi, (%eax)
	.loc 4 180 0
	nop
.L105:
.LBE30:
.LBE29:
	.loc 4 183 0
	movl	$1, %eax
.L106:
.LBE22:
	.loc 4 184 0
	leal	64(%esp), %esp
	popl	%ebx
	.cfi_restore 3
	popl	%esi
	.cfi_restore 6
	popl	%ebp
	.cfi_restore 5
	.cfi_def_cfa 4, 4
	ret
	.cfi_endproc
.LFE1435:
	.size	_ZN11CIwSoundWAV15ReadChunkFormatERK9CIwStringILi160EERK17IwRIFFChunkHeaderRP12CIwSoundDataR7s3eFile, .-_ZN11CIwSoundWAV15ReadChunkFormatERK9CIwStringILi160EERK17IwRIFFChunkHeaderRP12CIwSoundDataR7s3eFile
	.section	.rodata
	.align 4
.LC23:
	.string	"Data chunk encountered before format chunk in %s"
.LC24:
	.string	"Unexpected data size in %s"
	.align 4
.LC25:
	.string	"(currentBufSiz == 0) || (header.length == currentBufSiz)"
	.align 4
.LC26:
	.string	"Error reading WAVE file data from %s"
	.text
	.align 2
	.globl	_ZN11CIwSoundWAV13ReadChunkDataERK9CIwStringILi160EERK17IwRIFFChunkHeaderRP12CIwSoundDataR7s3eFile
	.hidden	_ZN11CIwSoundWAV13ReadChunkDataERK9CIwStringILi160EERK17IwRIFFChunkHeaderRP12CIwSoundDataR7s3eFile
	.type	_ZN11CIwSoundWAV13ReadChunkDataERK9CIwStringILi160EERK17IwRIFFChunkHeaderRP12CIwSoundDataR7s3eFile, @function
_ZN11CIwSoundWAV13ReadChunkDataERK9CIwStringILi160EERK17IwRIFFChunkHeaderRP12CIwSoundDataR7s3eFile:
.LFB1436:
	.loc 4 187 0
	.cfi_startproc
	pushl	%ebp
	.cfi_def_cfa_offset 8
	.cfi_offset 5, -8
	movl	%esp, %ebp
	.cfi_def_cfa_register 5
	pushl	%ebx
	leal	-36(%esp), %esp
	.cfi_offset 3, -12
	call	__x86.get_pc_thunk.bx
	addl	$_GLOBAL_OFFSET_TABLE_, %ebx
.LBB37:
.LBB38:
	.loc 4 189 0
	movl	16(%ebp), %eax
	movl	(%eax), %eax
	testl	%eax, %eax
	jne	.L109
.LBB39:
.LBB40:
.LBB41:
	.loc 4 191 0
	leal	.LC2@GOTOFF(%ebx), %eax
	movl	%eax, (%esp)
	call	IwDebugAssertIsChannelOn@PLT
	testb	%al, %al
	je	.L110
	.loc 4 191 0 is_stmt 0 discriminator 1
	movzbl	_ZZN11CIwSoundWAV13ReadChunkDataERK9CIwStringILi160EERK17IwRIFFChunkHeaderRP12CIwSoundDataR7s3eFileE21_s_IwAssertIgnoreThis@GOTOFF(%ebx), %eax
	testb	%al, %al
	jne	.L110
	.loc 4 191 0 discriminator 3
	movl	$1, %eax
	jmp	.L111
.L110:
	.loc 4 191 0 discriminator 2
	movl	$0, %eax
.L111:
	.loc 4 191 0 discriminator 4
	testb	%al, %al
	je	.L112
	.loc 4 191 0 discriminator 1
	movl	$0, (%esp)
	call	IwDebugAssertSetSolution@PLT
	movl	$0, (%esp)
	call	IwDebugAssertSetUID@PLT
	movl	8(%ebp), %eax
	movl	%eax, (%esp)
	call	_ZNK9CIwStringILi160EE5c_strEv
	movl	%eax, 4(%esp)
	leal	.LC23@GOTOFF(%ebx), %eax
	movl	%eax, (%esp)
	call	IwDebugAssertSetMessage@PLT
	movl	$1, 12(%esp)
	movl	$191, 8(%esp)
	leal	.LC4@GOTOFF(%ebx), %eax
	movl	%eax, 4(%esp)
	leal	.LC9@GOTOFF(%ebx), %eax
	movl	%eax, (%esp)
	call	IwDebugAssertShow@PLT
	cmpl	$1, %eax
	je	.L114
	cmpl	$2, %eax
	je	.L115
	.loc 4 191 0
	jmp	.L113
.L114:
	.loc 4 191 0 discriminator 2
	call	s3eDebugIsDebuggerPresent@PLT
	testb	%al, %al
	setne	%al
	testb	%al, %al
	je	.L116
	.loc 4 191 0 discriminator 1
	call	s3eDebugIsDebuggerPresent@PLT
	testb	%al, %al
	setne	%al
	testb	%al, %al
	je	.L117
#APP
# 191 "c:/Marmalade/7.5/examples/GameTutorial/CPP/modules/soundengine/source/IwSoundWAV.cpp" 1
	 int $3 
# 0 "" 2
#NO_APP
	jmp	.L117
.L116:
	.loc 4 191 0 discriminator 2
	call	_ZL11IwDebugExitv
	jmp	.L113
.L117:
	.loc 4 191 0 discriminator 1
	jmp	.L113
.L115:
	.loc 4 191 0 discriminator 3
	movb	$1, _ZZN11CIwSoundWAV13ReadChunkDataERK9CIwStringILi160EERK17IwRIFFChunkHeaderRP12CIwSoundDataR7s3eFileE21_s_IwAssertIgnoreThis@GOTOFF(%ebx)
	nop
.L113:
	.loc 4 191 0 discriminator 1
	movl	$0, (%esp)
	call	IwDebugAssertSetUID@PLT
.L112:
.LBE41:
.LBE40:
	.loc 4 192 0 is_stmt 1
	movl	$0, %eax
	jmp	.L118
.L109:
.LBE39:
.LBE38:
	.loc 4 197 0
	movl	16(%ebp), %eax
	movl	(%eax), %eax
	movl	%eax, (%esp)
	call	_ZNK12CIwSoundData13GetBufferSizeEv@PLT
	movl	%eax, -12(%ebp)
.LBB42:
.LBB43:
	.loc 4 200 0
	cmpl	$0, -12(%ebp)
	je	.L119
	.loc 4 200 0 is_stmt 0 discriminator 1
	movl	12(%ebp), %eax
	movl	4(%eax), %eax
	cmpl	-12(%ebp), %eax
	je	.L119
	leal	.LC2@GOTOFF(%ebx), %eax
	movl	%eax, (%esp)
	call	IwDebugAssertIsChannelOn@PLT
	testb	%al, %al
	je	.L119
	movzbl	_ZZN11CIwSoundWAV13ReadChunkDataERK9CIwStringILi160EERK17IwRIFFChunkHeaderRP12CIwSoundDataR7s3eFileE21_s_IwAssertIgnoreThis_0@GOTOFF(%ebx), %eax
	testb	%al, %al
	jne	.L119
	.loc 4 200 0 discriminator 3
	movl	$1, %eax
	jmp	.L120
.L119:
	.loc 4 200 0 discriminator 2
	movl	$0, %eax
.L120:
	.loc 4 200 0 discriminator 4
	testb	%al, %al
	je	.L121
	.loc 4 200 0 discriminator 1
	movl	$0, (%esp)
	call	IwDebugAssertSetSolution@PLT
	movl	$0, (%esp)
	call	IwDebugAssertSetUID@PLT
	movl	8(%ebp), %eax
	movl	%eax, (%esp)
	call	_ZNK9CIwStringILi160EE5c_strEv
	movl	%eax, 4(%esp)
	leal	.LC24@GOTOFF(%ebx), %eax
	movl	%eax, (%esp)
	call	IwDebugAssertSetMessage@PLT
	.loc 4 200 0 is_stmt 1 discriminator 1
	movl	$1, 12(%esp)
	movl	$201, 8(%esp)
	leal	.LC4@GOTOFF(%ebx), %eax
	movl	%eax, 4(%esp)
	leal	.LC25@GOTOFF(%ebx), %eax
	movl	%eax, (%esp)
	call	IwDebugAssertShow@PLT
	.loc 4 200 0 discriminator 1
	cmpl	$1, %eax
	je	.L123
	cmpl	$2, %eax
	je	.L124
	.loc 4 200 0 is_stmt 0
	jmp	.L122
.L123:
	.loc 4 200 0 is_stmt 1 discriminator 2
	call	s3eDebugIsDebuggerPresent@PLT
	testb	%al, %al
	setne	%al
	testb	%al, %al
	je	.L125
	.loc 4 200 0 is_stmt 0 discriminator 1
	call	s3eDebugIsDebuggerPresent@PLT
	testb	%al, %al
	setne	%al
	testb	%al, %al
	je	.L126
#APP
# 200 "c:/Marmalade/7.5/examples/GameTutorial/CPP/modules/soundengine/source/IwSoundWAV.cpp" 1
	 int $3 
# 0 "" 2
#NO_APP
	jmp	.L126
.L125:
	.loc 4 200 0 discriminator 2
	call	_ZL11IwDebugExitv
	jmp	.L122
.L126:
	.loc 4 200 0 discriminator 1
	jmp	.L122
.L124:
	.loc 4 200 0 discriminator 3
	movb	$1, _ZZN11CIwSoundWAV13ReadChunkDataERK9CIwStringILi160EERK17IwRIFFChunkHeaderRP12CIwSoundDataR7s3eFileE21_s_IwAssertIgnoreThis_0@GOTOFF(%ebx)
	nop
.L122:
	.loc 4 200 0 discriminator 1
	movl	$0, (%esp)
	call	IwDebugAssertSetUID@PLT
.L121:
.LBE43:
.LBE42:
	.loc 4 205 0 is_stmt 1
	movl	12(%ebp), %eax
	movl	4(%eax), %edx
	movl	16(%ebp), %eax
	movl	(%eax), %eax
	movl	%edx, 4(%esp)
	movl	%eax, (%esp)
	call	_ZN12CIwSoundData13SetBufferSizeEj@PLT
.LBB44:
	.loc 4 208 0
	movl	12(%ebp), %eax
	movl	4(%eax), %edx
	movl	16(%ebp), %eax
	movl	(%eax), %eax
	movl	24(%eax), %eax
	movl	20(%ebp), %ecx
	movl	%ecx, 12(%esp)
	movl	%edx, 8(%esp)
	movl	$1, 4(%esp)
	movl	%eax, (%esp)
	call	s3eFileRead@PLT
	movl	12(%ebp), %edx
	movl	4(%edx), %edx
	cmpl	%edx, %eax
	setne	%al
	testb	%al, %al
	je	.L127
.LBB45:
.LBB46:
.LBB47:
	.loc 4 210 0
	leal	.LC2@GOTOFF(%ebx), %eax
	movl	%eax, (%esp)
	call	IwDebugAssertIsChannelOn@PLT
	testb	%al, %al
	je	.L128
	.loc 4 210 0 is_stmt 0 discriminator 1
	movzbl	_ZZN11CIwSoundWAV13ReadChunkDataERK9CIwStringILi160EERK17IwRIFFChunkHeaderRP12CIwSoundDataR7s3eFileE21_s_IwAssertIgnoreThis_1@GOTOFF(%ebx), %eax
	testb	%al, %al
	jne	.L128
	.loc 4 210 0 discriminator 3
	movl	$1, %eax
	jmp	.L129
.L128:
	.loc 4 210 0 discriminator 2
	movl	$0, %eax
.L129:
	.loc 4 210 0 discriminator 4
	testb	%al, %al
	je	.L130
	.loc 4 210 0 discriminator 1
	movl	$0, (%esp)
	call	IwDebugAssertSetSolution@PLT
	movl	$0, (%esp)
	call	IwDebugAssertSetUID@PLT
	movl	8(%ebp), %eax
	movl	%eax, (%esp)
	call	_ZNK9CIwStringILi160EE5c_strEv
	movl	%eax, 4(%esp)
	leal	.LC26@GOTOFF(%ebx), %eax
	movl	%eax, (%esp)
	call	IwDebugAssertSetMessage@PLT
	movl	$1, 12(%esp)
	movl	$210, 8(%esp)
	leal	.LC4@GOTOFF(%ebx), %eax
	movl	%eax, 4(%esp)
	leal	.LC9@GOTOFF(%ebx), %eax
	movl	%eax, (%esp)
	call	IwDebugAssertShow@PLT
	cmpl	$1, %eax
	je	.L132
	cmpl	$2, %eax
	je	.L133
	.loc 4 210 0
	jmp	.L131
.L132:
	.loc 4 210 0 discriminator 2
	call	s3eDebugIsDebuggerPresent@PLT
	testb	%al, %al
	setne	%al
	testb	%al, %al
	je	.L134
	.loc 4 210 0 discriminator 1
	call	s3eDebugIsDebuggerPresent@PLT
	testb	%al, %al
	setne	%al
	testb	%al, %al
	je	.L135
#APP
# 210 "c:/Marmalade/7.5/examples/GameTutorial/CPP/modules/soundengine/source/IwSoundWAV.cpp" 1
	 int $3 
# 0 "" 2
#NO_APP
	jmp	.L135
.L134:
	.loc 4 210 0 discriminator 2
	call	_ZL11IwDebugExitv
	jmp	.L131
.L135:
	.loc 4 210 0 discriminator 1
	jmp	.L131
.L133:
	.loc 4 210 0 discriminator 3
	movb	$1, _ZZN11CIwSoundWAV13ReadChunkDataERK9CIwStringILi160EERK17IwRIFFChunkHeaderRP12CIwSoundDataR7s3eFileE21_s_IwAssertIgnoreThis_1@GOTOFF(%ebx)
	nop
.L131:
	.loc 4 210 0 discriminator 1
	movl	$0, (%esp)
	call	IwDebugAssertSetUID@PLT
.L130:
.LBE47:
.LBE46:
	.loc 4 211 0 is_stmt 1
	movl	$0, %eax
	jmp	.L118
.L127:
.LBE45:
.LBE44:
	.loc 4 218 0
	movl	16(%ebp), %eax
	movl	(%eax), %eax
	movl	32(%eax), %eax
	testl	%eax, %eax
	jne	.L136
	.loc 4 219 0
	movl	16(%ebp), %eax
	movl	(%eax), %eax
	movl	%eax, (%esp)
	call	_ZN12CIwSoundData14SwitchDataSignEv@PLT
.L136:
	.loc 4 221 0
	movl	$1, %eax
.L118:
.LBE37:
	.loc 4 222 0
	leal	36(%esp), %esp
	popl	%ebx
	.cfi_restore 3
	popl	%ebp
	.cfi_restore 5
	.cfi_def_cfa 4, 4
	ret
	.cfi_endproc
.LFE1436:
	.size	_ZN11CIwSoundWAV13ReadChunkDataERK9CIwStringILi160EERK17IwRIFFChunkHeaderRP12CIwSoundDataR7s3eFile, .-_ZN11CIwSoundWAV13ReadChunkDataERK9CIwStringILi160EERK17IwRIFFChunkHeaderRP12CIwSoundDataR7s3eFile
	.section	.rodata
	.align 4
.LC27:
	.string	"Error reading WAVE file info from %s"
	.text
	.align 2
	.globl	_ZN11CIwSoundWAV13ReadChunkFactERK9CIwStringILi160EERK17IwRIFFChunkHeaderRP12CIwSoundDataR7s3eFile
	.hidden	_ZN11CIwSoundWAV13ReadChunkFactERK9CIwStringILi160EERK17IwRIFFChunkHeaderRP12CIwSoundDataR7s3eFile
	.type	_ZN11CIwSoundWAV13ReadChunkFactERK9CIwStringILi160EERK17IwRIFFChunkHeaderRP12CIwSoundDataR7s3eFile, @function
_ZN11CIwSoundWAV13ReadChunkFactERK9CIwStringILi160EERK17IwRIFFChunkHeaderRP12CIwSoundDataR7s3eFile:
.LFB1437:
	.loc 4 225 0
	.cfi_startproc
	pushl	%ebp
	.cfi_def_cfa_offset 8
	.cfi_offset 5, -8
	movl	%esp, %ebp
	.cfi_def_cfa_register 5
	pushl	%ebx
	leal	-36(%esp), %esp
	.cfi_offset 3, -12
	call	__x86.get_pc_thunk.bx
	addl	$_GLOBAL_OFFSET_TABLE_, %ebx
.LBB48:
.LBB49:
	.loc 4 227 0
	movl	20(%ebp), %eax
	movl	%eax, 12(%esp)
	movl	$1, 8(%esp)
	movl	$4, 4(%esp)
	leal	-12(%ebp), %eax
	movl	%eax, (%esp)
	call	s3eFileRead@PLT
	cmpl	$1, %eax
	setne	%al
	testb	%al, %al
	je	.L138
.LBB50:
.LBB51:
.LBB52:
	.loc 4 229 0
	leal	.LC2@GOTOFF(%ebx), %eax
	movl	%eax, (%esp)
	call	IwDebugAssertIsChannelOn@PLT
	testb	%al, %al
	je	.L139
	.loc 4 229 0 is_stmt 0 discriminator 1
	movzbl	_ZZN11CIwSoundWAV13ReadChunkFactERK9CIwStringILi160EERK17IwRIFFChunkHeaderRP12CIwSoundDataR7s3eFileE21_s_IwAssertIgnoreThis@GOTOFF(%ebx), %eax
	testb	%al, %al
	jne	.L139
	.loc 4 229 0 discriminator 3
	movl	$1, %eax
	jmp	.L140
.L139:
	.loc 4 229 0 discriminator 2
	movl	$0, %eax
.L140:
	.loc 4 229 0 discriminator 4
	testb	%al, %al
	je	.L141
	.loc 4 229 0 discriminator 1
	movl	$0, (%esp)
	call	IwDebugAssertSetSolution@PLT
	movl	$0, (%esp)
	call	IwDebugAssertSetUID@PLT
	movl	8(%ebp), %eax
	movl	%eax, (%esp)
	call	_ZNK9CIwStringILi160EE5c_strEv
	movl	%eax, 4(%esp)
	leal	.LC27@GOTOFF(%ebx), %eax
	movl	%eax, (%esp)
	call	IwDebugAssertSetMessage@PLT
	movl	$1, 12(%esp)
	movl	$229, 8(%esp)
	leal	.LC4@GOTOFF(%ebx), %eax
	movl	%eax, 4(%esp)
	leal	.LC9@GOTOFF(%ebx), %eax
	movl	%eax, (%esp)
	call	IwDebugAssertShow@PLT
	cmpl	$1, %eax
	je	.L143
	cmpl	$2, %eax
	je	.L144
	.loc 4 229 0
	jmp	.L142
.L143:
	.loc 4 229 0 discriminator 2
	call	s3eDebugIsDebuggerPresent@PLT
	testb	%al, %al
	setne	%al
	testb	%al, %al
	je	.L145
	.loc 4 229 0 discriminator 1
	call	s3eDebugIsDebuggerPresent@PLT
	testb	%al, %al
	setne	%al
	testb	%al, %al
	je	.L146
#APP
# 229 "c:/Marmalade/7.5/examples/GameTutorial/CPP/modules/soundengine/source/IwSoundWAV.cpp" 1
	 int $3 
# 0 "" 2
#NO_APP
	jmp	.L146
.L145:
	.loc 4 229 0 discriminator 2
	call	_ZL11IwDebugExitv
	jmp	.L142
.L146:
	.loc 4 229 0 discriminator 1
	jmp	.L142
.L144:
	.loc 4 229 0 discriminator 3
	movb	$1, _ZZN11CIwSoundWAV13ReadChunkFactERK9CIwStringILi160EERK17IwRIFFChunkHeaderRP12CIwSoundDataR7s3eFileE21_s_IwAssertIgnoreThis@GOTOFF(%ebx)
	nop
.L142:
	.loc 4 229 0 discriminator 1
	movl	$0, (%esp)
	call	IwDebugAssertSetUID@PLT
.L141:
.LBE52:
.LBE51:
	.loc 4 230 0 is_stmt 1
	movl	$0, %eax
	jmp	.L148
.L138:
.LBE50:
.LBE49:
	.loc 4 233 0
	movl	-12(%ebp), %edx
	movl	16(%ebp), %eax
	movl	(%eax), %eax
	movl	%edx, 4(%esp)
	movl	%eax, (%esp)
	call	_ZN12CIwSoundData14SetSampleCountEj
	.loc 4 234 0
	movl	$1, %eax
.L148:
.LBE48:
	.loc 4 235 0
	leal	36(%esp), %esp
	popl	%ebx
	.cfi_restore 3
	popl	%ebp
	.cfi_restore 5
	.cfi_def_cfa 4, 4
	ret
	.cfi_endproc
.LFE1437:
	.size	_ZN11CIwSoundWAV13ReadChunkFactERK9CIwStringILi160EERK17IwRIFFChunkHeaderRP12CIwSoundDataR7s3eFile, .-_ZN11CIwSoundWAV13ReadChunkFactERK9CIwStringILi160EERK17IwRIFFChunkHeaderRP12CIwSoundDataR7s3eFile
	.section	.text._ZNK9CIwStringILi160EE5c_strEv,"axG",@progbits,_ZNK9CIwStringILi160EE5c_strEv,comdat
	.align 2
	.weak	_ZNK9CIwStringILi160EE5c_strEv
	.hidden	_ZNK9CIwStringILi160EE5c_strEv
	.type	_ZNK9CIwStringILi160EE5c_strEv, @function
_ZNK9CIwStringILi160EE5c_strEv:
.LFB1459:
	.file 5 "c:/marmalade/7.5/modules/iwutil/h/IwString.h"
	.loc 5 104 0
	.cfi_startproc
	pushl	%ebp
	.cfi_def_cfa_offset 8
	.cfi_offset 5, -8
	leal	(%esp), %ebp
	.cfi_def_cfa_register 5
	.loc 5 104 0
	movl	8(%ebp), %eax
	popl	%ebp
	.cfi_restore 5
	.cfi_def_cfa 4, 4
	ret
	.cfi_endproc
.LFE1459:
	.size	_ZNK9CIwStringILi160EE5c_strEv, .-_ZNK9CIwStringILi160EE5c_strEv
	.local	_ZZN11CIwSoundWAV6CreateERK9CIwStringILi160EEPvjE21_s_IwAssertIgnoreThis
	.comm	_ZZN11CIwSoundWAV6CreateERK9CIwStringILi160EEPvjE21_s_IwAssertIgnoreThis,1,1
	.local	_ZZN11CIwSoundWAV6CreateERK9CIwStringILi160EEPvjE21_s_IwAssertIgnoreThis_0
	.comm	_ZZN11CIwSoundWAV6CreateERK9CIwStringILi160EEPvjE21_s_IwAssertIgnoreThis_0,1,1
	.local	_ZZN11CIwSoundWAV6CreateERK9CIwStringILi160EEPvjE21_s_IwAssertIgnoreThis_1
	.comm	_ZZN11CIwSoundWAV6CreateERK9CIwStringILi160EEPvjE21_s_IwAssertIgnoreThis_1,1,1
	.local	_ZZN11CIwSoundWAV6CreateERK9CIwStringILi160EEPvjE21_s_IwAssertIgnoreThis_2
	.comm	_ZZN11CIwSoundWAV6CreateERK9CIwStringILi160EEPvjE21_s_IwAssertIgnoreThis_2,1,1
	.local	_ZZN11CIwSoundWAV15ReadChunkFormatERK9CIwStringILi160EERK17IwRIFFChunkHeaderRP12CIwSoundDataR7s3eFileE21_s_IwAssertIgnoreThis
	.comm	_ZZN11CIwSoundWAV15ReadChunkFormatERK9CIwStringILi160EERK17IwRIFFChunkHeaderRP12CIwSoundDataR7s3eFileE21_s_IwAssertIgnoreThis,1,1
	.local	_ZZN11CIwSoundWAV15ReadChunkFormatERK9CIwStringILi160EERK17IwRIFFChunkHeaderRP12CIwSoundDataR7s3eFileE21_s_IwAssertIgnoreThis_0
	.comm	_ZZN11CIwSoundWAV15ReadChunkFormatERK9CIwStringILi160EERK17IwRIFFChunkHeaderRP12CIwSoundDataR7s3eFileE21_s_IwAssertIgnoreThis_0,1,1
	.local	_ZZN11CIwSoundWAV15ReadChunkFormatERK9CIwStringILi160EERK17IwRIFFChunkHeaderRP12CIwSoundDataR7s3eFileE21_s_IwAssertIgnoreThis_1
	.comm	_ZZN11CIwSoundWAV15ReadChunkFormatERK9CIwStringILi160EERK17IwRIFFChunkHeaderRP12CIwSoundDataR7s3eFileE21_s_IwAssertIgnoreThis_1,1,1
	.local	_ZZN11CIwSoundWAV15ReadChunkFormatERK9CIwStringILi160EERK17IwRIFFChunkHeaderRP12CIwSoundDataR7s3eFileE21_s_IwAssertIgnoreThis_2
	.comm	_ZZN11CIwSoundWAV15ReadChunkFormatERK9CIwStringILi160EERK17IwRIFFChunkHeaderRP12CIwSoundDataR7s3eFileE21_s_IwAssertIgnoreThis_2,1,1
	.local	_ZZN11CIwSoundWAV13ReadChunkDataERK9CIwStringILi160EERK17IwRIFFChunkHeaderRP12CIwSoundDataR7s3eFileE21_s_IwAssertIgnoreThis
	.comm	_ZZN11CIwSoundWAV13ReadChunkDataERK9CIwStringILi160EERK17IwRIFFChunkHeaderRP12CIwSoundDataR7s3eFileE21_s_IwAssertIgnoreThis,1,1
	.local	_ZZN11CIwSoundWAV13ReadChunkDataERK9CIwStringILi160EERK17IwRIFFChunkHeaderRP12CIwSoundDataR7s3eFileE21_s_IwAssertIgnoreThis_0
	.comm	_ZZN11CIwSoundWAV13ReadChunkDataERK9CIwStringILi160EERK17IwRIFFChunkHeaderRP12CIwSoundDataR7s3eFileE21_s_IwAssertIgnoreThis_0,1,1
	.local	_ZZN11CIwSoundWAV13ReadChunkDataERK9CIwStringILi160EERK17IwRIFFChunkHeaderRP12CIwSoundDataR7s3eFileE21_s_IwAssertIgnoreThis_1
	.comm	_ZZN11CIwSoundWAV13ReadChunkDataERK9CIwStringILi160EERK17IwRIFFChunkHeaderRP12CIwSoundDataR7s3eFileE21_s_IwAssertIgnoreThis_1,1,1
	.local	_ZZN11CIwSoundWAV13ReadChunkFactERK9CIwStringILi160EERK17IwRIFFChunkHeaderRP12CIwSoundDataR7s3eFileE21_s_IwAssertIgnoreThis
	.comm	_ZZN11CIwSoundWAV13ReadChunkFactERK9CIwStringILi160EERK17IwRIFFChunkHeaderRP12CIwSoundDataR7s3eFileE21_s_IwAssertIgnoreThis,1,1
	.section	.text.__x86.get_pc_thunk.bx,"axG",@progbits,__x86.get_pc_thunk.bx,comdat
	.globl	__x86.get_pc_thunk.bx
	.hidden	__x86.get_pc_thunk.bx
	.type	__x86.get_pc_thunk.bx, @function
__x86.get_pc_thunk.bx:
.LFB1637:
	.cfi_startproc
	nop
	nop
	nop
	nop
	nop
	nop
	nop
	nop
	movl	(%esp), %ebx
	ret
	.cfi_endproc
.LFE1637:
	.text
.Letext0:
	.file 6 "c:/marmalade/7.5/s3e/h/std/c++/typeinfo.h"
	.file 7 "c:/marmalade/7.5/s3e/h/std/c++/cstddef"
	.file 8 "c:/marmalade/7.5/s3e/h/std/c++/exception"
	.file 9 "c:/marmalade/7.5/s3e/h/std/c++/typeinfo"
	.file 10 "c:/marmalade/7.5/s3e/h/std/c++/stl/_config.h"
	.file 11 "c:/marmalade/7.5/s3e/h/ext/../std/stddef.h"
	.file 12 "c:/marmalade/7.5/s3e/h/s3eTypes.h"
	.file 13 "c:/marmalade/7.5/s3e/h/std/sys/types.h"
	.file 14 "c:/marmalade/7.5/s3e/h/s3eFile.h"
	.file 15 "c:/marmalade/7.5/s3e/h/s3eDebug.h"
	.file 16 "c:/marmalade/7.5/modules/iwutil/h/IwSerialise.h"
	.file 17 "c:/marmalade/7.5/modules/iwutil/h/IwAllocator.h"
	.file 18 "c:/marmalade/7.5/modules/iwutil/h/IwManaged.h"
	.file 19 "c:/marmalade/7.5/modules/iwutil/h/IwArray.h"
	.file 20 "c:/marmalade/7.5/modules/iwutil/h/IwManagedList.h"
	.file 21 "c:/marmalade/7.5/modules/iwresmanager/h/IwResGroup.h"
	.file 22 "c:/marmalade/7.5/modules/iwresmanager/h/IwResManagerClass.h"
	.file 23 "c:/marmalade/7.5/examples/gametutorial/cpp/modules/soundengine/h/IwResHandlerWAV.h"
	.file 24 "c:/marmalade/7.5/examples/gametutorial/cpp/modules/soundengine/h/IwSoundWAV.h"
	.file 25 "c:/marmalade/7.5/examples/gametutorial/cpp/modules/soundengine/h/IwSoundManager.h"
	.file 26 "c:/marmalade/7.5/modules/iwutil/h/IwMenu.h"
	.file 27 "c:/marmalade/7.5/modules/iwgeom/h/IwGeomSqrt.h"
	.file 28 "c:/marmalade/7.5/modules/iwutil/h/IwTextParserITX.h"
	.file 29 "<built-in>"
	.file 30 "c:/marmalade/7.5/modules/iwutil/h/IwTypes.h"
	.section	.note.GNU-stack,"",@progbits
