	.file	"IwSoundSpec.cpp"
	.text
.Ltext0:
	.type	_ZL11IwDebugExitv, @function
_ZL11IwDebugExitv:
.LFB0:
	.file 1 "c:/marmalade/7.5/modules/iwutil/h/IwDebug.h"
	.loc 1 348 0
	.cfi_startproc
	pushl	%ebp
	.cfi_def_cfa_offset 8
	.cfi_offset 5, -8
	movl	%esp, %ebp
	.cfi_def_cfa_register 5
	pushl	%ebx
	leal	-4(%esp), %esp
	.cfi_offset 3, -12
	call	__x86.get_pc_thunk.bx
	addl	$_GLOBAL_OFFSET_TABLE_, %ebx
	.loc 1 349 0
	call	abort@PLT
	.cfi_endproc
.LFE0:
	.size	_ZL11IwDebugExitv, .-_ZL11IwDebugExitv
	.section	.text._ZN12CIwCallStackC2EPKc,"axG",@progbits,_ZN12CIwCallStackC5EPKc,comdat
	.align 2
	.weak	_ZN12CIwCallStackC2EPKc
	.hidden	_ZN12CIwCallStackC2EPKc
	.type	_ZN12CIwCallStackC2EPKc, @function
_ZN12CIwCallStackC2EPKc:
.LFB30:
	.file 2 "c:/marmalade/7.5/modules/iwutil/h/IwRuntime.h"
	.loc 2 97 0
	.cfi_startproc
	pushl	%ebp
	.cfi_def_cfa_offset 8
	.cfi_offset 5, -8
	movl	%esp, %ebp
	.cfi_def_cfa_register 5
	pushl	%ebx
	leal	-20(%esp), %esp
	.cfi_offset 3, -12
	call	__x86.get_pc_thunk.bx
	addl	$_GLOBAL_OFFSET_TABLE_, %ebx
.LBB2:
	.loc 2 99 0
	movl	8(%ebp), %eax
	movl	%eax, 4(%esp)
	movl	12(%ebp), %eax
	movl	%eax, (%esp)
	call	IwCallStackEnter@PLT
	movl	8(%ebp), %edx
	movb	%al, (%edx)
.LBE2:
	.loc 2 100 0
	leal	20(%esp), %esp
	popl	%ebx
	.cfi_restore 3
	popl	%ebp
	.cfi_restore 5
	.cfi_def_cfa 4, 4
	ret
	.cfi_endproc
.LFE30:
	.size	_ZN12CIwCallStackC2EPKc, .-_ZN12CIwCallStackC2EPKc
	.weak	_ZN12CIwCallStackC1EPKc
	.hidden	_ZN12CIwCallStackC1EPKc
	.set	_ZN12CIwCallStackC1EPKc,_ZN12CIwCallStackC2EPKc
	.section	.text._ZN12CIwCallStackD2Ev,"axG",@progbits,_ZN12CIwCallStackD5Ev,comdat
	.align 2
	.weak	_ZN12CIwCallStackD2Ev
	.hidden	_ZN12CIwCallStackD2Ev
	.type	_ZN12CIwCallStackD2Ev, @function
_ZN12CIwCallStackD2Ev:
.LFB33:
	.loc 2 101 0
	.cfi_startproc
	pushl	%ebp
	.cfi_def_cfa_offset 8
	.cfi_offset 5, -8
	movl	%esp, %ebp
	.cfi_def_cfa_register 5
	pushl	%ebx
	leal	-20(%esp), %esp
	.cfi_offset 3, -12
	call	__x86.get_pc_thunk.bx
	addl	$_GLOBAL_OFFSET_TABLE_, %ebx
.LBB3:
	.loc 2 103 0
	movl	8(%ebp), %eax
	movzbl	(%eax), %eax
	testb	%al, %al
	je	.L3
	.loc 2 104 0
	movl	8(%ebp), %eax
	movl	%eax, (%esp)
	call	IwCallStackLeave@PLT
.L3:
.LBE3:
	.loc 2 105 0
	leal	20(%esp), %esp
	popl	%ebx
	.cfi_restore 3
	popl	%ebp
	.cfi_restore 5
	.cfi_def_cfa 4, 4
	ret
	.cfi_endproc
.LFE33:
	.size	_ZN12CIwCallStackD2Ev, .-_ZN12CIwCallStackD2Ev
	.weak	_ZN12CIwCallStackD1Ev
	.hidden	_ZN12CIwCallStackD1Ev
	.set	_ZN12CIwCallStackD1Ev,_ZN12CIwCallStackD2Ev
	.section	.rodata
.LC0:
	.string	"GEOM"
.LC1:
	.string	"Multiply overflow"
	.align 4
.LC2:
	.string	"c:/marmalade/7.5/modules/iwgeom/h/IwGeomCore.h"
.LC3:
	.string	"test >> 63 == test >> 31"
	.text
	.type	_ZL12IW_FIXED_MULii, @function
_ZL12IW_FIXED_MULii:
.LFB72:
	.file 3 "c:/marmalade/7.5/modules/iwgeom/h/IwGeomCore.h"
	.loc 3 388 0
	.cfi_startproc
	pushl	%ebp
	.cfi_def_cfa_offset 8
	.cfi_offset 5, -8
	movl	%esp, %ebp
	.cfi_def_cfa_register 5
	pushl	%edi
	pushl	%esi
	pushl	%ebx
	leal	-60(%esp), %esp
	.cfi_offset 7, -12
	.cfi_offset 6, -16
	.cfi_offset 3, -20
	call	__x86.get_pc_thunk.bx
	addl	$_GLOBAL_OFFSET_TABLE_, %ebx
.LBB4:
	.loc 3 390 0
	movl	8(%ebp), %eax
	movl	%eax, %esi
	movl	%eax, %edi
	sarl	$31, %edi
	movl	12(%ebp), %eax
	movl	%eax, %edx
	sarl	$31, %edx
	movl	%edi, %ecx
	imull	%eax, %ecx
	movl	%ecx, -44(%ebp)
	movl	%edx, %ecx
	imull	%esi, %ecx
	addl	-44(%ebp), %ecx
	mull	%esi
	addl	%edx, %ecx
	movl	%ecx, %edx
	movl	%eax, -32(%ebp)
	movl	%edx, -28(%ebp)
	movl	%eax, -32(%ebp)
	movl	%edx, -28(%ebp)
.LBB5:
.LBB6:
	.loc 3 391 0
	movl	-32(%ebp), %eax
	movl	-28(%ebp), %edx
	movl	%edx, %edx
	sarl	$31, %edx
	movl	%edx, %eax
	movl	%eax, %esi
	movl	%edx, %edi
	movl	-32(%ebp), %eax
	movl	-28(%ebp), %edx
	shrdl	$31, %edx, %eax
	sarl	$31, %edx
	movl	%edi, %ecx
	xorl	%edx, %ecx
	xorl	%esi, %eax
	orl	%ecx, %eax
	testl	%eax, %eax
	je	.L6
	.loc 3 391 0 is_stmt 0 discriminator 1
	leal	.LC0@GOTOFF(%ebx), %eax
	movl	%eax, (%esp)
	call	IwDebugAssertIsChannelOn@PLT
	testb	%al, %al
	je	.L6
	movzbl	_ZZL12IW_FIXED_MULiiE21_s_IwAssertIgnoreThis@GOTOFF(%ebx), %eax
	testb	%al, %al
	jne	.L6
	.loc 3 391 0 discriminator 3
	movl	$1, %eax
	jmp	.L7
.L6:
	.loc 3 391 0 discriminator 2
	movl	$0, %eax
.L7:
	.loc 3 391 0 discriminator 4
	testb	%al, %al
	je	.L8
	.loc 3 391 0 discriminator 1
	movl	$0, (%esp)
	call	IwDebugAssertSetSolution@PLT
	movl	$350, (%esp)
	call	IwDebugAssertSetUID@PLT
	leal	.LC1@GOTOFF(%ebx), %eax
	movl	%eax, (%esp)
	call	IwDebugAssertSetMessage@PLT
	movl	$1, 12(%esp)
	movl	$391, 8(%esp)
	leal	.LC2@GOTOFF(%ebx), %eax
	movl	%eax, 4(%esp)
	leal	.LC3@GOTOFF(%ebx), %eax
	movl	%eax, (%esp)
	call	IwDebugAssertShow@PLT
	cmpl	$1, %eax
	je	.L10
	cmpl	$2, %eax
	je	.L11
	.loc 3 391 0
	jmp	.L9
.L10:
	.loc 3 391 0 discriminator 2
	call	s3eDebugIsDebuggerPresent@PLT
	testb	%al, %al
	setne	%al
	testb	%al, %al
	je	.L12
	.loc 3 391 0 discriminator 1
	call	s3eDebugIsDebuggerPresent@PLT
	testb	%al, %al
	setne	%al
	testb	%al, %al
	je	.L13
#APP
# 391 "c:/marmalade/7.5/modules/iwgeom/h/IwGeomCore.h" 1
	 int $3 
# 0 "" 2
#NO_APP
	jmp	.L13
.L12:
	.loc 3 391 0 discriminator 2
	call	_ZL11IwDebugExitv
	jmp	.L9
.L13:
	.loc 3 391 0 discriminator 1
	jmp	.L9
.L11:
	.loc 3 391 0 discriminator 3
	movb	$1, _ZZL12IW_FIXED_MULiiE21_s_IwAssertIgnoreThis@GOTOFF(%ebx)
	nop
.L9:
	.loc 3 391 0 discriminator 1
	movl	$0, (%esp)
	call	IwDebugAssertSetUID@PLT
.L8:
.LBE6:
.LBE5:
	.loc 3 393 0 is_stmt 1
	movl	8(%ebp), %eax
	imull	12(%ebp), %eax
	sarl	$12, %eax
.LBE4:
	.loc 3 394 0
	leal	60(%esp), %esp
	popl	%ebx
	.cfi_restore 3
	popl	%esi
	.cfi_restore 6
	popl	%edi
	.cfi_restore 7
	popl	%ebp
	.cfi_restore 5
	.cfi_def_cfa 4, 4
	ret
	.cfi_endproc
.LFE72:
	.size	_ZL12IW_FIXED_MULii, .-_ZL12IW_FIXED_MULii
	.section	.text._ZnwjPv,"axG",@progbits,_ZnwjPv,comdat
	.weak	_ZnwjPv
	.hidden	_ZnwjPv
	.type	_ZnwjPv, @function
_ZnwjPv:
.LFB92:
	.file 4 "c:/marmalade/7.5/s3e/h/std/c++/new.h"
	.loc 4 52 0
	.cfi_startproc
	pushl	%ebp
	.cfi_def_cfa_offset 8
	.cfi_offset 5, -8
	leal	(%esp), %ebp
	.cfi_def_cfa_register 5
	.loc 4 52 0
	movl	12(%ebp), %eax
	popl	%ebp
	.cfi_restore 5
	.cfi_def_cfa 4, 4
	ret
	.cfi_endproc
.LFE92:
	.size	_ZnwjPv, .-_ZnwjPv
	.section	.text._ZN10CIwManaged9ParseOpenEP16CIwTextParserITX,"axG",@progbits,_ZN10CIwManaged9ParseOpenEP16CIwTextParserITX,comdat
	.align 2
	.weak	_ZN10CIwManaged9ParseOpenEP16CIwTextParserITX
	.hidden	_ZN10CIwManaged9ParseOpenEP16CIwTextParserITX
	.type	_ZN10CIwManaged9ParseOpenEP16CIwTextParserITX, @function
_ZN10CIwManaged9ParseOpenEP16CIwTextParserITX:
.LFB350:
	.file 5 "c:/marmalade/7.5/modules/iwutil/h/IwManaged.h"
	.loc 5 143 0
	.cfi_startproc
	pushl	%ebp
	.cfi_def_cfa_offset 8
	.cfi_offset 5, -8
	movl	%esp, %ebp
	.cfi_def_cfa_register 5
	.loc 5 143 0
	popl	%ebp
	.cfi_restore 5
	.cfi_def_cfa 4, 4
	ret
	.cfi_endproc
.LFE350:
	.size	_ZN10CIwManaged9ParseOpenEP16CIwTextParserITX, .-_ZN10CIwManaged9ParseOpenEP16CIwTextParserITX
	.section	.text._ZN10CIwManaged11HandleEventEP8CIwEvent,"axG",@progbits,_ZN10CIwManaged11HandleEventEP8CIwEvent,comdat
	.align 2
	.weak	_ZN10CIwManaged11HandleEventEP8CIwEvent
	.hidden	_ZN10CIwManaged11HandleEventEP8CIwEvent
	.type	_ZN10CIwManaged11HandleEventEP8CIwEvent, @function
_ZN10CIwManaged11HandleEventEP8CIwEvent:
.LFB351:
	.loc 5 187 0
	.cfi_startproc
	pushl	%ebp
	.cfi_def_cfa_offset 8
	.cfi_offset 5, -8
	movl	%esp, %ebp
	.cfi_def_cfa_register 5
	.loc 5 187 0
	movl	$0, %eax
	popl	%ebp
	.cfi_restore 5
	.cfi_def_cfa 4, 4
	ret
	.cfi_endproc
.LFE351:
	.size	_ZN10CIwManaged11HandleEventEP8CIwEvent, .-_ZN10CIwManaged11HandleEventEP8CIwEvent
	.section	.rodata
.LC4:
	.string	""
	.section	.text._ZNK10CIwManaged12DebugGetNameEv,"axG",@progbits,_ZNK10CIwManaged12DebugGetNameEv,comdat
	.align 2
	.weak	_ZNK10CIwManaged12DebugGetNameEv
	.hidden	_ZNK10CIwManaged12DebugGetNameEv
	.type	_ZNK10CIwManaged12DebugGetNameEv, @function
_ZNK10CIwManaged12DebugGetNameEv:
.LFB352:
	.loc 5 202 0
	.cfi_startproc
	pushl	%ebp
	.cfi_def_cfa_offset 8
	.cfi_offset 5, -8
	movl	%esp, %ebp
	.cfi_def_cfa_register 5
	pushl	%ebx
	leal	-20(%esp), %esp
	.cfi_offset 3, -12
	call	__x86.get_pc_thunk.bx
	addl	$_GLOBAL_OFFSET_TABLE_, %ebx
	.loc 5 205 0
	movl	8(%ebp), %eax
	addl	$8, %eax
	movl	$0, 4(%esp)
	movl	%eax, (%esp)
	call	_ZNK13CIwCopyingPtrI9CIwStringILi160EE17CIwDebugAllocatorIS1_EEneEPS1_
	testb	%al, %al
	je	.L21
	.loc 5 205 0 is_stmt 0 discriminator 1
	movl	8(%ebp), %eax
	addl	$8, %eax
	movl	%eax, (%esp)
	call	_ZNK13CIwCopyingPtrI9CIwStringILi160EE17CIwDebugAllocatorIS1_EEptEv
	movl	%eax, (%esp)
	call	_ZNK9CIwStringILi160EE5c_strEv
	jmp	.L22
.L21:
	.loc 5 205 0 discriminator 2
	leal	.LC4@GOTOFF(%ebx), %eax
.L22:
	.loc 5 210 0 is_stmt 1 discriminator 3
	leal	20(%esp), %esp
	popl	%ebx
	.cfi_restore 3
	popl	%ebp
	.cfi_restore 5
	.cfi_def_cfa 4, 4
	ret
	.cfi_endproc
.LFE352:
	.size	_ZNK10CIwManaged12DebugGetNameEv, .-_ZNK10CIwManaged12DebugGetNameEv
	.section	.text._ZN10CIwManaged11DebugRenderEv,"axG",@progbits,_ZN10CIwManaged11DebugRenderEv,comdat
	.align 2
	.weak	_ZN10CIwManaged11DebugRenderEv
	.hidden	_ZN10CIwManaged11DebugRenderEv
	.type	_ZN10CIwManaged11DebugRenderEv, @function
_ZN10CIwManaged11DebugRenderEv:
.LFB353:
	.loc 5 213 0
	.cfi_startproc
	pushl	%ebp
	.cfi_def_cfa_offset 8
	.cfi_offset 5, -8
	movl	%esp, %ebp
	.cfi_def_cfa_register 5
	.loc 5 213 0
	popl	%ebp
	.cfi_restore 5
	.cfi_def_cfa 4, 4
	ret
	.cfi_endproc
.LFE353:
	.size	_ZN10CIwManaged11DebugRenderEv, .-_ZN10CIwManaged11DebugRenderEv
	.section	.text._ZN18CIwManagedRefCountC2Ev,"axG",@progbits,_ZN18CIwManagedRefCountC5Ev,comdat
	.align 2
	.weak	_ZN18CIwManagedRefCountC2Ev
	.hidden	_ZN18CIwManagedRefCountC2Ev
	.type	_ZN18CIwManagedRefCountC2Ev, @function
_ZN18CIwManagedRefCountC2Ev:
.LFB362:
	.file 6 "c:/marmalade/7.5/modules/iwutil/h/IwResource.h"
	.loc 6 57 0
	.cfi_startproc
	pushl	%ebp
	.cfi_def_cfa_offset 8
	.cfi_offset 5, -8
	movl	%esp, %ebp
	.cfi_def_cfa_register 5
	pushl	%ebx
	leal	-20(%esp), %esp
	.cfi_offset 3, -12
	call	__x86.get_pc_thunk.bx
	addl	$_GLOBAL_OFFSET_TABLE_, %ebx
.LBB7:
	.loc 6 58 0
	movl	8(%ebp), %eax
	movl	%eax, (%esp)
	call	_ZN10CIwManagedC2Ev@PLT
	movl	8(%ebp), %eax
	movl	_ZTV18CIwManagedRefCount@GOT(%ebx), %edx
	addl	$8, %edx
	movl	%edx, (%eax)
	.loc 6 59 0
	movl	8(%ebp), %eax
	movw	$0, 12(%eax)
	.loc 6 60 0
	movl	8(%ebp), %eax
	movw	$0, 14(%eax)
.LBE7:
	.loc 6 61 0
	leal	20(%esp), %esp
	popl	%ebx
	.cfi_restore 3
	popl	%ebp
	.cfi_restore 5
	.cfi_def_cfa 4, 4
	ret
	.cfi_endproc
.LFE362:
	.size	_ZN18CIwManagedRefCountC2Ev, .-_ZN18CIwManagedRefCountC2Ev
	.weak	_ZN18CIwManagedRefCountC1Ev
	.hidden	_ZN18CIwManagedRefCountC1Ev
	.set	_ZN18CIwManagedRefCountC1Ev,_ZN18CIwManagedRefCountC2Ev
	.section	.text._ZN18CIwManagedRefCountD2Ev,"axG",@progbits,_ZN18CIwManagedRefCountD5Ev,comdat
	.align 2
	.weak	_ZN18CIwManagedRefCountD2Ev
	.hidden	_ZN18CIwManagedRefCountD2Ev
	.type	_ZN18CIwManagedRefCountD2Ev, @function
_ZN18CIwManagedRefCountD2Ev:
.LFB374:
	.loc 6 48 0
	.cfi_startproc
	pushl	%ebp
	.cfi_def_cfa_offset 8
	.cfi_offset 5, -8
	movl	%esp, %ebp
	.cfi_def_cfa_register 5
	pushl	%ebx
	leal	-20(%esp), %esp
	.cfi_offset 3, -12
	call	__x86.get_pc_thunk.bx
	addl	$_GLOBAL_OFFSET_TABLE_, %ebx
.LBB8:
	.loc 6 48 0
	movl	8(%ebp), %eax
	movl	_ZTV18CIwManagedRefCount@GOT(%ebx), %edx
	addl	$8, %edx
	movl	%edx, (%eax)
	movl	8(%ebp), %eax
	movl	%eax, (%esp)
	call	_ZN10CIwManagedD2Ev@PLT
.LBE8:
	movl	$0, %eax
	testl	%eax, %eax
	je	.L26
	.loc 6 48 0 is_stmt 0 discriminator 1
	movl	8(%ebp), %eax
	movl	%eax, (%esp)
	call	_ZdlPv@PLT
.L26:
	.loc 6 48 0
	leal	20(%esp), %esp
	popl	%ebx
	.cfi_restore 3
	popl	%ebp
	.cfi_restore 5
	.cfi_def_cfa 4, 4
	ret
	.cfi_endproc
.LFE374:
	.size	_ZN18CIwManagedRefCountD2Ev, .-_ZN18CIwManagedRefCountD2Ev
	.weak	_ZN18CIwManagedRefCountD1Ev
	.hidden	_ZN18CIwManagedRefCountD1Ev
	.set	_ZN18CIwManagedRefCountD1Ev,_ZN18CIwManagedRefCountD2Ev
	.section	.text._ZN18CIwManagedRefCountD0Ev,"axG",@progbits,_ZN18CIwManagedRefCountD0Ev,comdat
	.align 2
	.weak	_ZN18CIwManagedRefCountD0Ev
	.hidden	_ZN18CIwManagedRefCountD0Ev
	.type	_ZN18CIwManagedRefCountD0Ev, @function
_ZN18CIwManagedRefCountD0Ev:
.LFB376:
	.loc 6 48 0 is_stmt 1
	.cfi_startproc
	pushl	%ebp
	.cfi_def_cfa_offset 8
	.cfi_offset 5, -8
	movl	%esp, %ebp
	.cfi_def_cfa_register 5
	pushl	%ebx
	leal	-20(%esp), %esp
	.cfi_offset 3, -12
	call	__x86.get_pc_thunk.bx
	addl	$_GLOBAL_OFFSET_TABLE_, %ebx
	.loc 6 48 0
	movl	8(%ebp), %eax
	movl	%eax, (%esp)
	call	_ZN18CIwManagedRefCountD1Ev
	movl	8(%ebp), %eax
	movl	%eax, (%esp)
	call	_ZdlPv@PLT
	leal	20(%esp), %esp
	popl	%ebx
	.cfi_restore 3
	popl	%ebp
	.cfi_restore 5
	.cfi_def_cfa 4, 4
	ret
	.cfi_endproc
.LFE376:
	.size	_ZN18CIwManagedRefCountD0Ev, .-_ZN18CIwManagedRefCountD0Ev
	.section	.text._ZN11CIwResourceC2Ev,"axG",@progbits,_ZN11CIwResourceC5Ev,comdat
	.align 2
	.weak	_ZN11CIwResourceC2Ev
	.hidden	_ZN11CIwResourceC2Ev
	.type	_ZN11CIwResourceC2Ev, @function
_ZN11CIwResourceC2Ev:
.LFB377:
	.loc 6 98 0
	.cfi_startproc
	pushl	%ebp
	.cfi_def_cfa_offset 8
	.cfi_offset 5, -8
	movl	%esp, %ebp
	.cfi_def_cfa_register 5
	pushl	%ebx
	leal	-20(%esp), %esp
	.cfi_offset 3, -12
	call	__x86.get_pc_thunk.bx
	addl	$_GLOBAL_OFFSET_TABLE_, %ebx
.LBB9:
	.loc 6 98 0
	movl	8(%ebp), %eax
	movl	%eax, (%esp)
	call	_ZN18CIwManagedRefCountC2Ev
	movl	8(%ebp), %eax
	movl	_ZTV11CIwResource@GOT(%ebx), %edx
	addl	$8, %edx
	movl	%edx, (%eax)
.LBE9:
	leal	20(%esp), %esp
	popl	%ebx
	.cfi_restore 3
	popl	%ebp
	.cfi_restore 5
	.cfi_def_cfa 4, 4
	ret
	.cfi_endproc
.LFE377:
	.size	_ZN11CIwResourceC2Ev, .-_ZN11CIwResourceC2Ev
	.weak	_ZN11CIwResourceC1Ev
	.hidden	_ZN11CIwResourceC1Ev
	.set	_ZN11CIwResourceC1Ev,_ZN11CIwResourceC2Ev
	.section	.text._ZN11CIwResource10ApplyScaleEi,"axG",@progbits,_ZN11CIwResource10ApplyScaleEi,comdat
	.align 2
	.weak	_ZN11CIwResource10ApplyScaleEi
	.hidden	_ZN11CIwResource10ApplyScaleEi
	.type	_ZN11CIwResource10ApplyScaleEi, @function
_ZN11CIwResource10ApplyScaleEi:
.LFB379:
	.loc 6 101 0
	.cfi_startproc
	pushl	%ebp
	.cfi_def_cfa_offset 8
	.cfi_offset 5, -8
	movl	%esp, %ebp
	.cfi_def_cfa_register 5
	.loc 6 101 0
	popl	%ebp
	.cfi_restore 5
	.cfi_def_cfa 4, 4
	ret
	.cfi_endproc
.LFE379:
	.size	_ZN11CIwResource10ApplyScaleEi, .-_ZN11CIwResource10ApplyScaleEi
	.section	.text._ZN11CIwResource10ApplyScaleEf,"axG",@progbits,_ZN11CIwResource10ApplyScaleEf,comdat
	.align 2
	.weak	_ZN11CIwResource10ApplyScaleEf
	.hidden	_ZN11CIwResource10ApplyScaleEf
	.type	_ZN11CIwResource10ApplyScaleEf, @function
_ZN11CIwResource10ApplyScaleEf:
.LFB380:
	.loc 6 103 0
	.cfi_startproc
	pushl	%ebp
	.cfi_def_cfa_offset 8
	.cfi_offset 5, -8
	movl	%esp, %ebp
	.cfi_def_cfa_register 5
	.loc 6 103 0
	popl	%ebp
	.cfi_restore 5
	.cfi_def_cfa 4, 4
	ret
	.cfi_endproc
.LFE380:
	.size	_ZN11CIwResource10ApplyScaleEf, .-_ZN11CIwResource10ApplyScaleEf
	.section	.text._ZN12CIwSoundSpec8SetGroupEP13CIwSoundGroup,"axG",@progbits,_ZN12CIwSoundSpec8SetGroupEP13CIwSoundGroup,comdat
	.align 2
	.weak	_ZN12CIwSoundSpec8SetGroupEP13CIwSoundGroup
	.hidden	_ZN12CIwSoundSpec8SetGroupEP13CIwSoundGroup
	.type	_ZN12CIwSoundSpec8SetGroupEP13CIwSoundGroup, @function
_ZN12CIwSoundSpec8SetGroupEP13CIwSoundGroup:
.LFB382:
	.file 7 "c:/marmalade/7.5/examples/gametutorial/cpp/modules/soundengine/h/IwSoundSpec.h"
	.loc 7 55 0
	.cfi_startproc
	pushl	%ebp
	.cfi_def_cfa_offset 8
	.cfi_offset 5, -8
	leal	(%esp), %ebp
	.cfi_def_cfa_register 5
	.loc 7 55 0
	movl	8(%ebp), %eax
	movl	12(%ebp), %edx
	movl	%edx, 36(%eax)
	popl	%ebp
	.cfi_restore 5
	.cfi_def_cfa 4, 4
	ret
	.cfi_endproc
.LFE382:
	.size	_ZN12CIwSoundSpec8SetGroupEP13CIwSoundGroup, .-_ZN12CIwSoundSpec8SetGroupEP13CIwSoundGroup
	.section	.text._ZNK12CIwSoundSpec7GetDataEv,"axG",@progbits,_ZNK12CIwSoundSpec7GetDataEv,comdat
	.align 2
	.weak	_ZNK12CIwSoundSpec7GetDataEv
	.hidden	_ZNK12CIwSoundSpec7GetDataEv
	.type	_ZNK12CIwSoundSpec7GetDataEv, @function
_ZNK12CIwSoundSpec7GetDataEv:
.LFB383:
	.loc 7 58 0
	.cfi_startproc
	pushl	%ebp
	.cfi_def_cfa_offset 8
	.cfi_offset 5, -8
	leal	(%esp), %ebp
	.cfi_def_cfa_register 5
	.loc 7 58 0
	movl	8(%ebp), %eax
	movl	32(%eax), %eax
	popl	%ebp
	.cfi_restore 5
	.cfi_def_cfa 4, 4
	ret
	.cfi_endproc
.LFE383:
	.size	_ZNK12CIwSoundSpec7GetDataEv, .-_ZNK12CIwSoundSpec7GetDataEv
	.section	.text._ZNK12CIwSoundSpec8IsLoopedEv,"axG",@progbits,_ZNK12CIwSoundSpec8IsLoopedEv,comdat
	.align 2
	.weak	_ZNK12CIwSoundSpec8IsLoopedEv
	.hidden	_ZNK12CIwSoundSpec8IsLoopedEv
	.type	_ZNK12CIwSoundSpec8IsLoopedEv, @function
_ZNK12CIwSoundSpec8IsLoopedEv:
.LFB386:
	.loc 7 70 0
	.cfi_startproc
	pushl	%ebp
	.cfi_def_cfa_offset 8
	.cfi_offset 5, -8
	leal	(%esp), %ebp
	.cfi_def_cfa_register 5
	.loc 7 70 0
	movl	8(%ebp), %eax
	movzwl	16(%eax), %eax
	movzwl	%ax, %eax
	andl	$1, %eax
	testl	%eax, %eax
	setne	%al
	popl	%ebp
	.cfi_restore 5
	.cfi_def_cfa 4, 4
	ret
	.cfi_endproc
.LFE386:
	.size	_ZNK12CIwSoundSpec8IsLoopedEv, .-_ZNK12CIwSoundSpec8IsLoopedEv
	.section	.text._ZN11CIwResourceD2Ev,"axG",@progbits,_ZN11CIwResourceD5Ev,comdat
	.align 2
	.weak	_ZN11CIwResourceD2Ev
	.hidden	_ZN11CIwResourceD2Ev
	.type	_ZN11CIwResourceD2Ev, @function
_ZN11CIwResourceD2Ev:
.LFB428:
	.loc 6 93 0
	.cfi_startproc
	pushl	%ebp
	.cfi_def_cfa_offset 8
	.cfi_offset 5, -8
	movl	%esp, %ebp
	.cfi_def_cfa_register 5
	pushl	%ebx
	leal	-20(%esp), %esp
	.cfi_offset 3, -12
	call	__x86.get_pc_thunk.bx
	addl	$_GLOBAL_OFFSET_TABLE_, %ebx
.LBB10:
	.loc 6 93 0
	movl	8(%ebp), %eax
	movl	_ZTV11CIwResource@GOT(%ebx), %edx
	addl	$8, %edx
	movl	%edx, (%eax)
	movl	8(%ebp), %eax
	movl	%eax, (%esp)
	call	_ZN18CIwManagedRefCountD2Ev
.LBE10:
	movl	$0, %eax
	testl	%eax, %eax
	je	.L39
	.loc 6 93 0 is_stmt 0 discriminator 1
	movl	8(%ebp), %eax
	movl	%eax, (%esp)
	call	_ZdlPv@PLT
.L39:
	.loc 6 93 0
	leal	20(%esp), %esp
	popl	%ebx
	.cfi_restore 3
	popl	%ebp
	.cfi_restore 5
	.cfi_def_cfa 4, 4
	ret
	.cfi_endproc
.LFE428:
	.size	_ZN11CIwResourceD2Ev, .-_ZN11CIwResourceD2Ev
	.weak	_ZN11CIwResourceD1Ev
	.hidden	_ZN11CIwResourceD1Ev
	.set	_ZN11CIwResourceD1Ev,_ZN11CIwResourceD2Ev
	.section	.text._ZN11CIwResourceD0Ev,"axG",@progbits,_ZN11CIwResourceD0Ev,comdat
	.align 2
	.weak	_ZN11CIwResourceD0Ev
	.hidden	_ZN11CIwResourceD0Ev
	.type	_ZN11CIwResourceD0Ev, @function
_ZN11CIwResourceD0Ev:
.LFB430:
	.loc 6 93 0 is_stmt 1
	.cfi_startproc
	pushl	%ebp
	.cfi_def_cfa_offset 8
	.cfi_offset 5, -8
	movl	%esp, %ebp
	.cfi_def_cfa_register 5
	pushl	%ebx
	leal	-20(%esp), %esp
	.cfi_offset 3, -12
	call	__x86.get_pc_thunk.bx
	addl	$_GLOBAL_OFFSET_TABLE_, %ebx
	.loc 6 93 0
	movl	8(%ebp), %eax
	movl	%eax, (%esp)
	call	_ZN11CIwResourceD1Ev
	movl	8(%ebp), %eax
	movl	%eax, (%esp)
	call	_ZdlPv@PLT
	leal	20(%esp), %esp
	popl	%ebx
	.cfi_restore 3
	popl	%ebp
	.cfi_restore 5
	.cfi_def_cfa 4, 4
	ret
	.cfi_endproc
.LFE430:
	.size	_ZN11CIwResourceD0Ev, .-_ZN11CIwResourceD0Ev
	.section	.text._ZNK13CIwResManager15GetCurrentGroupEv,"axG",@progbits,_ZNK13CIwResManager15GetCurrentGroupEv,comdat
	.align 2
	.weak	_ZNK13CIwResManager15GetCurrentGroupEv
	.hidden	_ZNK13CIwResManager15GetCurrentGroupEv
	.type	_ZNK13CIwResManager15GetCurrentGroupEv, @function
_ZNK13CIwResManager15GetCurrentGroupEv:
.LFB1330:
	.file 8 "c:/marmalade/7.5/modules/iwresmanager/h/IwResManagerClass.h"
	.loc 8 419 0
	.cfi_startproc
	pushl	%ebp
	.cfi_def_cfa_offset 8
	.cfi_offset 5, -8
	leal	(%esp), %ebp
	.cfi_def_cfa_register 5
	.loc 8 419 0
	movl	8(%ebp), %eax
	movl	100(%eax), %eax
	popl	%ebp
	.cfi_restore 5
	.cfi_def_cfa 4, 4
	ret
	.cfi_endproc
.LFE1330:
	.size	_ZNK13CIwResManager15GetCurrentGroupEv, .-_ZNK13CIwResManager15GetCurrentGroupEv
	.section	.text._Z15IwGetResManagerv,"axG",@progbits,_Z15IwGetResManagerv,comdat
	.weak	_Z15IwGetResManagerv
	.hidden	_Z15IwGetResManagerv
	.type	_Z15IwGetResManagerv, @function
_Z15IwGetResManagerv:
.LFB1344:
	.loc 8 691 0
	.cfi_startproc
	pushl	%ebp
	.cfi_def_cfa_offset 8
	.cfi_offset 5, -8
	movl	%esp, %ebp
	.cfi_def_cfa_register 5
	call	__x86.get_pc_thunk.cx
	addl	$_GLOBAL_OFFSET_TABLE_, %ecx
	.loc 8 691 0
	movl	g_IwResManager@GOT(%ecx), %eax
	movl	(%eax), %eax
	popl	%ebp
	.cfi_restore 5
	.cfi_def_cfa 4, 4
	ret
	.cfi_endproc
.LFE1344:
	.size	_Z15IwGetResManagerv, .-_Z15IwGetResManagerv
	.section	.text._ZNK15CIwSoundManager16GetGroupIdentityEv,"axG",@progbits,_ZNK15CIwSoundManager16GetGroupIdentityEv,comdat
	.align 2
	.weak	_ZNK15CIwSoundManager16GetGroupIdentityEv
	.hidden	_ZNK15CIwSoundManager16GetGroupIdentityEv
	.type	_ZNK15CIwSoundManager16GetGroupIdentityEv, @function
_ZNK15CIwSoundManager16GetGroupIdentityEv:
.LFB1364:
	.file 9 "c:/marmalade/7.5/examples/gametutorial/cpp/modules/soundengine/h/IwSoundManager.h"
	.loc 9 77 0
	.cfi_startproc
	pushl	%ebp
	.cfi_def_cfa_offset 8
	.cfi_offset 5, -8
	leal	(%esp), %ebp
	.cfi_def_cfa_register 5
	.loc 9 77 0
	movl	8(%ebp), %eax
	movl	32(%eax), %eax
	popl	%ebp
	.cfi_restore 5
	.cfi_def_cfa 4, 4
	ret
	.cfi_endproc
.LFE1364:
	.size	_ZNK15CIwSoundManager16GetGroupIdentityEv, .-_ZNK15CIwSoundManager16GetGroupIdentityEv
	.section	.text._ZNK15CIwSoundManager17GetParamsIdentityEv,"axG",@progbits,_ZNK15CIwSoundManager17GetParamsIdentityEv,comdat
	.align 2
	.weak	_ZNK15CIwSoundManager17GetParamsIdentityEv
	.hidden	_ZNK15CIwSoundManager17GetParamsIdentityEv
	.type	_ZNK15CIwSoundManager17GetParamsIdentityEv, @function
_ZNK15CIwSoundManager17GetParamsIdentityEv:
.LFB1365:
	.loc 9 80 0
	.cfi_startproc
	pushl	%ebp
	.cfi_def_cfa_offset 8
	.cfi_offset 5, -8
	leal	(%esp), %ebp
	.cfi_def_cfa_register 5
	.loc 9 80 0
	movl	8(%ebp), %eax
	movl	36(%eax), %eax
	popl	%ebp
	.cfi_restore 5
	.cfi_def_cfa 4, 4
	ret
	.cfi_endproc
.LFE1365:
	.size	_ZNK15CIwSoundManager17GetParamsIdentityEv, .-_ZNK15CIwSoundManager17GetParamsIdentityEv
	.section	.text._ZNK15CIwSoundManager12GetMasterVolEv,"axG",@progbits,_ZNK15CIwSoundManager12GetMasterVolEv,comdat
	.align 2
	.weak	_ZNK15CIwSoundManager12GetMasterVolEv
	.hidden	_ZNK15CIwSoundManager12GetMasterVolEv
	.type	_ZNK15CIwSoundManager12GetMasterVolEv, @function
_ZNK15CIwSoundManager12GetMasterVolEv:
.LFB1366:
	.loc 9 92 0
	.cfi_startproc
	pushl	%ebp
	.cfi_def_cfa_offset 8
	.cfi_offset 5, -8
	leal	(%esp), %ebp
	.cfi_def_cfa_register 5
	.loc 9 92 0
	movl	8(%ebp), %eax
	movzwl	24(%eax), %eax
	popl	%ebp
	.cfi_restore 5
	.cfi_def_cfa 4, 4
	ret
	.cfi_endproc
.LFE1366:
	.size	_ZNK15CIwSoundManager12GetMasterVolEv, .-_ZNK15CIwSoundManager12GetMasterVolEv
	.section	.text._ZNK15CIwSoundManager12GetMasterPanEv,"axG",@progbits,_ZNK15CIwSoundManager12GetMasterPanEv,comdat
	.align 2
	.weak	_ZNK15CIwSoundManager12GetMasterPanEv
	.hidden	_ZNK15CIwSoundManager12GetMasterPanEv
	.type	_ZNK15CIwSoundManager12GetMasterPanEv, @function
_ZNK15CIwSoundManager12GetMasterPanEv:
.LFB1367:
	.loc 9 95 0
	.cfi_startproc
	pushl	%ebp
	.cfi_def_cfa_offset 8
	.cfi_offset 5, -8
	leal	(%esp), %ebp
	.cfi_def_cfa_register 5
	.loc 9 95 0
	movl	8(%ebp), %eax
	movzwl	26(%eax), %eax
	popl	%ebp
	.cfi_restore 5
	.cfi_def_cfa 4, 4
	ret
	.cfi_endproc
.LFE1367:
	.size	_ZNK15CIwSoundManager12GetMasterPanEv, .-_ZNK15CIwSoundManager12GetMasterPanEv
	.section	.text._ZNK15CIwSoundManager14GetMasterPitchEv,"axG",@progbits,_ZNK15CIwSoundManager14GetMasterPitchEv,comdat
	.align 2
	.weak	_ZNK15CIwSoundManager14GetMasterPitchEv
	.hidden	_ZNK15CIwSoundManager14GetMasterPitchEv
	.type	_ZNK15CIwSoundManager14GetMasterPitchEv, @function
_ZNK15CIwSoundManager14GetMasterPitchEv:
.LFB1368:
	.loc 9 98 0
	.cfi_startproc
	pushl	%ebp
	.cfi_def_cfa_offset 8
	.cfi_offset 5, -8
	leal	(%esp), %ebp
	.cfi_def_cfa_register 5
	.loc 9 98 0
	movl	8(%ebp), %eax
	movzwl	28(%eax), %eax
	popl	%ebp
	.cfi_restore 5
	.cfi_def_cfa 4, 4
	ret
	.cfi_endproc
.LFE1368:
	.size	_ZNK15CIwSoundManager14GetMasterPitchEv, .-_ZNK15CIwSoundManager14GetMasterPitchEv
	.section	.text._ZNK15CIwSoundManager8IsActiveEv,"axG",@progbits,_ZNK15CIwSoundManager8IsActiveEv,comdat
	.align 2
	.weak	_ZNK15CIwSoundManager8IsActiveEv
	.hidden	_ZNK15CIwSoundManager8IsActiveEv
	.type	_ZNK15CIwSoundManager8IsActiveEv, @function
_ZNK15CIwSoundManager8IsActiveEv:
.LFB1375:
	.loc 9 128 0
	.cfi_startproc
	pushl	%ebp
	.cfi_def_cfa_offset 8
	.cfi_offset 5, -8
	leal	(%esp), %ebp
	.cfi_def_cfa_register 5
	.loc 9 130 0
	movl	8(%ebp), %eax
	movzwl	30(%eax), %eax
	movzwl	%ax, %eax
	andl	$2, %eax
	testl	%eax, %eax
	setne	%al
	.loc 9 131 0
	popl	%ebp
	.cfi_restore 5
	.cfi_def_cfa 4, 4
	ret
	.cfi_endproc
.LFE1375:
	.size	_ZNK15CIwSoundManager8IsActiveEv, .-_ZNK15CIwSoundManager8IsActiveEv
	.section	.text._Z17IwGetSoundManagerv,"axG",@progbits,_Z17IwGetSoundManagerv,comdat
	.weak	_Z17IwGetSoundManagerv
	.hidden	_Z17IwGetSoundManagerv
	.type	_Z17IwGetSoundManagerv, @function
_Z17IwGetSoundManagerv:
.LFB1378:
	.loc 9 193 0
	.cfi_startproc
	pushl	%ebp
	.cfi_def_cfa_offset 8
	.cfi_offset 5, -8
	movl	%esp, %ebp
	.cfi_def_cfa_register 5
	call	__x86.get_pc_thunk.cx
	addl	$_GLOBAL_OFFSET_TABLE_, %ecx
	.loc 9 193 0
	movl	g_IwSoundManager@GOT(%ecx), %eax
	movl	(%eax), %eax
	popl	%ebp
	.cfi_restore 5
	.cfi_def_cfa 4, 4
	ret
	.cfi_endproc
.LFE1378:
	.size	_Z17IwGetSoundManagerv, .-_Z17IwGetSoundManagerv
	.section	.text._ZNK12CIwSoundData7GetDataER8CIwArrayIs12CIwAllocatorIs15CIwMallocRouterIsEE17ReallocateDefaultIsS4_EE,"axG",@progbits,_ZNK12CIwSoundData7GetDataER8CIwArrayIs12CIwAllocatorIs15CIwMallocRouterIsEE17ReallocateDefaultIsS4_EE,comdat
	.align 2
	.weak	_ZNK12CIwSoundData7GetDataER8CIwArrayIs12CIwAllocatorIs15CIwMallocRouterIsEE17ReallocateDefaultIsS4_EE
	.hidden	_ZNK12CIwSoundData7GetDataER8CIwArrayIs12CIwAllocatorIs15CIwMallocRouterIsEE17ReallocateDefaultIsS4_EE
	.type	_ZNK12CIwSoundData7GetDataER8CIwArrayIs12CIwAllocatorIs15CIwMallocRouterIsEE17ReallocateDefaultIsS4_EE, @function
_ZNK12CIwSoundData7GetDataER8CIwArrayIs12CIwAllocatorIs15CIwMallocRouterIsEE17ReallocateDefaultIsS4_EE:
.LFB1384:
	.file 10 "c:/marmalade/7.5/examples/gametutorial/cpp/modules/soundengine/h/IwSoundData.h"
	.loc 10 53 0
	.cfi_startproc
	pushl	%ebp
	.cfi_def_cfa_offset 8
	.cfi_offset 5, -8
	movl	%esp, %ebp
	.cfi_def_cfa_register 5
	pushl	%esi
	pushl	%ebx
	leal	-16(%esp), %esp
	.cfi_offset 6, -12
	.cfi_offset 3, -16
	call	__x86.get_pc_thunk.bx
	addl	$_GLOBAL_OFFSET_TABLE_, %ebx
	.loc 10 53 0
	movl	8(%ebp), %eax
	movl	%eax, (%esp)
	call	_ZNK12CIwSoundData13GetBufferSizeEv@PLT
	shrl	%eax
	movl	%eax, %esi
	movl	8(%ebp), %eax
	movl	%eax, (%esp)
	call	_ZNK12CIwSoundData13GetBufferSizeEv@PLT
	shrl	%eax
	movl	%eax, %edx
	movl	8(%ebp), %eax
	movl	24(%eax), %eax
	movl	%esi, 12(%esp)
	movl	%edx, 8(%esp)
	movl	%eax, 4(%esp)
	movl	12(%ebp), %eax
	movl	%eax, (%esp)
	call	_ZN8CIwArrayIs12CIwAllocatorIs15CIwMallocRouterIsEE17ReallocateDefaultIsS3_EE5ShareEPsii
	leal	16(%esp), %esp
	popl	%ebx
	.cfi_restore 3
	popl	%esi
	.cfi_restore 6
	popl	%ebp
	.cfi_restore 5
	.cfi_def_cfa 4, 4
	ret
	.cfi_endproc
.LFE1384:
	.size	_ZNK12CIwSoundData7GetDataER8CIwArrayIs12CIwAllocatorIs15CIwMallocRouterIsEE17ReallocateDefaultIsS4_EE, .-_ZNK12CIwSoundData7GetDataER8CIwArrayIs12CIwAllocatorIs15CIwMallocRouterIsEE17ReallocateDefaultIsS4_EE
	.section	.text._ZNK12CIwSoundData7GetDataER8CIwArrayIa12CIwAllocatorIa15CIwMallocRouterIaEE17ReallocateDefaultIaS4_EE,"axG",@progbits,_ZNK12CIwSoundData7GetDataER8CIwArrayIa12CIwAllocatorIa15CIwMallocRouterIaEE17ReallocateDefaultIaS4_EE,comdat
	.align 2
	.weak	_ZNK12CIwSoundData7GetDataER8CIwArrayIa12CIwAllocatorIa15CIwMallocRouterIaEE17ReallocateDefaultIaS4_EE
	.hidden	_ZNK12CIwSoundData7GetDataER8CIwArrayIa12CIwAllocatorIa15CIwMallocRouterIaEE17ReallocateDefaultIaS4_EE
	.type	_ZNK12CIwSoundData7GetDataER8CIwArrayIa12CIwAllocatorIa15CIwMallocRouterIaEE17ReallocateDefaultIaS4_EE, @function
_ZNK12CIwSoundData7GetDataER8CIwArrayIa12CIwAllocatorIa15CIwMallocRouterIaEE17ReallocateDefaultIaS4_EE:
.LFB1385:
	.loc 10 54 0
	.cfi_startproc
	pushl	%ebp
	.cfi_def_cfa_offset 8
	.cfi_offset 5, -8
	movl	%esp, %ebp
	.cfi_def_cfa_register 5
	pushl	%esi
	pushl	%ebx
	leal	-16(%esp), %esp
	.cfi_offset 6, -12
	.cfi_offset 3, -16
	call	__x86.get_pc_thunk.bx
	addl	$_GLOBAL_OFFSET_TABLE_, %ebx
	.loc 10 54 0
	movl	8(%ebp), %eax
	movl	%eax, (%esp)
	call	_ZNK12CIwSoundData13GetBufferSizeEv@PLT
	movl	%eax, %esi
	movl	8(%ebp), %eax
	movl	%eax, (%esp)
	call	_ZNK12CIwSoundData13GetBufferSizeEv@PLT
	movl	%eax, %edx
	movl	8(%ebp), %eax
	movl	24(%eax), %eax
	movl	%esi, 12(%esp)
	movl	%edx, 8(%esp)
	movl	%eax, 4(%esp)
	movl	12(%ebp), %eax
	movl	%eax, (%esp)
	call	_ZN8CIwArrayIa12CIwAllocatorIa15CIwMallocRouterIaEE17ReallocateDefaultIaS3_EE5ShareEPaii
	leal	16(%esp), %esp
	popl	%ebx
	.cfi_restore 3
	popl	%esi
	.cfi_restore 6
	popl	%ebp
	.cfi_restore 5
	.cfi_def_cfa 4, 4
	ret
	.cfi_endproc
.LFE1385:
	.size	_ZNK12CIwSoundData7GetDataER8CIwArrayIa12CIwAllocatorIa15CIwMallocRouterIaEE17ReallocateDefaultIaS4_EE, .-_ZNK12CIwSoundData7GetDataER8CIwArrayIa12CIwAllocatorIa15CIwMallocRouterIaEE17ReallocateDefaultIaS4_EE
	.section	.text._ZNK13CIwSoundGroup8GetFlagsEv,"axG",@progbits,_ZNK13CIwSoundGroup8GetFlagsEv,comdat
	.align 2
	.weak	_ZNK13CIwSoundGroup8GetFlagsEv
	.hidden	_ZNK13CIwSoundGroup8GetFlagsEv
	.type	_ZNK13CIwSoundGroup8GetFlagsEv, @function
_ZNK13CIwSoundGroup8GetFlagsEv:
.LFB1416:
	.file 11 "c:/marmalade/7.5/examples/gametutorial/cpp/modules/soundengine/h/IwSoundGroup.h"
	.loc 11 69 0
	.cfi_startproc
	pushl	%ebp
	.cfi_def_cfa_offset 8
	.cfi_offset 5, -8
	leal	(%esp), %ebp
	.cfi_def_cfa_register 5
	.loc 11 69 0
	movl	8(%ebp), %eax
	movzwl	26(%eax), %eax
	popl	%ebp
	.cfi_restore 5
	.cfi_def_cfa 4, 4
	ret
	.cfi_endproc
.LFE1416:
	.size	_ZNK13CIwSoundGroup8GetFlagsEv, .-_ZNK13CIwSoundGroup8GetFlagsEv
	.section	.text._ZNK13CIwSoundGroup15GetMaxPolyphonyEv,"axG",@progbits,_ZNK13CIwSoundGroup15GetMaxPolyphonyEv,comdat
	.align 2
	.weak	_ZNK13CIwSoundGroup15GetMaxPolyphonyEv
	.hidden	_ZNK13CIwSoundGroup15GetMaxPolyphonyEv
	.type	_ZNK13CIwSoundGroup15GetMaxPolyphonyEv, @function
_ZNK13CIwSoundGroup15GetMaxPolyphonyEv:
.LFB1418:
	.loc 11 75 0
	.cfi_startproc
	pushl	%ebp
	.cfi_def_cfa_offset 8
	.cfi_offset 5, -8
	leal	(%esp), %ebp
	.cfi_def_cfa_register 5
	.loc 11 75 0
	movl	8(%ebp), %eax
	movzwl	22(%eax), %eax
	popl	%ebp
	.cfi_restore 5
	.cfi_def_cfa 4, 4
	ret
	.cfi_endproc
.LFE1418:
	.size	_ZNK13CIwSoundGroup15GetMaxPolyphonyEv, .-_ZNK13CIwSoundGroup15GetMaxPolyphonyEv
	.section	.text._ZNK13CIwSoundGroup16GetCurrPolyphonyEv,"axG",@progbits,_ZNK13CIwSoundGroup16GetCurrPolyphonyEv,comdat
	.align 2
	.weak	_ZNK13CIwSoundGroup16GetCurrPolyphonyEv
	.hidden	_ZNK13CIwSoundGroup16GetCurrPolyphonyEv
	.type	_ZNK13CIwSoundGroup16GetCurrPolyphonyEv, @function
_ZNK13CIwSoundGroup16GetCurrPolyphonyEv:
.LFB1419:
	.loc 11 78 0
	.cfi_startproc
	pushl	%ebp
	.cfi_def_cfa_offset 8
	.cfi_offset 5, -8
	leal	(%esp), %ebp
	.cfi_def_cfa_register 5
	.loc 11 78 0
	movl	8(%ebp), %eax
	movzwl	24(%eax), %eax
	popl	%ebp
	.cfi_restore 5
	.cfi_def_cfa 4, 4
	ret
	.cfi_endproc
.LFE1419:
	.size	_ZNK13CIwSoundGroup16GetCurrPolyphonyEv, .-_ZNK13CIwSoundGroup16GetCurrPolyphonyEv
	.section	.text._ZNK12CIwSoundInst7GetSpecEv,"axG",@progbits,_ZNK12CIwSoundInst7GetSpecEv,comdat
	.align 2
	.weak	_ZNK12CIwSoundInst7GetSpecEv
	.hidden	_ZNK12CIwSoundInst7GetSpecEv
	.type	_ZNK12CIwSoundInst7GetSpecEv, @function
_ZNK12CIwSoundInst7GetSpecEv:
.LFB1421:
	.file 12 "c:/marmalade/7.5/examples/gametutorial/cpp/modules/soundengine/h/IwSoundInst.h"
	.loc 12 54 0
	.cfi_startproc
	pushl	%ebp
	.cfi_def_cfa_offset 8
	.cfi_offset 5, -8
	leal	(%esp), %ebp
	.cfi_def_cfa_register 5
	.loc 12 54 0
	movl	8(%ebp), %eax
	movl	(%eax), %eax
	popl	%ebp
	.cfi_restore 5
	.cfi_def_cfa 4, 4
	ret
	.cfi_endproc
.LFE1421:
	.size	_ZNK12CIwSoundInst7GetSpecEv, .-_ZNK12CIwSoundInst7GetSpecEv
	.text
	.type	IwRandRange, @function
IwRandRange:
.LFB1430:
	.file 13 "c:/marmalade/7.5/modules/iwutil/h/IwRandom.h"
	.loc 13 71 0
	.cfi_startproc
	pushl	%ebp
	.cfi_def_cfa_offset 8
	.cfi_offset 5, -8
	movl	%esp, %ebp
	.cfi_def_cfa_register 5
	pushl	%ebx
	leal	-4(%esp), %esp
	.cfi_offset 3, -12
	call	__x86.get_pc_thunk.bx
	addl	$_GLOBAL_OFFSET_TABLE_, %ebx
	.loc 13 71 0
	cmpl	$0, 8(%ebp)
	jne	.L73
	.loc 13 71 0 is_stmt 0 discriminator 1
	movl	$0, %eax
	jmp	.L74
.L73:
	.loc 13 71 0 discriminator 2
	call	IwRand@PLT
	movl	%eax, %edx
	sarl	$31, %edx
	idivl	8(%ebp)
	movl	%edx, %eax
.L74:
	.loc 13 71 0
	leal	4(%esp), %esp
	popl	%ebx
	.cfi_restore 3
	popl	%ebp
	.cfi_restore 5
	.cfi_def_cfa 4, 4
	ret
	.cfi_endproc
.LFE1430:
	.size	IwRandRange, .-IwRandRange
	.type	IwRandMinMax, @function
IwRandMinMax:
.LFB1431:
	.loc 13 82 0 is_stmt 1
	.cfi_startproc
	pushl	%ebp
	.cfi_def_cfa_offset 8
	.cfi_offset 5, -8
	leal	(%esp), %ebp
	.cfi_def_cfa_register 5
	leal	-24(%esp), %esp
	.loc 13 82 0
	movl	8(%ebp), %eax
	movl	12(%ebp), %edx
	subl	%eax, %edx
	movl	%edx, %eax
	movl	%eax, (%esp)
	call	IwRandRange
	movl	8(%ebp), %edx
	addl	%edx, %eax
	leave
	.cfi_restore 5
	.cfi_def_cfa 4, 4
	ret
	.cfi_endproc
.LFE1431:
	.size	IwRandMinMax, .-IwRandMinMax
	.section	.rodata
.LC5:
	.string	"_IwSoundSpec_EndSampleCB"
	.text
	.globl	_Z24_IwSoundSpec_EndSampleCBP21s3eSoundEndSampleInfoPv
	.hidden	_Z24_IwSoundSpec_EndSampleCBP21s3eSoundEndSampleInfoPv
	.type	_Z24_IwSoundSpec_EndSampleCBP21s3eSoundEndSampleInfoPv, @function
_Z24_IwSoundSpec_EndSampleCBP21s3eSoundEndSampleInfoPv:
.LFB1432:
	.file 14 "c:/Marmalade/7.5/examples/GameTutorial/CPP/modules/soundengine/source/IwSoundSpec.cpp"
	.loc 14 35 0
	.cfi_startproc
	pushl	%ebp
	.cfi_def_cfa_offset 8
	.cfi_offset 5, -8
	movl	%esp, %ebp
	.cfi_def_cfa_register 5
	pushl	%esi
	pushl	%ebx
	leal	-32(%esp), %esp
	.cfi_offset 6, -12
	.cfi_offset 3, -16
	call	__x86.get_pc_thunk.bx
	addl	$_GLOBAL_OFFSET_TABLE_, %ebx
.LBB11:
	.loc 14 36 0
	leal	.LC5@GOTOFF(%ebx), %eax
	movl	%eax, 4(%esp)
	leal	-13(%ebp), %eax
	movl	%eax, (%esp)
	call	_ZN12CIwCallStackC1EPKc
	.loc 14 38 0
	movl	8(%ebp), %eax
	movl	4(%eax), %eax
	testl	%eax, %eax
	je	.L78
	.loc 14 39 0
	movl	$1, %esi
	jmp	.L79
.L78:
	.loc 14 42 0
	movl	12(%ebp), %eax
	movl	%eax, -12(%ebp)
	.loc 14 43 0
	movl	-12(%ebp), %eax
	movzwl	10(%eax), %eax
	orl	$2, %eax
	movl	%eax, %edx
	movl	-12(%ebp), %eax
	movw	%dx, 10(%eax)
	.loc 14 45 0
	movl	$0, %esi
.L79:
	.loc 14 45 0 is_stmt 0 discriminator 1
	leal	-13(%ebp), %eax
	movl	%eax, (%esp)
	call	_ZN12CIwCallStackD1Ev
	movl	%esi, %eax
.LBE11:
	.loc 14 46 0 is_stmt 1 discriminator 1
	leal	32(%esp), %esp
	popl	%ebx
	.cfi_restore 3
	popl	%esi
	.cfi_restore 6
	popl	%ebp
	.cfi_restore 5
	.cfi_def_cfa 4, 4
	ret
	.cfi_endproc
.LFE1432:
	.size	_Z24_IwSoundSpec_EndSampleCBP21s3eSoundEndSampleInfoPv, .-_Z24_IwSoundSpec_EndSampleCBP21s3eSoundEndSampleInfoPv
	.section	.rodata
.LC6:
	.string	"_CIwSoundSpecFactory"
	.text
	.globl	_Z20_CIwSoundSpecFactoryv
	.hidden	_Z20_CIwSoundSpecFactoryv
	.type	_Z20_CIwSoundSpecFactoryv, @function
_Z20_CIwSoundSpecFactoryv:
.LFB1433:
	.loc 14 51 0
	.cfi_startproc
	pushl	%ebp
	.cfi_def_cfa_offset 8
	.cfi_offset 5, -8
	movl	%esp, %ebp
	.cfi_def_cfa_register 5
	pushl	%esi
	pushl	%ebx
	leal	-32(%esp), %esp
	.cfi_offset 6, -12
	.cfi_offset 3, -16
	call	__x86.get_pc_thunk.bx
	addl	$_GLOBAL_OFFSET_TABLE_, %ebx
.LBB12:
	.loc 14 51 0
	leal	.LC6@GOTOFF(%ebx), %eax
	movl	%eax, 4(%esp)
	leal	-9(%ebp), %eax
	movl	%eax, (%esp)
	call	_ZN12CIwCallStackC1EPKc
	movl	$40, (%esp)
	call	_Znwj@PLT
	movl	%eax, %esi
	movl	%esi, (%esp)
	call	_ZN12CIwSoundSpecC1Ev
	leal	-9(%ebp), %eax
	movl	%eax, (%esp)
	call	_ZN12CIwCallStackD1Ev
	movl	%esi, %eax
.LBE12:
	leal	32(%esp), %esp
	popl	%ebx
	.cfi_restore 3
	popl	%esi
	.cfi_restore 6
	popl	%ebp
	.cfi_restore 5
	.cfi_def_cfa 4, 4
	ret
	.cfi_endproc
.LFE1433:
	.size	_Z20_CIwSoundSpecFactoryv, .-_Z20_CIwSoundSpecFactoryv
	.globl	_Z20_GetCIwSoundSpecSizev
	.hidden	_Z20_GetCIwSoundSpecSizev
	.type	_Z20_GetCIwSoundSpecSizev, @function
_Z20_GetCIwSoundSpecSizev:
.LFB1434:
	.loc 14 51 0
	.cfi_startproc
	pushl	%ebp
	.cfi_def_cfa_offset 8
	.cfi_offset 5, -8
	movl	%esp, %ebp
	.cfi_def_cfa_register 5
	.loc 14 51 0
	movl	$40, %eax
	popl	%ebp
	.cfi_restore 5
	.cfi_def_cfa 4, 4
	ret
	.cfi_endproc
.LFE1434:
	.size	_Z20_GetCIwSoundSpecSizev, .-_Z20_GetCIwSoundSpecSizev
	.section	.rodata
.LC7:
	.string	"CIwSoundSpec"
	.text
	.align 2
	.globl	_ZNK12CIwSoundSpec12GetClassNameEv
	.hidden	_ZNK12CIwSoundSpec12GetClassNameEv
	.type	_ZNK12CIwSoundSpec12GetClassNameEv, @function
_ZNK12CIwSoundSpec12GetClassNameEv:
.LFB1435:
	.loc 14 52 0
	.cfi_startproc
	pushl	%ebp
	.cfi_def_cfa_offset 8
	.cfi_offset 5, -8
	movl	%esp, %ebp
	.cfi_def_cfa_register 5
	call	__x86.get_pc_thunk.cx
	addl	$_GLOBAL_OFFSET_TABLE_, %ecx
	.loc 14 52 0
	leal	.LC7@GOTOFF(%ecx), %eax
	popl	%ebp
	.cfi_restore 5
	.cfi_def_cfa 4, 4
	ret
	.cfi_endproc
.LFE1435:
	.size	_ZNK12CIwSoundSpec12GetClassNameEv, .-_ZNK12CIwSoundSpec12GetClassNameEv
	.section	.rodata
.LC8:
	.string	"CIwSoundSpec::CIwSoundSpec"
	.text
	.align 2
	.globl	_ZN12CIwSoundSpecC2Ev
	.hidden	_ZN12CIwSoundSpecC2Ev
	.type	_ZN12CIwSoundSpecC2Ev, @function
_ZN12CIwSoundSpecC2Ev:
.LFB1437:
	.loc 14 53 0
	.cfi_startproc
	pushl	%ebp
	.cfi_def_cfa_offset 8
	.cfi_offset 5, -8
	movl	%esp, %ebp
	.cfi_def_cfa_register 5
	pushl	%ebx
	leal	-36(%esp), %esp
	.cfi_offset 3, -12
	call	__x86.get_pc_thunk.bx
	addl	$_GLOBAL_OFFSET_TABLE_, %ebx
.LBB13:
	.loc 14 53 0
	movl	8(%ebp), %eax
	movl	%eax, (%esp)
	call	_ZN11CIwResourceC2Ev
	movl	8(%ebp), %eax
	leal	8+_ZTV12CIwSoundSpec@GOTOFF(%ebx), %edx
	movl	%edx, (%eax)
.LBB14:
	.loc 14 55 0
	leal	.LC8@GOTOFF(%ebx), %eax
	movl	%eax, 4(%esp)
	leal	-9(%ebp), %eax
	movl	%eax, (%esp)
	call	_ZN12CIwCallStackC1EPKc
	.loc 14 57 0
	movl	8(%ebp), %eax
	movl	$0, 32(%eax)
	.loc 14 58 0
	movl	8(%ebp), %eax
	movw	$4096, 20(%eax)
	.loc 14 59 0
	movl	8(%ebp), %eax
	movw	$4096, 22(%eax)
	.loc 14 60 0
	movl	8(%ebp), %eax
	movw	$0, 24(%eax)
	.loc 14 61 0
	movl	8(%ebp), %eax
	movw	$0, 26(%eax)
	.loc 14 62 0
	movl	8(%ebp), %eax
	movw	$4096, 28(%eax)
	.loc 14 63 0
	movl	8(%ebp), %eax
	movw	$4096, 30(%eax)
	.loc 14 64 0
	movl	8(%ebp), %eax
	movl	$0, 36(%eax)
	.loc 14 65 0
	movl	8(%ebp), %eax
	movw	$0, 16(%eax)
	leal	-9(%ebp), %eax
	movl	%eax, (%esp)
	call	_ZN12CIwCallStackD1Ev
.LBE14:
.LBE13:
	.loc 14 66 0
	leal	36(%esp), %esp
	popl	%ebx
	.cfi_restore 3
	popl	%ebp
	.cfi_restore 5
	.cfi_def_cfa 4, 4
	ret
	.cfi_endproc
.LFE1437:
	.size	_ZN12CIwSoundSpecC2Ev, .-_ZN12CIwSoundSpecC2Ev
	.globl	_ZN12CIwSoundSpecC1Ev
	.hidden	_ZN12CIwSoundSpecC1Ev
	.set	_ZN12CIwSoundSpecC1Ev,_ZN12CIwSoundSpecC2Ev
	.section	.rodata
.LC9:
	.string	"CIwSoundSpec::~CIwSoundSpec"
	.text
	.align 2
	.globl	_ZN12CIwSoundSpecD2Ev
	.hidden	_ZN12CIwSoundSpecD2Ev
	.type	_ZN12CIwSoundSpecD2Ev, @function
_ZN12CIwSoundSpecD2Ev:
.LFB1440:
	.loc 14 68 0
	.cfi_startproc
	pushl	%ebp
	.cfi_def_cfa_offset 8
	.cfi_offset 5, -8
	movl	%esp, %ebp
	.cfi_def_cfa_register 5
	pushl	%ebx
	leal	-36(%esp), %esp
	.cfi_offset 3, -12
	call	__x86.get_pc_thunk.bx
	addl	$_GLOBAL_OFFSET_TABLE_, %ebx
.LBB15:
	.loc 14 68 0
	movl	8(%ebp), %eax
	leal	8+_ZTV12CIwSoundSpec@GOTOFF(%ebx), %edx
	movl	%edx, (%eax)
.LBB16:
	.loc 14 70 0
	leal	.LC9@GOTOFF(%ebx), %eax
	movl	%eax, 4(%esp)
	leal	-9(%ebp), %eax
	movl	%eax, (%esp)
	call	_ZN12CIwCallStackC1EPKc
	.loc 14 72 0
	call	_Z17IwGetSoundManagerv
	testl	%eax, %eax
	setne	%al
	testb	%al, %al
	je	.L89
	.loc 14 73 0
	call	_Z17IwGetSoundManagerv
	movl	8(%ebp), %edx
	movl	%edx, 4(%esp)
	movl	%eax, (%esp)
	call	_ZN15CIwSoundManager13StopSoundSpecEP12CIwSoundSpec@PLT
.L89:
	leal	-9(%ebp), %eax
	movl	%eax, (%esp)
	call	_ZN12CIwCallStackD1Ev
.LBE16:
	.loc 14 68 0
	movl	8(%ebp), %eax
	movl	%eax, (%esp)
	call	_ZN11CIwResourceD2Ev
.LBE15:
	.loc 14 74 0
	movl	$0, %eax
	testl	%eax, %eax
	je	.L88
	.loc 14 74 0 is_stmt 0 discriminator 1
	movl	8(%ebp), %eax
	movl	%eax, (%esp)
	call	_ZdlPv@PLT
.L88:
	.loc 14 74 0
	leal	36(%esp), %esp
	popl	%ebx
	.cfi_restore 3
	popl	%ebp
	.cfi_restore 5
	.cfi_def_cfa 4, 4
	ret
	.cfi_endproc
.LFE1440:
	.size	_ZN12CIwSoundSpecD2Ev, .-_ZN12CIwSoundSpecD2Ev
	.globl	_ZN12CIwSoundSpecD1Ev
	.hidden	_ZN12CIwSoundSpecD1Ev
	.set	_ZN12CIwSoundSpecD1Ev,_ZN12CIwSoundSpecD2Ev
	.align 2
	.globl	_ZN12CIwSoundSpecD0Ev
	.hidden	_ZN12CIwSoundSpecD0Ev
	.type	_ZN12CIwSoundSpecD0Ev, @function
_ZN12CIwSoundSpecD0Ev:
.LFB1442:
	.loc 14 68 0 is_stmt 1
	.cfi_startproc
	pushl	%ebp
	.cfi_def_cfa_offset 8
	.cfi_offset 5, -8
	movl	%esp, %ebp
	.cfi_def_cfa_register 5
	pushl	%ebx
	leal	-20(%esp), %esp
	.cfi_offset 3, -12
	call	__x86.get_pc_thunk.bx
	addl	$_GLOBAL_OFFSET_TABLE_, %ebx
	.loc 14 74 0
	movl	8(%ebp), %eax
	movl	%eax, (%esp)
	call	_ZN12CIwSoundSpecD1Ev
	movl	8(%ebp), %eax
	movl	%eax, (%esp)
	call	_ZdlPv@PLT
	leal	20(%esp), %esp
	popl	%ebx
	.cfi_restore 3
	popl	%ebp
	.cfi_restore 5
	.cfi_def_cfa 4, 4
	ret
	.cfi_endproc
.LFE1442:
	.size	_ZN12CIwSoundSpecD0Ev, .-_ZN12CIwSoundSpecD0Ev
	.section	.rodata
.LC10:
	.string	"CIwSoundSpec::Serialise"
	.text
	.align 2
	.globl	_ZN12CIwSoundSpec9SerialiseEv
	.hidden	_ZN12CIwSoundSpec9SerialiseEv
	.type	_ZN12CIwSoundSpec9SerialiseEv, @function
_ZN12CIwSoundSpec9SerialiseEv:
.LFB1443:
	.loc 14 77 0
	.cfi_startproc
	pushl	%ebp
	.cfi_def_cfa_offset 8
	.cfi_offset 5, -8
	movl	%esp, %ebp
	.cfi_def_cfa_register 5
	pushl	%ebx
	leal	-36(%esp), %esp
	.cfi_offset 3, -12
	call	__x86.get_pc_thunk.bx
	addl	$_GLOBAL_OFFSET_TABLE_, %ebx
.LBB17:
	.loc 14 78 0
	leal	.LC10@GOTOFF(%ebx), %eax
	movl	%eax, 4(%esp)
	leal	-9(%ebp), %eax
	movl	%eax, (%esp)
	call	_ZN12CIwCallStackC1EPKc
	.loc 14 80 0
	movl	8(%ebp), %eax
	movl	%eax, (%esp)
	call	_ZN10CIwManaged9SerialiseEv@PLT
	.file 15 "c:/marmalade/7.5/modules/iwutil/h/IwSerialise.h"
	.loc 15 338 0
	movl	$16, %eax
	.loc 14 81 0
	movl	8(%ebp), %edx
	addl	$16, %edx
	movl	$2, 12(%esp)
	movl	%eax, 8(%esp)
	movl	$1, 4(%esp)
	movl	%edx, (%esp)
	call	_Z17IwSerialiseUInt16Rtiii@PLT
	.loc 15 349 0
	movl	$16, %eax
	subl	$1, %eax
	.loc 14 82 0
	movl	8(%ebp), %edx
	addl	$20, %edx
	movl	$2, 12(%esp)
	movl	%eax, 8(%esp)
	movl	$1, 4(%esp)
	movl	%edx, (%esp)
	call	_Z16IwSerialiseInt16Rsiii@PLT
	.loc 15 349 0
	movl	$16, %eax
	subl	$1, %eax
	.loc 14 83 0
	movl	8(%ebp), %edx
	addl	$22, %edx
	movl	$2, 12(%esp)
	movl	%eax, 8(%esp)
	movl	$1, 4(%esp)
	movl	%edx, (%esp)
	call	_Z16IwSerialiseInt16Rsiii@PLT
	.loc 15 349 0
	movl	$16, %eax
	subl	$1, %eax
	.loc 14 84 0
	movl	8(%ebp), %edx
	addl	$24, %edx
	movl	$2, 12(%esp)
	movl	%eax, 8(%esp)
	movl	$1, 4(%esp)
	movl	%edx, (%esp)
	call	_Z16IwSerialiseInt16Rsiii@PLT
	.loc 15 349 0
	movl	$16, %eax
	subl	$1, %eax
	.loc 14 85 0
	movl	8(%ebp), %edx
	addl	$26, %edx
	movl	$2, 12(%esp)
	movl	%eax, 8(%esp)
	movl	$1, 4(%esp)
	movl	%edx, (%esp)
	call	_Z16IwSerialiseInt16Rsiii@PLT
	.loc 15 349 0
	movl	$16, %eax
	subl	$1, %eax
	.loc 14 86 0
	movl	8(%ebp), %edx
	addl	$28, %edx
	movl	$2, 12(%esp)
	movl	%eax, 8(%esp)
	movl	$1, 4(%esp)
	movl	%edx, (%esp)
	call	_Z16IwSerialiseInt16Rsiii@PLT
	.loc 15 349 0
	movl	$16, %eax
	subl	$1, %eax
	.loc 14 87 0
	movl	8(%ebp), %edx
	addl	$30, %edx
	movl	$2, 12(%esp)
	movl	%eax, 8(%esp)
	movl	$1, 4(%esp)
	movl	%edx, (%esp)
	call	_Z16IwSerialiseInt16Rsiii@PLT
	.loc 14 90 0
	movl	8(%ebp), %eax
	addl	$32, %eax
	movl	%eax, (%esp)
	call	_Z22IwSerialiseManagedHashPv@PLT
	.loc 14 91 0
	movl	8(%ebp), %eax
	addl	$36, %eax
	movl	%eax, (%esp)
	call	_Z22IwSerialiseManagedHashPv@PLT
	leal	-9(%ebp), %eax
	movl	%eax, (%esp)
	call	_ZN12CIwCallStackD1Ev
.LBE17:
	.loc 14 92 0
	leal	36(%esp), %esp
	popl	%ebx
	.cfi_restore 3
	popl	%ebp
	.cfi_restore 5
	.cfi_def_cfa 4, 4
	ret
	.cfi_endproc
.LFE1443:
	.size	_ZN12CIwSoundSpec9SerialiseEv, .-_ZN12CIwSoundSpec9SerialiseEv
	.section	.rodata
.LC11:
	.string	"CIwSoundSpec::Resolve"
.LC12:
	.string	"CIwSoundData"
.LC13:
	.string	"CIwSoundGroup"
	.text
	.align 2
	.globl	_ZN12CIwSoundSpec7ResolveEv
	.hidden	_ZN12CIwSoundSpec7ResolveEv
	.type	_ZN12CIwSoundSpec7ResolveEv, @function
_ZN12CIwSoundSpec7ResolveEv:
.LFB1444:
	.loc 14 95 0
	.cfi_startproc
	pushl	%ebp
	.cfi_def_cfa_offset 8
	.cfi_offset 5, -8
	movl	%esp, %ebp
	.cfi_def_cfa_register 5
	pushl	%ebx
	leal	-36(%esp), %esp
	.cfi_offset 3, -12
	call	__x86.get_pc_thunk.bx
	addl	$_GLOBAL_OFFSET_TABLE_, %ebx
.LBB18:
	.loc 14 96 0
	leal	.LC11@GOTOFF(%ebx), %eax
	movl	%eax, 4(%esp)
	leal	-9(%ebp), %eax
	movl	%eax, (%esp)
	call	_ZN12CIwCallStackC1EPKc
	.loc 14 98 0
	movl	8(%ebp), %eax
	movl	%eax, (%esp)
	call	_ZN10CIwManaged7ResolveEv@PLT
	.loc 14 99 0
	movl	8(%ebp), %eax
	movl	%eax, %edx
	addl	$32, %edx
	movl	$0, 8(%esp)
	leal	.LC12@GOTOFF(%ebx), %eax
	movl	%eax, 4(%esp)
	movl	%edx, (%esp)
	call	_Z20IwResolveManagedHashPvPKcj@PLT
	.loc 14 100 0
	movl	8(%ebp), %eax
	movl	%eax, %edx
	addl	$36, %edx
	movl	$0, 8(%esp)
	leal	.LC13@GOTOFF(%ebx), %eax
	movl	%eax, 4(%esp)
	movl	%edx, (%esp)
	call	_Z20IwResolveManagedHashPvPKcj@PLT
	leal	-9(%ebp), %eax
	movl	%eax, (%esp)
	call	_ZN12CIwCallStackD1Ev
.LBE18:
	.loc 14 101 0
	leal	36(%esp), %esp
	popl	%ebx
	.cfi_restore 3
	popl	%ebp
	.cfi_restore 5
	.cfi_def_cfa 4, 4
	ret
	.cfi_endproc
.LFE1444:
	.size	_ZN12CIwSoundSpec7ResolveEv, .-_ZN12CIwSoundSpec7ResolveEv
	.section	.rodata
.LC14:
	.string	"CIwSoundSpec::Play"
.LC15:
	.string	"SOUND"
.LC16:
	.string	"Playing %s %p"
	.text
	.align 2
	.globl	_ZN12CIwSoundSpec4PlayEPK14CIwSoundParams
	.hidden	_ZN12CIwSoundSpec4PlayEPK14CIwSoundParams
	.type	_ZN12CIwSoundSpec4PlayEPK14CIwSoundParams, @function
_ZN12CIwSoundSpec4PlayEPK14CIwSoundParams:
.LFB1445:
	.loc 14 104 0
	.cfi_startproc
	pushl	%ebp
	.cfi_def_cfa_offset 8
	.cfi_offset 5, -8
	movl	%esp, %ebp
	.cfi_def_cfa_register 5
	pushl	%edi
	pushl	%esi
	pushl	%ebx
	leal	-124(%esp), %esp
	.cfi_offset 7, -12
	.cfi_offset 6, -16
	.cfi_offset 3, -20
	call	__x86.get_pc_thunk.bx
	addl	$_GLOBAL_OFFSET_TABLE_, %ebx
.LBB19:
	.loc 14 105 0
	leal	.LC14@GOTOFF(%ebx), %eax
	movl	%eax, 4(%esp)
	leal	-49(%ebp), %eax
	movl	%eax, (%esp)
	call	_ZN12CIwCallStackC1EPKc
	.loc 14 108 0
	call	_Z17IwGetSoundManagerv
	movl	%eax, (%esp)
	call	_ZN15CIwSoundManager11GetFreeInstEv@PLT
	movl	%eax, -32(%ebp)
	.loc 14 109 0
	cmpl	$0, -32(%ebp)
	jne	.L97
	.loc 14 110 0
	movl	$0, %esi
	jmp	.L98
.L97:
	.loc 14 113 0
	movl	8(%ebp), %eax
	movl	32(%eax), %eax
	movl	32(%eax), %esi
	call	_Z17IwGetSoundManagerv
	movl	%esi, 8(%esp)
	movl	-32(%ebp), %edx
	movl	%edx, 4(%esp)
	movl	%eax, (%esp)
	call	_ZN15CIwSoundManager14GetFreeChannelEP12CIwSoundInst17IwSoundDataFormat@PLT
	movl	%eax, -36(%ebp)
	.loc 14 114 0
	cmpl	$0, -36(%ebp)
	jns	.L99
	.loc 14 115 0
	call	_Z17IwGetSoundManagerv
	movl	-32(%ebp), %edx
	movl	%edx, 4(%esp)
	movl	%eax, (%esp)
	call	_ZN15CIwSoundManager11SetFreeInstEP12CIwSoundInst@PLT
	.loc 14 116 0
	movl	$0, %esi
	jmp	.L98
.L99:
	.loc 14 119 0
	movl	$1, 4(%esp)
	leal	.LC15@GOTOFF(%ebx), %eax
	movl	%eax, (%esp)
	call	IwDebugTraceIsChannelOn@PLT
	testb	%al, %al
	setne	%al
	testb	%al, %al
	je	.L100
	.loc 14 119 0 is_stmt 0 discriminator 1
	leal	.LC15@GOTOFF(%ebx), %eax
	movl	%eax, (%esp)
	call	IwDebugTraceSetTraceChannel@PLT
	movl	8(%ebp), %eax
	movl	32(%eax), %eax
	movl	24(%eax), %esi
	movl	8(%ebp), %eax
	movl	%eax, (%esp)
	call	_ZNK10CIwManaged12DebugGetNameEv
	movl	%esi, 8(%esp)
	movl	%eax, 4(%esp)
	leal	.LC16@GOTOFF(%ebx), %eax
	movl	%eax, (%esp)
	call	IwDebugTraceLinePrintf@PLT
.L100:
	.loc 14 122 0 is_stmt 1
	cmpl	$0, 12(%ebp)
	jne	.L101
	.loc 14 123 0
	call	_Z17IwGetSoundManagerv
	movl	%eax, (%esp)
	call	_ZNK15CIwSoundManager17GetParamsIdentityEv
	movl	%eax, 12(%ebp)
.L101:
	.loc 14 126 0
	movl	$0, -28(%ebp)
	.loc 14 127 0
	movl	8(%ebp), %eax
	movl	36(%eax), %eax
	testl	%eax, %eax
	je	.L102
	.loc 14 129 0
	movl	8(%ebp), %eax
	movl	36(%eax), %eax
	movl	%eax, -28(%ebp)
	.loc 14 130 0
	movl	-28(%ebp), %eax
	movl	%eax, (%esp)
	call	_ZNK13CIwSoundGroup15GetMaxPolyphonyEv
	testw	%ax, %ax
	setne	%al
	testb	%al, %al
	je	.L103
	.loc 14 132 0
	movl	-28(%ebp), %eax
	movl	%eax, (%esp)
	call	_ZNK13CIwSoundGroup15GetMaxPolyphonyEv
	movl	%eax, %esi
	movl	-28(%ebp), %eax
	movl	%eax, (%esp)
	call	_ZNK13CIwSoundGroup16GetCurrPolyphonyEv
	cmpw	%ax, %si
	sete	%al
	testb	%al, %al
	je	.L103
	.loc 14 143 0
	movl	-28(%ebp), %eax
	movl	%eax, (%esp)
	call	_ZNK13CIwSoundGroup8GetFlagsEv
	movzwl	%ax, %eax
	andl	$2, %eax
	testl	%eax, %eax
	setne	%al
	testb	%al, %al
	je	.L104
	.loc 14 146 0
	movl	$1, 4(%esp)
	movl	-28(%ebp), %eax
	movl	%eax, (%esp)
	call	_ZN13CIwSoundGroup14KillOldestInstEb@PLT
	jmp	.L103
.L104:
	.loc 14 151 0
	call	_Z17IwGetSoundManagerv
	movl	-32(%ebp), %edx
	movl	%edx, 4(%esp)
	movl	%eax, (%esp)
	call	_ZN15CIwSoundManager11SetFreeInstEP12CIwSoundInst@PLT
	.loc 14 152 0
	movl	$0, %esi
	jmp	.L98
.L103:
	.loc 14 157 0 discriminator 3
	movl	-28(%ebp), %eax
	movzwl	24(%eax), %eax
	movl	%eax, %edx
	addl	$1, %edx
	movl	-28(%ebp), %eax
	movw	%dx, 24(%eax)
	jmp	.L105
.L102:
	.loc 14 161 0
	call	_Z17IwGetSoundManagerv
	movl	%eax, (%esp)
	call	_ZNK15CIwSoundManager16GetGroupIdentityEv
	movl	%eax, -28(%ebp)
.L105:
	.loc 14 164 0
	movl	-32(%ebp), %eax
	movw	$0, 14(%eax)
	.loc 14 167 0
	movl	8(%ebp), %eax
	movzwl	20(%eax), %edx
	movl	8(%ebp), %eax
	movzwl	22(%eax), %eax
	cmpw	%ax, %dx
	jne	.L106
	.loc 14 167 0 is_stmt 0 discriminator 1
	movl	8(%ebp), %eax
	movzwl	20(%eax), %eax
	jmp	.L107
.L106:
	.loc 14 167 0 discriminator 2
	movl	8(%ebp), %eax
	movzwl	22(%eax), %eax
	movswl	%ax, %edx
	movl	8(%ebp), %eax
	movzwl	20(%eax), %eax
	cwtl
	movl	%edx, 4(%esp)
	movl	%eax, (%esp)
	call	IwRandMinMax
.L107:
	.loc 14 167 0 discriminator 3
	movw	%ax, -38(%ebp)
	.loc 14 168 0 is_stmt 1 discriminator 3
	movl	8(%ebp), %eax
	movzwl	24(%eax), %edx
	movl	8(%ebp), %eax
	movzwl	26(%eax), %eax
	cmpw	%ax, %dx
	jne	.L108
	.loc 14 168 0 is_stmt 0 discriminator 1
	movl	8(%ebp), %eax
	movzwl	24(%eax), %eax
	jmp	.L109
.L108:
	.loc 14 168 0 discriminator 2
	movl	8(%ebp), %eax
	movzwl	26(%eax), %eax
	movswl	%ax, %edx
	movl	8(%ebp), %eax
	movzwl	24(%eax), %eax
	cwtl
	movl	%edx, 4(%esp)
	movl	%eax, (%esp)
	call	IwRandMinMax
.L109:
	.loc 14 168 0 discriminator 3
	movw	%ax, -40(%ebp)
	.loc 14 169 0 is_stmt 1 discriminator 3
	movl	8(%ebp), %eax
	movzwl	28(%eax), %edx
	movl	8(%ebp), %eax
	movzwl	30(%eax), %eax
	cmpw	%ax, %dx
	jne	.L110
	.loc 14 169 0 is_stmt 0 discriminator 1
	movl	8(%ebp), %eax
	movzwl	28(%eax), %eax
	jmp	.L111
.L110:
	.loc 14 169 0 discriminator 2
	movl	8(%ebp), %eax
	movzwl	30(%eax), %eax
	movswl	%ax, %edx
	movl	8(%ebp), %eax
	movzwl	28(%eax), %eax
	cwtl
	movl	%edx, 4(%esp)
	movl	%eax, (%esp)
	call	IwRandMinMax
.L111:
	.loc 14 169 0 discriminator 3
	movw	%ax, -42(%ebp)
	.loc 14 172 0 is_stmt 1 discriminator 3
	movl	-32(%ebp), %eax
	movl	8(%ebp), %edx
	movl	%edx, (%eax)
	.loc 14 173 0 discriminator 3
	movl	12(%ebp), %eax
	movzwl	(%eax), %eax
	movswl	%ax, %edx
	movswl	-38(%ebp), %eax
	movl	%edx, 4(%esp)
	movl	%eax, (%esp)
	call	_ZL12IW_FIXED_MULii
	movl	%eax, %edx
	movl	-32(%ebp), %eax
	movw	%dx, 4(%eax)
	.loc 14 174 0 discriminator 3
	movswl	-40(%ebp), %edx
	movl	12(%ebp), %eax
	movzwl	2(%eax), %eax
	cwtl
	addl	%edx, %eax
	cmpl	$-4096, %eax
	je	.L112
	.loc 14 174 0 is_stmt 0 discriminator 2
	movswl	-40(%ebp), %edx
	movl	12(%ebp), %eax
	movzwl	2(%eax), %eax
	cwtl
	addl	%edx, %eax
	cmpl	$-4095, %eax
	jl	.L113
.L112:
	.loc 14 174 0 discriminator 1
	movswl	-40(%ebp), %edx
	movl	12(%ebp), %eax
	movzwl	2(%eax), %eax
	cwtl
	addl	%edx, %eax
	movl	$4096, %edx
	cmpl	$4096, %eax
	cmovg	%edx, %eax
	jmp	.L114
.L113:
	movl	$-4096, %eax
.L114:
	.loc 14 174 0 discriminator 3
	movl	-32(%ebp), %edx
	movw	%ax, 6(%edx)
	.loc 14 175 0 is_stmt 1 discriminator 3
	movl	12(%ebp), %eax
	movzwl	4(%eax), %eax
	movswl	%ax, %edx
	movswl	-42(%ebp), %eax
	movl	%edx, 4(%esp)
	movl	%eax, (%esp)
	call	_ZL12IW_FIXED_MULii
	movl	%eax, %edx
	movl	-32(%ebp), %eax
	movw	%dx, 8(%eax)
	.loc 14 176 0 discriminator 3
	movl	-36(%ebp), %eax
	movl	%eax, %edx
	movl	-32(%ebp), %eax
	movw	%dx, 12(%eax)
	.loc 14 177 0 discriminator 3
	movl	-32(%ebp), %eax
	movl	$0, 20(%eax)
	.loc 14 180 0 discriminator 3
	movl	-28(%ebp), %eax
	movzwl	16(%eax), %eax
	movswl	%ax, %esi
	call	_Z17IwGetSoundManagerv
	movl	%eax, (%esp)
	call	_ZNK15CIwSoundManager12GetMasterVolEv
	cwtl
	movl	%esi, 4(%esp)
	movl	%eax, (%esp)
	call	_ZL12IW_FIXED_MULii
	movl	-32(%ebp), %edx
	movzwl	4(%edx), %edx
	movswl	%dx, %edx
	movl	%eax, 4(%esp)
	movl	%edx, (%esp)
	call	_ZL12IW_FIXED_MULii
	movw	%ax, -38(%ebp)
	.loc 14 181 0 discriminator 3
	movswl	-40(%ebp), %esi
	call	_Z17IwGetSoundManagerv
	movl	%eax, (%esp)
	call	_ZNK15CIwSoundManager12GetMasterPanEv
	cwtl
	movl	%esi, %edx
	addl	%eax, %edx
	movl	-28(%ebp), %eax
	movzwl	18(%eax), %eax
	cwtl
	addl	%edx, %eax
	cmpl	$4096, %eax
	jg	.L115
	.loc 14 181 0 is_stmt 0 discriminator 2
	movswl	-40(%ebp), %esi
	call	_Z17IwGetSoundManagerv
	movl	%eax, (%esp)
	call	_ZNK15CIwSoundManager12GetMasterPanEv
	cwtl
	movl	%esi, %edx
	addl	%eax, %edx
	movl	-28(%ebp), %eax
	movzwl	18(%eax), %eax
	cwtl
	addl	%edx, %eax
	cmpl	$-4096, %eax
	jl	.L116
.L115:
	.loc 14 181 0 discriminator 1
	movswl	-40(%ebp), %esi
	call	_Z17IwGetSoundManagerv
	movl	%eax, (%esp)
	call	_ZNK15CIwSoundManager12GetMasterPanEv
	cwtl
	movl	%esi, %edx
	addl	%eax, %edx
	movl	-28(%ebp), %eax
	movzwl	18(%eax), %eax
	cwtl
	addl	%edx, %eax
	cmpl	$4096, %eax
	jg	.L117
	.loc 14 181 0 discriminator 3
	call	_Z17IwGetSoundManagerv
	movl	%eax, (%esp)
	call	_ZNK15CIwSoundManager12GetMasterPanEv
	movl	%eax, %edx
	movzwl	-40(%ebp), %eax
	addl	%eax, %edx
	movl	-28(%ebp), %eax
	movzwl	18(%eax), %eax
	addl	%edx, %eax
	jmp	.L118
.L117:
	.loc 14 181 0 discriminator 4
	movl	$4096, %eax
.L118:
	.loc 14 181 0 discriminator 5
	jmp	.L119
.L116:
	.loc 14 181 0 discriminator 1
	movl	$-4096, %eax
.L119:
	.loc 14 181 0 discriminator 6
	movw	%ax, -40(%ebp)
	.loc 14 182 0 is_stmt 1 discriminator 6
	movl	-28(%ebp), %eax
	movzwl	20(%eax), %eax
	movswl	%ax, %esi
	call	_Z17IwGetSoundManagerv
	movl	%eax, (%esp)
	call	_ZNK15CIwSoundManager14GetMasterPitchEv
	cwtl
	movl	%esi, 4(%esp)
	movl	%eax, (%esp)
	call	_ZL12IW_FIXED_MULii
	movswl	-42(%ebp), %edx
	movl	%eax, 4(%esp)
	movl	%edx, (%esp)
	call	_ZL12IW_FIXED_MULii
	movw	%ax, -42(%ebp)
	.loc 14 184 0 discriminator 6
	movl	8(%ebp), %eax
	movl	%eax, (%esp)
	call	_ZNK12CIwSoundSpec8IsLoopedEv
	movb	%al, -43(%ebp)
	.loc 14 186 0 discriminator 6
	call	_Z17IwGetSoundManagerv
	movl	%eax, (%esp)
	call	_ZNK15CIwSoundManager8IsActiveEv
	xorl	$1, %eax
	testb	%al, %al
	je	.L120
	.loc 14 187 0
	movl	-32(%ebp), %esi
	jmp	.L98
.L120:
	.loc 14 189 0
	movl	-32(%ebp), %eax
	movl	%eax, 12(%esp)
	leal	_Z24_IwSoundSpec_EndSampleCBP21s3eSoundEndSampleInfoPv@GOTOFF(%ebx), %eax
	movl	%eax, 8(%esp)
	movl	$0, 4(%esp)
	movl	-36(%ebp), %eax
	movl	%eax, (%esp)
	call	s3eSoundChannelRegister@PLT
	.loc 14 194 0
	movswl	-38(%ebp), %eax
	sarl	$4, %eax
	movl	$256, %edx
	cmpl	$256, %eax
	cmovg	%edx, %eax
	movl	%eax, 8(%esp)
	movl	$3, 4(%esp)
	movl	-36(%ebp), %eax
	movl	%eax, (%esp)
	call	s3eSoundChannelSetInt@PLT
	.loc 14 199 0
	movl	-32(%ebp), %eax
	movl	%eax, (%esp)
	call	_ZNK12CIwSoundInst7GetSpecEv
	movl	%eax, (%esp)
	call	_ZNK12CIwSoundSpec7GetDataEv
	movl	28(%eax), %eax
	movl	%eax, %edx
	movswl	-42(%ebp), %eax
	movl	%edx, 4(%esp)
	movl	%eax, (%esp)
	call	_ZL12IW_FIXED_MULii
	movl	%eax, -48(%ebp)
	.loc 14 200 0
	movl	-48(%ebp), %eax
	movl	%eax, 8(%esp)
	movl	$1, 4(%esp)
	movl	-36(%ebp), %eax
	movl	%eax, (%esp)
	call	s3eSoundChannelSetInt@PLT
.LBB20:
	.loc 14 203 0
	movl	8(%ebp), %eax
	movl	32(%eax), %eax
	movl	32(%eax), %eax
	cmpl	$1, %eax
	je	.L122
	cmpl	$2, %eax
	je	.L123
	testl	%eax, %eax
	jne	.L121
.LBB21:
.LBB22:
	.loc 14 207 0
	movl	$0, 4(%esp)
	leal	-68(%ebp), %eax
	movl	%eax, (%esp)
	call	_ZN8CIwArrayIa12CIwAllocatorIa15CIwMallocRouterIaEE17ReallocateDefaultIaS3_EEC1Ej
	.loc 14 208 0
	movl	8(%ebp), %eax
	movl	32(%eax), %eax
	leal	-68(%ebp), %edx
	movl	%edx, 4(%esp)
	movl	%eax, (%esp)
	call	_ZNK12CIwSoundData7GetDataER8CIwArrayIa12CIwAllocatorIa15CIwMallocRouterIaEE17ReallocateDefaultIaS4_EE
	.loc 14 209 0
	cmpb	$0, -43(%ebp)
	je	.L125
	.loc 14 209 0 is_stmt 0 discriminator 1
	movl	$-1, %esi
	jmp	.L126
.L125:
	.loc 14 209 0 discriminator 2
	movl	$1, %esi
.L126:
	.loc 14 209 0 discriminator 3
	leal	-68(%ebp), %eax
	movl	%eax, (%esp)
	call	_ZNK8CIwArrayIa12CIwAllocatorIa15CIwMallocRouterIaEE17ReallocateDefaultIaS3_EE3endEv
	movl	%eax, %edi
	leal	-68(%ebp), %eax
	movl	%eax, (%esp)
	call	_ZNK8CIwArrayIa12CIwAllocatorIa15CIwMallocRouterIaEE17ReallocateDefaultIaS3_EE5beginEv
	subl	%eax, %edi
	movl	%edi, %eax
	sarl	%eax
	movl	%eax, %edi
	leal	-68(%ebp), %eax
	movl	%eax, (%esp)
	call	_ZNK8CIwArrayIa12CIwAllocatorIa15CIwMallocRouterIaEE17ReallocateDefaultIaS3_EE5beginEv
	movl	$0, 16(%esp)
	movl	%esi, 12(%esp)
	movl	%edi, 8(%esp)
	movl	%eax, 4(%esp)
	movl	-36(%ebp), %eax
	movl	%eax, (%esp)
	call	s3eSoundChannelPlay@PLT
	leal	-68(%ebp), %eax
	movl	%eax, (%esp)
	call	_ZN8CIwArrayIa12CIwAllocatorIa15CIwMallocRouterIaEE17ReallocateDefaultIaS3_EED1Ev
.LBE22:
	.loc 14 211 0 is_stmt 1 discriminator 3
	jmp	.L121
.L122:
.LBB23:
	.loc 14 216 0
	movl	$0, 4(%esp)
	leal	-84(%ebp), %eax
	movl	%eax, (%esp)
	call	_ZN8CIwArrayIs12CIwAllocatorIs15CIwMallocRouterIsEE17ReallocateDefaultIsS3_EEC1Ej
	.loc 14 217 0
	movl	8(%ebp), %eax
	movl	32(%eax), %eax
	leal	-84(%ebp), %edx
	movl	%edx, 4(%esp)
	movl	%eax, (%esp)
	call	_ZNK12CIwSoundData7GetDataER8CIwArrayIs12CIwAllocatorIs15CIwMallocRouterIsEE17ReallocateDefaultIsS4_EE
	.loc 14 218 0
	cmpb	$0, -43(%ebp)
	je	.L127
	.loc 14 218 0 is_stmt 0 discriminator 1
	movl	$-1, %esi
	jmp	.L128
.L127:
	.loc 14 218 0 discriminator 2
	movl	$1, %esi
.L128:
	.loc 14 218 0 discriminator 3
	leal	-84(%ebp), %eax
	movl	%eax, (%esp)
	call	_ZNK8CIwArrayIs12CIwAllocatorIs15CIwMallocRouterIsEE17ReallocateDefaultIsS3_EE3endEv
	movl	%eax, %edi
	leal	-84(%ebp), %eax
	movl	%eax, (%esp)
	call	_ZNK8CIwArrayIs12CIwAllocatorIs15CIwMallocRouterIsEE17ReallocateDefaultIsS3_EE5beginEv
	subl	%eax, %edi
	movl	%edi, %eax
	sarl	%eax
	movl	%eax, %edi
	leal	-84(%ebp), %eax
	movl	%eax, (%esp)
	call	_ZNK8CIwArrayIs12CIwAllocatorIs15CIwMallocRouterIsEE17ReallocateDefaultIsS3_EE5beginEv
	movl	$0, 16(%esp)
	movl	%esi, 12(%esp)
	movl	%edi, 8(%esp)
	movl	%eax, 4(%esp)
	movl	-36(%ebp), %eax
	movl	%eax, (%esp)
	call	s3eSoundChannelPlay@PLT
	leal	-84(%ebp), %eax
	movl	%eax, (%esp)
	call	_ZN8CIwArrayIs12CIwAllocatorIs15CIwMallocRouterIsEE17ReallocateDefaultIsS3_EED1Ev
.LBE23:
	.loc 14 220 0 is_stmt 1 discriminator 3
	jmp	.L121
.L123:
.LBB24:
	.loc 14 224 0
	movl	$0, 4(%esp)
	leal	-100(%ebp), %eax
	movl	%eax, (%esp)
	call	_ZN8CIwArrayIs12CIwAllocatorIs15CIwMallocRouterIsEE17ReallocateDefaultIsS3_EEC1Ej
	.loc 14 225 0
	movl	8(%ebp), %eax
	movl	32(%eax), %eax
	leal	-100(%ebp), %edx
	movl	%edx, 4(%esp)
	movl	%eax, (%esp)
	call	_ZNK12CIwSoundData7GetDataER8CIwArrayIs12CIwAllocatorIs15CIwMallocRouterIsEE17ReallocateDefaultIsS4_EE
	.loc 14 229 0
	movl	8(%ebp), %eax
	movl	32(%eax), %eax
	movl	%eax, 8(%esp)
	movl	$2, 4(%esp)
	movl	-36(%ebp), %eax
	movl	%eax, (%esp)
	call	s3eSoundChannelSetInt@PLT
	.loc 14 231 0
	cmpb	$0, -43(%ebp)
	je	.L129
	.loc 14 231 0 is_stmt 0 discriminator 1
	movl	$-1, %esi
	jmp	.L130
.L129:
	.loc 14 231 0 discriminator 2
	movl	$1, %esi
.L130:
	.loc 14 231 0 discriminator 3
	leal	-100(%ebp), %eax
	movl	%eax, (%esp)
	call	_ZNK8CIwArrayIs12CIwAllocatorIs15CIwMallocRouterIsEE17ReallocateDefaultIsS3_EE3endEv
	movl	%eax, %edi
	leal	-100(%ebp), %eax
	movl	%eax, (%esp)
	call	_ZNK8CIwArrayIs12CIwAllocatorIs15CIwMallocRouterIsEE17ReallocateDefaultIsS3_EE5beginEv
	subl	%eax, %edi
	movl	%edi, %eax
	sarl	%eax
	movl	%eax, %edi
	leal	-100(%ebp), %eax
	movl	%eax, (%esp)
	call	_ZNK8CIwArrayIs12CIwAllocatorIs15CIwMallocRouterIsEE17ReallocateDefaultIsS3_EE5beginEv
	movl	$0, 16(%esp)
	movl	%esi, 12(%esp)
	movl	%edi, 8(%esp)
	movl	%eax, 4(%esp)
	movl	-36(%ebp), %eax
	movl	%eax, (%esp)
	call	s3eSoundChannelPlay@PLT
	leal	-100(%ebp), %eax
	movl	%eax, (%esp)
	call	_ZN8CIwArrayIs12CIwAllocatorIs15CIwMallocRouterIsEE17ReallocateDefaultIsS3_EED1Ev
.LBE24:
	.loc 14 233 0 is_stmt 1 discriminator 3
	nop
.L121:
.LBE21:
.LBE20:
	.loc 14 238 0
	movl	-32(%ebp), %esi
.L98:
	.loc 14 238 0 is_stmt 0 discriminator 1
	leal	-49(%ebp), %eax
	movl	%eax, (%esp)
	call	_ZN12CIwCallStackD1Ev
	movl	%esi, %eax
.LBE19:
	.loc 14 239 0 is_stmt 1 discriminator 1
	leal	124(%esp), %esp
	popl	%ebx
	.cfi_restore 3
	popl	%esi
	.cfi_restore 6
	popl	%edi
	.cfi_restore 7
	popl	%ebp
	.cfi_restore 5
	.cfi_def_cfa 4, 4
	ret
	.cfi_endproc
.LFE1445:
	.size	_ZN12CIwSoundSpec4PlayEPK14CIwSoundParams, .-_ZN12CIwSoundSpec4PlayEPK14CIwSoundParams
	.section	.rodata
.LC17:
	.string	"CIwSoundSpec::ParseAttribute"
.LC18:
	.string	"data"
	.align 4
.LC19:
	.string	"Could not find CIwSoundData named %s"
	.align 4
.LC20:
	.string	"c:/Marmalade/7.5/examples/GameTutorial/CPP/modules/soundengine/source/IwSoundSpec.cpp"
.LC21:
	.string	"m_Data"
.LC22:
	.string	"vol"
.LC23:
	.string	"volMin"
.LC24:
	.string	"volMax"
.LC25:
	.string	"pitch"
.LC26:
	.string	"pitchMin"
.LC27:
	.string	"pitchMax"
.LC28:
	.string	"loop"
.LC29:
	.string	"group"
	.align 4
.LC30:
	.string	"Could not find CIwSoundGroup named %s"
.LC31:
	.string	"pGroup"
	.text
	.align 2
	.globl	_ZN12CIwSoundSpec14ParseAttributeEP16CIwTextParserITXPKc
	.hidden	_ZN12CIwSoundSpec14ParseAttributeEP16CIwTextParserITXPKc
	.type	_ZN12CIwSoundSpec14ParseAttributeEP16CIwTextParserITXPKc, @function
_ZN12CIwSoundSpec14ParseAttributeEP16CIwTextParserITXPKc:
.LFB1446:
	.loc 14 242 0
	.cfi_startproc
	pushl	%ebp
	.cfi_def_cfa_offset 8
	.cfi_offset 5, -8
	movl	%esp, %ebp
	.cfi_def_cfa_register 5
	pushl	%esi
	pushl	%ebx
	leal	-144(%esp), %esp
	.cfi_offset 6, -12
	.cfi_offset 3, -16
	call	__x86.get_pc_thunk.bx
	addl	$_GLOBAL_OFFSET_TABLE_, %ebx
.LBB25:
	.loc 14 243 0
	leal	.LC17@GOTOFF(%ebx), %eax
	movl	%eax, 4(%esp)
	leal	-13(%ebp), %eax
	movl	%eax, (%esp)
	call	_ZN12CIwCallStackC1EPKc
.LBB26:
	.loc 14 249 0
	leal	.LC18@GOTOFF(%ebx), %eax
	movl	%eax, 4(%esp)
	movl	16(%ebp), %eax
	movl	%eax, (%esp)
	call	strcmp@PLT
	testl	%eax, %eax
	jne	.L133
.LBB27:
	.loc 14 253 0
	movl	$1, 12(%esp)
	movl	$80, 8(%esp)
	leal	-121(%ebp), %eax
	movl	%eax, 4(%esp)
	movl	12(%ebp), %eax
	movl	%eax, (%esp)
	call	_ZN16CIwTextParserITX10ReadStringEPcjb@PLT
	.loc 14 254 0
	call	_Z15IwGetResManagerv
	movl	$0, 12(%esp)
	leal	.LC12@GOTOFF(%ebx), %edx
	movl	%edx, 8(%esp)
	leal	-121(%ebp), %edx
	movl	%edx, 4(%esp)
	movl	%eax, (%esp)
	call	_ZNK13CIwResManager11GetResNamedEPKcS1_j@PLT
	movl	8(%ebp), %edx
	movl	%eax, 32(%edx)
.LBB28:
.LBB29:
	.loc 14 255 0
	movl	8(%ebp), %eax
	movl	32(%eax), %eax
	testl	%eax, %eax
	jne	.L134
	.loc 14 255 0 is_stmt 0 discriminator 1
	leal	.LC15@GOTOFF(%ebx), %eax
	movl	%eax, (%esp)
	call	IwDebugAssertIsChannelOn@PLT
	testb	%al, %al
	je	.L134
	movzbl	_ZZN12CIwSoundSpec14ParseAttributeEP16CIwTextParserITXPKcE21_s_IwAssertIgnoreThis@GOTOFF(%ebx), %eax
	testb	%al, %al
	jne	.L134
	.loc 14 255 0 discriminator 3
	movl	$1, %eax
	jmp	.L135
.L134:
	.loc 14 255 0 discriminator 2
	movl	$0, %eax
.L135:
	.loc 14 255 0 discriminator 4
	testb	%al, %al
	je	.L136
	.loc 14 255 0 discriminator 1
	movl	$0, (%esp)
	call	IwDebugAssertSetSolution@PLT
	movl	$0, (%esp)
	call	IwDebugAssertSetUID@PLT
	leal	-121(%ebp), %eax
	movl	%eax, 4(%esp)
	leal	.LC19@GOTOFF(%ebx), %eax
	movl	%eax, (%esp)
	call	IwDebugAssertSetMessage@PLT
	movl	$1, 12(%esp)
	movl	$255, 8(%esp)
	leal	.LC20@GOTOFF(%ebx), %eax
	movl	%eax, 4(%esp)
	leal	.LC21@GOTOFF(%ebx), %eax
	movl	%eax, (%esp)
	call	IwDebugAssertShow@PLT
	cmpl	$1, %eax
	je	.L138
	cmpl	$2, %eax
	je	.L139
	.loc 14 255 0
	jmp	.L137
.L138:
	.loc 14 255 0 discriminator 2
	call	s3eDebugIsDebuggerPresent@PLT
	testb	%al, %al
	setne	%al
	testb	%al, %al
	je	.L140
	.loc 14 255 0 discriminator 1
	call	s3eDebugIsDebuggerPresent@PLT
	testb	%al, %al
	setne	%al
	testb	%al, %al
	je	.L141
#APP
# 255 "c:/Marmalade/7.5/examples/GameTutorial/CPP/modules/soundengine/source/IwSoundSpec.cpp" 1
	 int $3 
# 0 "" 2
#NO_APP
	jmp	.L141
.L140:
	.loc 14 255 0 discriminator 2
	call	_ZL11IwDebugExitv
	jmp	.L137
.L141:
	.loc 14 255 0 discriminator 1
	jmp	.L137
.L139:
	.loc 14 255 0 discriminator 3
	movb	$1, _ZZN12CIwSoundSpec14ParseAttributeEP16CIwTextParserITXPKcE21_s_IwAssertIgnoreThis@GOTOFF(%ebx)
	nop
.L137:
	.loc 14 255 0 discriminator 1
	movl	$0, (%esp)
	call	IwDebugAssertSetUID@PLT
.L136:
.LBE29:
.LBE28:
.LBE27:
	jmp	.L142
.L133:
.LBB30:
.LBB31:
	.loc 14 258 0 is_stmt 1
	leal	.LC22@GOTOFF(%ebx), %eax
	movl	%eax, 4(%esp)
	movl	16(%ebp), %eax
	movl	%eax, (%esp)
	call	strcmp@PLT
	testl	%eax, %eax
	jne	.L143
.LBB32:
	.loc 14 261 0
	movl	$12, 8(%esp)
	leal	-20(%ebp), %eax
	movl	%eax, 4(%esp)
	movl	12(%ebp), %eax
	movl	%eax, (%esp)
	call	_ZN16CIwTextParserITX9ReadFixedEPij@PLT
	.loc 14 262 0
	movl	-20(%ebp), %eax
	movl	%eax, %edx
	movl	8(%ebp), %eax
	movw	%dx, 22(%eax)
	movl	8(%ebp), %eax
	movzwl	22(%eax), %edx
	movl	8(%ebp), %eax
	movw	%dx, 20(%eax)
.LBE32:
	jmp	.L142
.L143:
.LBB33:
.LBB34:
	.loc 14 265 0
	leal	.LC23@GOTOFF(%ebx), %eax
	movl	%eax, 4(%esp)
	movl	16(%ebp), %eax
	movl	%eax, (%esp)
	call	strcmp@PLT
	testl	%eax, %eax
	jne	.L144
.LBB35:
	.loc 14 268 0
	movl	$12, 8(%esp)
	leal	-24(%ebp), %eax
	movl	%eax, 4(%esp)
	movl	12(%ebp), %eax
	movl	%eax, (%esp)
	call	_ZN16CIwTextParserITX9ReadFixedEPij@PLT
	.loc 14 269 0
	movl	-24(%ebp), %eax
	movl	%eax, %edx
	movl	8(%ebp), %eax
	movw	%dx, 20(%eax)
.LBE35:
	jmp	.L142
.L144:
.LBB36:
.LBB37:
	.loc 14 272 0
	leal	.LC24@GOTOFF(%ebx), %eax
	movl	%eax, 4(%esp)
	movl	16(%ebp), %eax
	movl	%eax, (%esp)
	call	strcmp@PLT
	testl	%eax, %eax
	jne	.L145
.LBB38:
	.loc 14 275 0
	movl	$12, 8(%esp)
	leal	-28(%ebp), %eax
	movl	%eax, 4(%esp)
	movl	12(%ebp), %eax
	movl	%eax, (%esp)
	call	_ZN16CIwTextParserITX9ReadFixedEPij@PLT
	.loc 14 276 0
	movl	-28(%ebp), %eax
	movl	%eax, %edx
	movl	8(%ebp), %eax
	movw	%dx, 22(%eax)
.LBE38:
	jmp	.L142
.L145:
.LBB39:
.LBB40:
	.loc 14 279 0
	leal	.LC25@GOTOFF(%ebx), %eax
	movl	%eax, 4(%esp)
	movl	16(%ebp), %eax
	movl	%eax, (%esp)
	call	strcmp@PLT
	testl	%eax, %eax
	jne	.L146
.LBB41:
	.loc 14 282 0
	movl	$12, 8(%esp)
	leal	-32(%ebp), %eax
	movl	%eax, 4(%esp)
	movl	12(%ebp), %eax
	movl	%eax, (%esp)
	call	_ZN16CIwTextParserITX9ReadFixedEPij@PLT
	.loc 14 283 0
	movl	-32(%ebp), %eax
	movl	%eax, %edx
	movl	8(%ebp), %eax
	movw	%dx, 30(%eax)
	movl	8(%ebp), %eax
	movzwl	30(%eax), %edx
	movl	8(%ebp), %eax
	movw	%dx, 28(%eax)
.LBE41:
	jmp	.L142
.L146:
.LBB42:
.LBB43:
	.loc 14 286 0
	leal	.LC26@GOTOFF(%ebx), %eax
	movl	%eax, 4(%esp)
	movl	16(%ebp), %eax
	movl	%eax, (%esp)
	call	strcmp@PLT
	testl	%eax, %eax
	jne	.L147
.LBB44:
	.loc 14 289 0
	movl	$12, 8(%esp)
	leal	-36(%ebp), %eax
	movl	%eax, 4(%esp)
	movl	12(%ebp), %eax
	movl	%eax, (%esp)
	call	_ZN16CIwTextParserITX9ReadFixedEPij@PLT
	.loc 14 290 0
	movl	-36(%ebp), %eax
	movl	%eax, %edx
	movl	8(%ebp), %eax
	movw	%dx, 28(%eax)
.LBE44:
	jmp	.L142
.L147:
.LBB45:
.LBB46:
	.loc 14 293 0
	leal	.LC27@GOTOFF(%ebx), %eax
	movl	%eax, 4(%esp)
	movl	16(%ebp), %eax
	movl	%eax, (%esp)
	call	strcmp@PLT
	testl	%eax, %eax
	jne	.L148
.LBB47:
	.loc 14 296 0
	movl	$12, 8(%esp)
	leal	-40(%ebp), %eax
	movl	%eax, 4(%esp)
	movl	12(%ebp), %eax
	movl	%eax, (%esp)
	call	_ZN16CIwTextParserITX9ReadFixedEPij@PLT
	.loc 14 297 0
	movl	-40(%ebp), %eax
	movl	%eax, %edx
	movl	8(%ebp), %eax
	movw	%dx, 30(%eax)
.LBE47:
	jmp	.L142
.L148:
.LBB48:
.LBB49:
	.loc 14 300 0
	leal	.LC28@GOTOFF(%ebx), %eax
	movl	%eax, 4(%esp)
	movl	16(%ebp), %eax
	movl	%eax, (%esp)
	call	strcmp@PLT
	testl	%eax, %eax
	jne	.L149
.LBB50:
	.loc 14 303 0
	leal	-41(%ebp), %eax
	movl	%eax, 4(%esp)
	movl	12(%ebp), %eax
	movl	%eax, (%esp)
	call	_ZN16CIwTextParserITX8ReadBoolEPb@PLT
	.loc 14 304 0
	movzbl	-41(%ebp), %eax
	testb	%al, %al
	je	.L150
	.loc 14 305 0
	movl	8(%ebp), %eax
	movzwl	16(%eax), %eax
	orl	$1, %eax
	movl	%eax, %edx
	movl	8(%ebp), %eax
	movw	%dx, 16(%eax)
	jmp	.L142
.L150:
	.loc 14 307 0
	movl	8(%ebp), %eax
	movzwl	16(%eax), %eax
	andl	$-2, %eax
	movl	%eax, %edx
	movl	8(%ebp), %eax
	movw	%dx, 16(%eax)
.LBE50:
	jmp	.L142
.L149:
.LBB51:
.LBB52:
	.loc 14 310 0
	leal	.LC29@GOTOFF(%ebx), %eax
	movl	%eax, 4(%esp)
	movl	16(%ebp), %eax
	movl	%eax, (%esp)
	call	strcmp@PLT
	testl	%eax, %eax
	jne	.L152
.LBB53:
	.loc 14 314 0
	movl	$1, 12(%esp)
	movl	$80, 8(%esp)
	leal	-121(%ebp), %eax
	movl	%eax, 4(%esp)
	movl	12(%ebp), %eax
	movl	%eax, (%esp)
	call	_ZN16CIwTextParserITX10ReadStringEPcjb@PLT
	.loc 14 316 0
	call	_Z15IwGetResManagerv
	movl	$0, 12(%esp)
	leal	.LC13@GOTOFF(%ebx), %edx
	movl	%edx, 8(%esp)
	leal	-121(%ebp), %edx
	movl	%edx, 4(%esp)
	movl	%eax, (%esp)
	call	_ZNK13CIwResManager11GetResNamedEPKcS1_j@PLT
	movl	%eax, (%esp)
	call	_Z10IwSafeCastIP13CIwSoundGroupP11CIwResourceET_T0_
	movl	%eax, -12(%ebp)
.LBB54:
.LBB55:
	.loc 14 317 0
	cmpl	$0, -12(%ebp)
	jne	.L153
	.loc 14 317 0 is_stmt 0 discriminator 1
	leal	.LC15@GOTOFF(%ebx), %eax
	movl	%eax, (%esp)
	call	IwDebugAssertIsChannelOn@PLT
	testb	%al, %al
	je	.L154
	movzbl	_ZZN12CIwSoundSpec14ParseAttributeEP16CIwTextParserITXPKcE21_s_IwAssertIgnoreThis_0@GOTOFF(%ebx), %eax
	testb	%al, %al
	jne	.L154
	.loc 14 317 0 discriminator 3
	movl	$1, %eax
	jmp	.L155
.L154:
	.loc 14 317 0 discriminator 2
	movl	$0, %eax
.L155:
	.loc 14 317 0 discriminator 4
	testb	%al, %al
	je	.L156
	.loc 14 317 0 discriminator 1
	movl	$0, (%esp)
	call	IwDebugAssertSetUID@PLT
	leal	-121(%ebp), %eax
	movl	%eax, 4(%esp)
	leal	.LC30@GOTOFF(%ebx), %eax
	movl	%eax, (%esp)
	call	IwDebugAssertSetMessage@PLT
	.loc 14 317 0 is_stmt 1 discriminator 1
	movl	$1, 12(%esp)
	movl	$318, 8(%esp)
	leal	.LC20@GOTOFF(%ebx), %eax
	movl	%eax, 4(%esp)
	leal	.LC31@GOTOFF(%ebx), %eax
	movl	%eax, (%esp)
	call	IwDebugAssertShow@PLT
	.loc 14 317 0 discriminator 1
	cmpl	$1, %eax
	je	.L158
	cmpl	$2, %eax
	je	.L159
	.loc 14 317 0 is_stmt 0
	jmp	.L157
.L158:
	.loc 14 317 0 is_stmt 1 discriminator 2
	call	s3eDebugIsDebuggerPresent@PLT
	testb	%al, %al
	setne	%al
	testb	%al, %al
	je	.L160
	.loc 14 317 0 is_stmt 0 discriminator 1
	call	s3eDebugIsDebuggerPresent@PLT
	testb	%al, %al
	setne	%al
	testb	%al, %al
	je	.L161
#APP
# 317 "c:/Marmalade/7.5/examples/GameTutorial/CPP/modules/soundengine/source/IwSoundSpec.cpp" 1
	 int $3 
# 0 "" 2
#NO_APP
	jmp	.L161
.L160:
	.loc 14 317 0 discriminator 2
	call	_ZL11IwDebugExitv
	jmp	.L157
.L161:
	.loc 14 317 0 discriminator 1
	jmp	.L157
.L159:
	.loc 14 317 0 discriminator 3
	movb	$1, _ZZN12CIwSoundSpec14ParseAttributeEP16CIwTextParserITXPKcE21_s_IwAssertIgnoreThis_0@GOTOFF(%ebx)
	nop
.L157:
	.loc 14 317 0 discriminator 1
	movl	$0, (%esp)
	call	IwDebugAssertSetUID@PLT
.L156:
	.loc 14 317 0 discriminator 2
	movl	$1, %esi
	jmp	.L162
.L153:
.LBE55:
.LBE54:
	.loc 14 319 0 is_stmt 1
	movl	-12(%ebp), %eax
	movl	%eax, 4(%esp)
	movl	8(%ebp), %eax
	movl	%eax, (%esp)
	call	_ZN12CIwSoundSpec8SetGroupEP13CIwSoundGroup
.LBE53:
	jmp	.L142
.L152:
	.loc 14 322 0
	movl	8(%ebp), %eax
	movl	16(%ebp), %edx
	movl	%edx, 8(%esp)
	movl	12(%ebp), %edx
	movl	%edx, 4(%esp)
	movl	%eax, (%esp)
	call	_ZN10CIwManaged14ParseAttributeEP16CIwTextParserITXPKc@PLT
	movl	%eax, %esi
	jmp	.L162
.L142:
.LBE52:
.LBE51:
.LBE49:
.LBE48:
.LBE46:
.LBE45:
.LBE43:
.LBE42:
.LBE40:
.LBE39:
.LBE37:
.LBE36:
.LBE34:
.LBE33:
.LBE31:
.LBE30:
.LBE26:
	.loc 14 325 0
	movl	$1, %esi
.L162:
	.loc 14 325 0 is_stmt 0 discriminator 1
	leal	-13(%ebp), %eax
	movl	%eax, (%esp)
	call	_ZN12CIwCallStackD1Ev
	movl	%esi, %eax
.LBE25:
	.loc 14 326 0 is_stmt 1 discriminator 1
	leal	144(%esp), %esp
	popl	%ebx
	.cfi_restore 3
	popl	%esi
	.cfi_restore 6
	popl	%ebp
	.cfi_restore 5
	.cfi_def_cfa 4, 4
	ret
	.cfi_endproc
.LFE1446:
	.size	_ZN12CIwSoundSpec14ParseAttributeEP16CIwTextParserITXPKc, .-_ZN12CIwSoundSpec14ParseAttributeEP16CIwTextParserITXPKc
	.section	.rodata
.LC32:
	.string	"CIwSoundSpec::ParseClose"
	.align 4
.LC33:
	.string	"No current resource group - don't know what to do with created object"
	.align 4
.LC34:
	.string	"IwGetResManager()->GetCurrentGroup()"
	.text
	.align 2
	.globl	_ZN12CIwSoundSpec10ParseCloseEP16CIwTextParserITX
	.hidden	_ZN12CIwSoundSpec10ParseCloseEP16CIwTextParserITX
	.type	_ZN12CIwSoundSpec10ParseCloseEP16CIwTextParserITX, @function
_ZN12CIwSoundSpec10ParseCloseEP16CIwTextParserITX:
.LFB1447:
	.loc 14 329 0
	.cfi_startproc
	pushl	%ebp
	.cfi_def_cfa_offset 8
	.cfi_offset 5, -8
	movl	%esp, %ebp
	.cfi_def_cfa_register 5
	pushl	%esi
	pushl	%ebx
	leal	-32(%esp), %esp
	.cfi_offset 6, -12
	.cfi_offset 3, -16
	call	__x86.get_pc_thunk.bx
	addl	$_GLOBAL_OFFSET_TABLE_, %ebx
.LBB56:
	.loc 14 330 0
	leal	.LC32@GOTOFF(%ebx), %eax
	movl	%eax, 4(%esp)
	leal	-9(%ebp), %eax
	movl	%eax, (%esp)
	call	_ZN12CIwCallStackC1EPKc
.LBB57:
.LBB58:
	.loc 14 336 0
	call	_Z15IwGetResManagerv
	movl	%eax, (%esp)
	call	_ZNK13CIwResManager15GetCurrentGroupEv
	testl	%eax, %eax
	sete	%al
	testb	%al, %al
	je	.L165
	.loc 14 336 0 is_stmt 0 discriminator 1
	leal	.LC15@GOTOFF(%ebx), %eax
	movl	%eax, (%esp)
	call	IwDebugAssertIsChannelOn@PLT
	testb	%al, %al
	je	.L166
	movzbl	_ZZN12CIwSoundSpec10ParseCloseEP16CIwTextParserITXE21_s_IwAssertIgnoreThis@GOTOFF(%ebx), %eax
	testb	%al, %al
	jne	.L166
	.loc 14 336 0 discriminator 3
	movl	$1, %eax
	jmp	.L167
.L166:
	.loc 14 336 0 discriminator 2
	movl	$0, %eax
.L167:
	.loc 14 336 0 discriminator 4
	testb	%al, %al
	je	.L168
	.loc 14 336 0 discriminator 1
	movl	$0, (%esp)
	call	IwDebugAssertSetUID@PLT
	leal	.LC33@GOTOFF(%ebx), %eax
	movl	%eax, (%esp)
	call	IwDebugAssertSetMessage@PLT
	movl	$1, 12(%esp)
	movl	$336, 8(%esp)
	leal	.LC20@GOTOFF(%ebx), %eax
	movl	%eax, 4(%esp)
	leal	.LC34@GOTOFF(%ebx), %eax
	movl	%eax, (%esp)
	call	IwDebugAssertShow@PLT
	cmpl	$1, %eax
	je	.L170
	cmpl	$2, %eax
	je	.L171
	.loc 14 336 0
	jmp	.L169
.L170:
	.loc 14 336 0 discriminator 2
	call	s3eDebugIsDebuggerPresent@PLT
	testb	%al, %al
	setne	%al
	testb	%al, %al
	je	.L172
	.loc 14 336 0 discriminator 1
	call	s3eDebugIsDebuggerPresent@PLT
	testb	%al, %al
	setne	%al
	testb	%al, %al
	je	.L173
#APP
# 336 "c:/Marmalade/7.5/examples/GameTutorial/CPP/modules/soundengine/source/IwSoundSpec.cpp" 1
	 int $3 
# 0 "" 2
#NO_APP
	jmp	.L173
.L172:
	.loc 14 336 0 discriminator 2
	call	_ZL11IwDebugExitv
	jmp	.L169
.L173:
	.loc 14 336 0 discriminator 1
	jmp	.L169
.L171:
	.loc 14 336 0 discriminator 3
	movb	$1, _ZZN12CIwSoundSpec10ParseCloseEP16CIwTextParserITXE21_s_IwAssertIgnoreThis@GOTOFF(%ebx)
	nop
.L169:
	.loc 14 336 0 discriminator 1
	movl	$0, (%esp)
	call	IwDebugAssertSetUID@PLT
.L168:
	movl	$0, %esi
	.loc 14 336 0 discriminator 2
	jmp	.L174
.L165:
.LBE58:
.LBE57:
	.loc 14 339 0 is_stmt 1
	movl	8(%ebp), %esi
	call	_Z15IwGetResManagerv
	movl	%eax, (%esp)
	call	_ZNK13CIwResManager15GetCurrentGroupEv
	movl	%esi, 8(%esp)
	leal	.LC7@GOTOFF(%ebx), %edx
	movl	%edx, 4(%esp)
	movl	%eax, (%esp)
	call	_ZN11CIwResGroup6AddResEPKcP11CIwResource@PLT
	movl	$1, %esi
.L174:
	leal	-9(%ebp), %eax
	movl	%eax, (%esp)
	call	_ZN12CIwCallStackD1Ev
	cmpl	$1, %esi
	jne	.L164
	nop
.L164:
.LBE56:
	.loc 14 341 0
	leal	32(%esp), %esp
	popl	%ebx
	.cfi_restore 3
	popl	%esi
	.cfi_restore 6
	popl	%ebp
	.cfi_restore 5
	.cfi_def_cfa 4, 4
	ret
	.cfi_endproc
.LFE1447:
	.size	_ZN12CIwSoundSpec10ParseCloseEP16CIwTextParserITX, .-_ZN12CIwSoundSpec10ParseCloseEP16CIwTextParserITX
	.section	.rodata
.LC35:
	.string	"\"%s\""
	.align 4
.LC36:
	.string	"Hash: %u Vol: %d->%d Pitch: %d->%d Pan: %d->%d"
.LC37:
	.string	"Format: PCM 8-bit mono"
.LC38:
	.string	"Format: PCM 16-bit mono"
.LC39:
	.string	"Format: Unsupported"
.LC40:
	.string	"%6d %s"
	.text
	.align 2
	.globl	_ZN12CIwSoundSpec5TraceEv
	.hidden	_ZN12CIwSoundSpec5TraceEv
	.type	_ZN12CIwSoundSpec5TraceEv, @function
_ZN12CIwSoundSpec5TraceEv:
.LFB1448:
	.loc 14 344 0
	.cfi_startproc
	pushl	%ebp
	.cfi_def_cfa_offset 8
	.cfi_offset 5, -8
	movl	%esp, %ebp
	.cfi_def_cfa_register 5
	pushl	%edi
	pushl	%esi
	pushl	%ebx
	leal	-236(%esp), %esp
	.cfi_offset 7, -12
	.cfi_offset 6, -16
	.cfi_offset 3, -20
	call	__x86.get_pc_thunk.bx
	addl	$_GLOBAL_OFFSET_TABLE_, %ebx
.LBB59:
	.loc 14 347 0
	movl	$1, 4(%esp)
	leal	.LC15@GOTOFF(%ebx), %eax
	movl	%eax, (%esp)
	call	IwDebugTraceIsChannelOn@PLT
	testb	%al, %al
	setne	%al
	testb	%al, %al
	je	.L180
	.loc 14 347 0 is_stmt 0 discriminator 1
	leal	.LC15@GOTOFF(%ebx), %eax
	movl	%eax, (%esp)
	call	IwDebugTraceSetTraceChannel@PLT
	movl	8(%ebp), %eax
	movl	%eax, (%esp)
	call	_ZNK10CIwManaged12DebugGetNameEv
	movl	%eax, 4(%esp)
	leal	.LC35@GOTOFF(%ebx), %eax
	movl	%eax, (%esp)
	call	IwDebugTraceLinePrintf@PLT
.L180:
	.loc 14 349 0 is_stmt 1
	movl	$1, 4(%esp)
	leal	.LC15@GOTOFF(%ebx), %eax
	movl	%eax, (%esp)
	call	IwDebugTraceIsChannelOn@PLT
	testb	%al, %al
	setne	%al
	testb	%al, %al
	je	.L181
	.loc 14 349 0 is_stmt 0 discriminator 1
	leal	.LC15@GOTOFF(%ebx), %eax
	movl	%eax, (%esp)
	call	IwDebugTraceSetTraceChannel@PLT
	movl	8(%ebp), %eax
	movzwl	26(%eax), %eax
	movswl	%ax, %ecx
	movl	8(%ebp), %eax
	movzwl	24(%eax), %eax
	cwtl
	movl	%eax, -204(%ebp)
	movl	8(%ebp), %eax
	movzwl	30(%eax), %eax
	movswl	%ax, %edi
	movl	%edi, -208(%ebp)
	movl	8(%ebp), %eax
	movzwl	28(%eax), %eax
	movswl	%ax, %edi
	movl	8(%ebp), %eax
	movzwl	22(%eax), %eax
	movswl	%ax, %esi
	movl	8(%ebp), %eax
	movzwl	20(%eax), %eax
	movswl	%ax, %edx
	movl	8(%ebp), %eax
	movl	4(%eax), %eax
	movl	%ecx, 28(%esp)
	movl	-204(%ebp), %ecx
	movl	%ecx, 24(%esp)
	movl	-208(%ebp), %ecx
	movl	%ecx, 20(%esp)
	movl	%edi, 16(%esp)
	movl	%esi, 12(%esp)
	movl	%edx, 8(%esp)
	movl	%eax, 4(%esp)
	leal	.LC36@GOTOFF(%ebx), %eax
	movl	%eax, (%esp)
	call	IwDebugTraceLinePrintf@PLT
.L181:
	.loc 14 353 0 is_stmt 1
	movl	$80, -44(%ebp)
	.loc 14 354 0
	movl	$32, -48(%ebp)
	.loc 14 363 0
	movb	$32, -67(%ebp)
	movb	$46, -66(%ebp)
	movb	$58, -65(%ebp)
	movb	$39, -64(%ebp)
	movb	$124, -63(%ebp)
	.loc 14 364 0
	movb	$124, -72(%ebp)
	movb	$33, -71(%ebp)
	movb	$58, -70(%ebp)
	movb	$39, -69(%ebp)
	movb	$32, -68(%ebp)
	.loc 14 367 0
	movl	8(%ebp), %eax
	movl	32(%eax), %eax
	movl	20(%eax), %eax
	movl	%eax, -52(%ebp)
	.loc 14 370 0
	movl	$0, 4(%esp)
	leal	-88(%ebp), %eax
	movl	%eax, (%esp)
	call	_ZN8CIwArrayIs12CIwAllocatorIs15CIwMallocRouterIsEE17ReallocateDefaultIsS3_EEC1Ej
	.loc 14 371 0
	movl	$0, 4(%esp)
	leal	-104(%ebp), %eax
	movl	%eax, (%esp)
	call	_ZN8CIwArrayIa12CIwAllocatorIa15CIwMallocRouterIaEE17ReallocateDefaultIaS3_EEC1Ej
	.loc 14 373 0
	movl	8(%ebp), %eax
	movl	32(%eax), %eax
	movl	32(%eax), %eax
	testl	%eax, %eax
	je	.L183
	cmpl	$1, %eax
	je	.L184
	jmp	.L212
.L183:
	.loc 14 376 0
	movw	$2, -26(%ebp)
	.loc 14 377 0
	movl	8(%ebp), %eax
	movl	32(%eax), %eax
	leal	-104(%ebp), %edx
	movl	%edx, 4(%esp)
	movl	%eax, (%esp)
	call	_ZNK12CIwSoundData7GetDataER8CIwArrayIa12CIwAllocatorIa15CIwMallocRouterIaEE17ReallocateDefaultIaS4_EE
	.loc 14 378 0
	movl	$1, 4(%esp)
	leal	.LC15@GOTOFF(%ebx), %eax
	movl	%eax, (%esp)
	call	IwDebugTraceIsChannelOn@PLT
	testb	%al, %al
	setne	%al
	testb	%al, %al
	je	.L185
	.loc 14 378 0 is_stmt 0 discriminator 1
	leal	.LC15@GOTOFF(%ebx), %eax
	movl	%eax, (%esp)
	call	IwDebugTraceSetTraceChannel@PLT
	leal	.LC37@GOTOFF(%ebx), %eax
	movl	%eax, (%esp)
	call	IwDebugTraceLinePrintf@PLT
.L185:
	.loc 14 379 0 is_stmt 1
	jmp	.L186
.L184:
	.loc 14 381 0
	movw	$512, -26(%ebp)
	.loc 14 382 0
	movl	8(%ebp), %eax
	movl	32(%eax), %eax
	leal	-88(%ebp), %edx
	movl	%edx, 4(%esp)
	movl	%eax, (%esp)
	call	_ZNK12CIwSoundData7GetDataER8CIwArrayIs12CIwAllocatorIs15CIwMallocRouterIsEE17ReallocateDefaultIsS4_EE
	.loc 14 383 0
	movl	$1, 4(%esp)
	leal	.LC15@GOTOFF(%ebx), %eax
	movl	%eax, (%esp)
	call	IwDebugTraceIsChannelOn@PLT
	testb	%al, %al
	setne	%al
	testb	%al, %al
	je	.L187
	.loc 14 383 0 is_stmt 0 discriminator 1
	leal	.LC15@GOTOFF(%ebx), %eax
	movl	%eax, (%esp)
	call	IwDebugTraceSetTraceChannel@PLT
	leal	.LC38@GOTOFF(%ebx), %eax
	movl	%eax, (%esp)
	call	IwDebugTraceLinePrintf@PLT
.L187:
	.loc 14 384 0 is_stmt 1
	jmp	.L186
.L212:
	.loc 14 387 0
	movl	$1, 4(%esp)
	leal	.LC15@GOTOFF(%ebx), %eax
	movl	%eax, (%esp)
	call	IwDebugTraceIsChannelOn@PLT
	testb	%al, %al
	setne	%al
	testb	%al, %al
	je	.L188
	.loc 14 387 0 is_stmt 0 discriminator 1
	leal	.LC15@GOTOFF(%ebx), %eax
	movl	%eax, (%esp)
	call	IwDebugTraceSetTraceChannel@PLT
	leal	.LC39@GOTOFF(%ebx), %eax
	movl	%eax, (%esp)
	call	IwDebugTraceLinePrintf@PLT
.L188:
	movl	$0, %esi
	.loc 14 388 0 is_stmt 1 discriminator 1
	jmp	.L189
.L186:
.LBB60:
	.loc 14 392 0
	movl	$15, -32(%ebp)
	jmp	.L190
.L203:
.LBB61:
	.loc 14 394 0
	movl	-32(%ebp), %eax
	sall	$2, %eax
	movw	%ax, -54(%ebp)
	.loc 14 395 0
	cmpl	$0, -32(%ebp)
	js	.L191
	.loc 14 395 0 is_stmt 0 discriminator 1
	leal	-67(%ebp), %eax
	jmp	.L192
.L191:
	.loc 14 395 0 discriminator 2
	leal	-72(%ebp), %eax
.L192:
	.loc 14 395 0 discriminator 3
	movl	%eax, -60(%ebp)
	.loc 14 397 0 is_stmt 1 discriminator 3
	movl	$0, -36(%ebp)
.LBB62:
	.loc 14 399 0 discriminator 3
	movl	$0, -36(%ebp)
	jmp	.L193
.L198:
.LBB63:
	.loc 14 402 0
	movl	8(%ebp), %eax
	movl	32(%eax), %eax
	movl	32(%eax), %eax
	cmpl	$1, %eax
	jne	.L194
	.loc 14 403 0
	movl	-36(%ebp), %eax
	imull	-52(%ebp), %eax
	movl	$-858993459, %edx
	mull	%edx
	movl	%edx, %eax
	shrl	$6, %eax
	movl	%eax, 4(%esp)
	leal	-88(%ebp), %eax
	movl	%eax, (%esp)
	call	_ZNK8CIwArrayIs12CIwAllocatorIs15CIwMallocRouterIsEE17ReallocateDefaultIsS3_EEixEi
	movzwl	(%eax), %eax
	cwtl
	movswl	-26(%ebp), %edi
	movl	%eax, %edx
	sarl	$31, %edx
	idivl	%edi
	movw	%ax, -38(%ebp)
	jmp	.L195
.L194:
	.loc 14 405 0
	movl	-36(%ebp), %eax
	imull	-52(%ebp), %eax
	movl	$-858993459, %edx
	mull	%edx
	movl	%edx, %eax
	shrl	$6, %eax
	movl	%eax, 4(%esp)
	leal	-104(%ebp), %eax
	movl	%eax, (%esp)
	call	_ZNK8CIwArrayIa12CIwAllocatorIa15CIwMallocRouterIaEE17ReallocateDefaultIaS3_EEixEi
	movzbl	(%eax), %eax
	movsbl	%al, %eax
	movswl	-26(%ebp), %edi
	movl	%eax, %edx
	sarl	$31, %edx
	idivl	%edi
	movw	%ax, -38(%ebp)
.L195:
	.loc 14 407 0
	movzwl	-38(%ebp), %edx
	movzwl	-54(%ebp), %eax
	subl	%eax, %edx
	movl	%edx, %eax
	movw	%ax, -40(%ebp)
	.loc 14 409 0
	movzwl	-54(%ebp), %eax
	cmpw	-38(%ebp), %ax
	jl	.L196
	.loc 14 409 0 is_stmt 0 discriminator 1
	movw	$0, -40(%ebp)
	jmp	.L197
.L196:
	.loc 14 410 0 is_stmt 1
	cmpw	$4, -40(%ebp)
	jle	.L197
	.loc 14 410 0 is_stmt 0 discriminator 1
	movw	$4, -40(%ebp)
.L197:
	.loc 14 412 0 is_stmt 1
	movswl	-40(%ebp), %edx
	movl	-60(%ebp), %eax
	leal	(%eax,%edx), %eax
	movzbl	(%eax), %eax
	leal	-185(%ebp), %ecx
	movl	-36(%ebp), %edx
	leal	(%edx,%ecx), %edx
	movb	%al, (%edx)
.LBE63:
	.loc 14 399 0
	addl	$1, -36(%ebp)
.L193:
	.loc 14 399 0 is_stmt 0 discriminator 1
	cmpl	$79, -36(%ebp)
	jle	.L198
.LBE62:
	.loc 14 415 0 is_stmt 1
	leal	-185(%ebp), %edx
	movl	-36(%ebp), %eax
	leal	(%eax,%edx), %eax
	movb	$0, (%eax)
	.loc 14 418 0
	cmpl	$0, -32(%ebp)
	js	.L199
	.loc 14 418 0 is_stmt 0 discriminator 1
	movswl	-54(%ebp), %eax
	addl	$4, %eax
	movl	%eax, %edx
	movzwl	-26(%ebp), %eax
	imull	%edx, %eax
	jmp	.L200
.L199:
	.loc 14 418 0 discriminator 2
	movzwl	-54(%ebp), %edx
	movzwl	-26(%ebp), %eax
	imull	%edx, %eax
.L200:
	.loc 14 418 0 discriminator 3
	movw	%ax, -62(%ebp)
	.loc 14 419 0 is_stmt 1 discriminator 3
	movl	$1, 4(%esp)
	leal	.LC15@GOTOFF(%ebx), %eax
	movl	%eax, (%esp)
	call	IwDebugTraceIsChannelOn@PLT
	testb	%al, %al
	setne	%al
	testb	%al, %al
	je	.L201
	.loc 14 419 0 is_stmt 0 discriminator 1
	leal	.LC15@GOTOFF(%ebx), %eax
	movl	%eax, (%esp)
	call	IwDebugTraceSetTraceChannel@PLT
	movswl	-62(%ebp), %eax
	leal	-185(%ebp), %edx
	movl	%edx, 8(%esp)
	movl	%eax, 4(%esp)
	leal	.LC40@GOTOFF(%ebx), %eax
	movl	%eax, (%esp)
	call	IwDebugTraceLinePrintf@PLT
.L201:
	.loc 14 422 0 is_stmt 1
	cmpl	$0, -32(%ebp)
	jne	.L202
	.loc 14 425 0
	movl	$80, 8(%esp)
	movl	$45, 4(%esp)
	leal	-185(%ebp), %eax
	movl	%eax, (%esp)
	call	memset@PLT
	.loc 14 426 0
	movb	$48, -185(%ebp)
	.loc 14 427 0
	movb	$0, -105(%ebp)
	.loc 14 428 0
	movl	$1, 4(%esp)
	leal	.LC15@GOTOFF(%ebx), %eax
	movl	%eax, (%esp)
	call	IwDebugTraceIsChannelOn@PLT
	testb	%al, %al
	setne	%al
	testb	%al, %al
	je	.L202
	.loc 14 428 0 is_stmt 0 discriminator 1
	leal	.LC15@GOTOFF(%ebx), %eax
	movl	%eax, (%esp)
	call	IwDebugTraceSetTraceChannel@PLT
	leal	-185(%ebp), %eax
	movl	%eax, 8(%esp)
	movl	$0, 4(%esp)
	leal	.LC40@GOTOFF(%ebx), %eax
	movl	%eax, (%esp)
	call	IwDebugTraceLinePrintf@PLT
.L202:
.LBE61:
	.loc 14 392 0 is_stmt 1
	subl	$1, -32(%ebp)
.L190:
	.loc 14 392 0 is_stmt 0 discriminator 1
	cmpl	$-16, -32(%ebp)
	jge	.L203
	movl	$1, %esi
.L189:
.LBE60:
	leal	-104(%ebp), %eax
	movl	%eax, (%esp)
	call	_ZN8CIwArrayIa12CIwAllocatorIa15CIwMallocRouterIaEE17ReallocateDefaultIaS3_EED1Ev
	cmpl	$1, %esi
	je	.L213
	movl	$0, %esi
	jmp	.L207
.L213:
	.loc 14 371 0 is_stmt 1
	nop
	movl	$1, %esi
.L207:
	leal	-88(%ebp), %eax
	movl	%eax, (%esp)
	call	_ZN8CIwArrayIs12CIwAllocatorIs15CIwMallocRouterIsEE17ReallocateDefaultIsS3_EED1Ev
	cmpl	$1, %esi
	jne	.L179
	.loc 14 430 0
	nop
.L179:
.LBE59:
	.loc 14 431 0
	leal	236(%esp), %esp
	popl	%ebx
	.cfi_restore 3
	popl	%esi
	.cfi_restore 6
	popl	%edi
	.cfi_restore 7
	popl	%ebp
	.cfi_restore 5
	.cfi_def_cfa 4, 4
	ret
	.cfi_endproc
.LFE1448:
	.size	_ZN12CIwSoundSpec5TraceEv, .-_ZN12CIwSoundSpec5TraceEv
	.section	.text._ZNK13CIwCopyingPtrI9CIwStringILi160EE17CIwDebugAllocatorIS1_EEneEPS1_,"axG",@progbits,_ZNK13CIwCopyingPtrI9CIwStringILi160EE17CIwDebugAllocatorIS1_EEneEPS1_,comdat
	.align 2
	.weak	_ZNK13CIwCopyingPtrI9CIwStringILi160EE17CIwDebugAllocatorIS1_EEneEPS1_
	.hidden	_ZNK13CIwCopyingPtrI9CIwStringILi160EE17CIwDebugAllocatorIS1_EEneEPS1_
	.type	_ZNK13CIwCopyingPtrI9CIwStringILi160EE17CIwDebugAllocatorIS1_EEneEPS1_, @function
_ZNK13CIwCopyingPtrI9CIwStringILi160EE17CIwDebugAllocatorIS1_EEneEPS1_:
.LFB1468:
	.file 16 "c:/marmalade/7.5/modules/iwutil/h/IwCopyingPtr.h"
	.loc 16 127 0
	.cfi_startproc
	pushl	%ebp
	.cfi_def_cfa_offset 8
	.cfi_offset 5, -8
	leal	(%esp), %ebp
	.cfi_def_cfa_register 5
	.loc 16 129 0
	movl	8(%ebp), %eax
	movl	(%eax), %eax
	cmpl	12(%ebp), %eax
	setne	%al
	.loc 16 130 0
	popl	%ebp
	.cfi_restore 5
	.cfi_def_cfa 4, 4
	ret
	.cfi_endproc
.LFE1468:
	.size	_ZNK13CIwCopyingPtrI9CIwStringILi160EE17CIwDebugAllocatorIS1_EEneEPS1_, .-_ZNK13CIwCopyingPtrI9CIwStringILi160EE17CIwDebugAllocatorIS1_EEneEPS1_
	.section	.text._ZNK13CIwCopyingPtrI9CIwStringILi160EE17CIwDebugAllocatorIS1_EEptEv,"axG",@progbits,_ZNK13CIwCopyingPtrI9CIwStringILi160EE17CIwDebugAllocatorIS1_EEptEv,comdat
	.align 2
	.weak	_ZNK13CIwCopyingPtrI9CIwStringILi160EE17CIwDebugAllocatorIS1_EEptEv
	.hidden	_ZNK13CIwCopyingPtrI9CIwStringILi160EE17CIwDebugAllocatorIS1_EEptEv
	.type	_ZNK13CIwCopyingPtrI9CIwStringILi160EE17CIwDebugAllocatorIS1_EEptEv, @function
_ZNK13CIwCopyingPtrI9CIwStringILi160EE17CIwDebugAllocatorIS1_EEptEv:
.LFB1469:
	.loc 16 117 0
	.cfi_startproc
	pushl	%ebp
	.cfi_def_cfa_offset 8
	.cfi_offset 5, -8
	leal	(%esp), %ebp
	.cfi_def_cfa_register 5
	.loc 16 119 0
	movl	8(%ebp), %eax
	movl	(%eax), %eax
	.loc 16 120 0
	popl	%ebp
	.cfi_restore 5
	.cfi_def_cfa 4, 4
	ret
	.cfi_endproc
.LFE1469:
	.size	_ZNK13CIwCopyingPtrI9CIwStringILi160EE17CIwDebugAllocatorIS1_EEptEv, .-_ZNK13CIwCopyingPtrI9CIwStringILi160EE17CIwDebugAllocatorIS1_EEptEv
	.section	.text._ZNK9CIwStringILi160EE5c_strEv,"axG",@progbits,_ZNK9CIwStringILi160EE5c_strEv,comdat
	.align 2
	.weak	_ZNK9CIwStringILi160EE5c_strEv
	.hidden	_ZNK9CIwStringILi160EE5c_strEv
	.type	_ZNK9CIwStringILi160EE5c_strEv, @function
_ZNK9CIwStringILi160EE5c_strEv:
.LFB1470:
	.file 17 "c:/marmalade/7.5/modules/iwutil/h/IwString.h"
	.loc 17 104 0
	.cfi_startproc
	pushl	%ebp
	.cfi_def_cfa_offset 8
	.cfi_offset 5, -8
	leal	(%esp), %ebp
	.cfi_def_cfa_register 5
	.loc 17 104 0
	movl	8(%ebp), %eax
	popl	%ebp
	.cfi_restore 5
	.cfi_def_cfa 4, 4
	ret
	.cfi_endproc
.LFE1470:
	.size	_ZNK9CIwStringILi160EE5c_strEv, .-_ZNK9CIwStringILi160EE5c_strEv
	.section	.text._ZN8CIwArrayIs12CIwAllocatorIs15CIwMallocRouterIsEE17ReallocateDefaultIsS3_EE5ShareEPsii,"axG",@progbits,_ZN8CIwArrayIs12CIwAllocatorIs15CIwMallocRouterIsEE17ReallocateDefaultIsS3_EE5ShareEPsii,comdat
	.align 2
	.weak	_ZN8CIwArrayIs12CIwAllocatorIs15CIwMallocRouterIsEE17ReallocateDefaultIsS3_EE5ShareEPsii
	.hidden	_ZN8CIwArrayIs12CIwAllocatorIs15CIwMallocRouterIsEE17ReallocateDefaultIsS3_EE5ShareEPsii
	.type	_ZN8CIwArrayIs12CIwAllocatorIs15CIwMallocRouterIsEE17ReallocateDefaultIsS3_EE5ShareEPsii, @function
_ZN8CIwArrayIs12CIwAllocatorIs15CIwMallocRouterIsEE17ReallocateDefaultIsS3_EE5ShareEPsii:
.LFB1509:
	.file 18 "c:/marmalade/7.5/modules/iwutil/h/IwArray.h"
	.loc 18 741 0
	.cfi_startproc
	pushl	%ebp
	.cfi_def_cfa_offset 8
	.cfi_offset 5, -8
	leal	(%esp), %ebp
	.cfi_def_cfa_register 5
	leal	-24(%esp), %esp
	.loc 18 743 0
	movl	8(%ebp), %eax
	movzbl	12(%eax), %eax
	andl	$1, %eax
	xorl	$1, %eax
	testb	%al, %al
	je	.L221
	.loc 18 744 0
	movl	8(%ebp), %eax
	movl	%eax, (%esp)
	call	_ZN8CIwArrayIs12CIwAllocatorIs15CIwMallocRouterIsEE17ReallocateDefaultIsS3_EE15clear_optimisedEv
.L221:
	.loc 18 745 0
	movl	8(%ebp), %eax
	movl	12(%ebp), %edx
	movl	%edx, (%eax)
	.loc 18 746 0
	movl	16(%ebp), %edx
	movl	8(%ebp), %eax
	movl	%edx, 4(%eax)
	.loc 18 747 0
	movl	20(%ebp), %edx
	movl	8(%ebp), %eax
	movl	%edx, 8(%eax)
	.loc 18 748 0
	movl	8(%ebp), %eax
	movzbl	12(%eax), %edx
	orl	$1, %edx
	movb	%dl, 12(%eax)
	.loc 18 749 0
	leave
	.cfi_restore 5
	.cfi_def_cfa 4, 4
	ret
	.cfi_endproc
.LFE1509:
	.size	_ZN8CIwArrayIs12CIwAllocatorIs15CIwMallocRouterIsEE17ReallocateDefaultIsS3_EE5ShareEPsii, .-_ZN8CIwArrayIs12CIwAllocatorIs15CIwMallocRouterIsEE17ReallocateDefaultIsS3_EE5ShareEPsii
	.section	.text._ZN8CIwArrayIa12CIwAllocatorIa15CIwMallocRouterIaEE17ReallocateDefaultIaS3_EE5ShareEPaii,"axG",@progbits,_ZN8CIwArrayIa12CIwAllocatorIa15CIwMallocRouterIaEE17ReallocateDefaultIaS3_EE5ShareEPaii,comdat
	.align 2
	.weak	_ZN8CIwArrayIa12CIwAllocatorIa15CIwMallocRouterIaEE17ReallocateDefaultIaS3_EE5ShareEPaii
	.hidden	_ZN8CIwArrayIa12CIwAllocatorIa15CIwMallocRouterIaEE17ReallocateDefaultIaS3_EE5ShareEPaii
	.type	_ZN8CIwArrayIa12CIwAllocatorIa15CIwMallocRouterIaEE17ReallocateDefaultIaS3_EE5ShareEPaii, @function
_ZN8CIwArrayIa12CIwAllocatorIa15CIwMallocRouterIaEE17ReallocateDefaultIaS3_EE5ShareEPaii:
.LFB1510:
	.loc 18 741 0
	.cfi_startproc
	pushl	%ebp
	.cfi_def_cfa_offset 8
	.cfi_offset 5, -8
	leal	(%esp), %ebp
	.cfi_def_cfa_register 5
	leal	-24(%esp), %esp
	.loc 18 743 0
	movl	8(%ebp), %eax
	movzbl	12(%eax), %eax
	andl	$1, %eax
	xorl	$1, %eax
	testb	%al, %al
	je	.L223
	.loc 18 744 0
	movl	8(%ebp), %eax
	movl	%eax, (%esp)
	call	_ZN8CIwArrayIa12CIwAllocatorIa15CIwMallocRouterIaEE17ReallocateDefaultIaS3_EE15clear_optimisedEv
.L223:
	.loc 18 745 0
	movl	8(%ebp), %eax
	movl	12(%ebp), %edx
	movl	%edx, (%eax)
	.loc 18 746 0
	movl	16(%ebp), %edx
	movl	8(%ebp), %eax
	movl	%edx, 4(%eax)
	.loc 18 747 0
	movl	20(%ebp), %edx
	movl	8(%ebp), %eax
	movl	%edx, 8(%eax)
	.loc 18 748 0
	movl	8(%ebp), %eax
	movzbl	12(%eax), %edx
	orl	$1, %edx
	movb	%dl, 12(%eax)
	.loc 18 749 0
	leave
	.cfi_restore 5
	.cfi_def_cfa 4, 4
	ret
	.cfi_endproc
.LFE1510:
	.size	_ZN8CIwArrayIa12CIwAllocatorIa15CIwMallocRouterIaEE17ReallocateDefaultIaS3_EE5ShareEPaii, .-_ZN8CIwArrayIa12CIwAllocatorIa15CIwMallocRouterIaEE17ReallocateDefaultIaS3_EE5ShareEPaii
	.section	.text._ZN8CIwArrayIa12CIwAllocatorIa15CIwMallocRouterIaEE17ReallocateDefaultIaS3_EEC2Ej,"axG",@progbits,_ZN8CIwArrayIa12CIwAllocatorIa15CIwMallocRouterIaEE17ReallocateDefaultIaS3_EEC5Ej,comdat
	.align 2
	.weak	_ZN8CIwArrayIa12CIwAllocatorIa15CIwMallocRouterIaEE17ReallocateDefaultIaS3_EEC2Ej
	.hidden	_ZN8CIwArrayIa12CIwAllocatorIa15CIwMallocRouterIaEE17ReallocateDefaultIaS3_EEC2Ej
	.type	_ZN8CIwArrayIa12CIwAllocatorIa15CIwMallocRouterIaEE17ReallocateDefaultIaS3_EEC2Ej, @function
_ZN8CIwArrayIa12CIwAllocatorIa15CIwMallocRouterIaEE17ReallocateDefaultIaS3_EEC2Ej:
.LFB1519:
	.loc 18 131 0
	.cfi_startproc
	pushl	%ebp
	.cfi_def_cfa_offset 8
	.cfi_offset 5, -8
	leal	(%esp), %ebp
	.cfi_def_cfa_register 5
	leal	-24(%esp), %esp
.LBB64:
	.loc 18 131 0
	movl	8(%ebp), %eax
	movl	$0, (%eax)
	movl	8(%ebp), %eax
	movl	$0, 4(%eax)
	movl	8(%ebp), %eax
	movl	$0, 8(%eax)
	movl	8(%ebp), %eax
	movzbl	12(%eax), %edx
	andl	$-2, %edx
	movb	%dl, 12(%eax)
	movl	8(%ebp), %eax
	movzbl	12(%eax), %edx
	andl	$-3, %edx
	movb	%dl, 12(%eax)
	.loc 18 133 0
	movl	12(%ebp), %eax
	movl	%eax, 4(%esp)
	movl	8(%ebp), %eax
	movl	%eax, (%esp)
	call	_ZN8CIwArrayIa12CIwAllocatorIa15CIwMallocRouterIaEE17ReallocateDefaultIaS3_EE6resizeEj
	.loc 18 134 0
	movl	8(%ebp), %eax
	movl	%eax, (%esp)
	call	_ZN8CIwArrayIa12CIwAllocatorIa15CIwMallocRouterIaEE17ReallocateDefaultIaS3_EE5clearEv
.LBE64:
	.loc 18 135 0
	leave
	.cfi_restore 5
	.cfi_def_cfa 4, 4
	ret
	.cfi_endproc
.LFE1519:
	.size	_ZN8CIwArrayIa12CIwAllocatorIa15CIwMallocRouterIaEE17ReallocateDefaultIaS3_EEC2Ej, .-_ZN8CIwArrayIa12CIwAllocatorIa15CIwMallocRouterIaEE17ReallocateDefaultIaS3_EEC2Ej
	.weak	_ZN8CIwArrayIa12CIwAllocatorIa15CIwMallocRouterIaEE17ReallocateDefaultIaS3_EEC1Ej
	.hidden	_ZN8CIwArrayIa12CIwAllocatorIa15CIwMallocRouterIaEE17ReallocateDefaultIaS3_EEC1Ej
	.set	_ZN8CIwArrayIa12CIwAllocatorIa15CIwMallocRouterIaEE17ReallocateDefaultIaS3_EEC1Ej,_ZN8CIwArrayIa12CIwAllocatorIa15CIwMallocRouterIaEE17ReallocateDefaultIaS3_EEC2Ej
	.section	.text._ZN8CIwArrayIa12CIwAllocatorIa15CIwMallocRouterIaEE17ReallocateDefaultIaS3_EED2Ev,"axG",@progbits,_ZN8CIwArrayIa12CIwAllocatorIa15CIwMallocRouterIaEE17ReallocateDefaultIaS3_EED5Ev,comdat
	.align 2
	.weak	_ZN8CIwArrayIa12CIwAllocatorIa15CIwMallocRouterIaEE17ReallocateDefaultIaS3_EED2Ev
	.hidden	_ZN8CIwArrayIa12CIwAllocatorIa15CIwMallocRouterIaEE17ReallocateDefaultIaS3_EED2Ev
	.type	_ZN8CIwArrayIa12CIwAllocatorIa15CIwMallocRouterIaEE17ReallocateDefaultIaS3_EED2Ev, @function
_ZN8CIwArrayIa12CIwAllocatorIa15CIwMallocRouterIaEE17ReallocateDefaultIaS3_EED2Ev:
.LFB1522:
	.loc 18 137 0
	.cfi_startproc
	pushl	%ebp
	.cfi_def_cfa_offset 8
	.cfi_offset 5, -8
	leal	(%esp), %ebp
	.cfi_def_cfa_register 5
	leal	-40(%esp), %esp
.LBB65:
.LBB66:
.LBB67:
	.loc 18 139 0
	movl	$0, -12(%ebp)
	jmp	.L226
.L227:
	.loc 18 139 0 is_stmt 0 discriminator 2
	addl	$1, -12(%ebp)
.L226:
	.loc 18 139 0 discriminator 1
	movl	8(%ebp), %eax
	movl	4(%eax), %eax
	cmpl	-12(%ebp), %eax
	ja	.L227
.LBE67:
	.loc 18 141 0 is_stmt 1
	movl	8(%ebp), %eax
	movzbl	12(%eax), %eax
	andl	$1, %eax
	xorl	$1, %eax
	testb	%al, %al
	je	.L225
	.loc 18 143 0
	movl	8(%ebp), %eax
	movl	4(%eax), %edx
	movl	8(%ebp), %eax
	movl	(%eax), %eax
	movl	8(%ebp), %ecx
	addl	$13, %ecx
	movl	%edx, 8(%esp)
	movl	%eax, 4(%esp)
	movl	%ecx, (%esp)
	call	_ZN12CIwAllocatorIa15CIwMallocRouterIaEE10deallocateEPaj
	.loc 18 144 0
	movl	8(%ebp), %eax
	movl	$0, (%eax)
.L225:
.LBE66:
.LBE65:
	.loc 18 146 0
	leave
	.cfi_restore 5
	.cfi_def_cfa 4, 4
	ret
	.cfi_endproc
.LFE1522:
	.size	_ZN8CIwArrayIa12CIwAllocatorIa15CIwMallocRouterIaEE17ReallocateDefaultIaS3_EED2Ev, .-_ZN8CIwArrayIa12CIwAllocatorIa15CIwMallocRouterIaEE17ReallocateDefaultIaS3_EED2Ev
	.weak	_ZN8CIwArrayIa12CIwAllocatorIa15CIwMallocRouterIaEE17ReallocateDefaultIaS3_EED1Ev
	.hidden	_ZN8CIwArrayIa12CIwAllocatorIa15CIwMallocRouterIaEE17ReallocateDefaultIaS3_EED1Ev
	.set	_ZN8CIwArrayIa12CIwAllocatorIa15CIwMallocRouterIaEE17ReallocateDefaultIaS3_EED1Ev,_ZN8CIwArrayIa12CIwAllocatorIa15CIwMallocRouterIaEE17ReallocateDefaultIaS3_EED2Ev
	.section	.text._ZNK8CIwArrayIa12CIwAllocatorIa15CIwMallocRouterIaEE17ReallocateDefaultIaS3_EE5beginEv,"axG",@progbits,_ZNK8CIwArrayIa12CIwAllocatorIa15CIwMallocRouterIaEE17ReallocateDefaultIaS3_EE5beginEv,comdat
	.align 2
	.weak	_ZNK8CIwArrayIa12CIwAllocatorIa15CIwMallocRouterIaEE17ReallocateDefaultIaS3_EE5beginEv
	.hidden	_ZNK8CIwArrayIa12CIwAllocatorIa15CIwMallocRouterIaEE17ReallocateDefaultIaS3_EE5beginEv
	.type	_ZNK8CIwArrayIa12CIwAllocatorIa15CIwMallocRouterIaEE17ReallocateDefaultIaS3_EE5beginEv, @function
_ZNK8CIwArrayIa12CIwAllocatorIa15CIwMallocRouterIaEE17ReallocateDefaultIaS3_EE5beginEv:
.LFB1524:
	.loc 18 97 0
	.cfi_startproc
	pushl	%ebp
	.cfi_def_cfa_offset 8
	.cfi_offset 5, -8
	leal	(%esp), %ebp
	.cfi_def_cfa_register 5
	.loc 18 97 0
	movl	8(%ebp), %eax
	movl	(%eax), %eax
	popl	%ebp
	.cfi_restore 5
	.cfi_def_cfa 4, 4
	ret
	.cfi_endproc
.LFE1524:
	.size	_ZNK8CIwArrayIa12CIwAllocatorIa15CIwMallocRouterIaEE17ReallocateDefaultIaS3_EE5beginEv, .-_ZNK8CIwArrayIa12CIwAllocatorIa15CIwMallocRouterIaEE17ReallocateDefaultIaS3_EE5beginEv
	.section	.text._ZNK8CIwArrayIa12CIwAllocatorIa15CIwMallocRouterIaEE17ReallocateDefaultIaS3_EE3endEv,"axG",@progbits,_ZNK8CIwArrayIa12CIwAllocatorIa15CIwMallocRouterIaEE17ReallocateDefaultIaS3_EE3endEv,comdat
	.align 2
	.weak	_ZNK8CIwArrayIa12CIwAllocatorIa15CIwMallocRouterIaEE17ReallocateDefaultIaS3_EE3endEv
	.hidden	_ZNK8CIwArrayIa12CIwAllocatorIa15CIwMallocRouterIaEE17ReallocateDefaultIaS3_EE3endEv
	.type	_ZNK8CIwArrayIa12CIwAllocatorIa15CIwMallocRouterIaEE17ReallocateDefaultIaS3_EE3endEv, @function
_ZNK8CIwArrayIa12CIwAllocatorIa15CIwMallocRouterIaEE17ReallocateDefaultIaS3_EE3endEv:
.LFB1525:
	.loc 18 103 0
	.cfi_startproc
	pushl	%ebp
	.cfi_def_cfa_offset 8
	.cfi_offset 5, -8
	leal	(%esp), %ebp
	.cfi_def_cfa_register 5
	.loc 18 103 0
	movl	8(%ebp), %eax
	movl	(%eax), %edx
	movl	8(%ebp), %eax
	movl	4(%eax), %eax
	addl	%edx, %eax
	popl	%ebp
	.cfi_restore 5
	.cfi_def_cfa 4, 4
	ret
	.cfi_endproc
.LFE1525:
	.size	_ZNK8CIwArrayIa12CIwAllocatorIa15CIwMallocRouterIaEE17ReallocateDefaultIaS3_EE3endEv, .-_ZNK8CIwArrayIa12CIwAllocatorIa15CIwMallocRouterIaEE17ReallocateDefaultIaS3_EE3endEv
	.section	.text._ZN8CIwArrayIs12CIwAllocatorIs15CIwMallocRouterIsEE17ReallocateDefaultIsS3_EEC2Ej,"axG",@progbits,_ZN8CIwArrayIs12CIwAllocatorIs15CIwMallocRouterIsEE17ReallocateDefaultIsS3_EEC5Ej,comdat
	.align 2
	.weak	_ZN8CIwArrayIs12CIwAllocatorIs15CIwMallocRouterIsEE17ReallocateDefaultIsS3_EEC2Ej
	.hidden	_ZN8CIwArrayIs12CIwAllocatorIs15CIwMallocRouterIsEE17ReallocateDefaultIsS3_EEC2Ej
	.type	_ZN8CIwArrayIs12CIwAllocatorIs15CIwMallocRouterIsEE17ReallocateDefaultIsS3_EEC2Ej, @function
_ZN8CIwArrayIs12CIwAllocatorIs15CIwMallocRouterIsEE17ReallocateDefaultIsS3_EEC2Ej:
.LFB1527:
	.loc 18 131 0
	.cfi_startproc
	pushl	%ebp
	.cfi_def_cfa_offset 8
	.cfi_offset 5, -8
	leal	(%esp), %ebp
	.cfi_def_cfa_register 5
	leal	-24(%esp), %esp
.LBB68:
	.loc 18 131 0
	movl	8(%ebp), %eax
	movl	$0, (%eax)
	movl	8(%ebp), %eax
	movl	$0, 4(%eax)
	movl	8(%ebp), %eax
	movl	$0, 8(%eax)
	movl	8(%ebp), %eax
	movzbl	12(%eax), %edx
	andl	$-2, %edx
	movb	%dl, 12(%eax)
	movl	8(%ebp), %eax
	movzbl	12(%eax), %edx
	andl	$-3, %edx
	movb	%dl, 12(%eax)
	.loc 18 133 0
	movl	12(%ebp), %eax
	movl	%eax, 4(%esp)
	movl	8(%ebp), %eax
	movl	%eax, (%esp)
	call	_ZN8CIwArrayIs12CIwAllocatorIs15CIwMallocRouterIsEE17ReallocateDefaultIsS3_EE6resizeEj
	.loc 18 134 0
	movl	8(%ebp), %eax
	movl	%eax, (%esp)
	call	_ZN8CIwArrayIs12CIwAllocatorIs15CIwMallocRouterIsEE17ReallocateDefaultIsS3_EE5clearEv
.LBE68:
	.loc 18 135 0
	leave
	.cfi_restore 5
	.cfi_def_cfa 4, 4
	ret
	.cfi_endproc
.LFE1527:
	.size	_ZN8CIwArrayIs12CIwAllocatorIs15CIwMallocRouterIsEE17ReallocateDefaultIsS3_EEC2Ej, .-_ZN8CIwArrayIs12CIwAllocatorIs15CIwMallocRouterIsEE17ReallocateDefaultIsS3_EEC2Ej
	.weak	_ZN8CIwArrayIs12CIwAllocatorIs15CIwMallocRouterIsEE17ReallocateDefaultIsS3_EEC1Ej
	.hidden	_ZN8CIwArrayIs12CIwAllocatorIs15CIwMallocRouterIsEE17ReallocateDefaultIsS3_EEC1Ej
	.set	_ZN8CIwArrayIs12CIwAllocatorIs15CIwMallocRouterIsEE17ReallocateDefaultIsS3_EEC1Ej,_ZN8CIwArrayIs12CIwAllocatorIs15CIwMallocRouterIsEE17ReallocateDefaultIsS3_EEC2Ej
	.section	.text._ZN8CIwArrayIs12CIwAllocatorIs15CIwMallocRouterIsEE17ReallocateDefaultIsS3_EED2Ev,"axG",@progbits,_ZN8CIwArrayIs12CIwAllocatorIs15CIwMallocRouterIsEE17ReallocateDefaultIsS3_EED5Ev,comdat
	.align 2
	.weak	_ZN8CIwArrayIs12CIwAllocatorIs15CIwMallocRouterIsEE17ReallocateDefaultIsS3_EED2Ev
	.hidden	_ZN8CIwArrayIs12CIwAllocatorIs15CIwMallocRouterIsEE17ReallocateDefaultIsS3_EED2Ev
	.type	_ZN8CIwArrayIs12CIwAllocatorIs15CIwMallocRouterIsEE17ReallocateDefaultIsS3_EED2Ev, @function
_ZN8CIwArrayIs12CIwAllocatorIs15CIwMallocRouterIsEE17ReallocateDefaultIsS3_EED2Ev:
.LFB1530:
	.loc 18 137 0
	.cfi_startproc
	pushl	%ebp
	.cfi_def_cfa_offset 8
	.cfi_offset 5, -8
	leal	(%esp), %ebp
	.cfi_def_cfa_register 5
	leal	-40(%esp), %esp
.LBB69:
.LBB70:
.LBB71:
	.loc 18 139 0
	movl	$0, -12(%ebp)
	jmp	.L235
.L236:
	.loc 18 139 0 is_stmt 0 discriminator 2
	addl	$1, -12(%ebp)
.L235:
	.loc 18 139 0 discriminator 1
	movl	8(%ebp), %eax
	movl	4(%eax), %eax
	cmpl	-12(%ebp), %eax
	ja	.L236
.LBE71:
	.loc 18 141 0 is_stmt 1
	movl	8(%ebp), %eax
	movzbl	12(%eax), %eax
	andl	$1, %eax
	xorl	$1, %eax
	testb	%al, %al
	je	.L234
	.loc 18 143 0
	movl	8(%ebp), %eax
	movl	4(%eax), %edx
	movl	8(%ebp), %eax
	movl	(%eax), %eax
	movl	8(%ebp), %ecx
	addl	$13, %ecx
	movl	%edx, 8(%esp)
	movl	%eax, 4(%esp)
	movl	%ecx, (%esp)
	call	_ZN12CIwAllocatorIs15CIwMallocRouterIsEE10deallocateEPsj
	.loc 18 144 0
	movl	8(%ebp), %eax
	movl	$0, (%eax)
.L234:
.LBE70:
.LBE69:
	.loc 18 146 0
	leave
	.cfi_restore 5
	.cfi_def_cfa 4, 4
	ret
	.cfi_endproc
.LFE1530:
	.size	_ZN8CIwArrayIs12CIwAllocatorIs15CIwMallocRouterIsEE17ReallocateDefaultIsS3_EED2Ev, .-_ZN8CIwArrayIs12CIwAllocatorIs15CIwMallocRouterIsEE17ReallocateDefaultIsS3_EED2Ev
	.weak	_ZN8CIwArrayIs12CIwAllocatorIs15CIwMallocRouterIsEE17ReallocateDefaultIsS3_EED1Ev
	.hidden	_ZN8CIwArrayIs12CIwAllocatorIs15CIwMallocRouterIsEE17ReallocateDefaultIsS3_EED1Ev
	.set	_ZN8CIwArrayIs12CIwAllocatorIs15CIwMallocRouterIsEE17ReallocateDefaultIsS3_EED1Ev,_ZN8CIwArrayIs12CIwAllocatorIs15CIwMallocRouterIsEE17ReallocateDefaultIsS3_EED2Ev
	.section	.text._ZNK8CIwArrayIs12CIwAllocatorIs15CIwMallocRouterIsEE17ReallocateDefaultIsS3_EE5beginEv,"axG",@progbits,_ZNK8CIwArrayIs12CIwAllocatorIs15CIwMallocRouterIsEE17ReallocateDefaultIsS3_EE5beginEv,comdat
	.align 2
	.weak	_ZNK8CIwArrayIs12CIwAllocatorIs15CIwMallocRouterIsEE17ReallocateDefaultIsS3_EE5beginEv
	.hidden	_ZNK8CIwArrayIs12CIwAllocatorIs15CIwMallocRouterIsEE17ReallocateDefaultIsS3_EE5beginEv
	.type	_ZNK8CIwArrayIs12CIwAllocatorIs15CIwMallocRouterIsEE17ReallocateDefaultIsS3_EE5beginEv, @function
_ZNK8CIwArrayIs12CIwAllocatorIs15CIwMallocRouterIsEE17ReallocateDefaultIsS3_EE5beginEv:
.LFB1532:
	.loc 18 97 0
	.cfi_startproc
	pushl	%ebp
	.cfi_def_cfa_offset 8
	.cfi_offset 5, -8
	leal	(%esp), %ebp
	.cfi_def_cfa_register 5
	.loc 18 97 0
	movl	8(%ebp), %eax
	movl	(%eax), %eax
	popl	%ebp
	.cfi_restore 5
	.cfi_def_cfa 4, 4
	ret
	.cfi_endproc
.LFE1532:
	.size	_ZNK8CIwArrayIs12CIwAllocatorIs15CIwMallocRouterIsEE17ReallocateDefaultIsS3_EE5beginEv, .-_ZNK8CIwArrayIs12CIwAllocatorIs15CIwMallocRouterIsEE17ReallocateDefaultIsS3_EE5beginEv
	.section	.text._ZNK8CIwArrayIs12CIwAllocatorIs15CIwMallocRouterIsEE17ReallocateDefaultIsS3_EE3endEv,"axG",@progbits,_ZNK8CIwArrayIs12CIwAllocatorIs15CIwMallocRouterIsEE17ReallocateDefaultIsS3_EE3endEv,comdat
	.align 2
	.weak	_ZNK8CIwArrayIs12CIwAllocatorIs15CIwMallocRouterIsEE17ReallocateDefaultIsS3_EE3endEv
	.hidden	_ZNK8CIwArrayIs12CIwAllocatorIs15CIwMallocRouterIsEE17ReallocateDefaultIsS3_EE3endEv
	.type	_ZNK8CIwArrayIs12CIwAllocatorIs15CIwMallocRouterIsEE17ReallocateDefaultIsS3_EE3endEv, @function
_ZNK8CIwArrayIs12CIwAllocatorIs15CIwMallocRouterIsEE17ReallocateDefaultIsS3_EE3endEv:
.LFB1533:
	.loc 18 103 0
	.cfi_startproc
	pushl	%ebp
	.cfi_def_cfa_offset 8
	.cfi_offset 5, -8
	leal	(%esp), %ebp
	.cfi_def_cfa_register 5
	.loc 18 103 0
	movl	8(%ebp), %eax
	movl	(%eax), %edx
	movl	8(%ebp), %eax
	movl	4(%eax), %eax
	addl	%eax, %eax
	addl	%edx, %eax
	popl	%ebp
	.cfi_restore 5
	.cfi_def_cfa 4, 4
	ret
	.cfi_endproc
.LFE1533:
	.size	_ZNK8CIwArrayIs12CIwAllocatorIs15CIwMallocRouterIsEE17ReallocateDefaultIsS3_EE3endEv, .-_ZNK8CIwArrayIs12CIwAllocatorIs15CIwMallocRouterIsEE17ReallocateDefaultIsS3_EE3endEv
	.section	.rodata
.LC41:
	.string	"CORE"
	.align 4
.LC42:
	.string	"Mis-casting pointer: 0x%p is a pointer to type '%s', which is not derived from '%s'"
	.align 4
.LC43:
	.string	"c:/marmalade/7.5/modules/iwutil/h/IwDebug.h"
.LC44:
	.string	"false"
	.section	.text._Z10IwSafeCastIP13CIwSoundGroupP11CIwResourceET_T0_,"axG",@progbits,_Z10IwSafeCastIP13CIwSoundGroupP11CIwResourceET_T0_,comdat
	.weak	_Z10IwSafeCastIP13CIwSoundGroupP11CIwResourceET_T0_
	.hidden	_Z10IwSafeCastIP13CIwSoundGroupP11CIwResourceET_T0_
	.type	_Z10IwSafeCastIP13CIwSoundGroupP11CIwResourceET_T0_, @function
_Z10IwSafeCastIP13CIwSoundGroupP11CIwResourceET_T0_:
.LFB1534:
	.loc 1 585 0
	.cfi_startproc
	pushl	%ebp
	.cfi_def_cfa_offset 8
	.cfi_offset 5, -8
	movl	%esp, %ebp
	.cfi_def_cfa_register 5
	pushl	%ebx
	leal	-36(%esp), %esp
	.cfi_offset 3, -12
	call	__x86.get_pc_thunk.bx
	addl	$_GLOBAL_OFFSET_TABLE_, %ebx
.LBB72:
.LBB73:
	.loc 1 588 0
	cmpl	$0, 8(%ebp)
	je	.L243
	.loc 1 588 0 is_stmt 0 discriminator 1
	movl	8(%ebp), %eax
	testl	%eax, %eax
	je	.L244
	.loc 1 588 0 discriminator 4
	movl	$0, 12(%esp)
	movl	_ZTI13CIwSoundGroup@GOT(%ebx), %edx
	movl	%edx, 8(%esp)
	movl	_ZTI11CIwResource@GOT(%ebx), %edx
	movl	%edx, 4(%esp)
	movl	%eax, (%esp)
	call	__dynamic_cast@PLT
	testl	%eax, %eax
	jne	.L243
.L244:
	.loc 1 588 0 discriminator 3
	movl	$1, %eax
	jmp	.L245
.L243:
	.loc 1 588 0 discriminator 2
	movl	$0, %eax
.L245:
	.loc 1 588 0 discriminator 5
	testb	%al, %al
	je	.L246
.LBB74:
	.loc 1 590 0 is_stmt 1
	cmpl	$0, 8(%ebp)
	je	.L247
	.loc 1 590 0 is_stmt 0 discriminator 1
	movl	8(%ebp), %eax
	movl	(%eax), %eax
	movl	-4(%eax), %eax
	movl	%eax, -12(%ebp)
	.loc 1 591 0 is_stmt 1 discriminator 1
	movl	-12(%ebp), %eax
	movl	%eax, (%esp)
	call	_ZNKSt9type_info4nameEv@PLT
	movl	%eax, -16(%ebp)
	.loc 1 592 0 discriminator 1
	leal	_ZTIP13CIwSoundGroup@GOTOFF(%ebx), %eax
	movl	%eax, (%esp)
	call	_ZNKSt9type_info4nameEv@PLT
	movl	%eax, -20(%ebp)
.LBB75:
.LBB76:
	.loc 1 593 0 discriminator 1
	leal	.LC41@GOTOFF(%ebx), %eax
	movl	%eax, (%esp)
	call	IwDebugAssertIsChannelOn@PLT
	testb	%al, %al
	je	.L249
	jmp	.L258
.L247:
.LBE76:
.LBE75:
	.loc 1 590 0 discriminator 2
	call	__cxa_bad_typeid@PLT
.L258:
.LBB78:
.LBB77:
	.loc 1 593 0 discriminator 1
	movzbl	_ZZ10IwSafeCastIP13CIwSoundGroupP11CIwResourceET_T0_E21_s_IwAssertIgnoreThis@GOTOFF(%ebx), %eax
	testb	%al, %al
	jne	.L249
	.loc 1 593 0 is_stmt 0 discriminator 3
	movl	$1, %eax
	jmp	.L250
.L249:
	.loc 1 593 0 discriminator 2
	movl	$0, %eax
.L250:
	.loc 1 593 0 discriminator 4
	testb	%al, %al
	je	.L251
	.loc 1 593 0 discriminator 5
	movl	$0, (%esp)
	call	IwDebugAssertSetSolution@PLT
	movl	$0, (%esp)
	call	IwDebugAssertSetUID@PLT
	movl	-20(%ebp), %eax
	movl	%eax, 12(%esp)
	movl	-16(%ebp), %eax
	movl	%eax, 8(%esp)
	movl	8(%ebp), %eax
	movl	%eax, 4(%esp)
	leal	.LC42@GOTOFF(%ebx), %eax
	movl	%eax, (%esp)
	call	IwDebugAssertSetMessage@PLT
	.loc 1 593 0 is_stmt 1 discriminator 5
	movl	$1, 12(%esp)
	movl	$594, 8(%esp)
	leal	.LC43@GOTOFF(%ebx), %eax
	movl	%eax, 4(%esp)
	leal	.LC44@GOTOFF(%ebx), %eax
	movl	%eax, (%esp)
	call	IwDebugAssertShow@PLT
	.loc 1 593 0 discriminator 5
	cmpl	$1, %eax
	je	.L253
	cmpl	$2, %eax
	je	.L254
	.loc 1 593 0 is_stmt 0
	jmp	.L252
.L253:
	.loc 1 593 0 is_stmt 1 discriminator 2
	call	s3eDebugIsDebuggerPresent@PLT
	testb	%al, %al
	setne	%al
	testb	%al, %al
	je	.L255
	.loc 1 593 0 is_stmt 0 discriminator 1
	call	s3eDebugIsDebuggerPresent@PLT
	testb	%al, %al
	setne	%al
	testb	%al, %al
	je	.L256
#APP
# 593 "c:/marmalade/7.5/modules/iwutil/h/IwDebug.h" 1
	 int $3 
# 0 "" 2
#NO_APP
	jmp	.L256
.L255:
	.loc 1 593 0 discriminator 2
	call	_ZL11IwDebugExitv
	jmp	.L252
.L256:
	.loc 1 593 0 discriminator 1
	jmp	.L252
.L254:
	.loc 1 593 0 discriminator 3
	movb	$1, _ZZ10IwSafeCastIP13CIwSoundGroupP11CIwResourceET_T0_E21_s_IwAssertIgnoreThis@GOTOFF(%ebx)
	nop
.L252:
	.loc 1 593 0 discriminator 1
	movl	$0, (%esp)
	call	IwDebugAssertSetUID@PLT
.L251:
.L246:
.LBE77:
.LBE78:
.LBE74:
.LBE73:
	.loc 1 597 0 is_stmt 1
	movl	8(%ebp), %eax
.LBE72:
	.loc 1 598 0
	leal	36(%esp), %esp
	popl	%ebx
	.cfi_restore 3
	popl	%ebp
	.cfi_restore 5
	.cfi_def_cfa 4, 4
	ret
	.cfi_endproc
.LFE1534:
	.size	_Z10IwSafeCastIP13CIwSoundGroupP11CIwResourceET_T0_, .-_Z10IwSafeCastIP13CIwSoundGroupP11CIwResourceET_T0_
	.section	.rodata
	.align 4
.LC45:
	.string	"invalid index (%d) into array of size %u"
	.align 4
.LC46:
	.string	"c:/marmalade/7.5/modules/iwutil/h/IwArray.h"
.LC47:
	.string	"i>=0 && index<num_p"
	.section	.text._ZNK8CIwArrayIs12CIwAllocatorIs15CIwMallocRouterIsEE17ReallocateDefaultIsS3_EEixEi,"axG",@progbits,_ZNK8CIwArrayIs12CIwAllocatorIs15CIwMallocRouterIsEE17ReallocateDefaultIsS3_EEixEi,comdat
	.align 2
	.weak	_ZNK8CIwArrayIs12CIwAllocatorIs15CIwMallocRouterIsEE17ReallocateDefaultIsS3_EEixEi
	.hidden	_ZNK8CIwArrayIs12CIwAllocatorIs15CIwMallocRouterIsEE17ReallocateDefaultIsS3_EEixEi
	.type	_ZNK8CIwArrayIs12CIwAllocatorIs15CIwMallocRouterIsEE17ReallocateDefaultIsS3_EEixEi, @function
_ZNK8CIwArrayIs12CIwAllocatorIs15CIwMallocRouterIsEE17ReallocateDefaultIsS3_EEixEi:
.LFB1535:
	.loc 18 712 0
	.cfi_startproc
	pushl	%ebp
	.cfi_def_cfa_offset 8
	.cfi_offset 5, -8
	movl	%esp, %ebp
	.cfi_def_cfa_register 5
	pushl	%ebx
	leal	-36(%esp), %esp
	.cfi_offset 3, -12
	call	__x86.get_pc_thunk.bx
	addl	$_GLOBAL_OFFSET_TABLE_, %ebx
.LBB79:
	.loc 18 714 0
	movl	12(%ebp), %eax
	movl	%eax, -12(%ebp)
.LBB80:
.LBB81:
	.loc 18 715 0
	cmpl	$0, 12(%ebp)
	js	.L260
	.loc 18 715 0 is_stmt 0 discriminator 2
	movl	8(%ebp), %eax
	movl	4(%eax), %eax
	cmpl	-12(%ebp), %eax
	ja	.L261
.L260:
	.loc 18 715 0 discriminator 1
	leal	.LC41@GOTOFF(%ebx), %eax
	movl	%eax, (%esp)
	call	IwDebugAssertIsChannelOn@PLT
	testb	%al, %al
	je	.L261
	.loc 18 715 0 discriminator 3
	movzbl	_ZZNK8CIwArrayIs12CIwAllocatorIs15CIwMallocRouterIsEE17ReallocateDefaultIsS3_EEixEiE21_s_IwAssertIgnoreThis@GOTOFF(%ebx), %eax
	testb	%al, %al
	jne	.L261
	.loc 18 715 0 discriminator 4
	movl	$1, %eax
	jmp	.L262
.L261:
	.loc 18 715 0 discriminator 1
	movl	$0, %eax
.L262:
	.loc 18 715 0 discriminator 5
	testb	%al, %al
	je	.L263
	.loc 18 715 0 discriminator 6
	movl	$0, (%esp)
	call	IwDebugAssertSetSolution@PLT
	movl	$1731, (%esp)
	call	IwDebugAssertSetUID@PLT
	movl	8(%ebp), %eax
	movl	4(%eax), %eax
	movl	%eax, 8(%esp)
	movl	12(%ebp), %eax
	movl	%eax, 4(%esp)
	leal	.LC45@GOTOFF(%ebx), %eax
	movl	%eax, (%esp)
	call	IwDebugAssertSetMessage@PLT
	movl	$1, 12(%esp)
	movl	$715, 8(%esp)
	leal	.LC46@GOTOFF(%ebx), %eax
	movl	%eax, 4(%esp)
	leal	.LC47@GOTOFF(%ebx), %eax
	movl	%eax, (%esp)
	call	IwDebugAssertShow@PLT
	cmpl	$1, %eax
	je	.L265
	cmpl	$2, %eax
	je	.L266
	.loc 18 715 0
	jmp	.L264
.L265:
	.loc 18 715 0 discriminator 2
	call	s3eDebugIsDebuggerPresent@PLT
	testb	%al, %al
	setne	%al
	testb	%al, %al
	je	.L267
	.loc 18 715 0 discriminator 1
	call	s3eDebugIsDebuggerPresent@PLT
	testb	%al, %al
	setne	%al
	testb	%al, %al
	je	.L268
#APP
# 715 "c:/marmalade/7.5/modules/iwutil/h/IwArray.h" 1
	 int $3 
# 0 "" 2
#NO_APP
	jmp	.L268
.L267:
	.loc 18 715 0 discriminator 2
	call	_ZL11IwDebugExitv
	jmp	.L264
.L268:
	.loc 18 715 0 discriminator 1
	jmp	.L264
.L266:
	.loc 18 715 0 discriminator 3
	movb	$1, _ZZNK8CIwArrayIs12CIwAllocatorIs15CIwMallocRouterIsEE17ReallocateDefaultIsS3_EEixEiE21_s_IwAssertIgnoreThis@GOTOFF(%ebx)
	nop
.L264:
	.loc 18 715 0 discriminator 1
	movl	$0, (%esp)
	call	IwDebugAssertSetUID@PLT
.L263:
.LBE81:
.LBE80:
	.loc 18 716 0 is_stmt 1
	movl	8(%ebp), %eax
	movl	(%eax), %eax
	movl	-12(%ebp), %edx
	addl	%edx, %edx
	addl	%edx, %eax
.LBE79:
	.loc 18 717 0
	leal	36(%esp), %esp
	popl	%ebx
	.cfi_restore 3
	popl	%ebp
	.cfi_restore 5
	.cfi_def_cfa 4, 4
	ret
	.cfi_endproc
.LFE1535:
	.size	_ZNK8CIwArrayIs12CIwAllocatorIs15CIwMallocRouterIsEE17ReallocateDefaultIsS3_EEixEi, .-_ZNK8CIwArrayIs12CIwAllocatorIs15CIwMallocRouterIsEE17ReallocateDefaultIsS3_EEixEi
	.section	.text._ZNK8CIwArrayIa12CIwAllocatorIa15CIwMallocRouterIaEE17ReallocateDefaultIaS3_EEixEi,"axG",@progbits,_ZNK8CIwArrayIa12CIwAllocatorIa15CIwMallocRouterIaEE17ReallocateDefaultIaS3_EEixEi,comdat
	.align 2
	.weak	_ZNK8CIwArrayIa12CIwAllocatorIa15CIwMallocRouterIaEE17ReallocateDefaultIaS3_EEixEi
	.hidden	_ZNK8CIwArrayIa12CIwAllocatorIa15CIwMallocRouterIaEE17ReallocateDefaultIaS3_EEixEi
	.type	_ZNK8CIwArrayIa12CIwAllocatorIa15CIwMallocRouterIaEE17ReallocateDefaultIaS3_EEixEi, @function
_ZNK8CIwArrayIa12CIwAllocatorIa15CIwMallocRouterIaEE17ReallocateDefaultIaS3_EEixEi:
.LFB1536:
	.loc 18 712 0
	.cfi_startproc
	pushl	%ebp
	.cfi_def_cfa_offset 8
	.cfi_offset 5, -8
	movl	%esp, %ebp
	.cfi_def_cfa_register 5
	pushl	%ebx
	leal	-36(%esp), %esp
	.cfi_offset 3, -12
	call	__x86.get_pc_thunk.bx
	addl	$_GLOBAL_OFFSET_TABLE_, %ebx
.LBB82:
	.loc 18 714 0
	movl	12(%ebp), %eax
	movl	%eax, -12(%ebp)
.LBB83:
.LBB84:
	.loc 18 715 0
	cmpl	$0, 12(%ebp)
	js	.L271
	.loc 18 715 0 is_stmt 0 discriminator 2
	movl	8(%ebp), %eax
	movl	4(%eax), %eax
	cmpl	-12(%ebp), %eax
	ja	.L272
.L271:
	.loc 18 715 0 discriminator 1
	leal	.LC41@GOTOFF(%ebx), %eax
	movl	%eax, (%esp)
	call	IwDebugAssertIsChannelOn@PLT
	testb	%al, %al
	je	.L272
	.loc 18 715 0 discriminator 3
	movzbl	_ZZNK8CIwArrayIa12CIwAllocatorIa15CIwMallocRouterIaEE17ReallocateDefaultIaS3_EEixEiE21_s_IwAssertIgnoreThis@GOTOFF(%ebx), %eax
	testb	%al, %al
	jne	.L272
	.loc 18 715 0 discriminator 4
	movl	$1, %eax
	jmp	.L273
.L272:
	.loc 18 715 0 discriminator 1
	movl	$0, %eax
.L273:
	.loc 18 715 0 discriminator 5
	testb	%al, %al
	je	.L274
	.loc 18 715 0 discriminator 6
	movl	$0, (%esp)
	call	IwDebugAssertSetSolution@PLT
	movl	$1731, (%esp)
	call	IwDebugAssertSetUID@PLT
	movl	8(%ebp), %eax
	movl	4(%eax), %eax
	movl	%eax, 8(%esp)
	movl	12(%ebp), %eax
	movl	%eax, 4(%esp)
	leal	.LC45@GOTOFF(%ebx), %eax
	movl	%eax, (%esp)
	call	IwDebugAssertSetMessage@PLT
	movl	$1, 12(%esp)
	movl	$715, 8(%esp)
	leal	.LC46@GOTOFF(%ebx), %eax
	movl	%eax, 4(%esp)
	leal	.LC47@GOTOFF(%ebx), %eax
	movl	%eax, (%esp)
	call	IwDebugAssertShow@PLT
	cmpl	$1, %eax
	je	.L276
	cmpl	$2, %eax
	je	.L277
	.loc 18 715 0
	jmp	.L275
.L276:
	.loc 18 715 0 discriminator 2
	call	s3eDebugIsDebuggerPresent@PLT
	testb	%al, %al
	setne	%al
	testb	%al, %al
	je	.L278
	.loc 18 715 0 discriminator 1
	call	s3eDebugIsDebuggerPresent@PLT
	testb	%al, %al
	setne	%al
	testb	%al, %al
	je	.L279
#APP
# 715 "c:/marmalade/7.5/modules/iwutil/h/IwArray.h" 1
	 int $3 
# 0 "" 2
#NO_APP
	jmp	.L279
.L278:
	.loc 18 715 0 discriminator 2
	call	_ZL11IwDebugExitv
	jmp	.L275
.L279:
	.loc 18 715 0 discriminator 1
	jmp	.L275
.L277:
	.loc 18 715 0 discriminator 3
	movb	$1, _ZZNK8CIwArrayIa12CIwAllocatorIa15CIwMallocRouterIaEE17ReallocateDefaultIaS3_EEixEiE21_s_IwAssertIgnoreThis@GOTOFF(%ebx)
	nop
.L275:
	.loc 18 715 0 discriminator 1
	movl	$0, (%esp)
	call	IwDebugAssertSetUID@PLT
.L274:
.LBE84:
.LBE83:
	.loc 18 716 0 is_stmt 1
	movl	8(%ebp), %eax
	movl	(%eax), %edx
	movl	-12(%ebp), %eax
	addl	%edx, %eax
.LBE82:
	.loc 18 717 0
	leal	36(%esp), %esp
	popl	%ebx
	.cfi_restore 3
	popl	%ebp
	.cfi_restore 5
	.cfi_def_cfa 4, 4
	ret
	.cfi_endproc
.LFE1536:
	.size	_ZNK8CIwArrayIa12CIwAllocatorIa15CIwMallocRouterIaEE17ReallocateDefaultIaS3_EEixEi, .-_ZNK8CIwArrayIa12CIwAllocatorIa15CIwMallocRouterIaEE17ReallocateDefaultIaS3_EEixEi
	.section	.text._ZN8CIwArrayIs12CIwAllocatorIs15CIwMallocRouterIsEE17ReallocateDefaultIsS3_EE15clear_optimisedEv,"axG",@progbits,_ZN8CIwArrayIs12CIwAllocatorIs15CIwMallocRouterIsEE17ReallocateDefaultIsS3_EE15clear_optimisedEv,comdat
	.align 2
	.weak	_ZN8CIwArrayIs12CIwAllocatorIs15CIwMallocRouterIsEE17ReallocateDefaultIsS3_EE15clear_optimisedEv
	.hidden	_ZN8CIwArrayIs12CIwAllocatorIs15CIwMallocRouterIsEE17ReallocateDefaultIsS3_EE15clear_optimisedEv
	.type	_ZN8CIwArrayIs12CIwAllocatorIs15CIwMallocRouterIsEE17ReallocateDefaultIsS3_EE15clear_optimisedEv, @function
_ZN8CIwArrayIs12CIwAllocatorIs15CIwMallocRouterIsEE17ReallocateDefaultIsS3_EE15clear_optimisedEv:
.LFB1562:
	.loc 18 209 0
	.cfi_startproc
	pushl	%ebp
	.cfi_def_cfa_offset 8
	.cfi_offset 5, -8
	movl	%esp, %ebp
	.cfi_def_cfa_register 5
	leal	-24(%esp), %esp
	.loc 18 211 0
	movl	$0, 4(%esp)
	movl	8(%ebp), %eax
	movl	%eax, (%esp)
	call	_ZN8CIwArrayIs12CIwAllocatorIs15CIwMallocRouterIsEE17ReallocateDefaultIsS3_EE8truncateEj
	.loc 18 212 0
	movl	$0, 4(%esp)
	movl	8(%ebp), %eax
	movl	%eax, (%esp)
	call	_ZN8CIwArrayIs12CIwAllocatorIs15CIwMallocRouterIsEE17ReallocateDefaultIsS3_EE12set_capacityEj
	.loc 18 213 0
	leave
	.cfi_restore 5
	.cfi_def_cfa 4, 4
	ret
	.cfi_endproc
.LFE1562:
	.size	_ZN8CIwArrayIs12CIwAllocatorIs15CIwMallocRouterIsEE17ReallocateDefaultIsS3_EE15clear_optimisedEv, .-_ZN8CIwArrayIs12CIwAllocatorIs15CIwMallocRouterIsEE17ReallocateDefaultIsS3_EE15clear_optimisedEv
	.section	.text._ZN8CIwArrayIa12CIwAllocatorIa15CIwMallocRouterIaEE17ReallocateDefaultIaS3_EE15clear_optimisedEv,"axG",@progbits,_ZN8CIwArrayIa12CIwAllocatorIa15CIwMallocRouterIaEE17ReallocateDefaultIaS3_EE15clear_optimisedEv,comdat
	.align 2
	.weak	_ZN8CIwArrayIa12CIwAllocatorIa15CIwMallocRouterIaEE17ReallocateDefaultIaS3_EE15clear_optimisedEv
	.hidden	_ZN8CIwArrayIa12CIwAllocatorIa15CIwMallocRouterIaEE17ReallocateDefaultIaS3_EE15clear_optimisedEv
	.type	_ZN8CIwArrayIa12CIwAllocatorIa15CIwMallocRouterIaEE17ReallocateDefaultIaS3_EE15clear_optimisedEv, @function
_ZN8CIwArrayIa12CIwAllocatorIa15CIwMallocRouterIaEE17ReallocateDefaultIaS3_EE15clear_optimisedEv:
.LFB1563:
	.loc 18 209 0
	.cfi_startproc
	pushl	%ebp
	.cfi_def_cfa_offset 8
	.cfi_offset 5, -8
	movl	%esp, %ebp
	.cfi_def_cfa_register 5
	leal	-24(%esp), %esp
	.loc 18 211 0
	movl	$0, 4(%esp)
	movl	8(%ebp), %eax
	movl	%eax, (%esp)
	call	_ZN8CIwArrayIa12CIwAllocatorIa15CIwMallocRouterIaEE17ReallocateDefaultIaS3_EE8truncateEj
	.loc 18 212 0
	movl	$0, 4(%esp)
	movl	8(%ebp), %eax
	movl	%eax, (%esp)
	call	_ZN8CIwArrayIa12CIwAllocatorIa15CIwMallocRouterIaEE17ReallocateDefaultIaS3_EE12set_capacityEj
	.loc 18 213 0
	leave
	.cfi_restore 5
	.cfi_def_cfa 4, 4
	ret
	.cfi_endproc
.LFE1563:
	.size	_ZN8CIwArrayIa12CIwAllocatorIa15CIwMallocRouterIaEE17ReallocateDefaultIaS3_EE15clear_optimisedEv, .-_ZN8CIwArrayIa12CIwAllocatorIa15CIwMallocRouterIaEE17ReallocateDefaultIaS3_EE15clear_optimisedEv
	.section	.text._ZN8CIwArrayIa12CIwAllocatorIa15CIwMallocRouterIaEE17ReallocateDefaultIaS3_EE6resizeEj,"axG",@progbits,_ZN8CIwArrayIa12CIwAllocatorIa15CIwMallocRouterIaEE17ReallocateDefaultIaS3_EE6resizeEj,comdat
	.align 2
	.weak	_ZN8CIwArrayIa12CIwAllocatorIa15CIwMallocRouterIaEE17ReallocateDefaultIaS3_EE6resizeEj
	.hidden	_ZN8CIwArrayIa12CIwAllocatorIa15CIwMallocRouterIaEE17ReallocateDefaultIaS3_EE6resizeEj
	.type	_ZN8CIwArrayIa12CIwAllocatorIa15CIwMallocRouterIaEE17ReallocateDefaultIaS3_EE6resizeEj, @function
_ZN8CIwArrayIa12CIwAllocatorIa15CIwMallocRouterIaEE17ReallocateDefaultIaS3_EE6resizeEj:
.LFB1566:
	.loc 18 292 0
	.cfi_startproc
	pushl	%ebp
	.cfi_def_cfa_offset 8
	.cfi_offset 5, -8
	leal	(%esp), %ebp
	.cfi_def_cfa_register 5
	leal	-24(%esp), %esp
	.loc 18 294 0
	movl	8(%ebp), %eax
	movl	4(%eax), %eax
	cmpl	12(%ebp), %eax
	jb	.L284
	.loc 18 295 0
	movl	12(%ebp), %eax
	movl	%eax, 4(%esp)
	movl	8(%ebp), %eax
	movl	%eax, (%esp)
	call	_ZN8CIwArrayIa12CIwAllocatorIa15CIwMallocRouterIaEE17ReallocateDefaultIaS3_EE8truncateEj
	jmp	.L283
.L284:
	.loc 18 297 0
	movl	8(%ebp), %eax
	movl	4(%eax), %eax
	movl	12(%ebp), %edx
	subl	%eax, %edx
	movl	%edx, %eax
	movl	%eax, 4(%esp)
	movl	8(%ebp), %eax
	movl	%eax, (%esp)
	call	_ZN8CIwArrayIa12CIwAllocatorIa15CIwMallocRouterIaEE17ReallocateDefaultIaS3_EE13push_back_qtyEi
.L283:
	.loc 18 298 0
	leave
	.cfi_restore 5
	.cfi_def_cfa 4, 4
	ret
	.cfi_endproc
.LFE1566:
	.size	_ZN8CIwArrayIa12CIwAllocatorIa15CIwMallocRouterIaEE17ReallocateDefaultIaS3_EE6resizeEj, .-_ZN8CIwArrayIa12CIwAllocatorIa15CIwMallocRouterIaEE17ReallocateDefaultIaS3_EE6resizeEj
	.section	.text._ZN8CIwArrayIa12CIwAllocatorIa15CIwMallocRouterIaEE17ReallocateDefaultIaS3_EE5clearEv,"axG",@progbits,_ZN8CIwArrayIa12CIwAllocatorIa15CIwMallocRouterIaEE17ReallocateDefaultIaS3_EE5clearEv,comdat
	.align 2
	.weak	_ZN8CIwArrayIa12CIwAllocatorIa15CIwMallocRouterIaEE17ReallocateDefaultIaS3_EE5clearEv
	.hidden	_ZN8CIwArrayIa12CIwAllocatorIa15CIwMallocRouterIaEE17ReallocateDefaultIaS3_EE5clearEv
	.type	_ZN8CIwArrayIa12CIwAllocatorIa15CIwMallocRouterIaEE17ReallocateDefaultIaS3_EE5clearEv, @function
_ZN8CIwArrayIa12CIwAllocatorIa15CIwMallocRouterIaEE17ReallocateDefaultIaS3_EE5clearEv:
.LFB1567:
	.loc 18 199 0
	.cfi_startproc
	pushl	%ebp
	.cfi_def_cfa_offset 8
	.cfi_offset 5, -8
	movl	%esp, %ebp
	.cfi_def_cfa_register 5
	leal	-24(%esp), %esp
	.loc 18 201 0
	movl	$0, 4(%esp)
	movl	8(%ebp), %eax
	movl	%eax, (%esp)
	call	_ZN8CIwArrayIa12CIwAllocatorIa15CIwMallocRouterIaEE17ReallocateDefaultIaS3_EE8truncateEj
	.loc 18 202 0
	leave
	.cfi_restore 5
	.cfi_def_cfa 4, 4
	ret
	.cfi_endproc
.LFE1567:
	.size	_ZN8CIwArrayIa12CIwAllocatorIa15CIwMallocRouterIaEE17ReallocateDefaultIaS3_EE5clearEv, .-_ZN8CIwArrayIa12CIwAllocatorIa15CIwMallocRouterIaEE17ReallocateDefaultIaS3_EE5clearEv
	.section	.text._ZN12CIwAllocatorIa15CIwMallocRouterIaEE10deallocateEPaj,"axG",@progbits,_ZN12CIwAllocatorIa15CIwMallocRouterIaEE10deallocateEPaj,comdat
	.align 2
	.weak	_ZN12CIwAllocatorIa15CIwMallocRouterIaEE10deallocateEPaj
	.hidden	_ZN12CIwAllocatorIa15CIwMallocRouterIaEE10deallocateEPaj
	.type	_ZN12CIwAllocatorIa15CIwMallocRouterIaEE10deallocateEPaj, @function
_ZN12CIwAllocatorIa15CIwMallocRouterIaEE10deallocateEPaj:
.LFB1568:
	.file 19 "c:/marmalade/7.5/modules/iwutil/h/IwAllocator.h"
	.loc 19 147 0
	.cfi_startproc
	pushl	%ebp
	.cfi_def_cfa_offset 8
	.cfi_offset 5, -8
	leal	(%esp), %ebp
	.cfi_def_cfa_register 5
	leal	-24(%esp), %esp
	.loc 19 147 0
	movl	12(%ebp), %eax
	movl	%eax, (%esp)
	call	_ZN15CIwMallocRouterIaE6DoFreeEPv
	leave
	.cfi_restore 5
	.cfi_def_cfa 4, 4
	ret
	.cfi_endproc
.LFE1568:
	.size	_ZN12CIwAllocatorIa15CIwMallocRouterIaEE10deallocateEPaj, .-_ZN12CIwAllocatorIa15CIwMallocRouterIaEE10deallocateEPaj
	.section	.text._ZN8CIwArrayIs12CIwAllocatorIs15CIwMallocRouterIsEE17ReallocateDefaultIsS3_EE6resizeEj,"axG",@progbits,_ZN8CIwArrayIs12CIwAllocatorIs15CIwMallocRouterIsEE17ReallocateDefaultIsS3_EE6resizeEj,comdat
	.align 2
	.weak	_ZN8CIwArrayIs12CIwAllocatorIs15CIwMallocRouterIsEE17ReallocateDefaultIsS3_EE6resizeEj
	.hidden	_ZN8CIwArrayIs12CIwAllocatorIs15CIwMallocRouterIsEE17ReallocateDefaultIsS3_EE6resizeEj
	.type	_ZN8CIwArrayIs12CIwAllocatorIs15CIwMallocRouterIsEE17ReallocateDefaultIsS3_EE6resizeEj, @function
_ZN8CIwArrayIs12CIwAllocatorIs15CIwMallocRouterIsEE17ReallocateDefaultIsS3_EE6resizeEj:
.LFB1569:
	.loc 18 292 0
	.cfi_startproc
	pushl	%ebp
	.cfi_def_cfa_offset 8
	.cfi_offset 5, -8
	leal	(%esp), %ebp
	.cfi_def_cfa_register 5
	leal	-24(%esp), %esp
	.loc 18 294 0
	movl	8(%ebp), %eax
	movl	4(%eax), %eax
	cmpl	12(%ebp), %eax
	jb	.L289
	.loc 18 295 0
	movl	12(%ebp), %eax
	movl	%eax, 4(%esp)
	movl	8(%ebp), %eax
	movl	%eax, (%esp)
	call	_ZN8CIwArrayIs12CIwAllocatorIs15CIwMallocRouterIsEE17ReallocateDefaultIsS3_EE8truncateEj
	jmp	.L288
.L289:
	.loc 18 297 0
	movl	8(%ebp), %eax
	movl	4(%eax), %eax
	movl	12(%ebp), %edx
	subl	%eax, %edx
	movl	%edx, %eax
	movl	%eax, 4(%esp)
	movl	8(%ebp), %eax
	movl	%eax, (%esp)
	call	_ZN8CIwArrayIs12CIwAllocatorIs15CIwMallocRouterIsEE17ReallocateDefaultIsS3_EE13push_back_qtyEi
.L288:
	.loc 18 298 0
	leave
	.cfi_restore 5
	.cfi_def_cfa 4, 4
	ret
	.cfi_endproc
.LFE1569:
	.size	_ZN8CIwArrayIs12CIwAllocatorIs15CIwMallocRouterIsEE17ReallocateDefaultIsS3_EE6resizeEj, .-_ZN8CIwArrayIs12CIwAllocatorIs15CIwMallocRouterIsEE17ReallocateDefaultIsS3_EE6resizeEj
	.section	.text._ZN8CIwArrayIs12CIwAllocatorIs15CIwMallocRouterIsEE17ReallocateDefaultIsS3_EE5clearEv,"axG",@progbits,_ZN8CIwArrayIs12CIwAllocatorIs15CIwMallocRouterIsEE17ReallocateDefaultIsS3_EE5clearEv,comdat
	.align 2
	.weak	_ZN8CIwArrayIs12CIwAllocatorIs15CIwMallocRouterIsEE17ReallocateDefaultIsS3_EE5clearEv
	.hidden	_ZN8CIwArrayIs12CIwAllocatorIs15CIwMallocRouterIsEE17ReallocateDefaultIsS3_EE5clearEv
	.type	_ZN8CIwArrayIs12CIwAllocatorIs15CIwMallocRouterIsEE17ReallocateDefaultIsS3_EE5clearEv, @function
_ZN8CIwArrayIs12CIwAllocatorIs15CIwMallocRouterIsEE17ReallocateDefaultIsS3_EE5clearEv:
.LFB1570:
	.loc 18 199 0
	.cfi_startproc
	pushl	%ebp
	.cfi_def_cfa_offset 8
	.cfi_offset 5, -8
	movl	%esp, %ebp
	.cfi_def_cfa_register 5
	leal	-24(%esp), %esp
	.loc 18 201 0
	movl	$0, 4(%esp)
	movl	8(%ebp), %eax
	movl	%eax, (%esp)
	call	_ZN8CIwArrayIs12CIwAllocatorIs15CIwMallocRouterIsEE17ReallocateDefaultIsS3_EE8truncateEj
	.loc 18 202 0
	leave
	.cfi_restore 5
	.cfi_def_cfa 4, 4
	ret
	.cfi_endproc
.LFE1570:
	.size	_ZN8CIwArrayIs12CIwAllocatorIs15CIwMallocRouterIsEE17ReallocateDefaultIsS3_EE5clearEv, .-_ZN8CIwArrayIs12CIwAllocatorIs15CIwMallocRouterIsEE17ReallocateDefaultIsS3_EE5clearEv
	.section	.text._ZN12CIwAllocatorIs15CIwMallocRouterIsEE10deallocateEPsj,"axG",@progbits,_ZN12CIwAllocatorIs15CIwMallocRouterIsEE10deallocateEPsj,comdat
	.align 2
	.weak	_ZN12CIwAllocatorIs15CIwMallocRouterIsEE10deallocateEPsj
	.hidden	_ZN12CIwAllocatorIs15CIwMallocRouterIsEE10deallocateEPsj
	.type	_ZN12CIwAllocatorIs15CIwMallocRouterIsEE10deallocateEPsj, @function
_ZN12CIwAllocatorIs15CIwMallocRouterIsEE10deallocateEPsj:
.LFB1571:
	.loc 19 147 0
	.cfi_startproc
	pushl	%ebp
	.cfi_def_cfa_offset 8
	.cfi_offset 5, -8
	leal	(%esp), %ebp
	.cfi_def_cfa_register 5
	leal	-24(%esp), %esp
	.loc 19 147 0
	movl	12(%ebp), %eax
	movl	%eax, (%esp)
	call	_ZN15CIwMallocRouterIsE6DoFreeEPv
	leave
	.cfi_restore 5
	.cfi_def_cfa 4, 4
	ret
	.cfi_endproc
.LFE1571:
	.size	_ZN12CIwAllocatorIs15CIwMallocRouterIsEE10deallocateEPsj, .-_ZN12CIwAllocatorIs15CIwMallocRouterIsEE10deallocateEPsj
	.section	.rodata
.LC48:
	.string	"q<=num_p"
	.section	.text._ZN8CIwArrayIs12CIwAllocatorIs15CIwMallocRouterIsEE17ReallocateDefaultIsS3_EE8truncateEj,"axG",@progbits,_ZN8CIwArrayIs12CIwAllocatorIs15CIwMallocRouterIsEE17ReallocateDefaultIsS3_EE8truncateEj,comdat
	.align 2
	.weak	_ZN8CIwArrayIs12CIwAllocatorIs15CIwMallocRouterIsEE17ReallocateDefaultIsS3_EE8truncateEj
	.hidden	_ZN8CIwArrayIs12CIwAllocatorIs15CIwMallocRouterIsEE17ReallocateDefaultIsS3_EE8truncateEj
	.type	_ZN8CIwArrayIs12CIwAllocatorIs15CIwMallocRouterIsEE17ReallocateDefaultIsS3_EE8truncateEj, @function
_ZN8CIwArrayIs12CIwAllocatorIs15CIwMallocRouterIsEE17ReallocateDefaultIsS3_EE8truncateEj:
.LFB1582:
	.loc 18 783 0
	.cfi_startproc
	pushl	%ebp
	.cfi_def_cfa_offset 8
	.cfi_offset 5, -8
	movl	%esp, %ebp
	.cfi_def_cfa_register 5
	pushl	%ebx
	leal	-36(%esp), %esp
	.cfi_offset 3, -12
	call	__x86.get_pc_thunk.bx
	addl	$_GLOBAL_OFFSET_TABLE_, %ebx
.LBB85:
.LBB86:
.LBB87:
	.loc 18 785 0
	movl	8(%ebp), %eax
	movl	4(%eax), %eax
	cmpl	12(%ebp), %eax
	jae	.L294
	.loc 18 785 0 is_stmt 0 discriminator 1
	leal	.LC41@GOTOFF(%ebx), %eax
	movl	%eax, (%esp)
	call	IwDebugAssertIsChannelOn@PLT
	testb	%al, %al
	je	.L294
	.loc 18 785 0 discriminator 3
	movzbl	_ZZN8CIwArrayIs12CIwAllocatorIs15CIwMallocRouterIsEE17ReallocateDefaultIsS3_EE8truncateEjE21_s_IwAssertIgnoreThis@GOTOFF(%ebx), %eax
	testb	%al, %al
	jne	.L294
	.loc 18 785 0 discriminator 4
	movl	$1, %eax
	jmp	.L295
.L294:
	.loc 18 785 0 discriminator 2
	movl	$0, %eax
.L295:
	.loc 18 785 0 discriminator 5
	testb	%al, %al
	je	.L296
	.loc 18 785 0 discriminator 6
	movl	$0, (%esp)
	call	IwDebugAssertSetSolution@PLT
	movl	$0, (%esp)
	call	IwDebugAssertSetUID@PLT
	movl	$0, (%esp)
	call	IwDebugAssertSetMessage@PLT
	movl	$1, 12(%esp)
	movl	$785, 8(%esp)
	leal	.LC46@GOTOFF(%ebx), %eax
	movl	%eax, 4(%esp)
	leal	.LC48@GOTOFF(%ebx), %eax
	movl	%eax, (%esp)
	call	IwDebugAssertShow@PLT
	cmpl	$1, %eax
	je	.L298
	cmpl	$2, %eax
	je	.L299
	.loc 18 785 0
	jmp	.L297
.L298:
	.loc 18 785 0 discriminator 2
	call	s3eDebugIsDebuggerPresent@PLT
	testb	%al, %al
	setne	%al
	testb	%al, %al
	je	.L300
	.loc 18 785 0 discriminator 1
	call	s3eDebugIsDebuggerPresent@PLT
	testb	%al, %al
	setne	%al
	testb	%al, %al
	je	.L301
#APP
# 785 "c:/marmalade/7.5/modules/iwutil/h/IwArray.h" 1
	 int $3 
# 0 "" 2
#NO_APP
	jmp	.L301
.L300:
	.loc 18 785 0 discriminator 2
	call	_ZL11IwDebugExitv
	jmp	.L297
.L301:
	.loc 18 785 0 discriminator 1
	jmp	.L297
.L299:
	.loc 18 785 0 discriminator 3
	movb	$1, _ZZN8CIwArrayIs12CIwAllocatorIs15CIwMallocRouterIsEE17ReallocateDefaultIsS3_EE8truncateEjE21_s_IwAssertIgnoreThis@GOTOFF(%ebx)
	nop
.L297:
	.loc 18 785 0 discriminator 1
	movl	$0, (%esp)
	call	IwDebugAssertSetUID@PLT
.L296:
.LBE87:
.LBE86:
.LBB88:
	.loc 18 787 0 is_stmt 1
	movl	12(%ebp), %eax
	movl	%eax, -12(%ebp)
	jmp	.L302
.L303:
	.loc 18 787 0 is_stmt 0 discriminator 2
	addl	$1, -12(%ebp)
.L302:
	.loc 18 787 0 discriminator 1
	movl	8(%ebp), %eax
	movl	4(%eax), %eax
	cmpl	-12(%ebp), %eax
	ja	.L303
.LBE88:
	.loc 18 789 0 is_stmt 1
	movl	8(%ebp), %eax
	movl	12(%ebp), %edx
	movl	%edx, 4(%eax)
.LBE85:
	.loc 18 790 0
	leal	36(%esp), %esp
	popl	%ebx
	.cfi_restore 3
	popl	%ebp
	.cfi_restore 5
	.cfi_def_cfa 4, 4
	ret
	.cfi_endproc
.LFE1582:
	.size	_ZN8CIwArrayIs12CIwAllocatorIs15CIwMallocRouterIsEE17ReallocateDefaultIsS3_EE8truncateEj, .-_ZN8CIwArrayIs12CIwAllocatorIs15CIwMallocRouterIsEE17ReallocateDefaultIsS3_EE8truncateEj
	.section	.rodata
	.align 4
.LC49:
	.string	"Attempting to change capacity of an array that doesn't own its data allocation."
.LC50:
	.string	"!block_delete"
	.align 4
.LC51:
	.string	"Attempting to expand an array that has its size locked."
.LC52:
	.string	"!no_grow || q <= max_p"
.LC53:
	.string	"q>=num_p"
	.section	.text._ZN8CIwArrayIs12CIwAllocatorIs15CIwMallocRouterIsEE17ReallocateDefaultIsS3_EE12set_capacityEj,"axG",@progbits,_ZN8CIwArrayIs12CIwAllocatorIs15CIwMallocRouterIsEE17ReallocateDefaultIsS3_EE12set_capacityEj,comdat
	.align 2
	.weak	_ZN8CIwArrayIs12CIwAllocatorIs15CIwMallocRouterIsEE17ReallocateDefaultIsS3_EE12set_capacityEj
	.hidden	_ZN8CIwArrayIs12CIwAllocatorIs15CIwMallocRouterIsEE17ReallocateDefaultIsS3_EE12set_capacityEj
	.type	_ZN8CIwArrayIs12CIwAllocatorIs15CIwMallocRouterIsEE17ReallocateDefaultIsS3_EE12set_capacityEj, @function
_ZN8CIwArrayIs12CIwAllocatorIs15CIwMallocRouterIsEE17ReallocateDefaultIsS3_EE12set_capacityEj:
.LFB1583:
	.loc 18 822 0
	.cfi_startproc
	pushl	%ebp
	.cfi_def_cfa_offset 8
	.cfi_offset 5, -8
	movl	%esp, %ebp
	.cfi_def_cfa_register 5
	pushl	%esi
	pushl	%ebx
	leal	-32(%esp), %esp
	.cfi_offset 6, -12
	.cfi_offset 3, -16
	call	__x86.get_pc_thunk.bx
	addl	$_GLOBAL_OFFSET_TABLE_, %ebx
.LBB89:
.LBB90:
	.loc 18 824 0
	movl	8(%ebp), %eax
	movzbl	12(%eax), %eax
	andl	$1, %eax
	testb	%al, %al
	je	.L305
	.loc 18 824 0 is_stmt 0 discriminator 1
	leal	.LC41@GOTOFF(%ebx), %eax
	movl	%eax, (%esp)
	call	IwDebugAssertIsChannelOn@PLT
	testb	%al, %al
	je	.L306
	movzbl	_ZZN8CIwArrayIs12CIwAllocatorIs15CIwMallocRouterIsEE17ReallocateDefaultIsS3_EE12set_capacityEjE21_s_IwAssertIgnoreThis@GOTOFF(%ebx), %eax
	testb	%al, %al
	jne	.L306
	.loc 18 824 0 discriminator 3
	movl	$1, %eax
	jmp	.L307
.L306:
	.loc 18 824 0 discriminator 2
	movl	$0, %eax
.L307:
	.loc 18 824 0 discriminator 4
	testb	%al, %al
	je	.L308
	.loc 18 824 0 discriminator 5
	movl	$1733, (%esp)
	call	IwDebugAssertSetUID@PLT
	leal	.LC49@GOTOFF(%ebx), %eax
	movl	%eax, (%esp)
	call	IwDebugAssertSetMessage@PLT
	movl	$1, 12(%esp)
	movl	$824, 8(%esp)
	leal	.LC46@GOTOFF(%ebx), %eax
	movl	%eax, 4(%esp)
	leal	.LC50@GOTOFF(%ebx), %eax
	movl	%eax, (%esp)
	call	IwDebugAssertShow@PLT
	cmpl	$1, %eax
	je	.L310
	cmpl	$2, %eax
	je	.L311
	.loc 18 824 0
	jmp	.L309
.L310:
	.loc 18 824 0 discriminator 2
	call	s3eDebugIsDebuggerPresent@PLT
	testb	%al, %al
	setne	%al
	testb	%al, %al
	je	.L312
	.loc 18 824 0 discriminator 1
	call	s3eDebugIsDebuggerPresent@PLT
	testb	%al, %al
	setne	%al
	testb	%al, %al
	je	.L313
#APP
# 824 "c:/marmalade/7.5/modules/iwutil/h/IwArray.h" 1
	 int $3 
# 0 "" 2
#NO_APP
	jmp	.L313
.L312:
	.loc 18 824 0 discriminator 2
	call	_ZL11IwDebugExitv
	jmp	.L309
.L313:
	.loc 18 824 0 discriminator 1
	jmp	.L309
.L311:
	.loc 18 824 0 discriminator 3
	movb	$1, _ZZN8CIwArrayIs12CIwAllocatorIs15CIwMallocRouterIsEE17ReallocateDefaultIsS3_EE12set_capacityEjE21_s_IwAssertIgnoreThis@GOTOFF(%ebx)
	nop
.L309:
	.loc 18 824 0 discriminator 1
	movl	$0, (%esp)
	call	IwDebugAssertSetUID@PLT
.L308:
	.loc 18 824 0 discriminator 6
	jmp	.L304
.L305:
.LBE90:
.LBB91:
.LBB92:
	.loc 18 825 0 is_stmt 1
	movl	8(%ebp), %eax
	movzbl	12(%eax), %eax
	shrb	%al
	andl	$1, %eax
	testb	%al, %al
	je	.L315
	.loc 18 825 0 is_stmt 0 discriminator 1
	movl	8(%ebp), %eax
	movl	8(%eax), %eax
	cmpl	12(%ebp), %eax
	jae	.L315
	leal	.LC41@GOTOFF(%ebx), %eax
	movl	%eax, (%esp)
	call	IwDebugAssertIsChannelOn@PLT
	testb	%al, %al
	je	.L315
	.loc 18 825 0 discriminator 3
	movzbl	_ZZN8CIwArrayIs12CIwAllocatorIs15CIwMallocRouterIsEE17ReallocateDefaultIsS3_EE12set_capacityEjE21_s_IwAssertIgnoreThis_0@GOTOFF(%ebx), %eax
	testb	%al, %al
	jne	.L315
	.loc 18 825 0 discriminator 4
	movl	$1, %eax
	jmp	.L316
.L315:
	.loc 18 825 0 discriminator 2
	movl	$0, %eax
.L316:
	.loc 18 825 0 discriminator 5
	testb	%al, %al
	je	.L317
	.loc 18 825 0 discriminator 6
	movl	$0, (%esp)
	call	IwDebugAssertSetSolution@PLT
	movl	$1732, (%esp)
	call	IwDebugAssertSetUID@PLT
	leal	.LC51@GOTOFF(%ebx), %eax
	movl	%eax, (%esp)
	call	IwDebugAssertSetMessage@PLT
	movl	$1, 12(%esp)
	movl	$825, 8(%esp)
	leal	.LC46@GOTOFF(%ebx), %eax
	movl	%eax, 4(%esp)
	leal	.LC52@GOTOFF(%ebx), %eax
	movl	%eax, (%esp)
	call	IwDebugAssertShow@PLT
	cmpl	$1, %eax
	je	.L319
	cmpl	$2, %eax
	je	.L320
	.loc 18 825 0
	jmp	.L318
.L319:
	.loc 18 825 0 discriminator 2
	call	s3eDebugIsDebuggerPresent@PLT
	testb	%al, %al
	setne	%al
	testb	%al, %al
	je	.L321
	.loc 18 825 0 discriminator 1
	call	s3eDebugIsDebuggerPresent@PLT
	testb	%al, %al
	setne	%al
	testb	%al, %al
	je	.L322
#APP
# 825 "c:/marmalade/7.5/modules/iwutil/h/IwArray.h" 1
	 int $3 
# 0 "" 2
#NO_APP
	jmp	.L322
.L321:
	.loc 18 825 0 discriminator 2
	call	_ZL11IwDebugExitv
	jmp	.L318
.L322:
	.loc 18 825 0 discriminator 1
	jmp	.L318
.L320:
	.loc 18 825 0 discriminator 3
	movb	$1, _ZZN8CIwArrayIs12CIwAllocatorIs15CIwMallocRouterIsEE17ReallocateDefaultIsS3_EE12set_capacityEjE21_s_IwAssertIgnoreThis_0@GOTOFF(%ebx)
	nop
.L318:
	.loc 18 825 0 discriminator 1
	movl	$0, (%esp)
	call	IwDebugAssertSetUID@PLT
.L317:
.LBE92:
.LBE91:
.LBB93:
.LBB94:
	.loc 18 826 0 is_stmt 1
	movl	8(%ebp), %eax
	movl	4(%eax), %eax
	cmpl	12(%ebp), %eax
	jbe	.L323
	.loc 18 826 0 is_stmt 0 discriminator 1
	leal	.LC41@GOTOFF(%ebx), %eax
	movl	%eax, (%esp)
	call	IwDebugAssertIsChannelOn@PLT
	testb	%al, %al
	je	.L323
	.loc 18 826 0 discriminator 3
	movzbl	_ZZN8CIwArrayIs12CIwAllocatorIs15CIwMallocRouterIsEE17ReallocateDefaultIsS3_EE12set_capacityEjE21_s_IwAssertIgnoreThis_1@GOTOFF(%ebx), %eax
	testb	%al, %al
	jne	.L323
	.loc 18 826 0 discriminator 4
	movl	$1, %eax
	jmp	.L324
.L323:
	.loc 18 826 0 discriminator 2
	movl	$0, %eax
.L324:
	.loc 18 826 0 discriminator 5
	testb	%al, %al
	je	.L325
	.loc 18 826 0 discriminator 6
	movl	$0, (%esp)
	call	IwDebugAssertSetSolution@PLT
	movl	$0, (%esp)
	call	IwDebugAssertSetUID@PLT
	movl	$0, (%esp)
	call	IwDebugAssertSetMessage@PLT
	movl	$1, 12(%esp)
	movl	$826, 8(%esp)
	leal	.LC46@GOTOFF(%ebx), %eax
	movl	%eax, 4(%esp)
	leal	.LC53@GOTOFF(%ebx), %eax
	movl	%eax, (%esp)
	call	IwDebugAssertShow@PLT
	cmpl	$1, %eax
	je	.L327
	cmpl	$2, %eax
	je	.L328
	.loc 18 826 0
	jmp	.L326
.L327:
	.loc 18 826 0 discriminator 2
	call	s3eDebugIsDebuggerPresent@PLT
	testb	%al, %al
	setne	%al
	testb	%al, %al
	je	.L329
	.loc 18 826 0 discriminator 1
	call	s3eDebugIsDebuggerPresent@PLT
	testb	%al, %al
	setne	%al
	testb	%al, %al
	je	.L330
#APP
# 826 "c:/marmalade/7.5/modules/iwutil/h/IwArray.h" 1
	 int $3 
# 0 "" 2
#NO_APP
	jmp	.L330
.L329:
	.loc 18 826 0 discriminator 2
	call	_ZL11IwDebugExitv
	jmp	.L326
.L330:
	.loc 18 826 0 discriminator 1
	jmp	.L326
.L328:
	.loc 18 826 0 discriminator 3
	movb	$1, _ZZN8CIwArrayIs12CIwAllocatorIs15CIwMallocRouterIsEE17ReallocateDefaultIsS3_EE12set_capacityEjE21_s_IwAssertIgnoreThis_1@GOTOFF(%ebx)
	nop
.L326:
	.loc 18 826 0 discriminator 1
	movl	$0, (%esp)
	call	IwDebugAssertSetUID@PLT
.L325:
.LBE94:
.LBE93:
	.loc 18 827 0 is_stmt 1
	movl	8(%ebp), %eax
	movl	8(%eax), %eax
	cmpl	12(%ebp), %eax
	jne	.L331
	.loc 18 827 0 is_stmt 0 discriminator 1
	jmp	.L304
.L331:
	.loc 18 828 0 is_stmt 1
	movl	8(%ebp), %eax
	movl	12(%ebp), %edx
	movl	%edx, 8(%eax)
	.loc 18 829 0
	cmpl	$0, 12(%ebp)
	jne	.L332
	.loc 18 831 0
	movl	8(%ebp), %eax
	movl	8(%eax), %edx
	movl	8(%ebp), %eax
	movl	(%eax), %eax
	movl	8(%ebp), %ecx
	addl	$13, %ecx
	movl	%edx, 8(%esp)
	movl	%eax, 4(%esp)
	movl	%ecx, (%esp)
	call	_ZN12CIwAllocatorIs15CIwMallocRouterIsEE10deallocateEPsj
	.loc 18 832 0
	movl	8(%ebp), %eax
	movl	$0, (%eax)
	jmp	.L304
.L332:
	.loc 18 836 0
	movl	8(%ebp), %eax
	movl	%eax, %esi
	addl	$13, %esi
	movl	8(%ebp), %eax
	movl	(%eax), %ecx
	movl	8(%ebp), %eax
	movl	8(%eax), %edx
	movl	8(%ebp), %eax
	movl	4(%eax), %eax
	movl	%esi, 16(%esp)
	movl	%ecx, 12(%esp)
	movl	%edx, 8(%esp)
	movl	%eax, 4(%esp)
	movl	12(%ebp), %eax
	movl	%eax, (%esp)
	call	_ZN17ReallocateDefaultIs12CIwAllocatorIs15CIwMallocRouterIsEEE10ReallocateEjjjPsRS3_
	movl	8(%ebp), %edx
	movl	%eax, (%edx)
.L304:
.LBE89:
	.loc 18 838 0
	leal	32(%esp), %esp
	popl	%ebx
	.cfi_restore 3
	popl	%esi
	.cfi_restore 6
	popl	%ebp
	.cfi_restore 5
	.cfi_def_cfa 4, 4
	ret
	.cfi_endproc
.LFE1583:
	.size	_ZN8CIwArrayIs12CIwAllocatorIs15CIwMallocRouterIsEE17ReallocateDefaultIsS3_EE12set_capacityEj, .-_ZN8CIwArrayIs12CIwAllocatorIs15CIwMallocRouterIsEE17ReallocateDefaultIsS3_EE12set_capacityEj
	.section	.text._ZN8CIwArrayIa12CIwAllocatorIa15CIwMallocRouterIaEE17ReallocateDefaultIaS3_EE8truncateEj,"axG",@progbits,_ZN8CIwArrayIa12CIwAllocatorIa15CIwMallocRouterIaEE17ReallocateDefaultIaS3_EE8truncateEj,comdat
	.align 2
	.weak	_ZN8CIwArrayIa12CIwAllocatorIa15CIwMallocRouterIaEE17ReallocateDefaultIaS3_EE8truncateEj
	.hidden	_ZN8CIwArrayIa12CIwAllocatorIa15CIwMallocRouterIaEE17ReallocateDefaultIaS3_EE8truncateEj
	.type	_ZN8CIwArrayIa12CIwAllocatorIa15CIwMallocRouterIaEE17ReallocateDefaultIaS3_EE8truncateEj, @function
_ZN8CIwArrayIa12CIwAllocatorIa15CIwMallocRouterIaEE17ReallocateDefaultIaS3_EE8truncateEj:
.LFB1584:
	.loc 18 783 0
	.cfi_startproc
	pushl	%ebp
	.cfi_def_cfa_offset 8
	.cfi_offset 5, -8
	movl	%esp, %ebp
	.cfi_def_cfa_register 5
	pushl	%ebx
	leal	-36(%esp), %esp
	.cfi_offset 3, -12
	call	__x86.get_pc_thunk.bx
	addl	$_GLOBAL_OFFSET_TABLE_, %ebx
.LBB95:
.LBB96:
.LBB97:
	.loc 18 785 0
	movl	8(%ebp), %eax
	movl	4(%eax), %eax
	cmpl	12(%ebp), %eax
	jae	.L334
	.loc 18 785 0 is_stmt 0 discriminator 1
	leal	.LC41@GOTOFF(%ebx), %eax
	movl	%eax, (%esp)
	call	IwDebugAssertIsChannelOn@PLT
	testb	%al, %al
	je	.L334
	.loc 18 785 0 discriminator 3
	movzbl	_ZZN8CIwArrayIa12CIwAllocatorIa15CIwMallocRouterIaEE17ReallocateDefaultIaS3_EE8truncateEjE21_s_IwAssertIgnoreThis@GOTOFF(%ebx), %eax
	testb	%al, %al
	jne	.L334
	.loc 18 785 0 discriminator 4
	movl	$1, %eax
	jmp	.L335
.L334:
	.loc 18 785 0 discriminator 2
	movl	$0, %eax
.L335:
	.loc 18 785 0 discriminator 5
	testb	%al, %al
	je	.L336
	.loc 18 785 0 discriminator 6
	movl	$0, (%esp)
	call	IwDebugAssertSetSolution@PLT
	movl	$0, (%esp)
	call	IwDebugAssertSetUID@PLT
	movl	$0, (%esp)
	call	IwDebugAssertSetMessage@PLT
	movl	$1, 12(%esp)
	movl	$785, 8(%esp)
	leal	.LC46@GOTOFF(%ebx), %eax
	movl	%eax, 4(%esp)
	leal	.LC48@GOTOFF(%ebx), %eax
	movl	%eax, (%esp)
	call	IwDebugAssertShow@PLT
	cmpl	$1, %eax
	je	.L338
	cmpl	$2, %eax
	je	.L339
	.loc 18 785 0
	jmp	.L337
.L338:
	.loc 18 785 0 discriminator 2
	call	s3eDebugIsDebuggerPresent@PLT
	testb	%al, %al
	setne	%al
	testb	%al, %al
	je	.L340
	.loc 18 785 0 discriminator 1
	call	s3eDebugIsDebuggerPresent@PLT
	testb	%al, %al
	setne	%al
	testb	%al, %al
	je	.L341
#APP
# 785 "c:/marmalade/7.5/modules/iwutil/h/IwArray.h" 1
	 int $3 
# 0 "" 2
#NO_APP
	jmp	.L341
.L340:
	.loc 18 785 0 discriminator 2
	call	_ZL11IwDebugExitv
	jmp	.L337
.L341:
	.loc 18 785 0 discriminator 1
	jmp	.L337
.L339:
	.loc 18 785 0 discriminator 3
	movb	$1, _ZZN8CIwArrayIa12CIwAllocatorIa15CIwMallocRouterIaEE17ReallocateDefaultIaS3_EE8truncateEjE21_s_IwAssertIgnoreThis@GOTOFF(%ebx)
	nop
.L337:
	.loc 18 785 0 discriminator 1
	movl	$0, (%esp)
	call	IwDebugAssertSetUID@PLT
.L336:
.LBE97:
.LBE96:
.LBB98:
	.loc 18 787 0 is_stmt 1
	movl	12(%ebp), %eax
	movl	%eax, -12(%ebp)
	jmp	.L342
.L343:
	.loc 18 787 0 is_stmt 0 discriminator 2
	addl	$1, -12(%ebp)
.L342:
	.loc 18 787 0 discriminator 1
	movl	8(%ebp), %eax
	movl	4(%eax), %eax
	cmpl	-12(%ebp), %eax
	ja	.L343
.LBE98:
	.loc 18 789 0 is_stmt 1
	movl	8(%ebp), %eax
	movl	12(%ebp), %edx
	movl	%edx, 4(%eax)
.LBE95:
	.loc 18 790 0
	leal	36(%esp), %esp
	popl	%ebx
	.cfi_restore 3
	popl	%ebp
	.cfi_restore 5
	.cfi_def_cfa 4, 4
	ret
	.cfi_endproc
.LFE1584:
	.size	_ZN8CIwArrayIa12CIwAllocatorIa15CIwMallocRouterIaEE17ReallocateDefaultIaS3_EE8truncateEj, .-_ZN8CIwArrayIa12CIwAllocatorIa15CIwMallocRouterIaEE17ReallocateDefaultIaS3_EE8truncateEj
	.section	.text._ZN8CIwArrayIa12CIwAllocatorIa15CIwMallocRouterIaEE17ReallocateDefaultIaS3_EE12set_capacityEj,"axG",@progbits,_ZN8CIwArrayIa12CIwAllocatorIa15CIwMallocRouterIaEE17ReallocateDefaultIaS3_EE12set_capacityEj,comdat
	.align 2
	.weak	_ZN8CIwArrayIa12CIwAllocatorIa15CIwMallocRouterIaEE17ReallocateDefaultIaS3_EE12set_capacityEj
	.hidden	_ZN8CIwArrayIa12CIwAllocatorIa15CIwMallocRouterIaEE17ReallocateDefaultIaS3_EE12set_capacityEj
	.type	_ZN8CIwArrayIa12CIwAllocatorIa15CIwMallocRouterIaEE17ReallocateDefaultIaS3_EE12set_capacityEj, @function
_ZN8CIwArrayIa12CIwAllocatorIa15CIwMallocRouterIaEE17ReallocateDefaultIaS3_EE12set_capacityEj:
.LFB1585:
	.loc 18 822 0
	.cfi_startproc
	pushl	%ebp
	.cfi_def_cfa_offset 8
	.cfi_offset 5, -8
	movl	%esp, %ebp
	.cfi_def_cfa_register 5
	pushl	%esi
	pushl	%ebx
	leal	-32(%esp), %esp
	.cfi_offset 6, -12
	.cfi_offset 3, -16
	call	__x86.get_pc_thunk.bx
	addl	$_GLOBAL_OFFSET_TABLE_, %ebx
.LBB99:
.LBB100:
	.loc 18 824 0
	movl	8(%ebp), %eax
	movzbl	12(%eax), %eax
	andl	$1, %eax
	testb	%al, %al
	je	.L345
	.loc 18 824 0 is_stmt 0 discriminator 1
	leal	.LC41@GOTOFF(%ebx), %eax
	movl	%eax, (%esp)
	call	IwDebugAssertIsChannelOn@PLT
	testb	%al, %al
	je	.L346
	movzbl	_ZZN8CIwArrayIa12CIwAllocatorIa15CIwMallocRouterIaEE17ReallocateDefaultIaS3_EE12set_capacityEjE21_s_IwAssertIgnoreThis@GOTOFF(%ebx), %eax
	testb	%al, %al
	jne	.L346
	.loc 18 824 0 discriminator 3
	movl	$1, %eax
	jmp	.L347
.L346:
	.loc 18 824 0 discriminator 2
	movl	$0, %eax
.L347:
	.loc 18 824 0 discriminator 4
	testb	%al, %al
	je	.L348
	.loc 18 824 0 discriminator 5
	movl	$1733, (%esp)
	call	IwDebugAssertSetUID@PLT
	leal	.LC49@GOTOFF(%ebx), %eax
	movl	%eax, (%esp)
	call	IwDebugAssertSetMessage@PLT
	movl	$1, 12(%esp)
	movl	$824, 8(%esp)
	leal	.LC46@GOTOFF(%ebx), %eax
	movl	%eax, 4(%esp)
	leal	.LC50@GOTOFF(%ebx), %eax
	movl	%eax, (%esp)
	call	IwDebugAssertShow@PLT
	cmpl	$1, %eax
	je	.L350
	cmpl	$2, %eax
	je	.L351
	.loc 18 824 0
	jmp	.L349
.L350:
	.loc 18 824 0 discriminator 2
	call	s3eDebugIsDebuggerPresent@PLT
	testb	%al, %al
	setne	%al
	testb	%al, %al
	je	.L352
	.loc 18 824 0 discriminator 1
	call	s3eDebugIsDebuggerPresent@PLT
	testb	%al, %al
	setne	%al
	testb	%al, %al
	je	.L353
#APP
# 824 "c:/marmalade/7.5/modules/iwutil/h/IwArray.h" 1
	 int $3 
# 0 "" 2
#NO_APP
	jmp	.L353
.L352:
	.loc 18 824 0 discriminator 2
	call	_ZL11IwDebugExitv
	jmp	.L349
.L353:
	.loc 18 824 0 discriminator 1
	jmp	.L349
.L351:
	.loc 18 824 0 discriminator 3
	movb	$1, _ZZN8CIwArrayIa12CIwAllocatorIa15CIwMallocRouterIaEE17ReallocateDefaultIaS3_EE12set_capacityEjE21_s_IwAssertIgnoreThis@GOTOFF(%ebx)
	nop
.L349:
	.loc 18 824 0 discriminator 1
	movl	$0, (%esp)
	call	IwDebugAssertSetUID@PLT
.L348:
	.loc 18 824 0 discriminator 6
	jmp	.L344
.L345:
.LBE100:
.LBB101:
.LBB102:
	.loc 18 825 0 is_stmt 1
	movl	8(%ebp), %eax
	movzbl	12(%eax), %eax
	shrb	%al
	andl	$1, %eax
	testb	%al, %al
	je	.L355
	.loc 18 825 0 is_stmt 0 discriminator 1
	movl	8(%ebp), %eax
	movl	8(%eax), %eax
	cmpl	12(%ebp), %eax
	jae	.L355
	leal	.LC41@GOTOFF(%ebx), %eax
	movl	%eax, (%esp)
	call	IwDebugAssertIsChannelOn@PLT
	testb	%al, %al
	je	.L355
	.loc 18 825 0 discriminator 3
	movzbl	_ZZN8CIwArrayIa12CIwAllocatorIa15CIwMallocRouterIaEE17ReallocateDefaultIaS3_EE12set_capacityEjE21_s_IwAssertIgnoreThis_0@GOTOFF(%ebx), %eax
	testb	%al, %al
	jne	.L355
	.loc 18 825 0 discriminator 4
	movl	$1, %eax
	jmp	.L356
.L355:
	.loc 18 825 0 discriminator 2
	movl	$0, %eax
.L356:
	.loc 18 825 0 discriminator 5
	testb	%al, %al
	je	.L357
	.loc 18 825 0 discriminator 6
	movl	$0, (%esp)
	call	IwDebugAssertSetSolution@PLT
	movl	$1732, (%esp)
	call	IwDebugAssertSetUID@PLT
	leal	.LC51@GOTOFF(%ebx), %eax
	movl	%eax, (%esp)
	call	IwDebugAssertSetMessage@PLT
	movl	$1, 12(%esp)
	movl	$825, 8(%esp)
	leal	.LC46@GOTOFF(%ebx), %eax
	movl	%eax, 4(%esp)
	leal	.LC52@GOTOFF(%ebx), %eax
	movl	%eax, (%esp)
	call	IwDebugAssertShow@PLT
	cmpl	$1, %eax
	je	.L359
	cmpl	$2, %eax
	je	.L360
	.loc 18 825 0
	jmp	.L358
.L359:
	.loc 18 825 0 discriminator 2
	call	s3eDebugIsDebuggerPresent@PLT
	testb	%al, %al
	setne	%al
	testb	%al, %al
	je	.L361
	.loc 18 825 0 discriminator 1
	call	s3eDebugIsDebuggerPresent@PLT
	testb	%al, %al
	setne	%al
	testb	%al, %al
	je	.L362
#APP
# 825 "c:/marmalade/7.5/modules/iwutil/h/IwArray.h" 1
	 int $3 
# 0 "" 2
#NO_APP
	jmp	.L362
.L361:
	.loc 18 825 0 discriminator 2
	call	_ZL11IwDebugExitv
	jmp	.L358
.L362:
	.loc 18 825 0 discriminator 1
	jmp	.L358
.L360:
	.loc 18 825 0 discriminator 3
	movb	$1, _ZZN8CIwArrayIa12CIwAllocatorIa15CIwMallocRouterIaEE17ReallocateDefaultIaS3_EE12set_capacityEjE21_s_IwAssertIgnoreThis_0@GOTOFF(%ebx)
	nop
.L358:
	.loc 18 825 0 discriminator 1
	movl	$0, (%esp)
	call	IwDebugAssertSetUID@PLT
.L357:
.LBE102:
.LBE101:
.LBB103:
.LBB104:
	.loc 18 826 0 is_stmt 1
	movl	8(%ebp), %eax
	movl	4(%eax), %eax
	cmpl	12(%ebp), %eax
	jbe	.L363
	.loc 18 826 0 is_stmt 0 discriminator 1
	leal	.LC41@GOTOFF(%ebx), %eax
	movl	%eax, (%esp)
	call	IwDebugAssertIsChannelOn@PLT
	testb	%al, %al
	je	.L363
	.loc 18 826 0 discriminator 3
	movzbl	_ZZN8CIwArrayIa12CIwAllocatorIa15CIwMallocRouterIaEE17ReallocateDefaultIaS3_EE12set_capacityEjE21_s_IwAssertIgnoreThis_1@GOTOFF(%ebx), %eax
	testb	%al, %al
	jne	.L363
	.loc 18 826 0 discriminator 4
	movl	$1, %eax
	jmp	.L364
.L363:
	.loc 18 826 0 discriminator 2
	movl	$0, %eax
.L364:
	.loc 18 826 0 discriminator 5
	testb	%al, %al
	je	.L365
	.loc 18 826 0 discriminator 6
	movl	$0, (%esp)
	call	IwDebugAssertSetSolution@PLT
	movl	$0, (%esp)
	call	IwDebugAssertSetUID@PLT
	movl	$0, (%esp)
	call	IwDebugAssertSetMessage@PLT
	movl	$1, 12(%esp)
	movl	$826, 8(%esp)
	leal	.LC46@GOTOFF(%ebx), %eax
	movl	%eax, 4(%esp)
	leal	.LC53@GOTOFF(%ebx), %eax
	movl	%eax, (%esp)
	call	IwDebugAssertShow@PLT
	cmpl	$1, %eax
	je	.L367
	cmpl	$2, %eax
	je	.L368
	.loc 18 826 0
	jmp	.L366
.L367:
	.loc 18 826 0 discriminator 2
	call	s3eDebugIsDebuggerPresent@PLT
	testb	%al, %al
	setne	%al
	testb	%al, %al
	je	.L369
	.loc 18 826 0 discriminator 1
	call	s3eDebugIsDebuggerPresent@PLT
	testb	%al, %al
	setne	%al
	testb	%al, %al
	je	.L370
#APP
# 826 "c:/marmalade/7.5/modules/iwutil/h/IwArray.h" 1
	 int $3 
# 0 "" 2
#NO_APP
	jmp	.L370
.L369:
	.loc 18 826 0 discriminator 2
	call	_ZL11IwDebugExitv
	jmp	.L366
.L370:
	.loc 18 826 0 discriminator 1
	jmp	.L366
.L368:
	.loc 18 826 0 discriminator 3
	movb	$1, _ZZN8CIwArrayIa12CIwAllocatorIa15CIwMallocRouterIaEE17ReallocateDefaultIaS3_EE12set_capacityEjE21_s_IwAssertIgnoreThis_1@GOTOFF(%ebx)
	nop
.L366:
	.loc 18 826 0 discriminator 1
	movl	$0, (%esp)
	call	IwDebugAssertSetUID@PLT
.L365:
.LBE104:
.LBE103:
	.loc 18 827 0 is_stmt 1
	movl	8(%ebp), %eax
	movl	8(%eax), %eax
	cmpl	12(%ebp), %eax
	jne	.L371
	.loc 18 827 0 is_stmt 0 discriminator 1
	jmp	.L344
.L371:
	.loc 18 828 0 is_stmt 1
	movl	8(%ebp), %eax
	movl	12(%ebp), %edx
	movl	%edx, 8(%eax)
	.loc 18 829 0
	cmpl	$0, 12(%ebp)
	jne	.L372
	.loc 18 831 0
	movl	8(%ebp), %eax
	movl	8(%eax), %edx
	movl	8(%ebp), %eax
	movl	(%eax), %eax
	movl	8(%ebp), %ecx
	addl	$13, %ecx
	movl	%edx, 8(%esp)
	movl	%eax, 4(%esp)
	movl	%ecx, (%esp)
	call	_ZN12CIwAllocatorIa15CIwMallocRouterIaEE10deallocateEPaj
	.loc 18 832 0
	movl	8(%ebp), %eax
	movl	$0, (%eax)
	jmp	.L344
.L372:
	.loc 18 836 0
	movl	8(%ebp), %eax
	movl	%eax, %esi
	addl	$13, %esi
	movl	8(%ebp), %eax
	movl	(%eax), %ecx
	movl	8(%ebp), %eax
	movl	8(%eax), %edx
	movl	8(%ebp), %eax
	movl	4(%eax), %eax
	movl	%esi, 16(%esp)
	movl	%ecx, 12(%esp)
	movl	%edx, 8(%esp)
	movl	%eax, 4(%esp)
	movl	12(%ebp), %eax
	movl	%eax, (%esp)
	call	_ZN17ReallocateDefaultIa12CIwAllocatorIa15CIwMallocRouterIaEEE10ReallocateEjjjPaRS3_
	movl	8(%ebp), %edx
	movl	%eax, (%edx)
.L344:
.LBE99:
	.loc 18 838 0
	leal	32(%esp), %esp
	popl	%ebx
	.cfi_restore 3
	popl	%esi
	.cfi_restore 6
	popl	%ebp
	.cfi_restore 5
	.cfi_def_cfa 4, 4
	ret
	.cfi_endproc
.LFE1585:
	.size	_ZN8CIwArrayIa12CIwAllocatorIa15CIwMallocRouterIaEE17ReallocateDefaultIaS3_EE12set_capacityEj, .-_ZN8CIwArrayIa12CIwAllocatorIa15CIwMallocRouterIaEE17ReallocateDefaultIaS3_EE12set_capacityEj
	.section	.rodata
.LC54:
	.string	"qty>=0"
	.section	.text._ZN8CIwArrayIa12CIwAllocatorIa15CIwMallocRouterIaEE17ReallocateDefaultIaS3_EE13push_back_qtyEi,"axG",@progbits,_ZN8CIwArrayIa12CIwAllocatorIa15CIwMallocRouterIaEE17ReallocateDefaultIaS3_EE13push_back_qtyEi,comdat
	.align 2
	.weak	_ZN8CIwArrayIa12CIwAllocatorIa15CIwMallocRouterIaEE17ReallocateDefaultIaS3_EE13push_back_qtyEi
	.hidden	_ZN8CIwArrayIa12CIwAllocatorIa15CIwMallocRouterIaEE17ReallocateDefaultIaS3_EE13push_back_qtyEi
	.type	_ZN8CIwArrayIa12CIwAllocatorIa15CIwMallocRouterIaEE17ReallocateDefaultIaS3_EE13push_back_qtyEi, @function
_ZN8CIwArrayIa12CIwAllocatorIa15CIwMallocRouterIaEE17ReallocateDefaultIaS3_EE13push_back_qtyEi:
.LFB1587:
	.loc 18 697 0
	.cfi_startproc
	pushl	%ebp
	.cfi_def_cfa_offset 8
	.cfi_offset 5, -8
	movl	%esp, %ebp
	.cfi_def_cfa_register 5
	pushl	%ebx
	leal	-36(%esp), %esp
	.cfi_offset 3, -12
	call	__x86.get_pc_thunk.bx
	addl	$_GLOBAL_OFFSET_TABLE_, %ebx
.LBB105:
.LBB106:
.LBB107:
	.loc 18 699 0
	cmpl	$0, 12(%ebp)
	jns	.L374
	.loc 18 699 0 is_stmt 0 discriminator 1
	leal	.LC41@GOTOFF(%ebx), %eax
	movl	%eax, (%esp)
	call	IwDebugAssertIsChannelOn@PLT
	testb	%al, %al
	je	.L374
	.loc 18 699 0 discriminator 3
	movzbl	_ZZN8CIwArrayIa12CIwAllocatorIa15CIwMallocRouterIaEE17ReallocateDefaultIaS3_EE13push_back_qtyEiE21_s_IwAssertIgnoreThis@GOTOFF(%ebx), %eax
	testb	%al, %al
	jne	.L374
	.loc 18 699 0 discriminator 4
	movl	$1, %eax
	jmp	.L375
.L374:
	.loc 18 699 0 discriminator 2
	movl	$0, %eax
.L375:
	.loc 18 699 0 discriminator 5
	testb	%al, %al
	je	.L376
	.loc 18 699 0 discriminator 6
	movl	$0, (%esp)
	call	IwDebugAssertSetSolution@PLT
	movl	$0, (%esp)
	call	IwDebugAssertSetUID@PLT
	movl	$0, (%esp)
	call	IwDebugAssertSetMessage@PLT
	movl	$1, 12(%esp)
	movl	$699, 8(%esp)
	leal	.LC46@GOTOFF(%ebx), %eax
	movl	%eax, 4(%esp)
	leal	.LC54@GOTOFF(%ebx), %eax
	movl	%eax, (%esp)
	call	IwDebugAssertShow@PLT
	cmpl	$1, %eax
	je	.L378
	cmpl	$2, %eax
	je	.L379
	.loc 18 699 0
	jmp	.L377
.L378:
	.loc 18 699 0 discriminator 2
	call	s3eDebugIsDebuggerPresent@PLT
	testb	%al, %al
	setne	%al
	testb	%al, %al
	je	.L380
	.loc 18 699 0 discriminator 1
	call	s3eDebugIsDebuggerPresent@PLT
	testb	%al, %al
	setne	%al
	testb	%al, %al
	je	.L381
#APP
# 699 "c:/marmalade/7.5/modules/iwutil/h/IwArray.h" 1
	 int $3 
# 0 "" 2
#NO_APP
	jmp	.L381
.L380:
	.loc 18 699 0 discriminator 2
	call	_ZL11IwDebugExitv
	jmp	.L377
.L381:
	.loc 18 699 0 discriminator 1
	jmp	.L377
.L379:
	.loc 18 699 0 discriminator 3
	movb	$1, _ZZN8CIwArrayIa12CIwAllocatorIa15CIwMallocRouterIaEE17ReallocateDefaultIaS3_EE13push_back_qtyEiE21_s_IwAssertIgnoreThis@GOTOFF(%ebx)
	nop
.L377:
	.loc 18 699 0 discriminator 1
	movl	$0, (%esp)
	call	IwDebugAssertSetUID@PLT
.L376:
.LBE107:
.LBE106:
	.loc 18 700 0 is_stmt 1
	movl	8(%ebp), %eax
	movl	4(%eax), %edx
	movl	12(%ebp), %eax
	addl	%edx, %eax
	movl	%eax, 4(%esp)
	movl	8(%ebp), %eax
	movl	%eax, (%esp)
	call	_ZN8CIwArrayIa12CIwAllocatorIa15CIwMallocRouterIaEE17ReallocateDefaultIaS3_EE7reserveEj
.LBB108:
	.loc 18 701 0
	movl	$0, -12(%ebp)
	jmp	.L382
.L383:
	.loc 18 702 0 discriminator 2
	movl	8(%ebp), %eax
	movl	(%eax), %edx
	movl	8(%ebp), %eax
	movl	4(%eax), %ecx
	movl	-12(%ebp), %eax
	addl	%ecx, %eax
	addl	%edx, %eax
	movl	%eax, 4(%esp)
	movl	$1, (%esp)
	call	_ZnwjPv
	.loc 18 701 0 discriminator 2
	addl	$1, -12(%ebp)
.L382:
	.loc 18 701 0 is_stmt 0 discriminator 1
	movl	-12(%ebp), %eax
	cmpl	12(%ebp), %eax
	jl	.L383
.LBE108:
	.loc 18 703 0 is_stmt 1
	movl	8(%ebp), %eax
	movl	4(%eax), %edx
	movl	12(%ebp), %eax
	addl	%eax, %edx
	movl	8(%ebp), %eax
	movl	%edx, 4(%eax)
.LBE105:
	.loc 18 704 0
	leal	36(%esp), %esp
	popl	%ebx
	.cfi_restore 3
	popl	%ebp
	.cfi_restore 5
	.cfi_def_cfa 4, 4
	ret
	.cfi_endproc
.LFE1587:
	.size	_ZN8CIwArrayIa12CIwAllocatorIa15CIwMallocRouterIaEE17ReallocateDefaultIaS3_EE13push_back_qtyEi, .-_ZN8CIwArrayIa12CIwAllocatorIa15CIwMallocRouterIaEE17ReallocateDefaultIaS3_EE13push_back_qtyEi
	.section	.text._ZN15CIwMallocRouterIaE6DoFreeEPv,"axG",@progbits,_ZN15CIwMallocRouterIaE6DoFreeEPv,comdat
	.weak	_ZN15CIwMallocRouterIaE6DoFreeEPv
	.hidden	_ZN15CIwMallocRouterIaE6DoFreeEPv
	.type	_ZN15CIwMallocRouterIaE6DoFreeEPv, @function
_ZN15CIwMallocRouterIaE6DoFreeEPv:
.LFB1588:
	.loc 19 93 0
	.cfi_startproc
	pushl	%ebp
	.cfi_def_cfa_offset 8
	.cfi_offset 5, -8
	movl	%esp, %ebp
	.cfi_def_cfa_register 5
	pushl	%ebx
	leal	-20(%esp), %esp
	.cfi_offset 3, -12
	call	__x86.get_pc_thunk.bx
	addl	$_GLOBAL_OFFSET_TABLE_, %ebx
	.loc 19 95 0
	movl	$1, 4(%esp)
	movl	8(%ebp), %eax
	movl	%eax, (%esp)
	call	_ZN22CIwDefaultMallocRouter8BaseFreeEPvj@PLT
	.loc 19 96 0
	leal	20(%esp), %esp
	popl	%ebx
	.cfi_restore 3
	popl	%ebp
	.cfi_restore 5
	.cfi_def_cfa 4, 4
	ret
	.cfi_endproc
.LFE1588:
	.size	_ZN15CIwMallocRouterIaE6DoFreeEPv, .-_ZN15CIwMallocRouterIaE6DoFreeEPv
	.section	.text._ZN8CIwArrayIs12CIwAllocatorIs15CIwMallocRouterIsEE17ReallocateDefaultIsS3_EE13push_back_qtyEi,"axG",@progbits,_ZN8CIwArrayIs12CIwAllocatorIs15CIwMallocRouterIsEE17ReallocateDefaultIsS3_EE13push_back_qtyEi,comdat
	.align 2
	.weak	_ZN8CIwArrayIs12CIwAllocatorIs15CIwMallocRouterIsEE17ReallocateDefaultIsS3_EE13push_back_qtyEi
	.hidden	_ZN8CIwArrayIs12CIwAllocatorIs15CIwMallocRouterIsEE17ReallocateDefaultIsS3_EE13push_back_qtyEi
	.type	_ZN8CIwArrayIs12CIwAllocatorIs15CIwMallocRouterIsEE17ReallocateDefaultIsS3_EE13push_back_qtyEi, @function
_ZN8CIwArrayIs12CIwAllocatorIs15CIwMallocRouterIsEE17ReallocateDefaultIsS3_EE13push_back_qtyEi:
.LFB1589:
	.loc 18 697 0
	.cfi_startproc
	pushl	%ebp
	.cfi_def_cfa_offset 8
	.cfi_offset 5, -8
	movl	%esp, %ebp
	.cfi_def_cfa_register 5
	pushl	%ebx
	leal	-36(%esp), %esp
	.cfi_offset 3, -12
	call	__x86.get_pc_thunk.bx
	addl	$_GLOBAL_OFFSET_TABLE_, %ebx
.LBB109:
.LBB110:
.LBB111:
	.loc 18 699 0
	cmpl	$0, 12(%ebp)
	jns	.L386
	.loc 18 699 0 is_stmt 0 discriminator 1
	leal	.LC41@GOTOFF(%ebx), %eax
	movl	%eax, (%esp)
	call	IwDebugAssertIsChannelOn@PLT
	testb	%al, %al
	je	.L386
	.loc 18 699 0 discriminator 3
	movzbl	_ZZN8CIwArrayIs12CIwAllocatorIs15CIwMallocRouterIsEE17ReallocateDefaultIsS3_EE13push_back_qtyEiE21_s_IwAssertIgnoreThis@GOTOFF(%ebx), %eax
	testb	%al, %al
	jne	.L386
	.loc 18 699 0 discriminator 4
	movl	$1, %eax
	jmp	.L387
.L386:
	.loc 18 699 0 discriminator 2
	movl	$0, %eax
.L387:
	.loc 18 699 0 discriminator 5
	testb	%al, %al
	je	.L388
	.loc 18 699 0 discriminator 6
	movl	$0, (%esp)
	call	IwDebugAssertSetSolution@PLT
	movl	$0, (%esp)
	call	IwDebugAssertSetUID@PLT
	movl	$0, (%esp)
	call	IwDebugAssertSetMessage@PLT
	movl	$1, 12(%esp)
	movl	$699, 8(%esp)
	leal	.LC46@GOTOFF(%ebx), %eax
	movl	%eax, 4(%esp)
	leal	.LC54@GOTOFF(%ebx), %eax
	movl	%eax, (%esp)
	call	IwDebugAssertShow@PLT
	cmpl	$1, %eax
	je	.L390
	cmpl	$2, %eax
	je	.L391
	.loc 18 699 0
	jmp	.L389
.L390:
	.loc 18 699 0 discriminator 2
	call	s3eDebugIsDebuggerPresent@PLT
	testb	%al, %al
	setne	%al
	testb	%al, %al
	je	.L392
	.loc 18 699 0 discriminator 1
	call	s3eDebugIsDebuggerPresent@PLT
	testb	%al, %al
	setne	%al
	testb	%al, %al
	je	.L393
#APP
# 699 "c:/marmalade/7.5/modules/iwutil/h/IwArray.h" 1
	 int $3 
# 0 "" 2
#NO_APP
	jmp	.L393
.L392:
	.loc 18 699 0 discriminator 2
	call	_ZL11IwDebugExitv
	jmp	.L389
.L393:
	.loc 18 699 0 discriminator 1
	jmp	.L389
.L391:
	.loc 18 699 0 discriminator 3
	movb	$1, _ZZN8CIwArrayIs12CIwAllocatorIs15CIwMallocRouterIsEE17ReallocateDefaultIsS3_EE13push_back_qtyEiE21_s_IwAssertIgnoreThis@GOTOFF(%ebx)
	nop
.L389:
	.loc 18 699 0 discriminator 1
	movl	$0, (%esp)
	call	IwDebugAssertSetUID@PLT
.L388:
.LBE111:
.LBE110:
	.loc 18 700 0 is_stmt 1
	movl	8(%ebp), %eax
	movl	4(%eax), %edx
	movl	12(%ebp), %eax
	addl	%edx, %eax
	movl	%eax, 4(%esp)
	movl	8(%ebp), %eax
	movl	%eax, (%esp)
	call	_ZN8CIwArrayIs12CIwAllocatorIs15CIwMallocRouterIsEE17ReallocateDefaultIsS3_EE7reserveEj
.LBB112:
	.loc 18 701 0
	movl	$0, -12(%ebp)
	jmp	.L394
.L395:
	.loc 18 702 0 discriminator 2
	movl	8(%ebp), %eax
	movl	(%eax), %edx
	movl	8(%ebp), %eax
	movl	4(%eax), %ecx
	movl	-12(%ebp), %eax
	addl	%ecx, %eax
	addl	%eax, %eax
	addl	%edx, %eax
	movl	%eax, 4(%esp)
	movl	$2, (%esp)
	call	_ZnwjPv
	.loc 18 701 0 discriminator 2
	addl	$1, -12(%ebp)
.L394:
	.loc 18 701 0 is_stmt 0 discriminator 1
	movl	-12(%ebp), %eax
	cmpl	12(%ebp), %eax
	jl	.L395
.LBE112:
	.loc 18 703 0 is_stmt 1
	movl	8(%ebp), %eax
	movl	4(%eax), %edx
	movl	12(%ebp), %eax
	addl	%eax, %edx
	movl	8(%ebp), %eax
	movl	%edx, 4(%eax)
.LBE109:
	.loc 18 704 0
	leal	36(%esp), %esp
	popl	%ebx
	.cfi_restore 3
	popl	%ebp
	.cfi_restore 5
	.cfi_def_cfa 4, 4
	ret
	.cfi_endproc
.LFE1589:
	.size	_ZN8CIwArrayIs12CIwAllocatorIs15CIwMallocRouterIsEE17ReallocateDefaultIsS3_EE13push_back_qtyEi, .-_ZN8CIwArrayIs12CIwAllocatorIs15CIwMallocRouterIsEE17ReallocateDefaultIsS3_EE13push_back_qtyEi
	.section	.text._ZN15CIwMallocRouterIsE6DoFreeEPv,"axG",@progbits,_ZN15CIwMallocRouterIsE6DoFreeEPv,comdat
	.weak	_ZN15CIwMallocRouterIsE6DoFreeEPv
	.hidden	_ZN15CIwMallocRouterIsE6DoFreeEPv
	.type	_ZN15CIwMallocRouterIsE6DoFreeEPv, @function
_ZN15CIwMallocRouterIsE6DoFreeEPv:
.LFB1590:
	.loc 19 93 0
	.cfi_startproc
	pushl	%ebp
	.cfi_def_cfa_offset 8
	.cfi_offset 5, -8
	movl	%esp, %ebp
	.cfi_def_cfa_register 5
	pushl	%ebx
	leal	-20(%esp), %esp
	.cfi_offset 3, -12
	call	__x86.get_pc_thunk.bx
	addl	$_GLOBAL_OFFSET_TABLE_, %ebx
	.loc 19 95 0
	movl	$2, 4(%esp)
	movl	8(%ebp), %eax
	movl	%eax, (%esp)
	call	_ZN22CIwDefaultMallocRouter8BaseFreeEPvj@PLT
	.loc 19 96 0
	leal	20(%esp), %esp
	popl	%ebx
	.cfi_restore 3
	popl	%ebp
	.cfi_restore 5
	.cfi_def_cfa 4, 4
	ret
	.cfi_endproc
.LFE1590:
	.size	_ZN15CIwMallocRouterIsE6DoFreeEPv, .-_ZN15CIwMallocRouterIsE6DoFreeEPv
	.section	.text._ZN17ReallocateDefaultIs12CIwAllocatorIs15CIwMallocRouterIsEEE10ReallocateEjjjPsRS3_,"axG",@progbits,_ZN17ReallocateDefaultIs12CIwAllocatorIs15CIwMallocRouterIsEEE10ReallocateEjjjPsRS3_,comdat
	.weak	_ZN17ReallocateDefaultIs12CIwAllocatorIs15CIwMallocRouterIsEEE10ReallocateEjjjPsRS3_
	.hidden	_ZN17ReallocateDefaultIs12CIwAllocatorIs15CIwMallocRouterIsEEE10ReallocateEjjjPsRS3_
	.type	_ZN17ReallocateDefaultIs12CIwAllocatorIs15CIwMallocRouterIsEEE10ReallocateEjjjPsRS3_, @function
_ZN17ReallocateDefaultIs12CIwAllocatorIs15CIwMallocRouterIsEEE10ReallocateEjjjPsRS3_:
.LFB1594:
	.loc 18 52 0
	.cfi_startproc
	pushl	%ebp
	.cfi_def_cfa_offset 8
	.cfi_offset 5, -8
	leal	(%esp), %ebp
	.cfi_def_cfa_register 5
	leal	-24(%esp), %esp
	.loc 18 54 0
	movl	8(%ebp), %eax
	addl	%eax, %eax
	movl	%eax, 8(%esp)
	movl	20(%ebp), %eax
	movl	%eax, 4(%esp)
	movl	24(%ebp), %eax
	movl	%eax, (%esp)
	call	_ZN12CIwAllocatorIs15CIwMallocRouterIsEE10reallocateEPsj
	.loc 18 55 0
	leave
	.cfi_restore 5
	.cfi_def_cfa 4, 4
	ret
	.cfi_endproc
.LFE1594:
	.size	_ZN17ReallocateDefaultIs12CIwAllocatorIs15CIwMallocRouterIsEEE10ReallocateEjjjPsRS3_, .-_ZN17ReallocateDefaultIs12CIwAllocatorIs15CIwMallocRouterIsEEE10ReallocateEjjjPsRS3_
	.section	.text._ZN17ReallocateDefaultIa12CIwAllocatorIa15CIwMallocRouterIaEEE10ReallocateEjjjPaRS3_,"axG",@progbits,_ZN17ReallocateDefaultIa12CIwAllocatorIa15CIwMallocRouterIaEEE10ReallocateEjjjPaRS3_,comdat
	.weak	_ZN17ReallocateDefaultIa12CIwAllocatorIa15CIwMallocRouterIaEEE10ReallocateEjjjPaRS3_
	.hidden	_ZN17ReallocateDefaultIa12CIwAllocatorIa15CIwMallocRouterIaEEE10ReallocateEjjjPaRS3_
	.type	_ZN17ReallocateDefaultIa12CIwAllocatorIa15CIwMallocRouterIaEEE10ReallocateEjjjPaRS3_, @function
_ZN17ReallocateDefaultIa12CIwAllocatorIa15CIwMallocRouterIaEEE10ReallocateEjjjPaRS3_:
.LFB1595:
	.loc 18 52 0
	.cfi_startproc
	pushl	%ebp
	.cfi_def_cfa_offset 8
	.cfi_offset 5, -8
	leal	(%esp), %ebp
	.cfi_def_cfa_register 5
	leal	-24(%esp), %esp
	.loc 18 54 0
	movl	8(%ebp), %eax
	movl	%eax, 8(%esp)
	movl	20(%ebp), %eax
	movl	%eax, 4(%esp)
	movl	24(%ebp), %eax
	movl	%eax, (%esp)
	call	_ZN12CIwAllocatorIa15CIwMallocRouterIaEE10reallocateEPaj
	.loc 18 55 0
	leave
	.cfi_restore 5
	.cfi_def_cfa 4, 4
	ret
	.cfi_endproc
.LFE1595:
	.size	_ZN17ReallocateDefaultIa12CIwAllocatorIa15CIwMallocRouterIaEEE10ReallocateEjjjPaRS3_, .-_ZN17ReallocateDefaultIa12CIwAllocatorIa15CIwMallocRouterIaEEE10ReallocateEjjjPaRS3_
	.section	.text._ZN8CIwArrayIa12CIwAllocatorIa15CIwMallocRouterIaEE17ReallocateDefaultIaS3_EE7reserveEj,"axG",@progbits,_ZN8CIwArrayIa12CIwAllocatorIa15CIwMallocRouterIaEE17ReallocateDefaultIaS3_EE7reserveEj,comdat
	.align 2
	.weak	_ZN8CIwArrayIa12CIwAllocatorIa15CIwMallocRouterIaEE17ReallocateDefaultIaS3_EE7reserveEj
	.hidden	_ZN8CIwArrayIa12CIwAllocatorIa15CIwMallocRouterIaEE17ReallocateDefaultIaS3_EE7reserveEj
	.type	_ZN8CIwArrayIa12CIwAllocatorIa15CIwMallocRouterIaEE17ReallocateDefaultIaS3_EE7reserveEj, @function
_ZN8CIwArrayIa12CIwAllocatorIa15CIwMallocRouterIaEE17ReallocateDefaultIaS3_EE7reserveEj:
.LFB1598:
	.loc 18 253 0
	.cfi_startproc
	pushl	%ebp
	.cfi_def_cfa_offset 8
	.cfi_offset 5, -8
	leal	(%esp), %ebp
	.cfi_def_cfa_register 5
	leal	-24(%esp), %esp
	.loc 18 255 0
	movl	8(%ebp), %eax
	movl	8(%eax), %eax
	cmpl	12(%ebp), %eax
	jae	.L401
	.loc 18 257 0
	movl	8(%ebp), %eax
	movl	8(%eax), %eax
	cmpl	$15, %eax
	jbe	.L403
	.loc 18 257 0 is_stmt 0 discriminator 1
	movl	8(%ebp), %eax
	movl	8(%eax), %eax
	shrl	$3, %eax
	jmp	.L404
.L403:
	.loc 18 257 0 discriminator 2
	movl	$2, %eax
.L404:
	.loc 18 257 0 discriminator 1
	movl	12(%ebp), %edx
	addl	%edx, %eax
	movl	%eax, 4(%esp)
	movl	8(%ebp), %eax
	movl	%eax, (%esp)
	call	_ZN8CIwArrayIa12CIwAllocatorIa15CIwMallocRouterIaEE17ReallocateDefaultIaS3_EE12set_capacityEj
.L401:
	.loc 18 259 0 is_stmt 1
	leave
	.cfi_restore 5
	.cfi_def_cfa 4, 4
	ret
	.cfi_endproc
.LFE1598:
	.size	_ZN8CIwArrayIa12CIwAllocatorIa15CIwMallocRouterIaEE17ReallocateDefaultIaS3_EE7reserveEj, .-_ZN8CIwArrayIa12CIwAllocatorIa15CIwMallocRouterIaEE17ReallocateDefaultIaS3_EE7reserveEj
	.section	.text._ZN8CIwArrayIs12CIwAllocatorIs15CIwMallocRouterIsEE17ReallocateDefaultIsS3_EE7reserveEj,"axG",@progbits,_ZN8CIwArrayIs12CIwAllocatorIs15CIwMallocRouterIsEE17ReallocateDefaultIsS3_EE7reserveEj,comdat
	.align 2
	.weak	_ZN8CIwArrayIs12CIwAllocatorIs15CIwMallocRouterIsEE17ReallocateDefaultIsS3_EE7reserveEj
	.hidden	_ZN8CIwArrayIs12CIwAllocatorIs15CIwMallocRouterIsEE17ReallocateDefaultIsS3_EE7reserveEj
	.type	_ZN8CIwArrayIs12CIwAllocatorIs15CIwMallocRouterIsEE17ReallocateDefaultIsS3_EE7reserveEj, @function
_ZN8CIwArrayIs12CIwAllocatorIs15CIwMallocRouterIsEE17ReallocateDefaultIsS3_EE7reserveEj:
.LFB1599:
	.loc 18 253 0
	.cfi_startproc
	pushl	%ebp
	.cfi_def_cfa_offset 8
	.cfi_offset 5, -8
	leal	(%esp), %ebp
	.cfi_def_cfa_register 5
	leal	-24(%esp), %esp
	.loc 18 255 0
	movl	8(%ebp), %eax
	movl	8(%eax), %eax
	cmpl	12(%ebp), %eax
	jae	.L405
	.loc 18 257 0
	movl	8(%ebp), %eax
	movl	8(%eax), %eax
	cmpl	$15, %eax
	jbe	.L407
	.loc 18 257 0 is_stmt 0 discriminator 1
	movl	8(%ebp), %eax
	movl	8(%eax), %eax
	shrl	$3, %eax
	jmp	.L408
.L407:
	.loc 18 257 0 discriminator 2
	movl	$2, %eax
.L408:
	.loc 18 257 0 discriminator 1
	movl	12(%ebp), %edx
	addl	%edx, %eax
	movl	%eax, 4(%esp)
	movl	8(%ebp), %eax
	movl	%eax, (%esp)
	call	_ZN8CIwArrayIs12CIwAllocatorIs15CIwMallocRouterIsEE17ReallocateDefaultIsS3_EE12set_capacityEj
.L405:
	.loc 18 259 0 is_stmt 1
	leave
	.cfi_restore 5
	.cfi_def_cfa 4, 4
	ret
	.cfi_endproc
.LFE1599:
	.size	_ZN8CIwArrayIs12CIwAllocatorIs15CIwMallocRouterIsEE17ReallocateDefaultIsS3_EE7reserveEj, .-_ZN8CIwArrayIs12CIwAllocatorIs15CIwMallocRouterIsEE17ReallocateDefaultIsS3_EE7reserveEj
	.section	.text._ZN12CIwAllocatorIs15CIwMallocRouterIsEE10reallocateEPsj,"axG",@progbits,_ZN12CIwAllocatorIs15CIwMallocRouterIsEE10reallocateEPsj,comdat
	.align 2
	.weak	_ZN12CIwAllocatorIs15CIwMallocRouterIsEE10reallocateEPsj
	.hidden	_ZN12CIwAllocatorIs15CIwMallocRouterIsEE10reallocateEPsj
	.type	_ZN12CIwAllocatorIs15CIwMallocRouterIsEE10reallocateEPsj, @function
_ZN12CIwAllocatorIs15CIwMallocRouterIsEE10reallocateEPsj:
.LFB1603:
	.loc 19 142 0
	.cfi_startproc
	pushl	%ebp
	.cfi_def_cfa_offset 8
	.cfi_offset 5, -8
	leal	(%esp), %ebp
	.cfi_def_cfa_register 5
	leal	-24(%esp), %esp
	.loc 19 144 0
	movl	16(%ebp), %eax
	movl	%eax, 4(%esp)
	movl	12(%ebp), %eax
	movl	%eax, (%esp)
	call	_ZN15CIwMallocRouterIsE9DoReallocEPvj
	.loc 19 145 0
	leave
	.cfi_restore 5
	.cfi_def_cfa 4, 4
	ret
	.cfi_endproc
.LFE1603:
	.size	_ZN12CIwAllocatorIs15CIwMallocRouterIsEE10reallocateEPsj, .-_ZN12CIwAllocatorIs15CIwMallocRouterIsEE10reallocateEPsj
	.section	.text._ZN12CIwAllocatorIa15CIwMallocRouterIaEE10reallocateEPaj,"axG",@progbits,_ZN12CIwAllocatorIa15CIwMallocRouterIaEE10reallocateEPaj,comdat
	.align 2
	.weak	_ZN12CIwAllocatorIa15CIwMallocRouterIaEE10reallocateEPaj
	.hidden	_ZN12CIwAllocatorIa15CIwMallocRouterIaEE10reallocateEPaj
	.type	_ZN12CIwAllocatorIa15CIwMallocRouterIaEE10reallocateEPaj, @function
_ZN12CIwAllocatorIa15CIwMallocRouterIaEE10reallocateEPaj:
.LFB1604:
	.loc 19 142 0
	.cfi_startproc
	pushl	%ebp
	.cfi_def_cfa_offset 8
	.cfi_offset 5, -8
	leal	(%esp), %ebp
	.cfi_def_cfa_register 5
	leal	-24(%esp), %esp
	.loc 19 144 0
	movl	16(%ebp), %eax
	movl	%eax, 4(%esp)
	movl	12(%ebp), %eax
	movl	%eax, (%esp)
	call	_ZN15CIwMallocRouterIaE9DoReallocEPvj
	.loc 19 145 0
	leave
	.cfi_restore 5
	.cfi_def_cfa 4, 4
	ret
	.cfi_endproc
.LFE1604:
	.size	_ZN12CIwAllocatorIa15CIwMallocRouterIaEE10reallocateEPaj, .-_ZN12CIwAllocatorIa15CIwMallocRouterIaEE10reallocateEPaj
	.section	.text._ZN15CIwMallocRouterIsE9DoReallocEPvj,"axG",@progbits,_ZN15CIwMallocRouterIsE9DoReallocEPvj,comdat
	.weak	_ZN15CIwMallocRouterIsE9DoReallocEPvj
	.hidden	_ZN15CIwMallocRouterIsE9DoReallocEPvj
	.type	_ZN15CIwMallocRouterIsE9DoReallocEPvj, @function
_ZN15CIwMallocRouterIsE9DoReallocEPvj:
.LFB1608:
	.loc 19 97 0
	.cfi_startproc
	pushl	%ebp
	.cfi_def_cfa_offset 8
	.cfi_offset 5, -8
	movl	%esp, %ebp
	.cfi_def_cfa_register 5
	pushl	%ebx
	leal	-20(%esp), %esp
	.cfi_offset 3, -12
	call	__x86.get_pc_thunk.bx
	addl	$_GLOBAL_OFFSET_TABLE_, %ebx
	.loc 19 99 0
	movl	$2, 8(%esp)
	movl	12(%ebp), %eax
	movl	%eax, 4(%esp)
	movl	8(%ebp), %eax
	movl	%eax, (%esp)
	call	_ZN22CIwDefaultMallocRouter11BaseReallocEPvjj@PLT
	.loc 19 100 0
	leal	20(%esp), %esp
	popl	%ebx
	.cfi_restore 3
	popl	%ebp
	.cfi_restore 5
	.cfi_def_cfa 4, 4
	ret
	.cfi_endproc
.LFE1608:
	.size	_ZN15CIwMallocRouterIsE9DoReallocEPvj, .-_ZN15CIwMallocRouterIsE9DoReallocEPvj
	.section	.text._ZN15CIwMallocRouterIaE9DoReallocEPvj,"axG",@progbits,_ZN15CIwMallocRouterIaE9DoReallocEPvj,comdat
	.weak	_ZN15CIwMallocRouterIaE9DoReallocEPvj
	.hidden	_ZN15CIwMallocRouterIaE9DoReallocEPvj
	.type	_ZN15CIwMallocRouterIaE9DoReallocEPvj, @function
_ZN15CIwMallocRouterIaE9DoReallocEPvj:
.LFB1609:
	.loc 19 97 0
	.cfi_startproc
	pushl	%ebp
	.cfi_def_cfa_offset 8
	.cfi_offset 5, -8
	movl	%esp, %ebp
	.cfi_def_cfa_register 5
	pushl	%ebx
	leal	-20(%esp), %esp
	.cfi_offset 3, -12
	call	__x86.get_pc_thunk.bx
	addl	$_GLOBAL_OFFSET_TABLE_, %ebx
	.loc 19 99 0
	movl	$1, 8(%esp)
	movl	12(%ebp), %eax
	movl	%eax, 4(%esp)
	movl	8(%ebp), %eax
	movl	%eax, (%esp)
	call	_ZN22CIwDefaultMallocRouter11BaseReallocEPvjj@PLT
	.loc 19 100 0
	leal	20(%esp), %esp
	popl	%ebx
	.cfi_restore 3
	popl	%ebp
	.cfi_restore 5
	.cfi_def_cfa 4, 4
	ret
	.cfi_endproc
.LFE1609:
	.size	_ZN15CIwMallocRouterIaE9DoReallocEPvj, .-_ZN15CIwMallocRouterIaE9DoReallocEPvj
	.hidden	_ZTV12CIwSoundSpec
	.weak	_ZTV12CIwSoundSpec
	.section	.data.rel.ro._ZTV12CIwSoundSpec,"awG",@progbits,_ZTV12CIwSoundSpec,comdat
	.align 32
	.type	_ZTV12CIwSoundSpec, @object
	.size	_ZTV12CIwSoundSpec, 72
_ZTV12CIwSoundSpec:
	.long	0
	.long	_ZTI12CIwSoundSpec
	.long	_ZN12CIwSoundSpecD1Ev
	.long	_ZN12CIwSoundSpecD0Ev
	.long	_ZN10CIwManaged9ParseOpenEP16CIwTextParserITX
	.long	_ZN12CIwSoundSpec10ParseCloseEP16CIwTextParserITX
	.long	_ZN12CIwSoundSpec14ParseAttributeEP16CIwTextParserITXPKc
	.long	_ZN12CIwSoundSpec9SerialiseEv
	.long	_ZN12CIwSoundSpec7ResolveEv
	.long	_ZN10CIwManaged15ParseCloseChildEP16CIwTextParserITXPS_
	.long	_ZN10CIwManaged11HandleEventEP8CIwEvent
	.long	_ZN10CIwManaged7SetNameEPKc
	.long	_ZNK12CIwSoundSpec12GetClassNameEv
	.long	_ZN10CIwManaged11DebugRenderEv
	.long	_ZN18CIwManagedRefCount17DebugAddMenuItemsEP7CIwMenu
	.long	_ZN18CIwManagedRefCount8_ReplaceEP10CIwManaged
	.long	_ZN11CIwResource10ApplyScaleEi
	.long	_ZN11CIwResource10ApplyScaleEf
	.hidden	_ZTSP13CIwSoundGroup
	.weak	_ZTSP13CIwSoundGroup
	.section	.rodata._ZTSP13CIwSoundGroup,"aG",@progbits,_ZTSP13CIwSoundGroup,comdat
	.type	_ZTSP13CIwSoundGroup, @object
	.size	_ZTSP13CIwSoundGroup, 17
_ZTSP13CIwSoundGroup:
	.string	"P13CIwSoundGroup"
	.hidden	_ZTIP13CIwSoundGroup
	.weak	_ZTIP13CIwSoundGroup
	.section	.data.rel.ro._ZTIP13CIwSoundGroup,"awG",@progbits,_ZTIP13CIwSoundGroup,comdat
	.align 4
	.type	_ZTIP13CIwSoundGroup, @object
	.size	_ZTIP13CIwSoundGroup, 16
_ZTIP13CIwSoundGroup:
	.long	_ZTVN10__cxxabiv119__pointer_type_infoE+8
	.long	_ZTSP13CIwSoundGroup
	.long	0
	.long	_ZTI13CIwSoundGroup
	.hidden	_ZTI12CIwSoundSpec
	.weak	_ZTI12CIwSoundSpec
	.section	.data.rel.ro._ZTI12CIwSoundSpec,"awG",@progbits,_ZTI12CIwSoundSpec,comdat
	.align 4
	.type	_ZTI12CIwSoundSpec, @object
	.size	_ZTI12CIwSoundSpec, 12
_ZTI12CIwSoundSpec:
	.long	_ZTVN10__cxxabiv120__si_class_type_infoE+8
	.long	_ZTS12CIwSoundSpec
	.long	_ZTI11CIwResource
	.hidden	_ZTS12CIwSoundSpec
	.weak	_ZTS12CIwSoundSpec
	.section	.rodata._ZTS12CIwSoundSpec,"aG",@progbits,_ZTS12CIwSoundSpec,comdat
	.type	_ZTS12CIwSoundSpec, @object
	.size	_ZTS12CIwSoundSpec, 15
_ZTS12CIwSoundSpec:
	.string	"12CIwSoundSpec"
	.local	_ZZL12IW_FIXED_MULiiE21_s_IwAssertIgnoreThis
	.comm	_ZZL12IW_FIXED_MULiiE21_s_IwAssertIgnoreThis,1,1
	.hidden	_ZZN8CIwArrayIa12CIwAllocatorIa15CIwMallocRouterIaEE17ReallocateDefaultIaS3_EE8truncateEjE21_s_IwAssertIgnoreThis
	.weak	_ZZN8CIwArrayIa12CIwAllocatorIa15CIwMallocRouterIaEE17ReallocateDefaultIaS3_EE8truncateEjE21_s_IwAssertIgnoreThis
	.section	.bss._ZZN8CIwArrayIa12CIwAllocatorIa15CIwMallocRouterIaEE17ReallocateDefaultIaS3_EE8truncateEjE21_s_IwAssertIgnoreThis,"awG",@nobits,_ZZN8CIwArrayIa12CIwAllocatorIa15CIwMallocRouterIaEE17ReallocateDefaultIaS3_EE8truncateEjE21_s_IwAssertIgnoreThis,comdat
	.type	_ZZN8CIwArrayIa12CIwAllocatorIa15CIwMallocRouterIaEE17ReallocateDefaultIaS3_EE8truncateEjE21_s_IwAssertIgnoreThis, @object
	.size	_ZZN8CIwArrayIa12CIwAllocatorIa15CIwMallocRouterIaEE17ReallocateDefaultIaS3_EE8truncateEjE21_s_IwAssertIgnoreThis, 1
_ZZN8CIwArrayIa12CIwAllocatorIa15CIwMallocRouterIaEE17ReallocateDefaultIaS3_EE8truncateEjE21_s_IwAssertIgnoreThis:
	.zero	1
	.hidden	_ZZN8CIwArrayIa12CIwAllocatorIa15CIwMallocRouterIaEE17ReallocateDefaultIaS3_EE13push_back_qtyEiE21_s_IwAssertIgnoreThis
	.weak	_ZZN8CIwArrayIa12CIwAllocatorIa15CIwMallocRouterIaEE17ReallocateDefaultIaS3_EE13push_back_qtyEiE21_s_IwAssertIgnoreThis
	.section	.bss._ZZN8CIwArrayIa12CIwAllocatorIa15CIwMallocRouterIaEE17ReallocateDefaultIaS3_EE13push_back_qtyEiE21_s_IwAssertIgnoreThis,"awG",@nobits,_ZZN8CIwArrayIa12CIwAllocatorIa15CIwMallocRouterIaEE17ReallocateDefaultIaS3_EE13push_back_qtyEiE21_s_IwAssertIgnoreThis,comdat
	.type	_ZZN8CIwArrayIa12CIwAllocatorIa15CIwMallocRouterIaEE17ReallocateDefaultIaS3_EE13push_back_qtyEiE21_s_IwAssertIgnoreThis, @object
	.size	_ZZN8CIwArrayIa12CIwAllocatorIa15CIwMallocRouterIaEE17ReallocateDefaultIaS3_EE13push_back_qtyEiE21_s_IwAssertIgnoreThis, 1
_ZZN8CIwArrayIa12CIwAllocatorIa15CIwMallocRouterIaEE17ReallocateDefaultIaS3_EE13push_back_qtyEiE21_s_IwAssertIgnoreThis:
	.zero	1
	.hidden	_ZZN8CIwArrayIa12CIwAllocatorIa15CIwMallocRouterIaEE17ReallocateDefaultIaS3_EE12set_capacityEjE21_s_IwAssertIgnoreThis
	.weak	_ZZN8CIwArrayIa12CIwAllocatorIa15CIwMallocRouterIaEE17ReallocateDefaultIaS3_EE12set_capacityEjE21_s_IwAssertIgnoreThis
	.section	.bss._ZZN8CIwArrayIa12CIwAllocatorIa15CIwMallocRouterIaEE17ReallocateDefaultIaS3_EE12set_capacityEjE21_s_IwAssertIgnoreThis,"awG",@nobits,_ZZN8CIwArrayIa12CIwAllocatorIa15CIwMallocRouterIaEE17ReallocateDefaultIaS3_EE12set_capacityEjE21_s_IwAssertIgnoreThis,comdat
	.type	_ZZN8CIwArrayIa12CIwAllocatorIa15CIwMallocRouterIaEE17ReallocateDefaultIaS3_EE12set_capacityEjE21_s_IwAssertIgnoreThis, @object
	.size	_ZZN8CIwArrayIa12CIwAllocatorIa15CIwMallocRouterIaEE17ReallocateDefaultIaS3_EE12set_capacityEjE21_s_IwAssertIgnoreThis, 1
_ZZN8CIwArrayIa12CIwAllocatorIa15CIwMallocRouterIaEE17ReallocateDefaultIaS3_EE12set_capacityEjE21_s_IwAssertIgnoreThis:
	.zero	1
	.hidden	_ZZN8CIwArrayIa12CIwAllocatorIa15CIwMallocRouterIaEE17ReallocateDefaultIaS3_EE12set_capacityEjE21_s_IwAssertIgnoreThis_0
	.weak	_ZZN8CIwArrayIa12CIwAllocatorIa15CIwMallocRouterIaEE17ReallocateDefaultIaS3_EE12set_capacityEjE21_s_IwAssertIgnoreThis_0
	.section	.bss._ZZN8CIwArrayIa12CIwAllocatorIa15CIwMallocRouterIaEE17ReallocateDefaultIaS3_EE12set_capacityEjE21_s_IwAssertIgnoreThis_0,"awG",@nobits,_ZZN8CIwArrayIa12CIwAllocatorIa15CIwMallocRouterIaEE17ReallocateDefaultIaS3_EE12set_capacityEjE21_s_IwAssertIgnoreThis_0,comdat
	.type	_ZZN8CIwArrayIa12CIwAllocatorIa15CIwMallocRouterIaEE17ReallocateDefaultIaS3_EE12set_capacityEjE21_s_IwAssertIgnoreThis_0, @object
	.size	_ZZN8CIwArrayIa12CIwAllocatorIa15CIwMallocRouterIaEE17ReallocateDefaultIaS3_EE12set_capacityEjE21_s_IwAssertIgnoreThis_0, 1
_ZZN8CIwArrayIa12CIwAllocatorIa15CIwMallocRouterIaEE17ReallocateDefaultIaS3_EE12set_capacityEjE21_s_IwAssertIgnoreThis_0:
	.zero	1
	.hidden	_ZZN8CIwArrayIa12CIwAllocatorIa15CIwMallocRouterIaEE17ReallocateDefaultIaS3_EE12set_capacityEjE21_s_IwAssertIgnoreThis_1
	.weak	_ZZN8CIwArrayIa12CIwAllocatorIa15CIwMallocRouterIaEE17ReallocateDefaultIaS3_EE12set_capacityEjE21_s_IwAssertIgnoreThis_1
	.section	.bss._ZZN8CIwArrayIa12CIwAllocatorIa15CIwMallocRouterIaEE17ReallocateDefaultIaS3_EE12set_capacityEjE21_s_IwAssertIgnoreThis_1,"awG",@nobits,_ZZN8CIwArrayIa12CIwAllocatorIa15CIwMallocRouterIaEE17ReallocateDefaultIaS3_EE12set_capacityEjE21_s_IwAssertIgnoreThis_1,comdat
	.type	_ZZN8CIwArrayIa12CIwAllocatorIa15CIwMallocRouterIaEE17ReallocateDefaultIaS3_EE12set_capacityEjE21_s_IwAssertIgnoreThis_1, @object
	.size	_ZZN8CIwArrayIa12CIwAllocatorIa15CIwMallocRouterIaEE17ReallocateDefaultIaS3_EE12set_capacityEjE21_s_IwAssertIgnoreThis_1, 1
_ZZN8CIwArrayIa12CIwAllocatorIa15CIwMallocRouterIaEE17ReallocateDefaultIaS3_EE12set_capacityEjE21_s_IwAssertIgnoreThis_1:
	.zero	1
	.hidden	_ZZN8CIwArrayIs12CIwAllocatorIs15CIwMallocRouterIsEE17ReallocateDefaultIsS3_EE8truncateEjE21_s_IwAssertIgnoreThis
	.weak	_ZZN8CIwArrayIs12CIwAllocatorIs15CIwMallocRouterIsEE17ReallocateDefaultIsS3_EE8truncateEjE21_s_IwAssertIgnoreThis
	.section	.bss._ZZN8CIwArrayIs12CIwAllocatorIs15CIwMallocRouterIsEE17ReallocateDefaultIsS3_EE8truncateEjE21_s_IwAssertIgnoreThis,"awG",@nobits,_ZZN8CIwArrayIs12CIwAllocatorIs15CIwMallocRouterIsEE17ReallocateDefaultIsS3_EE8truncateEjE21_s_IwAssertIgnoreThis,comdat
	.type	_ZZN8CIwArrayIs12CIwAllocatorIs15CIwMallocRouterIsEE17ReallocateDefaultIsS3_EE8truncateEjE21_s_IwAssertIgnoreThis, @object
	.size	_ZZN8CIwArrayIs12CIwAllocatorIs15CIwMallocRouterIsEE17ReallocateDefaultIsS3_EE8truncateEjE21_s_IwAssertIgnoreThis, 1
_ZZN8CIwArrayIs12CIwAllocatorIs15CIwMallocRouterIsEE17ReallocateDefaultIsS3_EE8truncateEjE21_s_IwAssertIgnoreThis:
	.zero	1
	.hidden	_ZZN8CIwArrayIs12CIwAllocatorIs15CIwMallocRouterIsEE17ReallocateDefaultIsS3_EE13push_back_qtyEiE21_s_IwAssertIgnoreThis
	.weak	_ZZN8CIwArrayIs12CIwAllocatorIs15CIwMallocRouterIsEE17ReallocateDefaultIsS3_EE13push_back_qtyEiE21_s_IwAssertIgnoreThis
	.section	.bss._ZZN8CIwArrayIs12CIwAllocatorIs15CIwMallocRouterIsEE17ReallocateDefaultIsS3_EE13push_back_qtyEiE21_s_IwAssertIgnoreThis,"awG",@nobits,_ZZN8CIwArrayIs12CIwAllocatorIs15CIwMallocRouterIsEE17ReallocateDefaultIsS3_EE13push_back_qtyEiE21_s_IwAssertIgnoreThis,comdat
	.type	_ZZN8CIwArrayIs12CIwAllocatorIs15CIwMallocRouterIsEE17ReallocateDefaultIsS3_EE13push_back_qtyEiE21_s_IwAssertIgnoreThis, @object
	.size	_ZZN8CIwArrayIs12CIwAllocatorIs15CIwMallocRouterIsEE17ReallocateDefaultIsS3_EE13push_back_qtyEiE21_s_IwAssertIgnoreThis, 1
_ZZN8CIwArrayIs12CIwAllocatorIs15CIwMallocRouterIsEE17ReallocateDefaultIsS3_EE13push_back_qtyEiE21_s_IwAssertIgnoreThis:
	.zero	1
	.hidden	_ZZN8CIwArrayIs12CIwAllocatorIs15CIwMallocRouterIsEE17ReallocateDefaultIsS3_EE12set_capacityEjE21_s_IwAssertIgnoreThis
	.weak	_ZZN8CIwArrayIs12CIwAllocatorIs15CIwMallocRouterIsEE17ReallocateDefaultIsS3_EE12set_capacityEjE21_s_IwAssertIgnoreThis
	.section	.bss._ZZN8CIwArrayIs12CIwAllocatorIs15CIwMallocRouterIsEE17ReallocateDefaultIsS3_EE12set_capacityEjE21_s_IwAssertIgnoreThis,"awG",@nobits,_ZZN8CIwArrayIs12CIwAllocatorIs15CIwMallocRouterIsEE17ReallocateDefaultIsS3_EE12set_capacityEjE21_s_IwAssertIgnoreThis,comdat
	.type	_ZZN8CIwArrayIs12CIwAllocatorIs15CIwMallocRouterIsEE17ReallocateDefaultIsS3_EE12set_capacityEjE21_s_IwAssertIgnoreThis, @object
	.size	_ZZN8CIwArrayIs12CIwAllocatorIs15CIwMallocRouterIsEE17ReallocateDefaultIsS3_EE12set_capacityEjE21_s_IwAssertIgnoreThis, 1
_ZZN8CIwArrayIs12CIwAllocatorIs15CIwMallocRouterIsEE17ReallocateDefaultIsS3_EE12set_capacityEjE21_s_IwAssertIgnoreThis:
	.zero	1
	.hidden	_ZZN8CIwArrayIs12CIwAllocatorIs15CIwMallocRouterIsEE17ReallocateDefaultIsS3_EE12set_capacityEjE21_s_IwAssertIgnoreThis_0
	.weak	_ZZN8CIwArrayIs12CIwAllocatorIs15CIwMallocRouterIsEE17ReallocateDefaultIsS3_EE12set_capacityEjE21_s_IwAssertIgnoreThis_0
	.section	.bss._ZZN8CIwArrayIs12CIwAllocatorIs15CIwMallocRouterIsEE17ReallocateDefaultIsS3_EE12set_capacityEjE21_s_IwAssertIgnoreThis_0,"awG",@nobits,_ZZN8CIwArrayIs12CIwAllocatorIs15CIwMallocRouterIsEE17ReallocateDefaultIsS3_EE12set_capacityEjE21_s_IwAssertIgnoreThis_0,comdat
	.type	_ZZN8CIwArrayIs12CIwAllocatorIs15CIwMallocRouterIsEE17ReallocateDefaultIsS3_EE12set_capacityEjE21_s_IwAssertIgnoreThis_0, @object
	.size	_ZZN8CIwArrayIs12CIwAllocatorIs15CIwMallocRouterIsEE17ReallocateDefaultIsS3_EE12set_capacityEjE21_s_IwAssertIgnoreThis_0, 1
_ZZN8CIwArrayIs12CIwAllocatorIs15CIwMallocRouterIsEE17ReallocateDefaultIsS3_EE12set_capacityEjE21_s_IwAssertIgnoreThis_0:
	.zero	1
	.hidden	_ZZN8CIwArrayIs12CIwAllocatorIs15CIwMallocRouterIsEE17ReallocateDefaultIsS3_EE12set_capacityEjE21_s_IwAssertIgnoreThis_1
	.weak	_ZZN8CIwArrayIs12CIwAllocatorIs15CIwMallocRouterIsEE17ReallocateDefaultIsS3_EE12set_capacityEjE21_s_IwAssertIgnoreThis_1
	.section	.bss._ZZN8CIwArrayIs12CIwAllocatorIs15CIwMallocRouterIsEE17ReallocateDefaultIsS3_EE12set_capacityEjE21_s_IwAssertIgnoreThis_1,"awG",@nobits,_ZZN8CIwArrayIs12CIwAllocatorIs15CIwMallocRouterIsEE17ReallocateDefaultIsS3_EE12set_capacityEjE21_s_IwAssertIgnoreThis_1,comdat
	.type	_ZZN8CIwArrayIs12CIwAllocatorIs15CIwMallocRouterIsEE17ReallocateDefaultIsS3_EE12set_capacityEjE21_s_IwAssertIgnoreThis_1, @object
	.size	_ZZN8CIwArrayIs12CIwAllocatorIs15CIwMallocRouterIsEE17ReallocateDefaultIsS3_EE12set_capacityEjE21_s_IwAssertIgnoreThis_1, 1
_ZZN8CIwArrayIs12CIwAllocatorIs15CIwMallocRouterIsEE17ReallocateDefaultIsS3_EE12set_capacityEjE21_s_IwAssertIgnoreThis_1:
	.zero	1
	.local	_ZZN12CIwSoundSpec14ParseAttributeEP16CIwTextParserITXPKcE21_s_IwAssertIgnoreThis
	.comm	_ZZN12CIwSoundSpec14ParseAttributeEP16CIwTextParserITXPKcE21_s_IwAssertIgnoreThis,1,1
	.local	_ZZN12CIwSoundSpec14ParseAttributeEP16CIwTextParserITXPKcE21_s_IwAssertIgnoreThis_0
	.comm	_ZZN12CIwSoundSpec14ParseAttributeEP16CIwTextParserITXPKcE21_s_IwAssertIgnoreThis_0,1,1
	.hidden	_ZZ10IwSafeCastIP13CIwSoundGroupP11CIwResourceET_T0_E21_s_IwAssertIgnoreThis
	.weak	_ZZ10IwSafeCastIP13CIwSoundGroupP11CIwResourceET_T0_E21_s_IwAssertIgnoreThis
	.section	.bss._ZZ10IwSafeCastIP13CIwSoundGroupP11CIwResourceET_T0_E21_s_IwAssertIgnoreThis,"awG",@nobits,_ZZ10IwSafeCastIP13CIwSoundGroupP11CIwResourceET_T0_E21_s_IwAssertIgnoreThis,comdat
	.type	_ZZ10IwSafeCastIP13CIwSoundGroupP11CIwResourceET_T0_E21_s_IwAssertIgnoreThis, @object
	.size	_ZZ10IwSafeCastIP13CIwSoundGroupP11CIwResourceET_T0_E21_s_IwAssertIgnoreThis, 1
_ZZ10IwSafeCastIP13CIwSoundGroupP11CIwResourceET_T0_E21_s_IwAssertIgnoreThis:
	.zero	1
	.local	_ZZN12CIwSoundSpec10ParseCloseEP16CIwTextParserITXE21_s_IwAssertIgnoreThis
	.comm	_ZZN12CIwSoundSpec10ParseCloseEP16CIwTextParserITXE21_s_IwAssertIgnoreThis,1,1
	.hidden	_ZZNK8CIwArrayIs12CIwAllocatorIs15CIwMallocRouterIsEE17ReallocateDefaultIsS3_EEixEiE21_s_IwAssertIgnoreThis
	.weak	_ZZNK8CIwArrayIs12CIwAllocatorIs15CIwMallocRouterIsEE17ReallocateDefaultIsS3_EEixEiE21_s_IwAssertIgnoreThis
	.section	.bss._ZZNK8CIwArrayIs12CIwAllocatorIs15CIwMallocRouterIsEE17ReallocateDefaultIsS3_EEixEiE21_s_IwAssertIgnoreThis,"awG",@nobits,_ZZNK8CIwArrayIs12CIwAllocatorIs15CIwMallocRouterIsEE17ReallocateDefaultIsS3_EEixEiE21_s_IwAssertIgnoreThis,comdat
	.type	_ZZNK8CIwArrayIs12CIwAllocatorIs15CIwMallocRouterIsEE17ReallocateDefaultIsS3_EEixEiE21_s_IwAssertIgnoreThis, @object
	.size	_ZZNK8CIwArrayIs12CIwAllocatorIs15CIwMallocRouterIsEE17ReallocateDefaultIsS3_EEixEiE21_s_IwAssertIgnoreThis, 1
_ZZNK8CIwArrayIs12CIwAllocatorIs15CIwMallocRouterIsEE17ReallocateDefaultIsS3_EEixEiE21_s_IwAssertIgnoreThis:
	.zero	1
	.hidden	_ZZNK8CIwArrayIa12CIwAllocatorIa15CIwMallocRouterIaEE17ReallocateDefaultIaS3_EEixEiE21_s_IwAssertIgnoreThis
	.weak	_ZZNK8CIwArrayIa12CIwAllocatorIa15CIwMallocRouterIaEE17ReallocateDefaultIaS3_EEixEiE21_s_IwAssertIgnoreThis
	.section	.bss._ZZNK8CIwArrayIa12CIwAllocatorIa15CIwMallocRouterIaEE17ReallocateDefaultIaS3_EEixEiE21_s_IwAssertIgnoreThis,"awG",@nobits,_ZZNK8CIwArrayIa12CIwAllocatorIa15CIwMallocRouterIaEE17ReallocateDefaultIaS3_EEixEiE21_s_IwAssertIgnoreThis,comdat
	.type	_ZZNK8CIwArrayIa12CIwAllocatorIa15CIwMallocRouterIaEE17ReallocateDefaultIaS3_EEixEiE21_s_IwAssertIgnoreThis, @object
	.size	_ZZNK8CIwArrayIa12CIwAllocatorIa15CIwMallocRouterIaEE17ReallocateDefaultIaS3_EEixEiE21_s_IwAssertIgnoreThis, 1
_ZZNK8CIwArrayIa12CIwAllocatorIa15CIwMallocRouterIaEE17ReallocateDefaultIaS3_EEixEiE21_s_IwAssertIgnoreThis:
	.zero	1
	.section	.text.__x86.get_pc_thunk.cx,"axG",@progbits,__x86.get_pc_thunk.cx,comdat
	.globl	__x86.get_pc_thunk.cx
	.hidden	__x86.get_pc_thunk.cx
	.type	__x86.get_pc_thunk.cx, @function
__x86.get_pc_thunk.cx:
.LFB1675:
	.cfi_startproc
	nop
	nop
	nop
	nop
	nop
	nop
	nop
	nop
	movl	(%esp), %ecx
	ret
	.cfi_endproc
.LFE1675:
	.section	.text.__x86.get_pc_thunk.bx,"axG",@progbits,__x86.get_pc_thunk.bx,comdat
	.globl	__x86.get_pc_thunk.bx
	.hidden	__x86.get_pc_thunk.bx
	.type	__x86.get_pc_thunk.bx, @function
__x86.get_pc_thunk.bx:
.LFB1676:
	.cfi_startproc
	nop
	nop
	nop
	nop
	nop
	nop
	nop
	nop
	movl	(%esp), %ebx
	ret
	.cfi_endproc
.LFE1676:
	.text
.Letext0:
	.file 20 "c:/marmalade/7.5/s3e/h/s3eTypes.h"
	.file 21 "c:/marmalade/7.5/s3e/h/std/stddef.h"
	.file 22 "c:/marmalade/7.5/s3e/h/std/c++/typeinfo.h"
	.file 23 "c:/marmalade/7.5/s3e/h/std/c++/exception"
	.file 24 "c:/marmalade/7.5/s3e/h/std/c++/typeinfo"
	.file 25 "c:/marmalade/7.5/s3e/h/std/c++/cstddef"
	.file 26 "c:/marmalade/7.5/s3e/h/std/c++/stl/_config.h"
	.file 27 "c:/marmalade/7.5/s3e/h/s3eFile.h"
	.file 28 "c:/marmalade/7.5/modules/iwutil/h/IwTextParseable.h"
	.file 29 "c:/marmalade/7.5/modules/iwutil/h/IwManagedList.h"
	.file 30 "c:/marmalade/7.5/modules/iwresmanager/h/IwResGroup.h"
	.file 31 "c:/marmalade/7.5/s3e/h/s3eDebug.h"
	.file 32 "c:/marmalade/7.5/s3e/h/s3eSound.h"
	.file 33 "c:/marmalade/7.5/examples/gametutorial/cpp/modules/soundengine/h/IwSoundParams.h"
	.file 34 "c:/marmalade/7.5/modules/iwgeom/h/IwGeomSqrt.h"
	.file 35 "c:/marmalade/7.5/modules/iwutil/h/IwMenu.h"
	.file 36 "c:/marmalade/7.5/modules/iwutil/h/IwTextParserITX.h"
	.file 37 "<built-in>"
	.file 38 "c:/marmalade/7.5/modules/iwutil/h/IwTypes.h"
	.section	.note.GNU-stack,"",@progbits
