	.file	"IwTween.cpp"
	.text
.Ltext0:
	.section	.text._ZnwjPv,"axG",@progbits,_ZnwjPv,comdat
	.weak	_ZnwjPv
	.hidden	_ZnwjPv
	.type	_ZnwjPv, @function
_ZnwjPv:
.LFB164:
	.file 1 "c:/marmalade/7.5/s3e/h/std/c++/new.h"
	.loc 1 52 0
	.cfi_startproc
	pushl	%ebp
	.cfi_def_cfa_offset 8
	.cfi_offset 5, -8
	leal	(%esp), %ebp
	.cfi_def_cfa_register 5
	.loc 1 52 0
	movl	12(%ebp), %eax
	popl	%ebp
	.cfi_restore 5
	.cfi_def_cfa 4, 4
	ret
	.cfi_endproc
.LFE164:
	.size	_ZnwjPv, .-_ZnwjPv
	.section	.text._ZN7IwTween6CTween9ValueTypeC2ENS_4TypeEPvi,"axG",@progbits,_ZN7IwTween6CTween9ValueTypeC5ENS_4TypeEPvi,comdat
	.align 2
	.weak	_ZN7IwTween6CTween9ValueTypeC2ENS_4TypeEPvi
	.hidden	_ZN7IwTween6CTween9ValueTypeC2ENS_4TypeEPvi
	.type	_ZN7IwTween6CTween9ValueTypeC2ENS_4TypeEPvi, @function
_ZN7IwTween6CTween9ValueTypeC2ENS_4TypeEPvi:
.LFB446:
	.file 2 "c:/marmalade/7.5/modules/iwtween/h/IwTween.h"
	.loc 2 396 0
	.cfi_startproc
	pushl	%ebp
	.cfi_def_cfa_offset 8
	.cfi_offset 5, -8
	leal	(%esp), %ebp
	.cfi_def_cfa_register 5
.LBB2:
	.loc 2 398 0
	movl	8(%ebp), %eax
	movl	12(%ebp), %edx
	movl	%edx, (%eax)
	.loc 2 399 0
	movl	8(%ebp), %eax
	movl	16(%ebp), %edx
	movl	%edx, 4(%eax)
	.loc 2 400 0
	movl	8(%ebp), %eax
	movl	20(%ebp), %edx
	movl	%edx, 8(%eax)
.LBE2:
	.loc 2 401 0
	popl	%ebp
	.cfi_restore 5
	.cfi_def_cfa 4, 4
	ret
	.cfi_endproc
.LFE446:
	.size	_ZN7IwTween6CTween9ValueTypeC2ENS_4TypeEPvi, .-_ZN7IwTween6CTween9ValueTypeC2ENS_4TypeEPvi
	.weak	_ZN7IwTween6CTween9ValueTypeC1ENS_4TypeEPvi
	.hidden	_ZN7IwTween6CTween9ValueTypeC1ENS_4TypeEPvi
	.set	_ZN7IwTween6CTween9ValueTypeC1ENS_4TypeEPvi,_ZN7IwTween6CTween9ValueTypeC2ENS_4TypeEPvi
	.section	.text._ZN7IwTween6CTweenC2ENS0_4SpecE,"axG",@progbits,_ZN7IwTween6CTweenC5ENS0_4SpecE,comdat
	.align 2
	.weak	_ZN7IwTween6CTweenC2ENS0_4SpecE
	.hidden	_ZN7IwTween6CTweenC2ENS0_4SpecE
	.type	_ZN7IwTween6CTweenC2ENS0_4SpecE, @function
_ZN7IwTween6CTweenC2ENS0_4SpecE:
.LFB449:
	.loc 2 428 0
	.cfi_startproc
	pushl	%ebp
	.cfi_def_cfa_offset 8
	.cfi_offset 5, -8
	leal	(%esp), %ebp
	.cfi_def_cfa_register 5
	leal	-40(%esp), %esp
.LBB3:
	.loc 2 428 0
	movl	8(%ebp), %eax
	movl	%eax, (%esp)
	call	_ZN7IwTween6CTween4SpecC1Ev
	leal	-9(%ebp), %eax
	movl	%eax, (%esp)
	call	_ZN4_STL9allocatorIN7IwTween6CTween9ValueTypeEEC1Ev
	movl	8(%ebp), %eax
	movl	%eax, %edx
	addl	$44, %edx
	leal	-9(%ebp), %eax
	movl	%eax, 4(%esp)
	movl	%edx, (%esp)
	call	_ZN4_STL6vectorIN7IwTween6CTween9ValueTypeENS_9allocatorIS3_EEEC1ERKS5_
	leal	-9(%ebp), %eax
	movl	%eax, (%esp)
	call	_ZN4_STL9allocatorIN7IwTween6CTween9ValueTypeEED1Ev
	movl	8(%ebp), %eax
	movl	12(%ebp), %edx
	movl	%edx, (%eax)
	movl	16(%ebp), %edx
	movl	%edx, 4(%eax)
	movl	20(%ebp), %edx
	movl	%edx, 8(%eax)
	movl	24(%ebp), %edx
	movl	%edx, 12(%eax)
	movl	28(%ebp), %edx
	movl	%edx, 16(%eax)
	movl	32(%ebp), %edx
	movl	%edx, 20(%eax)
	movl	36(%ebp), %edx
	movl	%edx, 24(%eax)
	movl	40(%ebp), %edx
	movl	%edx, 28(%eax)
.LBE3:
	leave
	.cfi_restore 5
	.cfi_def_cfa 4, 4
	ret
	.cfi_endproc
.LFE449:
	.size	_ZN7IwTween6CTweenC2ENS0_4SpecE, .-_ZN7IwTween6CTweenC2ENS0_4SpecE
	.weak	_ZN7IwTween6CTweenC1ENS0_4SpecE
	.hidden	_ZN7IwTween6CTweenC1ENS0_4SpecE
	.set	_ZN7IwTween6CTweenC1ENS0_4SpecE,_ZN7IwTween6CTweenC2ENS0_4SpecE
	.section	.text._ZN7IwTween6CTweenD2Ev,"axG",@progbits,_ZN7IwTween6CTweenD5Ev,comdat
	.align 2
	.weak	_ZN7IwTween6CTweenD2Ev
	.hidden	_ZN7IwTween6CTweenD2Ev
	.type	_ZN7IwTween6CTweenD2Ev, @function
_ZN7IwTween6CTweenD2Ev:
.LFB452:
	.loc 2 430 0
	.cfi_startproc
	pushl	%ebp
	.cfi_def_cfa_offset 8
	.cfi_offset 5, -8
	leal	(%esp), %ebp
	.cfi_def_cfa_register 5
	leal	-24(%esp), %esp
.LBB4:
	.loc 2 430 0
	movl	8(%ebp), %eax
	addl	$44, %eax
	movl	%eax, (%esp)
	call	_ZN4_STL6vectorIN7IwTween6CTween9ValueTypeENS_9allocatorIS3_EEED1Ev
.LBE4:
	leave
	.cfi_restore 5
	.cfi_def_cfa 4, 4
	ret
	.cfi_endproc
.LFE452:
	.size	_ZN7IwTween6CTweenD2Ev, .-_ZN7IwTween6CTweenD2Ev
	.weak	_ZN7IwTween6CTweenD1Ev
	.hidden	_ZN7IwTween6CTweenD1Ev
	.set	_ZN7IwTween6CTweenD1Ev,_ZN7IwTween6CTweenD2Ev
	.text
	.type	_ZL11IwDebugExitv, @function
_ZL11IwDebugExitv:
.LFB467:
	.file 3 "c:/marmalade/7.5/modules/iwutil/h/IwDebug.h"
	.loc 3 348 0
	.cfi_startproc
	pushl	%ebp
	.cfi_def_cfa_offset 8
	.cfi_offset 5, -8
	movl	%esp, %ebp
	.cfi_def_cfa_register 5
	pushl	%ebx
	leal	-4(%esp), %esp
	.cfi_offset 3, -12
	call	__x86.get_pc_thunk.bx
	addl	$_GLOBAL_OFFSET_TABLE_, %ebx
	.loc 3 349 0
	call	abort@PLT
	.cfi_endproc
.LFE467:
	.size	_ZL11IwDebugExitv, .-_ZL11IwDebugExitv
	.globl	_ZN7IwTween4Ease6linearEff
	.hidden	_ZN7IwTween4Ease6linearEff
	.type	_ZN7IwTween4Ease6linearEff, @function
_ZN7IwTween4Ease6linearEff:
.LFB481:
	.file 4 "c:/marmalade/7.5/modules/iwtween/source/IwTween.cpp"
	.loc 4 35 0
	.cfi_startproc
	pushl	%ebp
	.cfi_def_cfa_offset 8
	.cfi_offset 5, -8
	leal	(%esp), %ebp
	.cfi_def_cfa_register 5
	leal	-4(%esp), %esp
	.loc 4 36 0
	movl	8(%ebp), %eax
	.loc 4 37 0
	movl	%eax, -4(%ebp)
	flds	-4(%ebp)
	leave
	.cfi_restore 5
	.cfi_def_cfa 4, 4
	ret
	.cfi_endproc
.LFE481:
	.size	_ZN7IwTween4Ease6linearEff, .-_ZN7IwTween4Ease6linearEff
	.globl	_ZN7IwTween4Ease3oneEff
	.hidden	_ZN7IwTween4Ease3oneEff
	.type	_ZN7IwTween4Ease3oneEff, @function
_ZN7IwTween4Ease3oneEff:
.LFB482:
	.loc 4 39 0
	.cfi_startproc
	pushl	%ebp
	.cfi_def_cfa_offset 8
	.cfi_offset 5, -8
	movl	%esp, %ebp
	.cfi_def_cfa_register 5
	leal	-4(%esp), %esp
	call	__x86.get_pc_thunk.cx
	addl	$_GLOBAL_OFFSET_TABLE_, %ecx
	.loc 4 40 0
	movl	.LC0@GOTOFF(%ecx), %eax
	.loc 4 41 0
	movl	%eax, -4(%ebp)
	flds	-4(%ebp)
	leave
	.cfi_restore 5
	.cfi_def_cfa 4, 4
	ret
	.cfi_endproc
.LFE482:
	.size	_ZN7IwTween4Ease3oneEff, .-_ZN7IwTween4Ease3oneEff
	.globl	_ZN7IwTween4Ease4zeroEff
	.hidden	_ZN7IwTween4Ease4zeroEff
	.type	_ZN7IwTween4Ease4zeroEff, @function
_ZN7IwTween4Ease4zeroEff:
.LFB483:
	.loc 4 43 0
	.cfi_startproc
	pushl	%ebp
	.cfi_def_cfa_offset 8
	.cfi_offset 5, -8
	movl	%esp, %ebp
	.cfi_def_cfa_register 5
	leal	-4(%esp), %esp
	call	__x86.get_pc_thunk.cx
	addl	$_GLOBAL_OFFSET_TABLE_, %ecx
	.loc 4 44 0
	movl	.LC1@GOTOFF(%ecx), %eax
	.loc 4 45 0
	movl	%eax, -4(%ebp)
	flds	-4(%ebp)
	leave
	.cfi_restore 5
	.cfi_def_cfa 4, 4
	ret
	.cfi_endproc
.LFE483:
	.size	_ZN7IwTween4Ease4zeroEff, .-_ZN7IwTween4Ease4zeroEff
	.globl	_ZN7IwTween4Ease5powInEff
	.hidden	_ZN7IwTween4Ease5powInEff
	.type	_ZN7IwTween4Ease5powInEff, @function
_ZN7IwTween4Ease5powInEff:
.LFB484:
	.loc 4 47 0
	.cfi_startproc
	pushl	%ebp
	.cfi_def_cfa_offset 8
	.cfi_offset 5, -8
	movl	%esp, %ebp
	.cfi_def_cfa_register 5
	pushl	%ebx
	leal	-36(%esp), %esp
	.cfi_offset 3, -12
	call	__x86.get_pc_thunk.bx
	addl	$_GLOBAL_OFFSET_TABLE_, %ebx
.LBB5:
	.loc 4 48 0
	movl	.LC1@GOTOFF(%ebx), %eax
	movd	%eax, %xmm0
	ucomiss	12(%ebp), %xmm0
	jp	.L15
	movl	.LC1@GOTOFF(%ebx), %eax
	movd	%eax, %xmm1
	ucomiss	12(%ebp), %xmm1
	jne	.L15
	.loc 4 48 0 is_stmt 0 discriminator 1
	movl	.LC2@GOTOFF(%ebx), %eax
	movl	%eax, 12(%ebp)
.L15:
	.loc 4 49 0 is_stmt 1
	movl	12(%ebp), %eax
	movl	%eax, 4(%esp)
	movl	8(%ebp), %eax
	movl	%eax, (%esp)
	call	powf@PLT
	fstps	-28(%ebp)
	movl	-28(%ebp), %eax
	movl	%eax, -12(%ebp)
	.loc 4 50 0
	movl	-12(%ebp), %eax
.LBE5:
	.loc 4 51 0
	movl	%eax, -28(%ebp)
	flds	-28(%ebp)
	leal	36(%esp), %esp
	popl	%ebx
	.cfi_restore 3
	popl	%ebp
	.cfi_restore 5
	.cfi_def_cfa 4, 4
	ret
	.cfi_endproc
.LFE484:
	.size	_ZN7IwTween4Ease5powInEff, .-_ZN7IwTween4Ease5powInEff
	.globl	_ZN7IwTween4Ease6powOutEff
	.hidden	_ZN7IwTween4Ease6powOutEff
	.type	_ZN7IwTween4Ease6powOutEff, @function
_ZN7IwTween4Ease6powOutEff:
.LFB485:
	.loc 4 53 0
	.cfi_startproc
	pushl	%ebp
	.cfi_def_cfa_offset 8
	.cfi_offset 5, -8
	movl	%esp, %ebp
	.cfi_def_cfa_register 5
	pushl	%ebx
	leal	-36(%esp), %esp
	.cfi_offset 3, -12
	call	__x86.get_pc_thunk.bx
	addl	$_GLOBAL_OFFSET_TABLE_, %ebx
.LBB6:
	.loc 4 54 0
	movl	.LC1@GOTOFF(%ebx), %eax
	movd	%eax, %xmm1
	ucomiss	12(%ebp), %xmm1
	jp	.L20
	movl	.LC1@GOTOFF(%ebx), %eax
	movd	%eax, %xmm2
	ucomiss	12(%ebp), %xmm2
	jne	.L20
	.loc 4 54 0 is_stmt 0 discriminator 1
	movl	.LC2@GOTOFF(%ebx), %eax
	movl	%eax, 12(%ebp)
.L20:
	.loc 4 55 0 is_stmt 1
	movl	.LC0@GOTOFF(%ebx), %eax
	movd	%eax, %xmm0
	divss	12(%ebp), %xmm0
	movd	%xmm0, %eax
	movl	%eax, 4(%esp)
	movl	8(%ebp), %eax
	movl	%eax, (%esp)
	call	powf@PLT
	fstps	-28(%ebp)
	movl	-28(%ebp), %eax
	movl	%eax, -12(%ebp)
	.loc 4 56 0
	movl	-12(%ebp), %eax
.LBE6:
	.loc 4 57 0
	movl	%eax, -28(%ebp)
	flds	-28(%ebp)
	leal	36(%esp), %esp
	popl	%ebx
	.cfi_restore 3
	popl	%ebp
	.cfi_restore 5
	.cfi_def_cfa 4, 4
	ret
	.cfi_endproc
.LFE485:
	.size	_ZN7IwTween4Ease6powOutEff, .-_ZN7IwTween4Ease6powOutEff
	.globl	_ZN7IwTween4Ease8powInOutEff
	.hidden	_ZN7IwTween4Ease8powInOutEff
	.type	_ZN7IwTween4Ease8powInOutEff, @function
_ZN7IwTween4Ease8powInOutEff:
.LFB486:
	.loc 4 59 0
	.cfi_startproc
	pushl	%ebp
	.cfi_def_cfa_offset 8
	.cfi_offset 5, -8
	movl	%esp, %ebp
	.cfi_def_cfa_register 5
	pushl	%ebx
	leal	-36(%esp), %esp
	.cfi_offset 3, -12
	call	__x86.get_pc_thunk.bx
	addl	$_GLOBAL_OFFSET_TABLE_, %ebx
.LBB7:
	.loc 4 60 0
	movl	.LC1@GOTOFF(%ebx), %eax
	movd	%eax, %xmm6
	ucomiss	12(%ebp), %xmm6
	jp	.L25
	movl	.LC1@GOTOFF(%ebx), %eax
	movd	%eax, %xmm7
	ucomiss	12(%ebp), %xmm7
	jne	.L25
	.loc 4 60 0 is_stmt 0 discriminator 1
	movl	.LC2@GOTOFF(%ebx), %eax
	movl	%eax, 12(%ebp)
.L25:
	.loc 4 61 0 is_stmt 1
	movl	$1, -12(%ebp)
	.loc 4 62 0
	movl	12(%ebp), %eax
	movd	%eax, %xmm6
	cvttss2si	%xmm6, %eax
	movl	%eax, -16(%ebp)
	.loc 4 63 0
	movl	-16(%ebp), %eax
	andl	$1, %eax
	testl	%eax, %eax
	jne	.L27
	.loc 4 64 0
	movl	$-1, -12(%ebp)
.L27:
	.loc 4 66 0
	movl	8(%ebp), %eax
	movd	%eax, %xmm1
	movd	%eax, %xmm7
	addss	%xmm7, %xmm1
	movd	%xmm1, %eax
	movl	%eax, 8(%ebp)
	.loc 4 67 0
	movl	.LC0@GOTOFF(%ebx), %eax
	movd	%eax, %xmm1
	ucomiss	8(%ebp), %xmm1
	jbe	.L33
	.loc 4 68 0
	movl	12(%ebp), %eax
	movl	%eax, 4(%esp)
	movl	8(%ebp), %eax
	movl	%eax, (%esp)
	call	powf@PLT
	fstps	-28(%ebp)
	movl	-28(%ebp), %edx
	movl	.LC3@GOTOFF(%ebx), %eax
	movd	%edx, %xmm2
	movd	%eax, %xmm3
	mulss	%xmm3, %xmm2
	movd	%xmm2, %eax
	jmp	.L30
.L33:
	.loc 4 70 0
	cvtsi2ss	-12(%ebp), %xmm0
	movl	.LC3@GOTOFF(%ebx), %eax
	movd	%eax, %xmm3
	mulss	%xmm0, %xmm3
	movss	%xmm3, -28(%ebp)
	movl	8(%ebp), %eax
	movl	.LC2@GOTOFF(%ebx), %edx
	movd	%eax, %xmm4
	movd	%edx, %xmm2
	subss	%xmm2, %xmm4
	movd	%xmm4, %eax
	movl	12(%ebp), %edx
	movl	%edx, 4(%esp)
	movl	%eax, (%esp)
	call	powf@PLT
	fstps	-32(%ebp)
	movl	-32(%ebp), %eax
	movl	-12(%ebp), %edx
	addl	%edx, %edx
	cvtsi2ss	%edx, %xmm0
	movd	%eax, %xmm5
	addss	%xmm0, %xmm5
	movaps	%xmm5, %xmm0
	mulss	-28(%ebp), %xmm0
	movd	%xmm0, %eax
.L30:
.LBE7:
	.loc 4 71 0
	movl	%eax, -28(%ebp)
	flds	-28(%ebp)
	leal	36(%esp), %esp
	popl	%ebx
	.cfi_restore 3
	popl	%ebp
	.cfi_restore 5
	.cfi_def_cfa 4, 4
	ret
	.cfi_endproc
.LFE486:
	.size	_ZN7IwTween4Ease8powInOutEff, .-_ZN7IwTween4Ease8powInOutEff
	.globl	_ZN7IwTween4Ease5expInEff
	.hidden	_ZN7IwTween4Ease5expInEff
	.type	_ZN7IwTween4Ease5expInEff, @function
_ZN7IwTween4Ease5expInEff:
.LFB487:
	.loc 4 73 0
	.cfi_startproc
	pushl	%ebp
	.cfi_def_cfa_offset 8
	.cfi_offset 5, -8
	movl	%esp, %ebp
	.cfi_def_cfa_register 5
	pushl	%ebx
	leal	-20(%esp), %esp
	.cfi_offset 3, -12
	call	__x86.get_pc_thunk.bx
	addl	$_GLOBAL_OFFSET_TABLE_, %ebx
	.loc 4 74 0
	movl	.LC1@GOTOFF(%ebx), %eax
	movd	%eax, %xmm3
	ucomiss	12(%ebp), %xmm3
	jp	.L35
	movl	.LC1@GOTOFF(%ebx), %eax
	movd	%eax, %xmm4
	ucomiss	12(%ebp), %xmm4
	jne	.L35
	.loc 4 74 0 is_stmt 0 discriminator 1
	movl	.LC2@GOTOFF(%ebx), %eax
	movl	%eax, 12(%ebp)
.L35:
	.loc 4 75 0 is_stmt 1
	movl	.LC1@GOTOFF(%ebx), %eax
	movd	%eax, %xmm5
	ucomiss	8(%ebp), %xmm5
	jp	.L42
	movl	.LC1@GOTOFF(%ebx), %eax
	movd	%eax, %xmm6
	ucomiss	8(%ebp), %xmm6
	je	.L43
.L42:
	.loc 4 75 0 is_stmt 0 discriminator 1
	movl	8(%ebp), %eax
	movl	.LC0@GOTOFF(%ebx), %edx
	movd	%eax, %xmm0
	movd	%edx, %xmm7
	subss	%xmm7, %xmm0
	movl	.LC4@GOTOFF(%ebx), %eax
	movd	%eax, %xmm1
	mulss	%xmm0, %xmm1
	movd	%xmm1, %eax
	movl	%eax, 4(%esp)
	movl	12(%ebp), %eax
	movl	%eax, (%esp)
	call	powf@PLT
	fstps	-12(%ebp)
	movl	-12(%ebp), %edx
	movl	.LC5@GOTOFF(%ebx), %eax
	movd	%edx, %xmm2
	movd	%eax, %xmm3
	subss	%xmm3, %xmm2
	movd	%xmm2, %eax
	jmp	.L39
.L43:
	.loc 4 75 0 discriminator 2
	movl	.LC1@GOTOFF(%ebx), %eax
.L39:
	.loc 4 76 0 is_stmt 1 discriminator 3
	movl	%eax, -12(%ebp)
	flds	-12(%ebp)
	leal	20(%esp), %esp
	popl	%ebx
	.cfi_restore 3
	popl	%ebp
	.cfi_restore 5
	.cfi_def_cfa 4, 4
	ret
	.cfi_endproc
.LFE487:
	.size	_ZN7IwTween4Ease5expInEff, .-_ZN7IwTween4Ease5expInEff
	.globl	_ZN7IwTween4Ease6expOutEff
	.hidden	_ZN7IwTween4Ease6expOutEff
	.type	_ZN7IwTween4Ease6expOutEff, @function
_ZN7IwTween4Ease6expOutEff:
.LFB488:
	.loc 4 78 0
	.cfi_startproc
	pushl	%ebp
	.cfi_def_cfa_offset 8
	.cfi_offset 5, -8
	movl	%esp, %ebp
	.cfi_def_cfa_register 5
	pushl	%ebx
	leal	-20(%esp), %esp
	.cfi_offset 3, -12
	call	__x86.get_pc_thunk.bx
	addl	$_GLOBAL_OFFSET_TABLE_, %ebx
	.loc 4 79 0
	movl	.LC1@GOTOFF(%ebx), %eax
	movd	%eax, %xmm2
	ucomiss	12(%ebp), %xmm2
	jp	.L45
	movl	.LC1@GOTOFF(%ebx), %eax
	movd	%eax, %xmm3
	ucomiss	12(%ebp), %xmm3
	jne	.L45
	.loc 4 79 0 is_stmt 0 discriminator 1
	movl	.LC2@GOTOFF(%ebx), %eax
	movl	%eax, 12(%ebp)
.L45:
	.loc 4 80 0 is_stmt 1
	movl	.LC0@GOTOFF(%ebx), %eax
	movd	%eax, %xmm4
	ucomiss	8(%ebp), %xmm4
	jp	.L52
	movl	.LC0@GOTOFF(%ebx), %eax
	movd	%eax, %xmm5
	ucomiss	8(%ebp), %xmm5
	je	.L53
.L52:
	.loc 4 80 0 is_stmt 0 discriminator 1
	movl	8(%ebp), %edx
	movl	.LC6@GOTOFF(%ebx), %eax
	movd	%edx, %xmm0
	movd	%eax, %xmm6
	mulss	%xmm6, %xmm0
	movd	%xmm0, %eax
	movl	%eax, 4(%esp)
	movl	12(%ebp), %eax
	movl	%eax, (%esp)
	call	powf@PLT
	fstps	-12(%ebp)
	movl	-12(%ebp), %edx
	movl	.LC0@GOTOFF(%ebx), %eax
	movd	%eax, %xmm1
	movd	%edx, %xmm7
	subss	%xmm7, %xmm1
	movd	%xmm1, %eax
	jmp	.L49
.L53:
	.loc 4 80 0 discriminator 2
	movl	.LC0@GOTOFF(%ebx), %eax
.L49:
	.loc 4 81 0 is_stmt 1 discriminator 3
	movl	%eax, -12(%ebp)
	flds	-12(%ebp)
	leal	20(%esp), %esp
	popl	%ebx
	.cfi_restore 3
	popl	%ebp
	.cfi_restore 5
	.cfi_def_cfa 4, 4
	ret
	.cfi_endproc
.LFE488:
	.size	_ZN7IwTween4Ease6expOutEff, .-_ZN7IwTween4Ease6expOutEff
	.globl	_ZN7IwTween4Ease8expInOutEff
	.hidden	_ZN7IwTween4Ease8expInOutEff
	.type	_ZN7IwTween4Ease8expInOutEff, @function
_ZN7IwTween4Ease8expInOutEff:
.LFB489:
	.loc 4 83 0
	.cfi_startproc
	pushl	%ebp
	.cfi_def_cfa_offset 8
	.cfi_offset 5, -8
	movl	%esp, %ebp
	.cfi_def_cfa_register 5
	pushl	%ebx
	leal	-20(%esp), %esp
	.cfi_offset 3, -12
	call	__x86.get_pc_thunk.bx
	addl	$_GLOBAL_OFFSET_TABLE_, %ebx
	.loc 4 84 0
	movl	.LC1@GOTOFF(%ebx), %eax
	movd	%eax, %xmm6
	ucomiss	12(%ebp), %xmm6
	jp	.L55
	movl	.LC1@GOTOFF(%ebx), %eax
	movd	%eax, %xmm7
	ucomiss	12(%ebp), %xmm7
	jne	.L55
	.loc 4 84 0 is_stmt 0 discriminator 1
	movl	.LC2@GOTOFF(%ebx), %eax
	movl	%eax, 12(%ebp)
.L55:
	.loc 4 85 0 is_stmt 1
	movl	8(%ebp), %eax
	movd	%eax, %xmm1
	movd	%eax, %xmm6
	addss	%xmm6, %xmm1
	movd	%xmm1, %eax
	movl	%eax, 8(%ebp)
	.loc 4 86 0
	movl	.LC0@GOTOFF(%ebx), %eax
	movd	%eax, %xmm7
	ucomiss	8(%ebp), %xmm7
	jbe	.L62
	.loc 4 87 0
	movl	8(%ebp), %eax
	movl	.LC0@GOTOFF(%ebx), %edx
	movd	%eax, %xmm0
	movd	%edx, %xmm1
	subss	%xmm1, %xmm0
	movl	.LC4@GOTOFF(%ebx), %eax
	movd	%eax, %xmm2
	mulss	%xmm0, %xmm2
	movd	%xmm2, %eax
	movl	%eax, 4(%esp)
	movl	12(%ebp), %eax
	movl	%eax, (%esp)
	call	powf@PLT
	fstps	-12(%ebp)
	movl	-12(%ebp), %edx
	movl	.LC3@GOTOFF(%ebx), %eax
	movd	%edx, %xmm3
	movd	%eax, %xmm2
	mulss	%xmm2, %xmm3
	movd	%xmm3, %eax
	jmp	.L59
.L62:
	.loc 4 89 0
	movl	8(%ebp), %eax
	movl	.LC0@GOTOFF(%ebx), %edx
	movd	%eax, %xmm0
	movd	%edx, %xmm3
	subss	%xmm3, %xmm0
	movl	.LC6@GOTOFF(%ebx), %eax
	movd	%eax, %xmm4
	mulss	%xmm0, %xmm4
	movd	%xmm4, %eax
	movl	%eax, 4(%esp)
	movl	.LC2@GOTOFF(%ebx), %eax
	movl	%eax, (%esp)
	call	powf@PLT
	fstps	-12(%ebp)
	movl	-12(%ebp), %edx
	movl	.LC2@GOTOFF(%ebx), %eax
	movd	%eax, %xmm0
	movd	%edx, %xmm4
	subss	%xmm4, %xmm0
	movl	.LC3@GOTOFF(%ebx), %eax
	movd	%eax, %xmm5
	mulss	%xmm0, %xmm5
	movd	%xmm5, %eax
.L59:
	.loc 4 90 0
	movl	%eax, -12(%ebp)
	flds	-12(%ebp)
	leal	20(%esp), %esp
	popl	%ebx
	.cfi_restore 3
	popl	%ebp
	.cfi_restore 5
	.cfi_def_cfa 4, 4
	ret
	.cfi_endproc
.LFE489:
	.size	_ZN7IwTween4Ease8expInOutEff, .-_ZN7IwTween4Ease8expInOutEff
	.globl	_ZN7IwTween4Ease6sineInEff
	.hidden	_ZN7IwTween4Ease6sineInEff
	.type	_ZN7IwTween4Ease6sineInEff, @function
_ZN7IwTween4Ease6sineInEff:
.LFB490:
	.loc 4 92 0
	.cfi_startproc
	pushl	%ebp
	.cfi_def_cfa_offset 8
	.cfi_offset 5, -8
	movl	%esp, %ebp
	.cfi_def_cfa_register 5
	pushl	%ebx
	leal	-36(%esp), %esp
	.cfi_offset 3, -12
	call	__x86.get_pc_thunk.bx
	addl	$_GLOBAL_OFFSET_TABLE_, %ebx
.LBB8:
	.loc 4 93 0
	movl	.LC1@GOTOFF(%ebx), %eax
	movd	%eax, %xmm2
	ucomiss	12(%ebp), %xmm2
	jp	.L64
	movl	.LC1@GOTOFF(%ebx), %eax
	movd	%eax, %xmm3
	ucomiss	12(%ebp), %xmm3
	jne	.L64
	.loc 4 93 0 is_stmt 0 discriminator 1
	movl	.LC0@GOTOFF(%ebx), %eax
	movl	%eax, 12(%ebp)
.L64:
	.loc 4 94 0 is_stmt 1
	movl	8(%ebp), %edx
	movl	.LC7@GOTOFF(%ebx), %eax
	movd	%edx, %xmm0
	movd	%eax, %xmm4
	mulss	%xmm4, %xmm0
	movd	%xmm0, %eax
	movl	%eax, (%esp)
	call	cosf@PLT
	fstps	-28(%ebp)
	movl	-28(%ebp), %edx
	movl	.LC0@GOTOFF(%ebx), %eax
	movd	%eax, %xmm1
	movd	%edx, %xmm5
	subss	%xmm5, %xmm1
	movd	%xmm1, %eax
	movl	%eax, -12(%ebp)
	.loc 4 95 0
	movl	.LC0@GOTOFF(%ebx), %eax
	movd	%eax, %xmm6
	ucomiss	12(%ebp), %xmm6
	jp	.L70
	movl	.LC0@GOTOFF(%ebx), %eax
	movd	%eax, %xmm7
	ucomiss	12(%ebp), %xmm7
	je	.L66
.L70:
	.loc 4 96 0
	movl	12(%ebp), %eax
	movl	%eax, 4(%esp)
	movl	-12(%ebp), %eax
	movl	%eax, (%esp)
	call	powf@PLT
	fstps	-28(%ebp)
	movl	-28(%ebp), %eax
	movl	%eax, -12(%ebp)
.L66:
	.loc 4 97 0
	movl	-12(%ebp), %eax
.LBE8:
	.loc 4 98 0
	movl	%eax, -28(%ebp)
	flds	-28(%ebp)
	leal	36(%esp), %esp
	popl	%ebx
	.cfi_restore 3
	popl	%ebp
	.cfi_restore 5
	.cfi_def_cfa 4, 4
	ret
	.cfi_endproc
.LFE490:
	.size	_ZN7IwTween4Ease6sineInEff, .-_ZN7IwTween4Ease6sineInEff
	.globl	_ZN7IwTween4Ease7sineOutEff
	.hidden	_ZN7IwTween4Ease7sineOutEff
	.type	_ZN7IwTween4Ease7sineOutEff, @function
_ZN7IwTween4Ease7sineOutEff:
.LFB491:
	.loc 4 100 0
	.cfi_startproc
	pushl	%ebp
	.cfi_def_cfa_offset 8
	.cfi_offset 5, -8
	movl	%esp, %ebp
	.cfi_def_cfa_register 5
	pushl	%ebx
	leal	-36(%esp), %esp
	.cfi_offset 3, -12
	call	__x86.get_pc_thunk.bx
	addl	$_GLOBAL_OFFSET_TABLE_, %ebx
.LBB9:
	.loc 4 101 0
	movl	.LC1@GOTOFF(%ebx), %eax
	movd	%eax, %xmm1
	ucomiss	12(%ebp), %xmm1
	jp	.L72
	movl	.LC1@GOTOFF(%ebx), %eax
	movd	%eax, %xmm2
	ucomiss	12(%ebp), %xmm2
	jne	.L72
	.loc 4 101 0 is_stmt 0 discriminator 1
	movl	.LC0@GOTOFF(%ebx), %eax
	movl	%eax, 12(%ebp)
.L72:
	.loc 4 102 0 is_stmt 1
	movl	8(%ebp), %edx
	movl	.LC7@GOTOFF(%ebx), %eax
	movd	%edx, %xmm0
	movd	%eax, %xmm3
	mulss	%xmm3, %xmm0
	movd	%xmm0, %eax
	movl	%eax, (%esp)
	call	sinf@PLT
	fstps	-28(%ebp)
	movl	-28(%ebp), %eax
	movl	%eax, -12(%ebp)
	.loc 4 103 0
	movl	.LC0@GOTOFF(%ebx), %eax
	movd	%eax, %xmm4
	ucomiss	12(%ebp), %xmm4
	jp	.L78
	movl	.LC0@GOTOFF(%ebx), %eax
	movd	%eax, %xmm5
	ucomiss	12(%ebp), %xmm5
	je	.L74
.L78:
	.loc 4 104 0
	movl	12(%ebp), %eax
	movl	%eax, 4(%esp)
	movl	-12(%ebp), %eax
	movl	%eax, (%esp)
	call	powf@PLT
	fstps	-28(%ebp)
	movl	-28(%ebp), %eax
	movl	%eax, -12(%ebp)
.L74:
	.loc 4 105 0
	movl	-12(%ebp), %eax
.LBE9:
	.loc 4 106 0
	movl	%eax, -28(%ebp)
	flds	-28(%ebp)
	leal	36(%esp), %esp
	popl	%ebx
	.cfi_restore 3
	popl	%ebp
	.cfi_restore 5
	.cfi_def_cfa 4, 4
	ret
	.cfi_endproc
.LFE491:
	.size	_ZN7IwTween4Ease7sineOutEff, .-_ZN7IwTween4Ease7sineOutEff
	.globl	_ZN7IwTween4Ease9sineInOutEff
	.hidden	_ZN7IwTween4Ease9sineInOutEff
	.type	_ZN7IwTween4Ease9sineInOutEff, @function
_ZN7IwTween4Ease9sineInOutEff:
.LFB492:
	.loc 4 108 0
	.cfi_startproc
	pushl	%ebp
	.cfi_def_cfa_offset 8
	.cfi_offset 5, -8
	movl	%esp, %ebp
	.cfi_def_cfa_register 5
	pushl	%ebx
	leal	-36(%esp), %esp
	.cfi_offset 3, -12
	call	__x86.get_pc_thunk.bx
	addl	$_GLOBAL_OFFSET_TABLE_, %ebx
.LBB10:
	.loc 4 109 0
	movl	.LC1@GOTOFF(%ebx), %eax
	movd	%eax, %xmm3
	ucomiss	12(%ebp), %xmm3
	jp	.L80
	movl	.LC1@GOTOFF(%ebx), %eax
	movd	%eax, %xmm4
	ucomiss	12(%ebp), %xmm4
	jne	.L80
	.loc 4 109 0 is_stmt 0 discriminator 1
	movl	.LC0@GOTOFF(%ebx), %eax
	movl	%eax, 12(%ebp)
.L80:
	.loc 4 110 0 is_stmt 1
	movl	8(%ebp), %edx
	movl	.LC8@GOTOFF(%ebx), %eax
	movd	%edx, %xmm1
	movd	%eax, %xmm5
	mulss	%xmm5, %xmm1
	movd	%xmm1, %eax
	movl	%eax, (%esp)
	call	cosf@PLT
	fstps	-28(%ebp)
	movl	-28(%ebp), %edx
	movl	.LC0@GOTOFF(%ebx), %eax
	movd	%edx, %xmm0
	movd	%eax, %xmm6
	subss	%xmm6, %xmm0
	movl	.LC9@GOTOFF(%ebx), %eax
	movd	%eax, %xmm2
	mulss	%xmm0, %xmm2
	movd	%xmm2, %eax
	movl	%eax, -12(%ebp)
	.loc 4 111 0
	movl	.LC0@GOTOFF(%ebx), %eax
	movd	%eax, %xmm7
	ucomiss	12(%ebp), %xmm7
	jp	.L86
	movl	.LC0@GOTOFF(%ebx), %eax
	movd	%eax, %xmm3
	ucomiss	12(%ebp), %xmm3
	je	.L82
.L86:
	.loc 4 112 0
	movl	12(%ebp), %eax
	movl	%eax, 4(%esp)
	movl	-12(%ebp), %eax
	movl	%eax, (%esp)
	call	powf@PLT
	fstps	-28(%ebp)
	movl	-28(%ebp), %eax
	movl	%eax, -12(%ebp)
.L82:
	.loc 4 113 0
	movl	-12(%ebp), %eax
.LBE10:
	.loc 4 114 0
	movl	%eax, -28(%ebp)
	flds	-28(%ebp)
	leal	36(%esp), %esp
	popl	%ebx
	.cfi_restore 3
	popl	%ebp
	.cfi_restore 5
	.cfi_def_cfa 4, 4
	ret
	.cfi_endproc
.LFE492:
	.size	_ZN7IwTween4Ease9sineInOutEff, .-_ZN7IwTween4Ease9sineInOutEff
	.globl	_ZN7IwTween4Ease9elasticInEff
	.hidden	_ZN7IwTween4Ease9elasticInEff
	.type	_ZN7IwTween4Ease9elasticInEff, @function
_ZN7IwTween4Ease9elasticInEff:
.LFB493:
	.loc 4 116 0
	.cfi_startproc
	pushl	%ebp
	.cfi_def_cfa_offset 8
	.cfi_offset 5, -8
	movl	%esp, %ebp
	.cfi_def_cfa_register 5
	pushl	%ebx
	andl	$-16, %esp
	leal	-32(%esp), %esp
	.cfi_offset 3, -12
	call	__x86.get_pc_thunk.bx
	addl	$_GLOBAL_OFFSET_TABLE_, %ebx
.LBB11:
	.loc 4 117 0
	movl	.LC1@GOTOFF(%ebx), %eax
	movd	%eax, %xmm1
	ucomiss	12(%ebp), %xmm1
	jp	.L88
	movl	.LC1@GOTOFF(%ebx), %eax
	movd	%eax, %xmm2
	ucomiss	12(%ebp), %xmm2
	jne	.L88
	.loc 4 117 0 is_stmt 0 discriminator 1
	movl	.LC10@GOTOFF(%ebx), %eax
	movl	%eax, 12(%ebp)
.L88:
.LBB12:
	.loc 4 118 0 is_stmt 1
	movl	.LC1@GOTOFF(%ebx), %eax
	movd	%eax, %xmm3
	ucomiss	8(%ebp), %xmm3
	jp	.L96
	movl	.LC1@GOTOFF(%ebx), %eax
	movd	%eax, %xmm4
	ucomiss	8(%ebp), %xmm4
	je	.L90
.L96:
	.loc 4 118 0 is_stmt 0 discriminator 1
	movl	.LC0@GOTOFF(%ebx), %eax
	movd	%eax, %xmm5
	ucomiss	8(%ebp), %xmm5
	jp	.L92
	movl	.LC0@GOTOFF(%ebx), %eax
	movd	%eax, %xmm6
	ucomiss	8(%ebp), %xmm6
	jne	.L92
.L90:
	.loc 4 119 0 is_stmt 1
	movl	8(%ebp), %eax
	jmp	.L94
.L92:
.LBB13:
	.loc 4 122 0
	movl	12(%ebp), %eax
	movl	.LC11@GOTOFF(%ebx), %edx
	movd	%eax, %xmm1
	movd	%edx, %xmm7
	divss	%xmm7, %xmm1
	movd	%xmm1, %eax
	movl	%eax, 28(%esp)
	.loc 4 123 0
	movl	8(%ebp), %eax
	movl	.LC0@GOTOFF(%ebx), %edx
	movd	%eax, %xmm2
	movd	%edx, %xmm1
	subss	%xmm1, %xmm2
	movd	%xmm2, %eax
	movl	%eax, 8(%ebp)
	.loc 4 124 0
	movl	8(%ebp), %edx
	movl	.LC4@GOTOFF(%ebx), %eax
	movd	%edx, %xmm3
	movd	%eax, %xmm2
	mulss	%xmm2, %xmm3
	movd	%xmm3, %eax
	movl	%eax, 4(%esp)
	movl	.LC2@GOTOFF(%ebx), %eax
	movl	%eax, (%esp)
	call	powf@PLT
	fstps	12(%esp)
	movl	12(%esp), %eax
	movss	.LC12@GOTOFF(%ebx), %xmm0
	movd	%eax, %xmm4
	xorps	%xmm0, %xmm4
	movss	%xmm4, 12(%esp)
	movl	8(%ebp), %eax
	movd	%eax, %xmm0
	subss	28(%esp), %xmm0
	movl	.LC8@GOTOFF(%ebx), %eax
	movd	%eax, %xmm3
	mulss	%xmm3, %xmm0
	movaps	%xmm0, %xmm5
	addss	%xmm0, %xmm5
	movd	%xmm5, %eax
	movd	%eax, %xmm6
	divss	12(%ebp), %xmm6
	movd	%xmm6, %eax
	movl	%eax, (%esp)
	call	sinf@PLT
	fstps	8(%esp)
	movl	8(%esp), %eax
	movd	%eax, %xmm7
	mulss	12(%esp), %xmm7
	movd	%xmm7, %eax
.L94:
.LBE13:
.LBE12:
.LBE11:
	.loc 4 126 0
	movl	%eax, 12(%esp)
	flds	12(%esp)
	movl	-4(%ebp), %ebx
	leave
	.cfi_restore 5
	.cfi_restore 3
	.cfi_def_cfa 4, 4
	ret
	.cfi_endproc
.LFE493:
	.size	_ZN7IwTween4Ease9elasticInEff, .-_ZN7IwTween4Ease9elasticInEff
	.globl	_ZN7IwTween4Ease10elasticOutEff
	.hidden	_ZN7IwTween4Ease10elasticOutEff
	.type	_ZN7IwTween4Ease10elasticOutEff, @function
_ZN7IwTween4Ease10elasticOutEff:
.LFB494:
	.loc 4 128 0
	.cfi_startproc
	pushl	%ebp
	.cfi_def_cfa_offset 8
	.cfi_offset 5, -8
	movl	%esp, %ebp
	.cfi_def_cfa_register 5
	pushl	%esi
	pushl	%ebx
	leal	-32(%esp), %esp
	.cfi_offset 6, -12
	.cfi_offset 3, -16
	call	__x86.get_pc_thunk.bx
	addl	$_GLOBAL_OFFSET_TABLE_, %ebx
.LBB14:
	.loc 4 129 0
	movl	.LC1@GOTOFF(%ebx), %eax
	movd	%eax, %xmm6
	ucomiss	12(%ebp), %xmm6
	jp	.L98
	movl	.LC1@GOTOFF(%ebx), %eax
	movd	%eax, %xmm7
	ucomiss	12(%ebp), %xmm7
	jne	.L98
	.loc 4 129 0 is_stmt 0 discriminator 1
	movl	.LC10@GOTOFF(%ebx), %eax
	movl	%eax, 12(%ebp)
.L98:
.LBB15:
	.loc 4 130 0 is_stmt 1
	movl	.LC1@GOTOFF(%ebx), %eax
	movd	%eax, %xmm6
	ucomiss	8(%ebp), %xmm6
	jp	.L106
	movl	.LC1@GOTOFF(%ebx), %eax
	movd	%eax, %xmm7
	ucomiss	8(%ebp), %xmm7
	je	.L100
.L106:
	.loc 4 130 0 is_stmt 0 discriminator 1
	movl	.LC0@GOTOFF(%ebx), %eax
	movd	%eax, %xmm1
	ucomiss	8(%ebp), %xmm1
	jp	.L102
	movl	.LC0@GOTOFF(%ebx), %eax
	movd	%eax, %xmm2
	ucomiss	8(%ebp), %xmm2
	jne	.L102
.L100:
	.loc 4 131 0 is_stmt 1
	movl	8(%ebp), %eax
	jmp	.L104
.L102:
.LBB16:
	.loc 4 134 0
	movl	12(%ebp), %eax
	movl	.LC11@GOTOFF(%ebx), %edx
	movd	%eax, %xmm1
	movd	%edx, %xmm3
	divss	%xmm3, %xmm1
	movd	%xmm1, %eax
	movl	%eax, -12(%ebp)
	.loc 4 135 0
	movl	8(%ebp), %edx
	movl	.LC6@GOTOFF(%ebx), %eax
	movd	%edx, %xmm2
	movd	%eax, %xmm4
	mulss	%xmm4, %xmm2
	movd	%xmm2, %eax
	movl	%eax, 4(%esp)
	movl	.LC2@GOTOFF(%ebx), %eax
	movl	%eax, (%esp)
	call	powf@PLT
	fstps	-28(%ebp)
	movl	-28(%ebp), %esi
	movl	8(%ebp), %eax
	movd	%eax, %xmm0
	subss	-12(%ebp), %xmm0
	movl	.LC8@GOTOFF(%ebx), %eax
	movd	%eax, %xmm5
	mulss	%xmm5, %xmm0
	movaps	%xmm0, %xmm3
	addss	%xmm0, %xmm3
	movd	%xmm3, %eax
	movd	%eax, %xmm4
	divss	12(%ebp), %xmm4
	movd	%xmm4, %eax
	movl	%eax, (%esp)
	call	sinf@PLT
	fstps	-28(%ebp)
	movl	-28(%ebp), %eax
	movd	%esi, %xmm0
	movd	%eax, %xmm6
	mulss	%xmm6, %xmm0
	movl	.LC0@GOTOFF(%ebx), %eax
	movd	%eax, %xmm5
	addss	%xmm0, %xmm5
	movd	%xmm5, %eax
.L104:
.LBE16:
.LBE15:
.LBE14:
	.loc 4 137 0
	movl	%eax, -28(%ebp)
	flds	-28(%ebp)
	leal	32(%esp), %esp
	popl	%ebx
	.cfi_restore 3
	popl	%esi
	.cfi_restore 6
	popl	%ebp
	.cfi_restore 5
	.cfi_def_cfa 4, 4
	ret
	.cfi_endproc
.LFE494:
	.size	_ZN7IwTween4Ease10elasticOutEff, .-_ZN7IwTween4Ease10elasticOutEff
	.globl	_ZN7IwTween4Ease12elasticInOutEff
	.hidden	_ZN7IwTween4Ease12elasticInOutEff
	.type	_ZN7IwTween4Ease12elasticInOutEff, @function
_ZN7IwTween4Ease12elasticInOutEff:
.LFB495:
	.loc 4 139 0
	.cfi_startproc
	pushl	%ebp
	.cfi_def_cfa_offset 8
	.cfi_offset 5, -8
	movl	%esp, %ebp
	.cfi_def_cfa_register 5
	pushl	%esi
	pushl	%ebx
	leal	-32(%esp), %esp
	.cfi_offset 6, -12
	.cfi_offset 3, -16
	call	__x86.get_pc_thunk.bx
	addl	$_GLOBAL_OFFSET_TABLE_, %ebx
.LBB17:
	.loc 4 140 0
	movl	.LC1@GOTOFF(%ebx), %eax
	movd	%eax, %xmm6
	ucomiss	12(%ebp), %xmm6
	jp	.L108
	movl	.LC1@GOTOFF(%ebx), %eax
	movd	%eax, %xmm7
	ucomiss	12(%ebp), %xmm7
	jne	.L108
	.loc 4 140 0 is_stmt 0 discriminator 1
	movl	.LC10@GOTOFF(%ebx), %eax
	movl	%eax, 12(%ebp)
.L108:
.LBB18:
	.loc 4 141 0 is_stmt 1
	movl	.LC1@GOTOFF(%ebx), %eax
	movd	%eax, %xmm6
	ucomiss	8(%ebp), %xmm6
	jp	.L120
	movl	.LC1@GOTOFF(%ebx), %eax
	movd	%eax, %xmm7
	ucomiss	8(%ebp), %xmm7
	je	.L110
.L120:
	.loc 4 141 0 is_stmt 0 discriminator 1
	movl	.LC0@GOTOFF(%ebx), %eax
	movd	%eax, %xmm1
	ucomiss	8(%ebp), %xmm1
	jp	.L112
	movl	.LC0@GOTOFF(%ebx), %eax
	movd	%eax, %xmm2
	ucomiss	8(%ebp), %xmm2
	jne	.L112
.L110:
	.loc 4 142 0 is_stmt 1
	movl	8(%ebp), %eax
	jmp	.L114
.L112:
.LBB19:
	.loc 4 145 0
	movl	8(%ebp), %eax
	movd	%eax, %xmm1
	movd	%eax, %xmm3
	addss	%xmm3, %xmm1
	movd	%xmm1, %eax
	movl	%eax, 8(%ebp)
	.loc 4 146 0
	movl	.LC1@GOTOFF(%ebx), %eax
	movd	%eax, %xmm4
	ucomiss	12(%ebp), %xmm4
	jp	.L115
	movl	.LC1@GOTOFF(%ebx), %eax
	movd	%eax, %xmm5
	ucomiss	12(%ebp), %xmm5
	jne	.L115
	.loc 4 147 0
	movl	.LC13@GOTOFF(%ebx), %eax
	movl	%eax, 12(%ebp)
.L115:
	.loc 4 149 0
	movl	12(%ebp), %eax
	movl	.LC11@GOTOFF(%ebx), %edx
	movd	%eax, %xmm2
	movd	%edx, %xmm6
	divss	%xmm6, %xmm2
	movd	%xmm2, %eax
	movl	%eax, -12(%ebp)
	.loc 4 150 0
	movl	8(%ebp), %eax
	movl	.LC0@GOTOFF(%ebx), %edx
	movd	%eax, %xmm3
	movd	%edx, %xmm7
	subss	%xmm7, %xmm3
	movd	%xmm3, %eax
	movl	%eax, 8(%ebp)
	.loc 4 151 0
	movl	.LC1@GOTOFF(%ebx), %eax
	movd	%eax, %xmm1
	ucomiss	8(%ebp), %xmm1
	jbe	.L123
	.loc 4 152 0
	movl	8(%ebp), %edx
	movl	.LC4@GOTOFF(%ebx), %eax
	movd	%edx, %xmm4
	movd	%eax, %xmm2
	mulss	%xmm2, %xmm4
	movd	%xmm4, %eax
	movl	%eax, 4(%esp)
	movl	.LC2@GOTOFF(%ebx), %eax
	movl	%eax, (%esp)
	call	powf@PLT
	fstps	-28(%ebp)
	movl	-28(%ebp), %edx
	movl	.LC9@GOTOFF(%ebx), %eax
	movd	%edx, %xmm5
	movd	%eax, %xmm3
	mulss	%xmm3, %xmm5
	movss	%xmm5, -28(%ebp)
	movl	8(%ebp), %eax
	movd	%eax, %xmm0
	subss	-12(%ebp), %xmm0
	movl	.LC8@GOTOFF(%ebx), %eax
	movd	%eax, %xmm4
	mulss	%xmm4, %xmm0
	movaps	%xmm0, %xmm6
	addss	%xmm0, %xmm6
	movd	%xmm6, %eax
	movd	%eax, %xmm7
	divss	12(%ebp), %xmm7
	movd	%xmm7, %eax
	movl	%eax, (%esp)
	call	sinf@PLT
	fstps	-32(%ebp)
	movl	-32(%ebp), %eax
	movd	%eax, %xmm1
	mulss	-28(%ebp), %xmm1
	movd	%xmm1, %eax
	jmp	.L114
.L123:
	.loc 4 154 0
	movl	8(%ebp), %edx
	movl	.LC6@GOTOFF(%ebx), %eax
	movd	%edx, %xmm2
	movd	%eax, %xmm5
	mulss	%xmm5, %xmm2
	movd	%xmm2, %eax
	movl	%eax, 4(%esp)
	movl	.LC2@GOTOFF(%ebx), %eax
	movl	%eax, (%esp)
	call	powf@PLT
	fstps	-28(%ebp)
	movl	-28(%ebp), %esi
	movl	8(%ebp), %eax
	movd	%eax, %xmm0
	subss	-12(%ebp), %xmm0
	movl	.LC8@GOTOFF(%ebx), %eax
	movd	%eax, %xmm6
	mulss	%xmm6, %xmm0
	movaps	%xmm0, %xmm3
	addss	%xmm0, %xmm3
	movd	%xmm3, %eax
	movd	%eax, %xmm4
	divss	12(%ebp), %xmm4
	movd	%xmm4, %eax
	movl	%eax, (%esp)
	call	sinf@PLT
	fstps	-28(%ebp)
	movl	-28(%ebp), %eax
	movd	%esi, %xmm0
	movd	%eax, %xmm7
	mulss	%xmm7, %xmm0
	movl	.LC3@GOTOFF(%ebx), %eax
	movd	%eax, %xmm1
	mulss	%xmm1, %xmm0
	movl	.LC0@GOTOFF(%ebx), %eax
	movd	%eax, %xmm5
	addss	%xmm0, %xmm5
	movd	%xmm5, %eax
.L114:
.LBE19:
.LBE18:
.LBE17:
	.loc 4 156 0
	movl	%eax, -28(%ebp)
	flds	-28(%ebp)
	leal	32(%esp), %esp
	popl	%ebx
	.cfi_restore 3
	popl	%esi
	.cfi_restore 6
	popl	%ebp
	.cfi_restore 5
	.cfi_def_cfa 4, 4
	ret
	.cfi_endproc
.LFE495:
	.size	_ZN7IwTween4Ease12elasticInOutEff, .-_ZN7IwTween4Ease12elasticInOutEff
	.globl	_ZN7IwTween4Ease11_bounceTimeEf
	.hidden	_ZN7IwTween4Ease11_bounceTimeEf
	.type	_ZN7IwTween4Ease11_bounceTimeEf, @function
_ZN7IwTween4Ease11_bounceTimeEf:
.LFB496:
	.loc 4 158 0
	.cfi_startproc
	pushl	%ebp
	.cfi_def_cfa_offset 8
	.cfi_offset 5, -8
	movl	%esp, %ebp
	.cfi_def_cfa_register 5
	leal	-4(%esp), %esp
	call	__x86.get_pc_thunk.cx
	addl	$_GLOBAL_OFFSET_TABLE_, %ecx
	.loc 4 159 0
	cvtss2sd	8(%ebp), %xmm1
	movsd	.LC14@GOTOFF(%ecx), %xmm0
	ucomisd	%xmm1, %xmm0
	jbe	.L135
	.loc 4 161 0
	movl	8(%ebp), %edx
	movl	.LC15@GOTOFF(%ecx), %eax
	movd	%edx, %xmm2
	movd	%eax, %xmm7
	mulss	%xmm7, %xmm2
	movd	%xmm2, %eax
	movd	%eax, %xmm3
	mulss	8(%ebp), %xmm3
	movd	%xmm3, %eax
	jmp	.L127
.L135:
	.loc 4 163 0
	cvtss2sd	8(%ebp), %xmm1
	movsd	.LC16@GOTOFF(%ecx), %xmm0
	ucomisd	%xmm1, %xmm0
	jbe	.L136
	.loc 4 165 0
	movl	8(%ebp), %eax
	movl	.LC17@GOTOFF(%ecx), %edx
	movd	%eax, %xmm4
	movd	%edx, %xmm7
	subss	%xmm7, %xmm4
	movd	%xmm4, %eax
	movl	%eax, 8(%ebp)
	.loc 4 166 0
	movl	8(%ebp), %edx
	movl	.LC15@GOTOFF(%ecx), %eax
	movd	%edx, %xmm5
	movd	%eax, %xmm1
	mulss	%xmm1, %xmm5
	movd	%xmm5, %eax
	movd	%eax, %xmm0
	mulss	8(%ebp), %xmm0
	movl	.LC18@GOTOFF(%ecx), %eax
	movd	%eax, %xmm6
	addss	%xmm0, %xmm6
	movd	%xmm6, %eax
	jmp	.L127
.L136:
	.loc 4 168 0
	cvtss2sd	8(%ebp), %xmm1
	movsd	.LC19@GOTOFF(%ecx), %xmm0
	ucomisd	%xmm1, %xmm0
	jbe	.L137
	.loc 4 170 0
	movl	8(%ebp), %eax
	movl	.LC20@GOTOFF(%ecx), %edx
	movd	%eax, %xmm7
	movd	%edx, %xmm2
	subss	%xmm2, %xmm7
	movd	%xmm7, %eax
	movl	%eax, 8(%ebp)
	.loc 4 171 0
	movl	8(%ebp), %edx
	movl	.LC15@GOTOFF(%ecx), %eax
	movd	%edx, %xmm2
	movd	%eax, %xmm3
	mulss	%xmm3, %xmm2
	movd	%xmm2, %eax
	movd	%eax, %xmm0
	mulss	8(%ebp), %xmm0
	movl	.LC21@GOTOFF(%ecx), %eax
	movd	%eax, %xmm3
	addss	%xmm0, %xmm3
	movd	%xmm3, %eax
	jmp	.L127
.L137:
	.loc 4 173 0
	movl	8(%ebp), %eax
	movl	.LC22@GOTOFF(%ecx), %edx
	movd	%eax, %xmm4
	movd	%edx, %xmm5
	subss	%xmm5, %xmm4
	movd	%xmm4, %eax
	movl	%eax, 8(%ebp)
	.loc 4 174 0
	movl	8(%ebp), %edx
	movl	.LC15@GOTOFF(%ecx), %eax
	movd	%edx, %xmm5
	movd	%eax, %xmm4
	mulss	%xmm4, %xmm5
	movd	%xmm5, %eax
	movd	%eax, %xmm0
	mulss	8(%ebp), %xmm0
	movl	.LC23@GOTOFF(%ecx), %eax
	movd	%eax, %xmm6
	addss	%xmm0, %xmm6
	movd	%xmm6, %eax
.L127:
	.loc 4 175 0
	movl	%eax, -4(%ebp)
	flds	-4(%ebp)
	leave
	.cfi_restore 5
	.cfi_def_cfa 4, 4
	ret
	.cfi_endproc
.LFE496:
	.size	_ZN7IwTween4Ease11_bounceTimeEf, .-_ZN7IwTween4Ease11_bounceTimeEf
	.globl	_ZN7IwTween4Ease8bounceInEff
	.hidden	_ZN7IwTween4Ease8bounceInEff
	.type	_ZN7IwTween4Ease8bounceInEff, @function
_ZN7IwTween4Ease8bounceInEff:
.LFB497:
	.loc 4 177 0
	.cfi_startproc
	pushl	%ebp
	.cfi_def_cfa_offset 8
	.cfi_offset 5, -8
	movl	%esp, %ebp
	.cfi_def_cfa_register 5
	pushl	%ebx
	leal	-12(%esp), %esp
	.cfi_offset 3, -12
	call	__x86.get_pc_thunk.bx
	addl	$_GLOBAL_OFFSET_TABLE_, %ebx
	.loc 4 178 0
	movl	.LC1@GOTOFF(%ebx), %eax
	movd	%eax, %xmm2
	ucomiss	12(%ebp), %xmm2
	jp	.L139
	movl	.LC1@GOTOFF(%ebx), %eax
	movd	%eax, %xmm3
	ucomiss	12(%ebp), %xmm3
	jne	.L139
	.loc 4 178 0 is_stmt 0 discriminator 1
	movl	.LC0@GOTOFF(%ebx), %eax
	movl	%eax, 12(%ebp)
.L139:
	.loc 4 179 0 is_stmt 1
	movl	.LC0@GOTOFF(%ebx), %eax
	movd	%eax, %xmm0
	subss	8(%ebp), %xmm0
	movd	%xmm0, %eax
	movl	%eax, (%esp)
	call	_ZN7IwTween4Ease11_bounceTimeEf
	fstps	-12(%ebp)
	movl	-12(%ebp), %edx
	movl	.LC0@GOTOFF(%ebx), %eax
	movd	%eax, %xmm1
	movd	%edx, %xmm4
	subss	%xmm4, %xmm1
	movd	%xmm1, %eax
	.loc 4 180 0
	movl	%eax, -12(%ebp)
	flds	-12(%ebp)
	leal	12(%esp), %esp
	popl	%ebx
	.cfi_restore 3
	popl	%ebp
	.cfi_restore 5
	.cfi_def_cfa 4, 4
	ret
	.cfi_endproc
.LFE497:
	.size	_ZN7IwTween4Ease8bounceInEff, .-_ZN7IwTween4Ease8bounceInEff
	.globl	_ZN7IwTween4Ease9bounceOutEff
	.hidden	_ZN7IwTween4Ease9bounceOutEff
	.type	_ZN7IwTween4Ease9bounceOutEff, @function
_ZN7IwTween4Ease9bounceOutEff:
.LFB498:
	.loc 4 182 0
	.cfi_startproc
	pushl	%ebp
	.cfi_def_cfa_offset 8
	.cfi_offset 5, -8
	movl	%esp, %ebp
	.cfi_def_cfa_register 5
	pushl	%ebx
	leal	-12(%esp), %esp
	.cfi_offset 3, -12
	call	__x86.get_pc_thunk.bx
	addl	$_GLOBAL_OFFSET_TABLE_, %ebx
	.loc 4 183 0
	movl	.LC1@GOTOFF(%ebx), %eax
	movd	%eax, %xmm1
	ucomiss	12(%ebp), %xmm1
	jp	.L144
	movl	.LC1@GOTOFF(%ebx), %eax
	movd	%eax, %xmm2
	ucomiss	12(%ebp), %xmm2
	jne	.L144
	.loc 4 183 0 is_stmt 0 discriminator 1
	movl	.LC0@GOTOFF(%ebx), %eax
	movl	%eax, 12(%ebp)
.L144:
	.loc 4 184 0 is_stmt 1
	movl	.LC0@GOTOFF(%ebx), %eax
	movd	%eax, %xmm0
	subss	8(%ebp), %xmm0
	movd	%xmm0, %eax
	movl	%eax, (%esp)
	call	_ZN7IwTween4Ease11_bounceTimeEf
	fstps	-12(%ebp)
	movl	-12(%ebp), %eax
	.loc 4 185 0
	movl	%eax, -12(%ebp)
	flds	-12(%ebp)
	leal	12(%esp), %esp
	popl	%ebx
	.cfi_restore 3
	popl	%ebp
	.cfi_restore 5
	.cfi_def_cfa 4, 4
	ret
	.cfi_endproc
.LFE498:
	.size	_ZN7IwTween4Ease9bounceOutEff, .-_ZN7IwTween4Ease9bounceOutEff
	.globl	_ZN7IwTween4Ease11bounceInOutEff
	.hidden	_ZN7IwTween4Ease11bounceInOutEff
	.type	_ZN7IwTween4Ease11bounceInOutEff, @function
_ZN7IwTween4Ease11bounceInOutEff:
.LFB499:
	.loc 4 187 0
	.cfi_startproc
	pushl	%ebp
	.cfi_def_cfa_offset 8
	.cfi_offset 5, -8
	movl	%esp, %ebp
	.cfi_def_cfa_register 5
	pushl	%ebx
	leal	-12(%esp), %esp
	.cfi_offset 3, -12
	call	__x86.get_pc_thunk.bx
	addl	$_GLOBAL_OFFSET_TABLE_, %ebx
	.loc 4 188 0
	movl	.LC1@GOTOFF(%ebx), %eax
	movd	%eax, %xmm7
	ucomiss	12(%ebp), %xmm7
	jp	.L149
	movl	.LC1@GOTOFF(%ebx), %eax
	movd	%eax, %xmm7
	ucomiss	12(%ebp), %xmm7
	jne	.L149
	.loc 4 188 0 is_stmt 0 discriminator 1
	movl	.LC0@GOTOFF(%ebx), %eax
	movl	%eax, 12(%ebp)
.L149:
	.loc 4 189 0 is_stmt 1
	movl	.LC3@GOTOFF(%ebx), %eax
	movd	%eax, %xmm1
	ucomiss	8(%ebp), %xmm1
	jbe	.L156
	.loc 4 191 0
	movl	8(%ebp), %eax
	movd	%eax, %xmm1
	movd	%eax, %xmm2
	addss	%xmm2, %xmm1
	movd	%xmm1, %eax
	movl	%eax, 8(%ebp)
	.loc 4 192 0
	movl	.LC0@GOTOFF(%ebx), %eax
	movd	%eax, %xmm2
	subss	8(%ebp), %xmm2
	movd	%xmm2, %eax
	movl	%eax, (%esp)
	call	_ZN7IwTween4Ease11_bounceTimeEf
	fstps	-12(%ebp)
	movl	-12(%ebp), %edx
	movl	.LC0@GOTOFF(%ebx), %eax
	movd	%eax, %xmm0
	movd	%edx, %xmm3
	subss	%xmm3, %xmm0
	movl	.LC3@GOTOFF(%ebx), %eax
	movd	%eax, %xmm3
	mulss	%xmm0, %xmm3
	movd	%xmm3, %eax
	jmp	.L153
.L156:
	.loc 4 195 0
	movl	8(%ebp), %eax
	movd	%eax, %xmm4
	movd	%eax, %xmm5
	addss	%xmm5, %xmm4
	movd	%xmm4, %eax
	movl	.LC0@GOTOFF(%ebx), %edx
	movd	%eax, %xmm5
	movd	%edx, %xmm4
	subss	%xmm4, %xmm5
	movd	%xmm5, %eax
	movl	%eax, (%esp)
	call	_ZN7IwTween4Ease11_bounceTimeEf
	fstps	-12(%ebp)
	movl	-12(%ebp), %edx
	movl	.LC3@GOTOFF(%ebx), %eax
	movd	%edx, %xmm0
	movd	%eax, %xmm6
	mulss	%xmm6, %xmm0
	movl	.LC3@GOTOFF(%ebx), %eax
	movd	%eax, %xmm6
	addss	%xmm0, %xmm6
	movd	%xmm6, %eax
.L153:
	.loc 4 196 0
	movl	%eax, -12(%ebp)
	flds	-12(%ebp)
	leal	12(%esp), %esp
	popl	%ebx
	.cfi_restore 3
	popl	%ebp
	.cfi_restore 5
	.cfi_def_cfa 4, 4
	ret
	.cfi_endproc
.LFE499:
	.size	_ZN7IwTween4Ease11bounceInOutEff, .-_ZN7IwTween4Ease11bounceInOutEff
	.globl	_ZN7IwTween4Ease6backInEff
	.hidden	_ZN7IwTween4Ease6backInEff
	.type	_ZN7IwTween4Ease6backInEff, @function
_ZN7IwTween4Ease6backInEff:
.LFB500:
	.loc 4 198 0
	.cfi_startproc
	pushl	%ebp
	.cfi_def_cfa_offset 8
	.cfi_offset 5, -8
	movl	%esp, %ebp
	.cfi_def_cfa_register 5
	leal	-20(%esp), %esp
	call	__x86.get_pc_thunk.cx
	addl	$_GLOBAL_OFFSET_TABLE_, %ecx
.LBB20:
	.loc 4 199 0
	movl	.LC1@GOTOFF(%ecx), %eax
	movd	%eax, %xmm4
	ucomiss	12(%ebp), %xmm4
	jp	.L158
	movl	.LC1@GOTOFF(%ecx), %eax
	movd	%eax, %xmm5
	ucomiss	12(%ebp), %xmm5
	jne	.L158
	.loc 4 199 0 is_stmt 0 discriminator 1
	movl	.LC0@GOTOFF(%ecx), %eax
	movl	%eax, 12(%ebp)
.L158:
	.loc 4 200 0 is_stmt 1
	movl	.LC24@GOTOFF(%ecx), %eax
	movl	%eax, -4(%ebp)
	.loc 4 201 0
	movl	8(%ebp), %eax
	movd	%eax, %xmm1
	mulss	8(%ebp), %xmm1
	movl	-4(%ebp), %edx
	movl	.LC0@GOTOFF(%ecx), %eax
	movd	%edx, %xmm2
	movd	%eax, %xmm6
	addss	%xmm6, %xmm2
	movd	%xmm2, %eax
	movd	%eax, %xmm3
	mulss	8(%ebp), %xmm3
	movd	%xmm3, %eax
	movd	%eax, %xmm0
	subss	-4(%ebp), %xmm0
	mulss	%xmm0, %xmm1
	movd	%xmm1, %eax
.LBE20:
	.loc 4 202 0
	movl	%eax, -20(%ebp)
	flds	-20(%ebp)
	leave
	.cfi_restore 5
	.cfi_def_cfa 4, 4
	ret
	.cfi_endproc
.LFE500:
	.size	_ZN7IwTween4Ease6backInEff, .-_ZN7IwTween4Ease6backInEff
	.globl	_ZN7IwTween4Ease7backOutEff
	.hidden	_ZN7IwTween4Ease7backOutEff
	.type	_ZN7IwTween4Ease7backOutEff, @function
_ZN7IwTween4Ease7backOutEff:
.LFB501:
	.loc 4 204 0
	.cfi_startproc
	pushl	%ebp
	.cfi_def_cfa_offset 8
	.cfi_offset 5, -8
	movl	%esp, %ebp
	.cfi_def_cfa_register 5
	leal	-20(%esp), %esp
	call	__x86.get_pc_thunk.cx
	addl	$_GLOBAL_OFFSET_TABLE_, %ecx
.LBB21:
	.loc 4 205 0
	movl	.LC1@GOTOFF(%ecx), %eax
	movd	%eax, %xmm6
	ucomiss	12(%ebp), %xmm6
	jp	.L163
	movl	.LC1@GOTOFF(%ecx), %eax
	movd	%eax, %xmm7
	ucomiss	12(%ebp), %xmm7
	jne	.L163
	.loc 4 205 0 is_stmt 0 discriminator 1
	movl	.LC0@GOTOFF(%ecx), %eax
	movl	%eax, 12(%ebp)
.L163:
	.loc 4 206 0 is_stmt 1
	movl	.LC24@GOTOFF(%ecx), %eax
	movl	%eax, -4(%ebp)
	.loc 4 207 0
	movl	8(%ebp), %eax
	movl	.LC0@GOTOFF(%ecx), %edx
	movd	%eax, %xmm2
	movd	%edx, %xmm6
	subss	%xmm6, %xmm2
	movd	%xmm2, %eax
	movl	%eax, 8(%ebp)
	.loc 4 208 0
	movl	8(%ebp), %eax
	movd	%eax, %xmm1
	mulss	8(%ebp), %xmm1
	movl	-4(%ebp), %edx
	movl	.LC0@GOTOFF(%ecx), %eax
	movd	%edx, %xmm3
	movd	%eax, %xmm7
	addss	%xmm7, %xmm3
	movd	%xmm3, %eax
	movd	%eax, %xmm4
	mulss	8(%ebp), %xmm4
	movd	%xmm4, %eax
	movd	%eax, %xmm0
	addss	-4(%ebp), %xmm0
	mulss	%xmm1, %xmm0
	movl	.LC0@GOTOFF(%ecx), %eax
	movd	%eax, %xmm5
	addss	%xmm0, %xmm5
	movd	%xmm5, %eax
.LBE21:
	.loc 4 209 0
	movl	%eax, -20(%ebp)
	flds	-20(%ebp)
	leave
	.cfi_restore 5
	.cfi_def_cfa 4, 4
	ret
	.cfi_endproc
.LFE501:
	.size	_ZN7IwTween4Ease7backOutEff, .-_ZN7IwTween4Ease7backOutEff
	.globl	_ZN7IwTween4Ease9backInOutEff
	.hidden	_ZN7IwTween4Ease9backInOutEff
	.type	_ZN7IwTween4Ease9backInOutEff, @function
_ZN7IwTween4Ease9backInOutEff:
.LFB502:
	.loc 4 211 0
	.cfi_startproc
	pushl	%ebp
	.cfi_def_cfa_offset 8
	.cfi_offset 5, -8
	movl	%esp, %ebp
	.cfi_def_cfa_register 5
	leal	-20(%esp), %esp
	call	__x86.get_pc_thunk.cx
	addl	$_GLOBAL_OFFSET_TABLE_, %ecx
.LBB22:
	.loc 4 212 0
	movl	.LC1@GOTOFF(%ecx), %eax
	movd	%eax, %xmm4
	ucomiss	12(%ebp), %xmm4
	jp	.L168
	movl	.LC1@GOTOFF(%ecx), %eax
	movd	%eax, %xmm5
	ucomiss	12(%ebp), %xmm5
	jne	.L168
	.loc 4 212 0 is_stmt 0 discriminator 1
	movl	.LC0@GOTOFF(%ecx), %eax
	movl	%eax, 12(%ebp)
.L168:
	.loc 4 213 0 is_stmt 1
	movl	.LC25@GOTOFF(%ecx), %eax
	movl	%eax, -4(%ebp)
	.loc 4 214 0
	movl	8(%ebp), %eax
	movd	%eax, %xmm2
	movd	%eax, %xmm6
	addss	%xmm6, %xmm2
	movd	%xmm2, %eax
	movl	%eax, 8(%ebp)
	.loc 4 215 0
	movl	.LC0@GOTOFF(%ecx), %eax
	movd	%eax, %xmm7
	ucomiss	8(%ebp), %xmm7
	jbe	.L175
	.loc 4 216 0
	movl	8(%ebp), %eax
	movd	%eax, %xmm1
	mulss	8(%ebp), %xmm1
	movl	-4(%ebp), %edx
	movl	.LC0@GOTOFF(%ecx), %eax
	movd	%edx, %xmm3
	movd	%eax, %xmm4
	addss	%xmm4, %xmm3
	movd	%xmm3, %eax
	movd	%eax, %xmm4
	mulss	8(%ebp), %xmm4
	movd	%xmm4, %eax
	movd	%eax, %xmm0
	subss	-4(%ebp), %xmm0
	mulss	%xmm0, %xmm1
	movd	%xmm1, %eax
	movl	.LC2@GOTOFF(%ecx), %edx
	movd	%eax, %xmm5
	movd	%edx, %xmm6
	divss	%xmm6, %xmm5
	movd	%xmm5, %eax
	jmp	.L172
.L175:
	.loc 4 219 0
	movl	8(%ebp), %eax
	movl	.LC2@GOTOFF(%ecx), %edx
	movd	%eax, %xmm6
	movd	%edx, %xmm5
	subss	%xmm5, %xmm6
	movd	%xmm6, %eax
	movl	%eax, 8(%ebp)
	.loc 4 220 0
	movl	8(%ebp), %eax
	movd	%eax, %xmm1
	mulss	8(%ebp), %xmm1
	movl	-4(%ebp), %edx
	movl	.LC0@GOTOFF(%ecx), %eax
	movd	%edx, %xmm7
	movd	%eax, %xmm2
	addss	%xmm2, %xmm7
	movd	%xmm7, %eax
	movd	%eax, %xmm2
	mulss	8(%ebp), %xmm2
	movd	%xmm2, %eax
	movd	%eax, %xmm0
	addss	-4(%ebp), %xmm0
	mulss	%xmm0, %xmm1
	movd	%xmm1, %eax
	movl	.LC2@GOTOFF(%ecx), %edx
	movd	%eax, %xmm0
	movd	%edx, %xmm7
	divss	%xmm7, %xmm0
	movl	.LC0@GOTOFF(%ecx), %eax
	movd	%eax, %xmm3
	addss	%xmm0, %xmm3
	movd	%xmm3, %eax
.L172:
.LBE22:
	.loc 4 222 0
	movl	%eax, -20(%ebp)
	flds	-20(%ebp)
	leave
	.cfi_restore 5
	.cfi_def_cfa 4, 4
	ret
	.cfi_endproc
.LFE502:
	.size	_ZN7IwTween4Ease9backInOutEff, .-_ZN7IwTween4Ease9backInOutEff
	.section	.rodata
.LC26:
	.string	"TWEEN"
	.align 4
.LC27:
	.string	"Variable argument list contains illegal CTween::Type value"
	.align 4
.LC28:
	.string	"c:/marmalade/7.5/modules/iwtween/source/IwTween.cpp"
.LC29:
	.string	"type <= END"
.LC30:
	.string	"Unknown type"
.LC31:
	.string	"false"
	.text
	.align 2
	.globl	_ZN7IwTween13CTweenManager5TweenEfz
	.hidden	_ZN7IwTween13CTweenManager5TweenEfz
	.type	_ZN7IwTween13CTweenManager5TweenEfz, @function
_ZN7IwTween13CTweenManager5TweenEfz:
.LFB503:
	.loc 4 230 0
	.cfi_startproc
	pushl	%ebp
	.cfi_def_cfa_offset 8
	.cfi_offset 5, -8
	movl	%esp, %ebp
	.cfi_def_cfa_register 5
	pushl	%esi
	pushl	%ebx
	leal	-224(%esp), %esp
	.cfi_offset 6, -12
	.cfi_offset 3, -16
	call	__x86.get_pc_thunk.bx
	addl	$_GLOBAL_OFFSET_TABLE_, %ebx
.LBB23:
	.loc 4 232 0
	leal	-172(%ebp), %eax
	movl	%eax, (%esp)
	call	_ZN7IwTween6CTween4SpecC1Ev
	.loc 4 233 0
	movl	12(%ebp), %eax
	movl	%eax, -172(%ebp)
	.loc 4 234 0
	movl	-172(%ebp), %eax
	movl	%eax, 4(%esp)
	movl	-168(%ebp), %eax
	movl	%eax, 8(%esp)
	movl	-164(%ebp), %eax
	movl	%eax, 12(%esp)
	movl	-160(%ebp), %eax
	movl	%eax, 16(%esp)
	movl	-156(%ebp), %eax
	movl	%eax, 20(%esp)
	movl	-152(%ebp), %eax
	movl	%eax, 24(%esp)
	movl	-148(%ebp), %eax
	movl	%eax, 28(%esp)
	movl	-144(%ebp), %eax
	movl	%eax, 32(%esp)
	leal	-140(%ebp), %eax
	movl	%eax, (%esp)
	call	_ZN7IwTween6CTweenC1ENS0_4SpecE
	.loc 4 235 0
	movl	8(%ebp), %eax
	leal	-140(%ebp), %edx
	movl	%edx, 4(%esp)
	movl	%eax, (%esp)
	call	_ZN4_STL6vectorIN7IwTween6CTweenENS_9allocatorIS2_EEE9push_backERKS2_
	.loc 4 236 0
	movl	8(%ebp), %eax
	movl	%eax, (%esp)
	call	_ZNK4_STL6vectorIN7IwTween6CTweenENS_9allocatorIS2_EEE4sizeEv
	movl	%eax, %edx
	subl	$1, %edx
	movl	8(%ebp), %eax
	movl	%edx, 4(%esp)
	movl	%eax, (%esp)
	call	_ZN4_STL6vectorIN7IwTween6CTweenENS_9allocatorIS2_EEEixEj
	movl	%eax, -20(%ebp)
	.loc 4 237 0
	movl	-20(%ebp), %eax
	movb	$1, 36(%eax)
	.loc 4 238 0
	movl	-20(%ebp), %eax
	movl	8(%ebp), %edx
	movl	%edx, 56(%eax)
	.loc 4 241 0
	movl	-20(%ebp), %edx
	movl	.LC1@GOTOFF(%ebx), %eax
	movl	%eax, 32(%edx)
	.loc 4 242 0
	movl	-20(%ebp), %eax
	movb	$0, 37(%eax)
	.loc 4 243 0
	movl	-20(%ebp), %eax
	movb	$0, 39(%eax)
	.loc 4 244 0
	movl	-20(%ebp), %eax
	movb	$0, 38(%eax)
	.loc 4 245 0
	movl	-20(%ebp), %eax
	movl	$0, 40(%eax)
	.loc 4 249 0
	leal	16(%ebp), %eax
	movl	%eax, -48(%ebp)
	.loc 4 251 0
	movb	$0, -9(%ebp)
	.loc 4 252 0
	jmp	.L177
.L216:
.LBB24:
	.loc 4 254 0
	movl	-48(%ebp), %eax
	movl	%eax, %edx
	addl	$4, %edx
	movl	%edx, -48(%ebp)
	movl	(%eax), %eax
	movl	%eax, -24(%ebp)
.LBB25:
.LBB26:
	.loc 4 258 0
	movl	-24(%ebp), %eax
	cmpl	$274, %eax
	jle	.L178
	.loc 4 258 0 is_stmt 0 discriminator 1
	leal	.LC26@GOTOFF(%ebx), %eax
	movl	%eax, (%esp)
	call	IwDebugAssertIsChannelOn@PLT
	testb	%al, %al
	je	.L178
	movzbl	_ZZN7IwTween13CTweenManager5TweenEfzE21_s_IwAssertIgnoreThis@GOTOFF(%ebx), %eax
	testb	%al, %al
	jne	.L178
	.loc 4 258 0 discriminator 3
	movl	$1, %eax
	jmp	.L179
.L178:
	.loc 4 258 0 discriminator 2
	movl	$0, %eax
.L179:
	.loc 4 258 0 discriminator 4
	testb	%al, %al
	je	.L180
	.loc 4 258 0 discriminator 1
	movl	$0, (%esp)
	call	IwDebugAssertSetSolution@PLT
	movl	$0, (%esp)
	call	IwDebugAssertSetUID@PLT
	leal	.LC27@GOTOFF(%ebx), %eax
	movl	%eax, (%esp)
	call	IwDebugAssertSetMessage@PLT
	movl	$1, 12(%esp)
	movl	$258, 8(%esp)
	leal	.LC28@GOTOFF(%ebx), %eax
	movl	%eax, 4(%esp)
	leal	.LC29@GOTOFF(%ebx), %eax
	movl	%eax, (%esp)
	call	IwDebugAssertShow@PLT
	cmpl	$1, %eax
	je	.L182
	cmpl	$2, %eax
	je	.L183
	.loc 4 258 0
	jmp	.L181
.L182:
	.loc 4 258 0 discriminator 2
	call	s3eDebugIsDebuggerPresent@PLT
	testb	%al, %al
	setne	%al
	testb	%al, %al
	je	.L184
	.loc 4 258 0 discriminator 1
	call	s3eDebugIsDebuggerPresent@PLT
	testb	%al, %al
	setne	%al
	testb	%al, %al
	je	.L185
#APP
# 258 "c:/marmalade/7.5/modules/iwtween/source/IwTween.cpp" 1
	 int $3 
# 0 "" 2
#NO_APP
	jmp	.L185
.L184:
	.loc 4 258 0 discriminator 2
	call	_ZL11IwDebugExitv
	jmp	.L181
.L185:
	.loc 4 258 0 discriminator 1
	jmp	.L181
.L183:
	.loc 4 258 0 discriminator 3
	movb	$1, _ZZN7IwTween13CTweenManager5TweenEfzE21_s_IwAssertIgnoreThis@GOTOFF(%ebx)
	nop
.L181:
	.loc 4 258 0 discriminator 1
	movl	$0, (%esp)
	call	IwDebugAssertSetUID@PLT
.L180:
.LBE26:
.LBE25:
.LBB27:
	.loc 4 259 0 is_stmt 1
	movl	-24(%ebp), %eax
	subl	$264, %eax
	cmpl	$10, %eax
	ja	.L186
	sall	$2, %eax
	movl	.L188@GOTOFF(%eax,%ebx), %eax
	addl	%ebx, %eax
	jmp	*%eax
	.section	.rodata
	.align 4
	.align 4
.L188:
	.long	.L187@GOTOFF
	.long	.L189@GOTOFF
	.long	.L189@GOTOFF
	.long	.L189@GOTOFF
	.long	.L190@GOTOFF
	.long	.L191@GOTOFF
	.long	.L192@GOTOFF
	.long	.L193@GOTOFF
	.long	.L194@GOTOFF
	.long	.L195@GOTOFF
	.long	.L196@GOTOFF
	.text
.L196:
.LBB28:
	.loc 4 263 0
	movb	$1, -9(%ebp)
	.loc 4 264 0
	jmp	.L177
.L187:
	.loc 4 268 0
	movl	-20(%ebp), %eax
	movb	$0, 36(%eax)
	.loc 4 269 0
	jmp	.L177
.L190:
	.loc 4 272 0
	movl	-48(%ebp), %eax
	movl	%eax, %edx
	addl	$8, %edx
	movl	%edx, -48(%ebp)
	movsd	(%eax), %xmm0
	cvtsd2ss	%xmm0, %xmm1
	movd	%xmm1, %eax
	movl	-20(%ebp), %edx
	movl	%eax, 4(%edx)
	.loc 4 273 0
	jmp	.L177
.L191:
	.loc 4 276 0
	movl	-20(%ebp), %eax
	movb	$1, 8(%eax)
	.loc 4 277 0
	jmp	.L177
.L189:
	.loc 4 282 0
	movl	-20(%ebp), %eax
	movl	-24(%ebp), %edx
	movl	%edx, 12(%eax)
	.loc 4 283 0
	jmp	.L177
.L192:
	.loc 4 286 0
	movl	-48(%ebp), %eax
	movl	%eax, %edx
	addl	$4, %edx
	movl	%edx, -48(%ebp)
	movl	(%eax), %edx
	movl	-20(%ebp), %eax
	movl	%edx, 16(%eax)
	.loc 4 287 0
	jmp	.L177
.L193:
	.loc 4 290 0
	movl	-48(%ebp), %eax
	movl	%eax, %edx
	addl	$8, %edx
	movl	%edx, -48(%ebp)
	movsd	(%eax), %xmm0
	cvtsd2ss	%xmm0, %xmm2
	movd	%xmm2, %eax
	movl	-20(%ebp), %edx
	movl	%eax, 20(%edx)
	.loc 4 291 0
	jmp	.L177
.L194:
	.loc 4 294 0
	movl	-48(%ebp), %eax
	movl	%eax, %edx
	addl	$4, %edx
	movl	%edx, -48(%ebp)
	movl	(%eax), %edx
	movl	-20(%ebp), %eax
	movl	%edx, 24(%eax)
	.loc 4 295 0
	jmp	.L177
.L195:
	.loc 4 298 0
	movl	-48(%ebp), %eax
	movl	%eax, %edx
	addl	$4, %edx
	movl	%edx, -48(%ebp)
	movl	(%eax), %edx
	movl	-20(%ebp), %eax
	movl	%edx, 28(%eax)
	.loc 4 299 0
	jmp	.L177
.L186:
	.loc 4 303 0
	movl	-48(%ebp), %eax
	movl	%eax, %edx
	addl	$4, %edx
	movl	%edx, -48(%ebp)
	movl	(%eax), %eax
	movl	%eax, -28(%ebp)
.LBB29:
	.loc 4 304 0
	movl	-24(%ebp), %eax
	subl	$256, %eax
	cmpl	$7, %eax
	ja	.L197
	sall	$2, %eax
	movl	.L199@GOTOFF(%eax,%ebx), %eax
	addl	%ebx, %eax
	jmp	*%eax
	.section	.rodata
	.align 4
	.align 4
.L199:
	.long	.L198@GOTOFF
	.long	.L200@GOTOFF
	.long	.L201@GOTOFF
	.long	.L202@GOTOFF
	.long	.L203@GOTOFF
	.long	.L204@GOTOFF
	.long	.L205@GOTOFF
	.long	.L206@GOTOFF
	.text
.L198:
.LBB30:
.LBB31:
	.loc 4 309 0
	movl	-48(%ebp), %eax
	movl	%eax, %edx
	addl	$4, %edx
	movl	%edx, -48(%ebp)
	movl	(%eax), %eax
	testl	%eax, %eax
	setne	%al
	movb	%al, -52(%ebp)
	.loc 4 310 0
	leal	-52(%ebp), %eax
	movl	(%eax), %eax
	movl	%eax, -16(%ebp)
.LBE31:
	.loc 4 312 0
	jmp	.L207
.L200:
.LBB32:
	.loc 4 316 0
	movl	-48(%ebp), %eax
	movl	%eax, %edx
	addl	$4, %edx
	movl	%edx, -48(%ebp)
	movl	(%eax), %eax
	movb	%al, -56(%ebp)
	.loc 4 317 0
	leal	-56(%ebp), %eax
	movl	(%eax), %eax
	movl	%eax, -16(%ebp)
.LBE32:
	.loc 4 319 0
	jmp	.L207
.L201:
.LBB33:
	.loc 4 323 0
	movl	-48(%ebp), %eax
	movl	%eax, %edx
	addl	$4, %edx
	movl	%edx, -48(%ebp)
	movl	(%eax), %eax
	movb	%al, -60(%ebp)
	.loc 4 324 0
	leal	-60(%ebp), %eax
	movl	(%eax), %eax
	movl	%eax, -16(%ebp)
.LBE33:
	.loc 4 326 0
	jmp	.L207
.L202:
.LBB34:
	.loc 4 330 0
	movl	-48(%ebp), %eax
	movl	%eax, %edx
	addl	$4, %edx
	movl	%edx, -48(%ebp)
	movl	(%eax), %eax
	movw	%ax, -64(%ebp)
	.loc 4 331 0
	leal	-64(%ebp), %eax
	movl	(%eax), %eax
	movl	%eax, -16(%ebp)
.LBE34:
	.loc 4 333 0
	jmp	.L207
.L203:
.LBB35:
	.loc 4 337 0
	movl	-48(%ebp), %eax
	movl	%eax, %edx
	addl	$4, %edx
	movl	%edx, -48(%ebp)
	movl	(%eax), %eax
	movw	%ax, -68(%ebp)
	.loc 4 338 0
	leal	-68(%ebp), %eax
	movl	(%eax), %eax
	movl	%eax, -16(%ebp)
.LBE35:
	.loc 4 340 0
	jmp	.L207
.L204:
.LBB36:
	.loc 4 343 0
	movl	-48(%ebp), %eax
	movl	%eax, %edx
	addl	$4, %edx
	movl	%edx, -48(%ebp)
	movl	(%eax), %eax
	movl	%eax, -72(%ebp)
	.loc 4 344 0
	movl	-72(%ebp), %eax
	movl	%eax, -16(%ebp)
.LBE36:
	.loc 4 346 0
	jmp	.L207
.L205:
.LBB37:
	.loc 4 349 0
	movl	-48(%ebp), %eax
	movl	%eax, %edx
	addl	$4, %edx
	movl	%edx, -48(%ebp)
	movl	(%eax), %eax
	movl	%eax, -76(%ebp)
	.loc 4 350 0
	leal	-76(%ebp), %eax
	movl	(%eax), %eax
	movl	%eax, -16(%ebp)
.LBE37:
	.loc 4 352 0
	jmp	.L207
.L206:
.LBB38:
	.loc 4 355 0
	movl	-48(%ebp), %eax
	movl	%eax, %edx
	addl	$8, %edx
	movl	%edx, -48(%ebp)
	movsd	(%eax), %xmm0
	cvtsd2ss	%xmm0, %xmm3
	movd	%xmm3, %eax
	movl	%eax, -80(%ebp)
	.loc 4 356 0
	leal	-80(%ebp), %eax
	movl	(%eax), %eax
	movl	%eax, -16(%ebp)
.LBE38:
	.loc 4 358 0
	jmp	.L207
.L197:
.LBB39:
.LBB40:
	.loc 4 360 0
	leal	.LC26@GOTOFF(%ebx), %eax
	movl	%eax, (%esp)
	call	IwDebugAssertIsChannelOn@PLT
	testb	%al, %al
	je	.L208
	.loc 4 360 0 is_stmt 0 discriminator 1
	movzbl	_ZZN7IwTween13CTweenManager5TweenEfzE21_s_IwAssertIgnoreThis_0@GOTOFF(%ebx), %eax
	testb	%al, %al
	jne	.L208
	.loc 4 360 0 discriminator 3
	movl	$1, %eax
	jmp	.L209
.L208:
	.loc 4 360 0 discriminator 2
	movl	$0, %eax
.L209:
	.loc 4 360 0 discriminator 4
	testb	%al, %al
	je	.L210
	.loc 4 360 0 discriminator 1
	movl	$0, (%esp)
	call	IwDebugAssertSetSolution@PLT
	movl	$0, (%esp)
	call	IwDebugAssertSetUID@PLT
	leal	.LC30@GOTOFF(%ebx), %eax
	movl	%eax, (%esp)
	call	IwDebugAssertSetMessage@PLT
	movl	$1, 12(%esp)
	movl	$360, 8(%esp)
	leal	.LC28@GOTOFF(%ebx), %eax
	movl	%eax, 4(%esp)
	leal	.LC31@GOTOFF(%ebx), %eax
	movl	%eax, (%esp)
	call	IwDebugAssertShow@PLT
	cmpl	$1, %eax
	je	.L212
	cmpl	$2, %eax
	je	.L213
	.loc 4 360 0
	jmp	.L211
.L212:
	.loc 4 360 0 discriminator 2
	call	s3eDebugIsDebuggerPresent@PLT
	testb	%al, %al
	setne	%al
	testb	%al, %al
	je	.L214
	.loc 4 360 0 discriminator 1
	call	s3eDebugIsDebuggerPresent@PLT
	testb	%al, %al
	setne	%al
	testb	%al, %al
	je	.L215
#APP
# 360 "c:/marmalade/7.5/modules/iwtween/source/IwTween.cpp" 1
	 int $3 
# 0 "" 2
#NO_APP
	jmp	.L215
.L214:
	.loc 4 360 0 discriminator 2
	call	_ZL11IwDebugExitv
	jmp	.L211
.L215:
	.loc 4 360 0 discriminator 1
	jmp	.L211
.L213:
	.loc 4 360 0 discriminator 3
	movb	$1, _ZZN7IwTween13CTweenManager5TweenEfzE21_s_IwAssertIgnoreThis_0@GOTOFF(%ebx)
	nop
.L211:
	.loc 4 360 0 discriminator 1
	movl	$0, (%esp)
	call	IwDebugAssertSetUID@PLT
.L210:
.LBE40:
.LBE39:
	.loc 4 361 0 is_stmt 1
	nop
.L207:
.LBE30:
.LBE29:
	.loc 4 363 0
	movl	-16(%ebp), %eax
	movl	%eax, 12(%esp)
	movl	-28(%ebp), %eax
	movl	%eax, 8(%esp)
	movl	-24(%ebp), %eax
	movl	%eax, 4(%esp)
	leal	-44(%ebp), %eax
	movl	%eax, (%esp)
	call	_ZN7IwTween6CTween9ValueTypeC1ENS_4TypeEPvi
	movl	-20(%ebp), %eax
	movl	%eax, %edx
	addl	$44, %edx
	leal	-44(%ebp), %eax
	movl	%eax, 4(%esp)
	movl	%edx, (%esp)
	call	_ZN4_STL6vectorIN7IwTween6CTween9ValueTypeENS_9allocatorIS3_EEE9push_backERKS3_
	.loc 4 364 0
	nop
.L177:
.LBE28:
.LBE27:
.LBE24:
	.loc 4 252 0 discriminator 1
	movzbl	-9(%ebp), %eax
	xorl	$1, %eax
	testb	%al, %al
	jne	.L216
	.loc 4 368 0
	movl	-20(%ebp), %esi
	leal	-140(%ebp), %eax
	movl	%eax, (%esp)
	call	_ZN7IwTween6CTweenD1Ev
	movl	%esi, %eax
.LBE23:
	.loc 4 369 0
	leal	224(%esp), %esp
	popl	%ebx
	.cfi_restore 3
	popl	%esi
	.cfi_restore 6
	popl	%ebp
	.cfi_restore 5
	.cfi_def_cfa 4, 4
	ret
	.cfi_endproc
.LFE503:
	.size	_ZN7IwTween13CTweenManager5TweenEfz, .-_ZN7IwTween13CTweenManager5TweenEfz
	.align 2
	.globl	_ZN7IwTween13CTweenManager6UpdateEf
	.hidden	_ZN7IwTween13CTweenManager6UpdateEf
	.type	_ZN7IwTween13CTweenManager6UpdateEf, @function
_ZN7IwTween13CTweenManager6UpdateEf:
.LFB504:
	.loc 4 372 0
	.cfi_startproc
	pushl	%ebp
	.cfi_def_cfa_offset 8
	.cfi_offset 5, -8
	leal	(%esp), %ebp
	.cfi_def_cfa_register 5
	leal	-40(%esp), %esp
.LBB41:
	.loc 4 373 0
	movl	8(%ebp), %eax
	movl	%eax, (%esp)
	call	_ZN4_STL6vectorIN7IwTween6CTweenENS_9allocatorIS2_EEE5beginEv
	movl	%eax, -12(%ebp)
.LBB42:
	.loc 4 374 0
	jmp	.L219
.L223:
.LBB43:
.LBB44:
	.loc 4 377 0
	movl	-12(%ebp), %eax
	movzbl	37(%eax), %eax
	xorl	$1, %eax
	.loc 4 376 0
	testb	%al, %al
	je	.L220
	.loc 4 378 0
	movl	-12(%ebp), %eax
	movzbl	39(%eax), %eax
	xorl	$1, %eax
	.loc 4 377 0
	testb	%al, %al
	je	.L220
.LBB45:
	.loc 4 381 0
	movl	12(%ebp), %eax
	movl	%eax, 4(%esp)
	movl	-12(%ebp), %eax
	movl	%eax, (%esp)
	call	_ZN7IwTween6CTween6UpdateEf
	movb	%al, -13(%ebp)
	.loc 4 382 0
	cmpb	$0, -13(%ebp)
	je	.L221
	.loc 4 383 0
	movl	8(%ebp), %eax
	movl	-12(%ebp), %edx
	movl	%edx, 4(%esp)
	movl	%eax, (%esp)
	call	_ZN4_STL6vectorIN7IwTween6CTweenENS_9allocatorIS2_EEE5eraseEPS2_
.LBE45:
	.loc 4 385 0
	jmp	.L219
.L221:
.LBB46:
	addl	$60, -12(%ebp)
.LBE46:
	jmp	.L219
.L220:
	.loc 4 388 0
	addl	$60, -12(%ebp)
.L219:
.LBE44:
.LBE43:
	.loc 4 374 0 discriminator 1
	movl	8(%ebp), %eax
	movl	%eax, (%esp)
	call	_ZN4_STL6vectorIN7IwTween6CTweenENS_9allocatorIS2_EEE3endEv
	cmpl	-12(%ebp), %eax
	setne	%al
	testb	%al, %al
	jne	.L223
.LBE42:
.LBE41:
	.loc 4 390 0
	leave
	.cfi_restore 5
	.cfi_def_cfa 4, 4
	ret
	.cfi_endproc
.LFE504:
	.size	_ZN7IwTween13CTweenManager6UpdateEf, .-_ZN7IwTween13CTweenManager6UpdateEf
	.align 2
	.globl	_ZN7IwTween6CTween9ValueType19SetFromCurrentValueEPvS2_b
	.hidden	_ZN7IwTween6CTween9ValueType19SetFromCurrentValueEPvS2_b
	.type	_ZN7IwTween6CTween9ValueType19SetFromCurrentValueEPvS2_b, @function
_ZN7IwTween6CTween9ValueType19SetFromCurrentValueEPvS2_b:
.LFB505:
	.loc 4 396 0
	.cfi_startproc
	pushl	%ebp
	.cfi_def_cfa_offset 8
	.cfi_offset 5, -8
	movl	%esp, %ebp
	.cfi_def_cfa_register 5
	leal	-4(%esp), %esp
	call	__x86.get_pc_thunk.cx
	addl	$_GLOBAL_OFFSET_TABLE_, %ecx
	movl	20(%ebp), %eax
	movb	%al, -4(%ebp)
	.loc 4 398 0
	movl	8(%ebp), %eax
	movl	(%eax), %eax
	subl	$256, %eax
	cmpl	$7, %eax
	ja	.L250
	sall	$2, %eax
	movl	.L227@GOTOFF(%eax,%ecx), %eax
	addl	%ecx, %eax
	jmp	*%eax
	.section	.rodata
	.align 4
	.align 4
.L227:
	.long	.L226@GOTOFF
	.long	.L228@GOTOFF
	.long	.L229@GOTOFF
	.long	.L230@GOTOFF
	.long	.L231@GOTOFF
	.long	.L232@GOTOFF
	.long	.L233@GOTOFF
	.long	.L234@GOTOFF
	.text
.L226:
	.loc 4 401 0
	movl	8(%ebp), %eax
	movl	4(%eax), %eax
	movzbl	(%eax), %edx
	movl	12(%ebp), %eax
	movb	%dl, (%eax)
	.loc 4 402 0
	jmp	.L224
.L228:
	.loc 4 404 0
	movl	8(%ebp), %eax
	movl	4(%eax), %eax
	movzbl	(%eax), %edx
	movl	12(%ebp), %eax
	movb	%dl, (%eax)
	.loc 4 405 0
	movl	16(%ebp), %eax
	movzbl	(%eax), %eax
	movl	%eax, %edx
	cmpb	$0, -4(%ebp)
	je	.L236
	.loc 4 405 0 is_stmt 0 discriminator 1
	movl	12(%ebp), %eax
	movzbl	(%eax), %eax
	jmp	.L237
.L236:
	.loc 4 405 0 discriminator 2
	movl	$0, %eax
.L237:
	.loc 4 405 0 discriminator 3
	addl	%edx, %eax
	movl	%eax, %edx
	movl	16(%ebp), %eax
	movb	%dl, (%eax)
	.loc 4 406 0 is_stmt 1 discriminator 3
	jmp	.L224
.L229:
	.loc 4 408 0
	movl	8(%ebp), %eax
	movl	4(%eax), %eax
	movzbl	(%eax), %edx
	movl	12(%ebp), %eax
	movb	%dl, (%eax)
	.loc 4 409 0
	movl	16(%ebp), %eax
	movzbl	(%eax), %edx
	cmpb	$0, -4(%ebp)
	je	.L238
	.loc 4 409 0 is_stmt 0 discriminator 1
	movl	12(%ebp), %eax
	movzbl	(%eax), %eax
	jmp	.L239
.L238:
	.loc 4 409 0 discriminator 2
	movl	$0, %eax
.L239:
	.loc 4 409 0 discriminator 3
	addl	%eax, %edx
	movl	16(%ebp), %eax
	movb	%dl, (%eax)
	.loc 4 410 0 is_stmt 1 discriminator 3
	jmp	.L224
.L230:
	.loc 4 412 0
	movl	8(%ebp), %eax
	movl	4(%eax), %eax
	movzwl	(%eax), %edx
	movl	12(%ebp), %eax
	movw	%dx, (%eax)
	.loc 4 413 0
	movl	16(%ebp), %eax
	movzwl	(%eax), %eax
	movl	%eax, %edx
	cmpb	$0, -4(%ebp)
	je	.L240
	.loc 4 413 0 is_stmt 0 discriminator 1
	movl	12(%ebp), %eax
	movzwl	(%eax), %eax
	jmp	.L241
.L240:
	.loc 4 413 0 discriminator 2
	movl	$0, %eax
.L241:
	.loc 4 413 0 discriminator 3
	addl	%edx, %eax
	movl	%eax, %edx
	movl	16(%ebp), %eax
	movw	%dx, (%eax)
	.loc 4 414 0 is_stmt 1 discriminator 3
	jmp	.L224
.L231:
	.loc 4 416 0
	movl	8(%ebp), %eax
	movl	4(%eax), %eax
	movzwl	(%eax), %edx
	movl	12(%ebp), %eax
	movw	%dx, (%eax)
	.loc 4 417 0
	movl	16(%ebp), %eax
	movzwl	(%eax), %edx
	cmpb	$0, -4(%ebp)
	je	.L242
	.loc 4 417 0 is_stmt 0 discriminator 1
	movl	12(%ebp), %eax
	movzwl	(%eax), %eax
	jmp	.L243
.L242:
	.loc 4 417 0 discriminator 2
	movl	$0, %eax
.L243:
	.loc 4 417 0 discriminator 3
	addl	%eax, %edx
	movl	16(%ebp), %eax
	movw	%dx, (%eax)
	.loc 4 418 0 is_stmt 1 discriminator 3
	jmp	.L224
.L232:
	.loc 4 420 0
	movl	8(%ebp), %eax
	movl	4(%eax), %eax
	movl	(%eax), %edx
	movl	12(%ebp), %eax
	movl	%edx, (%eax)
	.loc 4 421 0
	movl	16(%ebp), %eax
	movl	(%eax), %edx
	cmpb	$0, -4(%ebp)
	je	.L244
	.loc 4 421 0 is_stmt 0 discriminator 1
	movl	12(%ebp), %eax
	movl	(%eax), %eax
	jmp	.L245
.L244:
	.loc 4 421 0 discriminator 2
	movl	$0, %eax
.L245:
	.loc 4 421 0 discriminator 3
	addl	%eax, %edx
	movl	16(%ebp), %eax
	movl	%edx, (%eax)
	.loc 4 422 0 is_stmt 1 discriminator 3
	jmp	.L224
.L233:
	.loc 4 424 0
	movl	8(%ebp), %eax
	movl	4(%eax), %eax
	movl	(%eax), %edx
	movl	12(%ebp), %eax
	movl	%edx, (%eax)
	.loc 4 425 0
	movl	16(%ebp), %eax
	movl	(%eax), %edx
	cmpb	$0, -4(%ebp)
	je	.L246
	.loc 4 425 0 is_stmt 0 discriminator 1
	movl	12(%ebp), %eax
	movl	(%eax), %eax
	jmp	.L247
.L246:
	.loc 4 425 0 discriminator 2
	movl	$0, %eax
.L247:
	.loc 4 425 0 discriminator 3
	addl	%eax, %edx
	movl	16(%ebp), %eax
	movl	%edx, (%eax)
	.loc 4 426 0 is_stmt 1 discriminator 3
	jmp	.L224
.L234:
	.loc 4 428 0
	movl	8(%ebp), %eax
	movl	4(%eax), %eax
	movl	(%eax), %eax
	movl	12(%ebp), %edx
	movl	%eax, (%edx)
	.loc 4 429 0
	movl	16(%ebp), %eax
	movl	(%eax), %edx
	cmpb	$0, -4(%ebp)
	je	.L248
	.loc 4 429 0 is_stmt 0 discriminator 1
	movl	12(%ebp), %eax
	movl	(%eax), %eax
	jmp	.L249
.L248:
	.loc 4 429 0 discriminator 2
	movl	.LC1@GOTOFF(%ecx), %eax
.L249:
	.loc 4 429 0 discriminator 3
	movd	%edx, %xmm0
	movd	%eax, %xmm1
	addss	%xmm1, %xmm0
	movd	%xmm0, %eax
	movl	16(%ebp), %edx
	movl	%eax, (%edx)
	.loc 4 430 0 is_stmt 1 discriminator 3
	jmp	.L224
.L250:
	.loc 4 433 0
	nop
.L224:
	.loc 4 435 0
	leave
	.cfi_restore 5
	.cfi_def_cfa 4, 4
	ret
	.cfi_endproc
.LFE505:
	.size	_ZN7IwTween6CTween9ValueType19SetFromCurrentValueEPvS2_b, .-_ZN7IwTween6CTween9ValueType19SetFromCurrentValueEPvS2_b
	.align 2
	.globl	_ZN7IwTween6CTween9ValueType13SetFromInterpEf
	.hidden	_ZN7IwTween6CTween9ValueType13SetFromInterpEf
	.type	_ZN7IwTween6CTween9ValueType13SetFromInterpEf, @function
_ZN7IwTween6CTween9ValueType13SetFromInterpEf:
.LFB506:
	.loc 4 438 0
	.cfi_startproc
	pushl	%ebp
	.cfi_def_cfa_offset 8
	.cfi_offset 5, -8
	movl	%esp, %ebp
	.cfi_def_cfa_register 5
	pushl	%esi
	pushl	%ebx
	leal	-32(%esp), %esp
	.cfi_offset 6, -12
	.cfi_offset 3, -16
	call	__x86.get_pc_thunk.bx
	addl	$_GLOBAL_OFFSET_TABLE_, %ebx
.LBB47:
.LBB48:
	.loc 4 439 0
	movl	8(%ebp), %eax
	movl	(%eax), %eax
	subl	$256, %eax
	cmpl	$7, %eax
	ja	.L267
	sall	$2, %eax
	movl	.L254@GOTOFF(%eax,%ebx), %eax
	addl	%ebx, %eax
	jmp	*%eax
	.section	.rodata
	.align 4
	.align 4
.L254:
	.long	.L253@GOTOFF
	.long	.L255@GOTOFF
	.long	.L256@GOTOFF
	.long	.L257@GOTOFF
	.long	.L258@GOTOFF
	.long	.L259@GOTOFF
	.long	.L260@GOTOFF
	.long	.L261@GOTOFF
	.text
.L253:
.LBB49:
	.loc 4 442 0
	movl	8(%ebp), %eax
	movl	4(%eax), %edx
	movl	.LC0@GOTOFF(%ebx), %eax
	movd	%eax, %xmm3
	ucomiss	12(%ebp), %xmm3
	jp	.L262
	movl	.LC0@GOTOFF(%ebx), %eax
	movd	%eax, %xmm4
	ucomiss	12(%ebp), %xmm4
	jne	.L262
	.loc 4 442 0 is_stmt 0 discriminator 1
	movl	8(%ebp), %eax
	leal	8(%eax), %eax
	movzbl	(%eax), %eax
	jmp	.L264
.L262:
	.loc 4 442 0 discriminator 2
	movl	8(%ebp), %eax
	leal	12(%eax), %eax
	movzbl	(%eax), %eax
.L264:
	.loc 4 442 0 discriminator 3
	movb	%al, (%edx)
	.loc 4 443 0 is_stmt 1 discriminator 3
	jmp	.L251
.L255:
.LBB50:
	.loc 4 446 0
	movl	8(%ebp), %eax
	leal	8(%eax), %eax
	movzbl	(%eax), %eax
	movsbl	%al, %eax
	cvtsi2ss	%eax, %xmm5
	movd	%xmm5, %eax
	movl	8(%ebp), %edx
	leal	12(%edx), %edx
	movzbl	(%edx), %edx
	movsbl	%dl, %edx
	cvtsi2ss	%edx, %xmm0
	movd	%eax, %xmm2
	subss	%xmm0, %xmm2
	movd	%xmm2, %eax
	movl	%eax, 28(%esp)
	.loc 4 447 0
	movl	8(%ebp), %eax
	movl	4(%eax), %edx
	movl	8(%ebp), %eax
	leal	12(%eax), %eax
	movzbl	(%eax), %eax
	movsbl	%al, %eax
	cvtsi2ss	%eax, %xmm1
	movl	12(%ebp), %eax
	movd	%eax, %xmm0
	mulss	28(%esp), %xmm0
	addss	%xmm0, %xmm1
	movd	%xmm1, %eax
	movd	%eax, %xmm6
	cvttss2si	%xmm6, %eax
	movb	%al, (%edx)
.LBE50:
	.loc 4 449 0
	jmp	.L251
.L256:
.LBB51:
	.loc 4 452 0
	movl	8(%ebp), %eax
	leal	8(%eax), %eax
	movzbl	(%eax), %eax
	movzbl	%al, %eax
	movzwl	%ax, %edx
	shrl	$16, %eax
	cvtsi2ss	%eax, %xmm0
	cvtsi2ss	%edx, %xmm1
	movl	.LC32@GOTOFF(%ebx), %eax
	movd	%eax, %xmm7
	mulss	%xmm7, %xmm0
	addss	%xmm1, %xmm0
	movd	%xmm0, %eax
	movl	8(%ebp), %edx
	leal	12(%edx), %edx
	movzbl	(%edx), %edx
	movzbl	%dl, %edx
	movzwl	%dx, %ecx
	shrl	$16, %edx
	cvtsi2ss	%edx, %xmm0
	cvtsi2ss	%ecx, %xmm1
	movl	.LC32@GOTOFF(%ebx), %edx
	movd	%edx, %xmm3
	mulss	%xmm3, %xmm0
	addss	%xmm1, %xmm0
	movd	%eax, %xmm3
	subss	%xmm0, %xmm3
	movd	%xmm3, %eax
	movl	%eax, 24(%esp)
	.loc 4 453 0
	movl	8(%ebp), %eax
	movl	4(%eax), %edx
	movl	8(%ebp), %eax
	leal	12(%eax), %eax
	movzbl	(%eax), %eax
	movzbl	%al, %eax
	cvtsi2ss	%eax, %xmm1
	movl	12(%ebp), %eax
	movd	%eax, %xmm0
	mulss	24(%esp), %xmm0
	addss	%xmm0, %xmm1
	movd	%xmm1, %eax
	movd	%eax, %xmm4
	cvttss2si	%xmm4, %eax
	movb	%al, (%edx)
.LBE51:
	.loc 4 455 0
	jmp	.L251
.L257:
.LBB52:
	.loc 4 458 0
	movl	8(%ebp), %eax
	leal	8(%eax), %eax
	movzwl	(%eax), %eax
	cwtl
	cvtsi2ss	%eax, %xmm5
	movd	%xmm5, %eax
	movl	8(%ebp), %edx
	leal	12(%edx), %edx
	movzwl	(%edx), %edx
	movswl	%dx, %edx
	cvtsi2ss	%edx, %xmm0
	movd	%eax, %xmm4
	subss	%xmm0, %xmm4
	movd	%xmm4, %eax
	movl	%eax, 20(%esp)
	.loc 4 459 0
	movl	8(%ebp), %eax
	movl	4(%eax), %edx
	movl	8(%ebp), %eax
	leal	12(%eax), %eax
	movzwl	(%eax), %eax
	cwtl
	cvtsi2ss	%eax, %xmm1
	movl	12(%ebp), %eax
	movd	%eax, %xmm0
	mulss	20(%esp), %xmm0
	addss	%xmm0, %xmm1
	movd	%xmm1, %eax
	movd	%eax, %xmm6
	cvttss2si	%xmm6, %eax
	movw	%ax, (%edx)
.LBE52:
	.loc 4 461 0
	jmp	.L251
.L258:
.LBB53:
	.loc 4 464 0
	movl	8(%ebp), %eax
	leal	8(%eax), %eax
	movzwl	(%eax), %eax
	movzwl	%ax, %eax
	movzwl	%ax, %edx
	shrl	$16, %eax
	cvtsi2ss	%eax, %xmm0
	cvtsi2ss	%edx, %xmm1
	movl	.LC32@GOTOFF(%ebx), %eax
	movd	%eax, %xmm7
	mulss	%xmm7, %xmm0
	addss	%xmm1, %xmm0
	movd	%xmm0, %eax
	movl	8(%ebp), %edx
	leal	12(%edx), %edx
	movzwl	(%edx), %edx
	movzwl	%dx, %edx
	movzwl	%dx, %ecx
	shrl	$16, %edx
	cvtsi2ss	%edx, %xmm0
	cvtsi2ss	%ecx, %xmm1
	movl	.LC32@GOTOFF(%ebx), %edx
	movd	%edx, %xmm2
	mulss	%xmm2, %xmm0
	addss	%xmm1, %xmm0
	movd	%eax, %xmm5
	subss	%xmm0, %xmm5
	movd	%xmm5, %eax
	movl	%eax, 16(%esp)
	.loc 4 465 0
	movl	8(%ebp), %eax
	movl	4(%eax), %edx
	movl	8(%ebp), %eax
	leal	12(%eax), %eax
	movzwl	(%eax), %eax
	movzwl	%ax, %eax
	cvtsi2ss	%eax, %xmm1
	movl	12(%ebp), %eax
	movd	%eax, %xmm0
	mulss	16(%esp), %xmm0
	addss	%xmm0, %xmm1
	movd	%xmm1, %eax
	movd	%eax, %xmm3
	cvttss2si	%xmm3, %eax
	movw	%ax, (%edx)
.LBE53:
	.loc 4 467 0
	jmp	.L251
.L259:
.LBB54:
	.loc 4 470 0
	movl	8(%ebp), %eax
	movl	8(%eax), %edx
	movl	8(%ebp), %eax
	movl	12(%eax), %eax
	subl	%eax, %edx
	movl	%edx, %eax
	movl	%eax, 12(%esp)
	.loc 4 471 0
	movl	8(%ebp), %eax
	movl	4(%eax), %edx
	movl	8(%ebp), %eax
	movl	12(%eax), %ecx
	cvtsi2ss	12(%esp), %xmm4
	movd	%xmm4, %eax
	movd	%eax, %xmm6
	mulss	12(%ebp), %xmm6
	movd	%xmm6, %eax
	movd	%eax, %xmm5
	cvttss2si	%xmm5, %eax
	addl	%ecx, %eax
	movl	%eax, (%edx)
.LBE54:
	.loc 4 473 0
	jmp	.L251
.L260:
.LBB55:
	.loc 4 476 0
	movl	8(%ebp), %eax
	leal	8(%eax), %eax
	movl	(%eax), %edx
	movl	8(%ebp), %eax
	leal	12(%eax), %eax
	movl	(%eax), %eax
	subl	%eax, %edx
	movl	%edx, %eax
	movl	%eax, 8(%esp)
	.loc 4 477 0
	movl	8(%ebp), %eax
	movl	4(%eax), %edx
	movl	8(%ebp), %eax
	leal	12(%eax), %eax
	movl	(%eax), %eax
	movzwl	%ax, %ecx
	shrl	$16, %eax
	cvtsi2ss	%eax, %xmm0
	cvtsi2ss	%ecx, %xmm1
	movl	.LC32@GOTOFF(%ebx), %eax
	movd	%eax, %xmm6
	mulss	%xmm6, %xmm0
	addss	%xmm0, %xmm1
	cvtsi2ss	8(%esp), %xmm7
	movd	%xmm7, %eax
	movd	%eax, %xmm0
	mulss	12(%ebp), %xmm0
	addss	%xmm0, %xmm1
	movaps	.LC33@GOTOFF(%ebx), %xmm0
	xorps	%xmm2, %xmm2
	movss	%xmm1, %xmm2
	movaps	%xmm0, %xmm4
	movaps	%xmm0, %xmm5
	cmpleps	%xmm2, %xmm4
	andps	%xmm4, %xmm5
	subps	%xmm5, %xmm2
	pslld	$31, %xmm4
	cvttps2dq	%xmm2, %xmm2
	pxor	%xmm4, %xmm2
	movd	%xmm2, %eax
	movl	%eax, (%edx)
.LBE55:
	.loc 4 479 0
	jmp	.L251
.L261:
	.loc 4 481 0
	movl	8(%ebp), %eax
	movl	4(%eax), %esi
	movl	8(%ebp), %eax
	leal	12(%eax), %eax
	movl	(%eax), %edx
	movl	8(%ebp), %eax
	leal	8(%eax), %eax
	movl	(%eax), %eax
	movl	8(%ebp), %ecx
	leal	12(%ecx), %ecx
	movl	(%ecx), %ecx
	movd	%eax, %xmm7
	movd	%ecx, %xmm3
	subss	%xmm3, %xmm7
	movd	%xmm7, %eax
	movd	%eax, %xmm0
	mulss	12(%ebp), %xmm0
	movd	%edx, %xmm2
	addss	%xmm0, %xmm2
	movd	%xmm2, %eax
	movl	%eax, (%esi)
	.loc 4 482 0
	jmp	.L251
.L267:
	.loc 4 485 0
	nop
.L251:
.LBE49:
.LBE48:
.LBE47:
	.loc 4 487 0
	leal	32(%esp), %esp
	popl	%ebx
	.cfi_restore 3
	popl	%esi
	.cfi_restore 6
	popl	%ebp
	.cfi_restore 5
	.cfi_def_cfa 4, 4
	ret
	.cfi_endproc
.LFE506:
	.size	_ZN7IwTween6CTween9ValueType13SetFromInterpEf, .-_ZN7IwTween6CTween9ValueType13SetFromInterpEf
	.align 2
	.globl	_ZN7IwTween6CTween4SpecC2Ev
	.hidden	_ZN7IwTween6CTween4SpecC2Ev
	.type	_ZN7IwTween6CTween4SpecC2Ev, @function
_ZN7IwTween6CTween4SpecC2Ev:
.LFB508:
	.loc 4 492 0
	.cfi_startproc
	pushl	%ebp
	.cfi_def_cfa_offset 8
	.cfi_offset 5, -8
	leal	(%esp), %ebp
	.cfi_def_cfa_register 5
	call	__x86.get_pc_thunk.cx
	addl	$_GLOBAL_OFFSET_TABLE_, %ecx
.LBB56:
	.loc 4 495 0
	movl	8(%ebp), %edx
	movl	.LC0@GOTOFF(%ecx), %eax
	movl	%eax, (%edx)
	.loc 4 496 0
	movl	8(%ebp), %edx
	movl	.LC1@GOTOFF(%ecx), %eax
	movl	%eax, 4(%edx)
	.loc 4 497 0
	movl	8(%ebp), %eax
	movb	$0, 8(%eax)
	.loc 4 498 0
	movl	8(%ebp), %eax
	movl	$265, 12(%eax)
	.loc 4 499 0
	movl	8(%ebp), %eax
	leal	_ZN7IwTween4Ease6linearEff@GOTOFF(%ecx), %edx
	movl	%edx, 16(%eax)
	.loc 4 500 0
	movl	8(%ebp), %edx
	movl	.LC1@GOTOFF(%ecx), %eax
	movl	%eax, 20(%edx)
	.loc 4 501 0
	movl	8(%ebp), %eax
	movl	$0, 24(%eax)
	.loc 4 502 0
	movl	8(%ebp), %eax
	movl	$0, 28(%eax)
.LBE56:
	.loc 4 503 0
	popl	%ebp
	.cfi_restore 5
	.cfi_def_cfa 4, 4
	ret
	.cfi_endproc
.LFE508:
	.size	_ZN7IwTween6CTween4SpecC2Ev, .-_ZN7IwTween6CTween4SpecC2Ev
	.globl	_ZN7IwTween6CTween4SpecC1Ev
	.hidden	_ZN7IwTween6CTween4SpecC1Ev
	.set	_ZN7IwTween6CTween4SpecC1Ev,_ZN7IwTween6CTween4SpecC2Ev
	.align 2
	.globl	_ZN7IwTween6CTween6CancelEv
	.hidden	_ZN7IwTween6CTween6CancelEv
	.type	_ZN7IwTween6CTween6CancelEv, @function
_ZN7IwTween6CTween6CancelEv:
.LFB510:
	.loc 4 509 0
	.cfi_startproc
	pushl	%ebp
	.cfi_def_cfa_offset 8
	.cfi_offset 5, -8
	leal	(%esp), %ebp
	.cfi_def_cfa_register 5
	leal	-24(%esp), %esp
	.loc 4 510 0
	movl	8(%ebp), %eax
	movl	56(%eax), %eax
	movl	8(%ebp), %edx
	movl	%edx, 4(%esp)
	movl	%eax, (%esp)
	call	_ZN4_STL6vectorIN7IwTween6CTweenENS_9allocatorIS2_EEE5eraseEPS2_
	.loc 4 511 0
	leave
	.cfi_restore 5
	.cfi_def_cfa 4, 4
	ret
	.cfi_endproc
.LFE510:
	.size	_ZN7IwTween6CTween6CancelEv, .-_ZN7IwTween6CTween6CancelEv
	.align 2
	.globl	_ZN7IwTween6CTween6UpdateEf
	.hidden	_ZN7IwTween6CTween6UpdateEf
	.type	_ZN7IwTween6CTween6UpdateEf, @function
_ZN7IwTween6CTween6UpdateEf:
.LFB511:
	.loc 4 514 0
	.cfi_startproc
	pushl	%ebp
	.cfi_def_cfa_offset 8
	.cfi_offset 5, -8
	movl	%esp, %ebp
	.cfi_def_cfa_register 5
	pushl	%ebx
	leal	-84(%esp), %esp
	.cfi_offset 3, -12
	call	__x86.get_pc_thunk.bx
	addl	$_GLOBAL_OFFSET_TABLE_, %ebx
.LBB57:
	.loc 4 519 0
	movl	8(%ebp), %eax
	movzbl	37(%eax), %eax
	testb	%al, %al
	je	.L271
	.loc 4 520 0
	movl	$1, %eax
	jmp	.L293
.L271:
	.loc 4 523 0
	movl	8(%ebp), %eax
	movl	32(%eax), %eax
	movd	%eax, %xmm1
	addss	12(%ebp), %xmm1
	movd	%xmm1, %eax
	movl	8(%ebp), %edx
	movl	%eax, 32(%edx)
	.loc 4 524 0
	movl	8(%ebp), %eax
	movl	32(%eax), %edx
	movl	8(%ebp), %eax
	movl	4(%eax), %eax
	movd	%eax, %xmm1
	movd	%edx, %xmm2
	ucomiss	%xmm2, %xmm1
	jbe	.L297
	.loc 4 527 0
	movl	$0, %eax
	jmp	.L293
.L297:
	.loc 4 532 0
	movl	8(%ebp), %eax
	movl	32(%eax), %eax
	movl	8(%ebp), %edx
	movl	(%edx), %edx
	movl	8(%ebp), %ecx
	movl	40(%ecx), %ecx
	cvtsi2ss	%ecx, %xmm0
	movd	%edx, %xmm2
	mulss	%xmm0, %xmm2
	movaps	%xmm2, %xmm0
	movd	%eax, %xmm3
	subss	%xmm0, %xmm3
	movd	%xmm3, %eax
	movl	8(%ebp), %edx
	movl	4(%edx), %edx
	movd	%eax, %xmm4
	movd	%edx, %xmm3
	subss	%xmm3, %xmm4
	movd	%xmm4, %eax
	movl	8(%ebp), %edx
	movl	(%edx), %edx
	movd	%eax, %xmm5
	movd	%edx, %xmm4
	divss	%xmm4, %xmm5
	movd	%xmm5, %eax
	movl	%eax, -44(%ebp)
	.loc 4 533 0
	movb	$0, -9(%ebp)
	.loc 4 534 0
	movl	8(%ebp), %eax
	movl	12(%eax), %eax
	cmpl	$265, %eax
	je	.L275
	.loc 4 536 0
	movl	-44(%ebp), %eax
	movl	.LC0@GOTOFF(%ebx), %edx
	movd	%eax, %xmm5
	movd	%edx, %xmm6
	ucomiss	%xmm6, %xmm5
	jb	.L276
	.loc 4 538 0
	movb	$1, -9(%ebp)
	.loc 4 539 0
	movl	-44(%ebp), %eax
	movl	-44(%ebp), %edx
	movd	%edx, %xmm7
	cvttss2si	%xmm7, %edx
	cvtsi2ss	%edx, %xmm0
	movd	%eax, %xmm6
	subss	%xmm0, %xmm6
	movd	%xmm6, %eax
	movl	%eax, -44(%ebp)
	.loc 4 540 0
	movl	8(%ebp), %eax
	movl	40(%eax), %eax
	movl	%eax, %edx
	addl	$1, %edx
	movl	8(%ebp), %eax
	movl	%edx, 40(%eax)
	jmp	.L276
.L275:
	.loc 4 544 0
	movl	.LC0@GOTOFF(%ebx), %eax
	movl	%eax, -40(%ebp)
	leal	-40(%ebp), %eax
	movl	%eax, 4(%esp)
	leal	-44(%ebp), %eax
	movl	%eax, (%esp)
	call	_ZN4_STL3minIfEERKT_S3_S3_
	movl	(%eax), %eax
	movl	%eax, -44(%ebp)
.L276:
	.loc 4 552 0
	movl	8(%ebp), %eax
	movl	16(%eax), %ecx
	movl	8(%ebp), %eax
	movl	20(%eax), %edx
	movl	-44(%ebp), %eax
	movl	%edx, 4(%esp)
	movl	%eax, (%esp)
	call	*%ecx
	fstps	-60(%ebp)
	movl	-60(%ebp), %eax
	movl	%eax, -16(%ebp)
	.loc 4 554 0
	movl	8(%ebp), %eax
	movl	12(%eax), %eax
	cmpl	$267, %eax
	jne	.L278
	.loc 4 556 0
	movl	8(%ebp), %eax
	movl	40(%eax), %eax
	andl	$1, %eax
	testl	%eax, %eax
	je	.L278
	.loc 4 557 0
	movl	.LC0@GOTOFF(%ebx), %eax
	movd	%eax, %xmm7
	subss	-16(%ebp), %xmm7
	movd	%xmm7, %eax
	movl	%eax, -16(%ebp)
.L278:
.LBB58:
	.loc 4 560 0
	movl	8(%ebp), %eax
	movzbl	38(%eax), %eax
	xorl	$1, %eax
	testb	%al, %al
	je	.L279
.LBB59:
	.loc 4 563 0
	movl	8(%ebp), %eax
	movb	$1, 38(%eax)
	.loc 4 566 0
	movl	8(%ebp), %eax
	movl	24(%eax), %eax
	testl	%eax, %eax
	je	.L280
	.loc 4 567 0
	movl	8(%ebp), %eax
	movl	24(%eax), %eax
	movl	8(%ebp), %edx
	movl	%edx, (%esp)
	call	*%eax
.L280:
	.loc 4 574 0
	movl	8(%ebp), %eax
	addl	$44, %eax
	movl	%eax, (%esp)
	call	_ZN4_STL6vectorIN7IwTween6CTween9ValueTypeENS_9allocatorIS3_EEE5beginEv
	movl	%eax, -20(%ebp)
	.loc 4 575 0
	movl	8(%ebp), %eax
	addl	$44, %eax
	movl	%eax, (%esp)
	call	_ZN4_STL6vectorIN7IwTween6CTween9ValueTypeENS_9allocatorIS3_EEE3endEv
	movl	%eax, -28(%ebp)
.LBB60:
	.loc 4 576 0
	movl	8(%ebp), %eax
	movzbl	36(%eax), %eax
	testb	%al, %al
	je	.L281
	.loc 4 579 0
	jmp	.L282
.L283:
	.loc 4 581 0 discriminator 2
	movl	8(%ebp), %eax
	movzbl	8(%eax), %eax
	movzbl	%al, %eax
	movl	-20(%ebp), %edx
	movl	%edx, %ecx
	addl	$8, %ecx
	movl	-20(%ebp), %edx
	addl	$12, %edx
	movl	%eax, 12(%esp)
	movl	%ecx, 8(%esp)
	movl	%edx, 4(%esp)
	movl	-20(%ebp), %eax
	movl	%eax, (%esp)
	call	_ZN7IwTween6CTween9ValueType19SetFromCurrentValueEPvS2_b
	.loc 4 579 0 discriminator 2
	addl	$16, -20(%ebp)
.L282:
	.loc 4 579 0 is_stmt 0 discriminator 1
	movl	-20(%ebp), %eax
	cmpl	-28(%ebp), %eax
	jne	.L283
.LBE60:
.LBE59:
	jmp	.L279
.L281:
.LBB65:
.LBB64:
.LBB61:
.LBB62:
	.loc 4 587 0 is_stmt 1
	jmp	.L285
.L286:
.LBB63:
	.loc 4 589 0 discriminator 2
	movl	8(%ebp), %eax
	movzbl	8(%eax), %eax
	movzbl	%al, %eax
	movl	-20(%ebp), %edx
	movl	%edx, %ecx
	addl	$8, %ecx
	movl	-20(%ebp), %edx
	addl	$12, %edx
	movl	%eax, 12(%esp)
	movl	%ecx, 8(%esp)
	movl	%edx, 4(%esp)
	movl	-20(%ebp), %eax
	movl	%eax, (%esp)
	call	_ZN7IwTween6CTween9ValueType19SetFromCurrentValueEPvS2_b
	.loc 4 592 0 discriminator 2
	movl	-20(%ebp), %eax
	movl	12(%eax), %eax
	movl	%eax, -32(%ebp)
	.loc 4 593 0 discriminator 2
	movl	-20(%ebp), %eax
	movl	8(%eax), %edx
	movl	-20(%ebp), %eax
	movl	%edx, 12(%eax)
	.loc 4 594 0 discriminator 2
	movl	-20(%ebp), %eax
	movl	-32(%ebp), %edx
	movl	%edx, 8(%eax)
.LBE63:
	.loc 4 587 0 discriminator 2
	addl	$16, -20(%ebp)
.L285:
	.loc 4 587 0 is_stmt 0 discriminator 1
	movl	-20(%ebp), %eax
	cmpl	-28(%ebp), %eax
	jne	.L286
.L279:
.LBE62:
.LBE61:
.LBE64:
.LBE65:
.LBE58:
	.loc 4 600 0 is_stmt 1
	movl	8(%ebp), %eax
	addl	$44, %eax
	movl	%eax, (%esp)
	call	_ZN4_STL6vectorIN7IwTween6CTween9ValueTypeENS_9allocatorIS3_EEE5beginEv
	movl	%eax, -24(%ebp)
	.loc 4 601 0
	movl	8(%ebp), %eax
	addl	$44, %eax
	movl	%eax, (%esp)
	call	_ZN4_STL6vectorIN7IwTween6CTween9ValueTypeENS_9allocatorIS3_EEE3endEv
	movl	%eax, -36(%ebp)
	.loc 4 602 0
	jmp	.L287
.L288:
	.loc 4 605 0 discriminator 2
	movl	-16(%ebp), %eax
	movl	%eax, 4(%esp)
	movl	-24(%ebp), %eax
	movl	%eax, (%esp)
	call	_ZN7IwTween6CTween9ValueType13SetFromInterpEf
	.loc 4 602 0 discriminator 2
	addl	$16, -24(%ebp)
.L287:
	.loc 4 602 0 is_stmt 0 discriminator 1
	movl	-24(%ebp), %eax
	cmpl	-36(%ebp), %eax
	jne	.L288
	.loc 4 608 0 is_stmt 1
	movl	8(%ebp), %eax
	movl	12(%eax), %eax
	cmpl	$265, %eax
	je	.L289
	.loc 4 610 0
	cmpb	$0, -9(%ebp)
	je	.L290
	.loc 4 613 0
	movl	8(%ebp), %eax
	movl	28(%eax), %eax
	testl	%eax, %eax
	je	.L290
	.loc 4 614 0
	movl	8(%ebp), %eax
	movl	28(%eax), %eax
	movl	8(%ebp), %edx
	movl	%edx, (%esp)
	call	*%eax
	jmp	.L290
.L289:
	.loc 4 619 0
	movl	-44(%ebp), %eax
	movl	.LC0@GOTOFF(%ebx), %edx
	movd	%eax, %xmm1
	movd	%edx, %xmm2
	ucomiss	%xmm2, %xmm1
	jb	.L290
	.loc 4 622 0
	movl	8(%ebp), %eax
	movb	$1, 37(%eax)
	.loc 4 623 0
	movl	8(%ebp), %eax
	movl	28(%eax), %eax
	testl	%eax, %eax
	je	.L292
	.loc 4 624 0
	movl	8(%ebp), %eax
	movl	28(%eax), %eax
	movl	8(%ebp), %edx
	movl	%edx, (%esp)
	call	*%eax
.L292:
	.loc 4 625 0
	movl	$1, %eax
	jmp	.L293
.L290:
	.loc 4 633 0
	movl	$0, %eax
.L293:
.LBE57:
	.loc 4 634 0
	leal	84(%esp), %esp
	popl	%ebx
	.cfi_restore 3
	popl	%ebp
	.cfi_restore 5
	.cfi_def_cfa 4, 4
	ret
	.cfi_endproc
.LFE511:
	.size	_ZN7IwTween6CTween6UpdateEf, .-_ZN7IwTween6CTween6UpdateEf
	.section	.text._ZN4_STL9allocatorIN7IwTween6CTween9ValueTypeEEC2Ev,"axG",@progbits,_ZN4_STL9allocatorIN7IwTween6CTween9ValueTypeEEC5Ev,comdat
	.align 2
	.weak	_ZN4_STL9allocatorIN7IwTween6CTween9ValueTypeEEC2Ev
	.hidden	_ZN4_STL9allocatorIN7IwTween6CTween9ValueTypeEEC2Ev
	.type	_ZN4_STL9allocatorIN7IwTween6CTween9ValueTypeEEC2Ev, @function
_ZN4_STL9allocatorIN7IwTween6CTween9ValueTypeEEC2Ev:
.LFB515:
	.file 5 "c:/marmalade/7.5/s3e/h/std/c++/stl/_alloc.h"
	.loc 5 345 0
	.cfi_startproc
	pushl	%ebp
	.cfi_def_cfa_offset 8
	.cfi_offset 5, -8
	movl	%esp, %ebp
	.cfi_def_cfa_register 5
	.loc 5 345 0
	popl	%ebp
	.cfi_restore 5
	.cfi_def_cfa 4, 4
	ret
	.cfi_endproc
.LFE515:
	.size	_ZN4_STL9allocatorIN7IwTween6CTween9ValueTypeEEC2Ev, .-_ZN4_STL9allocatorIN7IwTween6CTween9ValueTypeEEC2Ev
	.weak	_ZN4_STL9allocatorIN7IwTween6CTween9ValueTypeEEC1Ev
	.hidden	_ZN4_STL9allocatorIN7IwTween6CTween9ValueTypeEEC1Ev
	.set	_ZN4_STL9allocatorIN7IwTween6CTween9ValueTypeEEC1Ev,_ZN4_STL9allocatorIN7IwTween6CTween9ValueTypeEEC2Ev
	.section	.text._ZN4_STL9allocatorIN7IwTween6CTween9ValueTypeEED2Ev,"axG",@progbits,_ZN4_STL9allocatorIN7IwTween6CTween9ValueTypeEED5Ev,comdat
	.align 2
	.weak	_ZN4_STL9allocatorIN7IwTween6CTween9ValueTypeEED2Ev
	.hidden	_ZN4_STL9allocatorIN7IwTween6CTween9ValueTypeEED2Ev
	.type	_ZN4_STL9allocatorIN7IwTween6CTween9ValueTypeEED2Ev, @function
_ZN4_STL9allocatorIN7IwTween6CTween9ValueTypeEED2Ev:
.LFB518:
	.loc 5 350 0
	.cfi_startproc
	pushl	%ebp
	.cfi_def_cfa_offset 8
	.cfi_offset 5, -8
	movl	%esp, %ebp
	.cfi_def_cfa_register 5
	.loc 5 350 0
	popl	%ebp
	.cfi_restore 5
	.cfi_def_cfa 4, 4
	ret
	.cfi_endproc
.LFE518:
	.size	_ZN4_STL9allocatorIN7IwTween6CTween9ValueTypeEED2Ev, .-_ZN4_STL9allocatorIN7IwTween6CTween9ValueTypeEED2Ev
	.weak	_ZN4_STL9allocatorIN7IwTween6CTween9ValueTypeEED1Ev
	.hidden	_ZN4_STL9allocatorIN7IwTween6CTween9ValueTypeEED1Ev
	.set	_ZN4_STL9allocatorIN7IwTween6CTween9ValueTypeEED1Ev,_ZN4_STL9allocatorIN7IwTween6CTween9ValueTypeEED2Ev
	.section	.text._ZN4_STL6vectorIN7IwTween6CTween9ValueTypeENS_9allocatorIS3_EEEC2ERKS5_,"axG",@progbits,_ZN4_STL6vectorIN7IwTween6CTween9ValueTypeENS_9allocatorIS3_EEEC5ERKS5_,comdat
	.align 2
	.weak	_ZN4_STL6vectorIN7IwTween6CTween9ValueTypeENS_9allocatorIS3_EEEC2ERKS5_
	.hidden	_ZN4_STL6vectorIN7IwTween6CTween9ValueTypeENS_9allocatorIS3_EEEC2ERKS5_
	.type	_ZN4_STL6vectorIN7IwTween6CTween9ValueTypeENS_9allocatorIS3_EEEC2ERKS5_, @function
_ZN4_STL6vectorIN7IwTween6CTween9ValueTypeENS_9allocatorIS3_EEEC2ERKS5_:
.LFB521:
	.file 6 "c:/marmalade/7.5/s3e/h/std/c++/stl/_vector.h"
	.loc 6 198 0
	.cfi_startproc
	pushl	%ebp
	.cfi_def_cfa_offset 8
	.cfi_offset 5, -8
	leal	(%esp), %ebp
	.cfi_def_cfa_register 5
	leal	-24(%esp), %esp
.LBB66:
	.loc 6 199 0
	movl	8(%ebp), %eax
	movl	12(%ebp), %edx
	movl	%edx, 4(%esp)
	movl	%eax, (%esp)
	call	_ZN4_STL12_Vector_baseIN7IwTween6CTween9ValueTypeENS_9allocatorIS3_EEEC2ERKS5_
.LBE66:
	leave
	.cfi_restore 5
	.cfi_def_cfa 4, 4
	ret
	.cfi_endproc
.LFE521:
	.size	_ZN4_STL6vectorIN7IwTween6CTween9ValueTypeENS_9allocatorIS3_EEEC2ERKS5_, .-_ZN4_STL6vectorIN7IwTween6CTween9ValueTypeENS_9allocatorIS3_EEEC2ERKS5_
	.weak	_ZN4_STL6vectorIN7IwTween6CTween9ValueTypeENS_9allocatorIS3_EEEC1ERKS5_
	.hidden	_ZN4_STL6vectorIN7IwTween6CTween9ValueTypeENS_9allocatorIS3_EEEC1ERKS5_
	.set	_ZN4_STL6vectorIN7IwTween6CTween9ValueTypeENS_9allocatorIS3_EEEC1ERKS5_,_ZN4_STL6vectorIN7IwTween6CTween9ValueTypeENS_9allocatorIS3_EEEC2ERKS5_
	.section	.text._ZN4_STL6vectorIN7IwTween6CTween9ValueTypeENS_9allocatorIS3_EEED2Ev,"axG",@progbits,_ZN4_STL6vectorIN7IwTween6CTween9ValueTypeENS_9allocatorIS3_EEED5Ev,comdat
	.align 2
	.weak	_ZN4_STL6vectorIN7IwTween6CTween9ValueTypeENS_9allocatorIS3_EEED2Ev
	.hidden	_ZN4_STL6vectorIN7IwTween6CTween9ValueTypeENS_9allocatorIS3_EEED2Ev
	.type	_ZN4_STL6vectorIN7IwTween6CTween9ValueTypeENS_9allocatorIS3_EEED2Ev, @function
_ZN4_STL6vectorIN7IwTween6CTween9ValueTypeENS_9allocatorIS3_EEED2Ev:
.LFB524:
	.loc 6 258 0
	.cfi_startproc
	pushl	%ebp
	.cfi_def_cfa_offset 8
	.cfi_offset 5, -8
	leal	(%esp), %ebp
	.cfi_def_cfa_register 5
	leal	-24(%esp), %esp
.LBB67:
	.loc 6 258 0
	movl	8(%ebp), %eax
	movl	4(%eax), %edx
	movl	8(%ebp), %eax
	movl	(%eax), %eax
	movl	%edx, 4(%esp)
	movl	%eax, (%esp)
	call	_ZN4_STL8_DestroyIPN7IwTween6CTween9ValueTypeEEEvT_S5_
	movl	8(%ebp), %eax
	movl	%eax, (%esp)
	call	_ZN4_STL12_Vector_baseIN7IwTween6CTween9ValueTypeENS_9allocatorIS3_EEED2Ev
.LBE67:
	leave
	.cfi_restore 5
	.cfi_def_cfa 4, 4
	ret
	.cfi_endproc
.LFE524:
	.size	_ZN4_STL6vectorIN7IwTween6CTween9ValueTypeENS_9allocatorIS3_EEED2Ev, .-_ZN4_STL6vectorIN7IwTween6CTween9ValueTypeENS_9allocatorIS3_EEED2Ev
	.weak	_ZN4_STL6vectorIN7IwTween6CTween9ValueTypeENS_9allocatorIS3_EEED1Ev
	.hidden	_ZN4_STL6vectorIN7IwTween6CTween9ValueTypeENS_9allocatorIS3_EEED1Ev
	.set	_ZN4_STL6vectorIN7IwTween6CTween9ValueTypeENS_9allocatorIS3_EEED1Ev,_ZN4_STL6vectorIN7IwTween6CTween9ValueTypeENS_9allocatorIS3_EEED2Ev
	.section	.text._ZNK4_STL6vectorIN7IwTween6CTweenENS_9allocatorIS2_EEE4sizeEv,"axG",@progbits,_ZNK4_STL6vectorIN7IwTween6CTweenENS_9allocatorIS2_EEE4sizeEv,comdat
	.align 2
	.weak	_ZNK4_STL6vectorIN7IwTween6CTweenENS_9allocatorIS2_EEE4sizeEv
	.hidden	_ZNK4_STL6vectorIN7IwTween6CTweenENS_9allocatorIS2_EEE4sizeEv
	.type	_ZNK4_STL6vectorIN7IwTween6CTweenENS_9allocatorIS2_EEE4sizeEv, @function
_ZNK4_STL6vectorIN7IwTween6CTweenENS_9allocatorIS2_EEE4sizeEv:
.LFB538:
	.loc 6 182 0
	.cfi_startproc
	pushl	%ebp
	.cfi_def_cfa_offset 8
	.cfi_offset 5, -8
	leal	(%esp), %ebp
	.cfi_def_cfa_register 5
	.loc 6 182 0
	movl	8(%ebp), %eax
	movl	4(%eax), %eax
	movl	%eax, %edx
	movl	8(%ebp), %eax
	movl	(%eax), %eax
	subl	%eax, %edx
	movl	%edx, %eax
	sarl	$2, %eax
	imull	$-286331153, %eax, %eax
	popl	%ebp
	.cfi_restore 5
	.cfi_def_cfa 4, 4
	ret
	.cfi_endproc
.LFE538:
	.size	_ZNK4_STL6vectorIN7IwTween6CTweenENS_9allocatorIS2_EEE4sizeEv, .-_ZNK4_STL6vectorIN7IwTween6CTweenENS_9allocatorIS2_EEE4sizeEv
	.section	.text._ZN4_STL6vectorIN7IwTween6CTweenENS_9allocatorIS2_EEE9push_backERKS2_,"axG",@progbits,_ZN4_STL6vectorIN7IwTween6CTweenENS_9allocatorIS2_EEE9push_backERKS2_,comdat
	.align 2
	.weak	_ZN4_STL6vectorIN7IwTween6CTweenENS_9allocatorIS2_EEE9push_backERKS2_
	.hidden	_ZN4_STL6vectorIN7IwTween6CTweenENS_9allocatorIS2_EEE9push_backERKS2_
	.type	_ZN4_STL6vectorIN7IwTween6CTweenENS_9allocatorIS2_EEE9push_backERKS2_, @function
_ZN4_STL6vectorIN7IwTween6CTweenENS_9allocatorIS2_EEE9push_backERKS2_:
.LFB540:
	.loc 6 331 0
	.cfi_startproc
	pushl	%ebp
	.cfi_def_cfa_offset 8
	.cfi_offset 5, -8
	leal	(%esp), %ebp
	.cfi_def_cfa_register 5
	leal	-56(%esp), %esp
	.loc 6 332 0
	movl	8(%ebp), %eax
	movl	4(%eax), %edx
	movl	8(%ebp), %eax
	movl	8(%eax), %eax
	cmpl	%eax, %edx
	je	.L307
	.loc 6 333 0
	movl	8(%ebp), %eax
	movl	4(%eax), %eax
	movl	12(%ebp), %edx
	movl	%edx, 4(%esp)
	movl	%eax, (%esp)
	call	_ZN4_STL10_ConstructIN7IwTween6CTweenES2_EEvPT_RKT0_
	.loc 6 334 0
	movl	8(%ebp), %eax
	movl	4(%eax), %eax
	movl	%eax, %edx
	addl	$60, %edx
	movl	8(%ebp), %eax
	movl	%edx, 4(%eax)
	jmp	.L306
.L307:
	.loc 6 337 0
	movl	8(%ebp), %eax
	movl	4(%eax), %eax
	movl	$1, 20(%esp)
	movl	$1, 16(%esp)
	leal	-9(%ebp), %edx
	movl	%edx, 12(%esp)
	movl	12(%ebp), %edx
	movl	%edx, 8(%esp)
	movl	%eax, 4(%esp)
	movl	8(%ebp), %eax
	movl	%eax, (%esp)
	call	_ZN4_STL6vectorIN7IwTween6CTweenENS_9allocatorIS2_EEE18_M_insert_overflowEPS2_RKS2_RKNS_12__false_typeEjb
.L306:
	.loc 6 338 0
	leave
	.cfi_restore 5
	.cfi_def_cfa 4, 4
	ret
	.cfi_endproc
.LFE540:
	.size	_ZN4_STL6vectorIN7IwTween6CTweenENS_9allocatorIS2_EEE9push_backERKS2_, .-_ZN4_STL6vectorIN7IwTween6CTweenENS_9allocatorIS2_EEE9push_backERKS2_
	.section	.text._ZN4_STL6vectorIN7IwTween6CTweenENS_9allocatorIS2_EEEixEj,"axG",@progbits,_ZN4_STL6vectorIN7IwTween6CTweenENS_9allocatorIS2_EEEixEj,comdat
	.align 2
	.weak	_ZN4_STL6vectorIN7IwTween6CTweenENS_9allocatorIS2_EEEixEj
	.hidden	_ZN4_STL6vectorIN7IwTween6CTweenENS_9allocatorIS2_EEEixEj
	.type	_ZN4_STL6vectorIN7IwTween6CTweenENS_9allocatorIS2_EEEixEj, @function
_ZN4_STL6vectorIN7IwTween6CTweenENS_9allocatorIS2_EEEixEj:
.LFB541:
	.loc 6 187 0
	.cfi_startproc
	pushl	%ebp
	.cfi_def_cfa_offset 8
	.cfi_offset 5, -8
	leal	(%esp), %ebp
	.cfi_def_cfa_register 5
	leal	-24(%esp), %esp
	.loc 6 187 0
	movl	8(%ebp), %eax
	movl	%eax, (%esp)
	call	_ZN4_STL6vectorIN7IwTween6CTweenENS_9allocatorIS2_EEE5beginEv
	movl	%eax, %edx
	movl	12(%ebp), %eax
	sall	$2, %eax
	movl	%eax, %ecx
	sall	$4, %ecx
	subl	%eax, %ecx
	movl	%ecx, %eax
	addl	%edx, %eax
	leave
	.cfi_restore 5
	.cfi_def_cfa 4, 4
	ret
	.cfi_endproc
.LFE541:
	.size	_ZN4_STL6vectorIN7IwTween6CTweenENS_9allocatorIS2_EEEixEj, .-_ZN4_STL6vectorIN7IwTween6CTweenENS_9allocatorIS2_EEEixEj
	.section	.text._ZN4_STL6vectorIN7IwTween6CTween9ValueTypeENS_9allocatorIS3_EEE9push_backERKS3_,"axG",@progbits,_ZN4_STL6vectorIN7IwTween6CTween9ValueTypeENS_9allocatorIS3_EEE9push_backERKS3_,comdat
	.align 2
	.weak	_ZN4_STL6vectorIN7IwTween6CTween9ValueTypeENS_9allocatorIS3_EEE9push_backERKS3_
	.hidden	_ZN4_STL6vectorIN7IwTween6CTween9ValueTypeENS_9allocatorIS3_EEE9push_backERKS3_
	.type	_ZN4_STL6vectorIN7IwTween6CTween9ValueTypeENS_9allocatorIS3_EEE9push_backERKS3_, @function
_ZN4_STL6vectorIN7IwTween6CTween9ValueTypeENS_9allocatorIS3_EEE9push_backERKS3_:
.LFB542:
	.loc 6 331 0
	.cfi_startproc
	pushl	%ebp
	.cfi_def_cfa_offset 8
	.cfi_offset 5, -8
	leal	(%esp), %ebp
	.cfi_def_cfa_register 5
	leal	-56(%esp), %esp
	.loc 6 332 0
	movl	8(%ebp), %eax
	movl	4(%eax), %edx
	movl	8(%ebp), %eax
	movl	8(%eax), %eax
	cmpl	%eax, %edx
	je	.L312
	.loc 6 333 0
	movl	8(%ebp), %eax
	movl	4(%eax), %eax
	movl	12(%ebp), %edx
	movl	%edx, 4(%esp)
	movl	%eax, (%esp)
	call	_ZN4_STL10_ConstructIN7IwTween6CTween9ValueTypeES3_EEvPT_RKT0_
	.loc 6 334 0
	movl	8(%ebp), %eax
	movl	4(%eax), %eax
	movl	%eax, %edx
	addl	$16, %edx
	movl	8(%ebp), %eax
	movl	%edx, 4(%eax)
	jmp	.L311
.L312:
	.loc 6 337 0
	movl	8(%ebp), %eax
	movl	4(%eax), %eax
	movl	$1, 20(%esp)
	movl	$1, 16(%esp)
	leal	-9(%ebp), %edx
	movl	%edx, 12(%esp)
	movl	12(%ebp), %edx
	movl	%edx, 8(%esp)
	movl	%eax, 4(%esp)
	movl	8(%ebp), %eax
	movl	%eax, (%esp)
	call	_ZN4_STL6vectorIN7IwTween6CTween9ValueTypeENS_9allocatorIS3_EEE18_M_insert_overflowEPS3_RKS3_RKNS_12__false_typeEjb
.L311:
	.loc 6 338 0
	leave
	.cfi_restore 5
	.cfi_def_cfa 4, 4
	ret
	.cfi_endproc
.LFE542:
	.size	_ZN4_STL6vectorIN7IwTween6CTween9ValueTypeENS_9allocatorIS3_EEE9push_backERKS3_, .-_ZN4_STL6vectorIN7IwTween6CTween9ValueTypeENS_9allocatorIS3_EEE9push_backERKS3_
	.section	.text._ZN4_STL6vectorIN7IwTween6CTweenENS_9allocatorIS2_EEE5beginEv,"axG",@progbits,_ZN4_STL6vectorIN7IwTween6CTweenENS_9allocatorIS2_EEE5beginEv,comdat
	.align 2
	.weak	_ZN4_STL6vectorIN7IwTween6CTweenENS_9allocatorIS2_EEE5beginEv
	.hidden	_ZN4_STL6vectorIN7IwTween6CTweenENS_9allocatorIS2_EEE5beginEv
	.type	_ZN4_STL6vectorIN7IwTween6CTweenENS_9allocatorIS2_EEE5beginEv, @function
_ZN4_STL6vectorIN7IwTween6CTweenENS_9allocatorIS2_EEE5beginEv:
.LFB543:
	.loc 6 172 0
	.cfi_startproc
	pushl	%ebp
	.cfi_def_cfa_offset 8
	.cfi_offset 5, -8
	leal	(%esp), %ebp
	.cfi_def_cfa_register 5
	.loc 6 172 0
	movl	8(%ebp), %eax
	movl	(%eax), %eax
	popl	%ebp
	.cfi_restore 5
	.cfi_def_cfa 4, 4
	ret
	.cfi_endproc
.LFE543:
	.size	_ZN4_STL6vectorIN7IwTween6CTweenENS_9allocatorIS2_EEE5beginEv, .-_ZN4_STL6vectorIN7IwTween6CTweenENS_9allocatorIS2_EEE5beginEv
	.section	.text._ZN4_STL6vectorIN7IwTween6CTweenENS_9allocatorIS2_EEE3endEv,"axG",@progbits,_ZN4_STL6vectorIN7IwTween6CTweenENS_9allocatorIS2_EEE3endEv,comdat
	.align 2
	.weak	_ZN4_STL6vectorIN7IwTween6CTweenENS_9allocatorIS2_EEE3endEv
	.hidden	_ZN4_STL6vectorIN7IwTween6CTweenENS_9allocatorIS2_EEE3endEv
	.type	_ZN4_STL6vectorIN7IwTween6CTweenENS_9allocatorIS2_EEE3endEv, @function
_ZN4_STL6vectorIN7IwTween6CTweenENS_9allocatorIS2_EEE3endEv:
.LFB544:
	.loc 6 174 0
	.cfi_startproc
	pushl	%ebp
	.cfi_def_cfa_offset 8
	.cfi_offset 5, -8
	leal	(%esp), %ebp
	.cfi_def_cfa_register 5
	.loc 6 174 0
	movl	8(%ebp), %eax
	movl	4(%eax), %eax
	popl	%ebp
	.cfi_restore 5
	.cfi_def_cfa 4, 4
	ret
	.cfi_endproc
.LFE544:
	.size	_ZN4_STL6vectorIN7IwTween6CTweenENS_9allocatorIS2_EEE3endEv, .-_ZN4_STL6vectorIN7IwTween6CTweenENS_9allocatorIS2_EEE3endEv
	.section	.text._ZN4_STL6vectorIN7IwTween6CTweenENS_9allocatorIS2_EEE5eraseEPS2_,"axG",@progbits,_ZN4_STL6vectorIN7IwTween6CTweenENS_9allocatorIS2_EEE5eraseEPS2_,comdat
	.align 2
	.weak	_ZN4_STL6vectorIN7IwTween6CTweenENS_9allocatorIS2_EEE5eraseEPS2_
	.hidden	_ZN4_STL6vectorIN7IwTween6CTweenENS_9allocatorIS2_EEE5eraseEPS2_
	.type	_ZN4_STL6vectorIN7IwTween6CTweenENS_9allocatorIS2_EEE5eraseEPS2_, @function
_ZN4_STL6vectorIN7IwTween6CTweenENS_9allocatorIS2_EEE5eraseEPS2_:
.LFB545:
	.loc 6 466 0
	.cfi_startproc
	pushl	%ebp
	.cfi_def_cfa_offset 8
	.cfi_offset 5, -8
	movl	%esp, %ebp
	.cfi_def_cfa_register 5
	pushl	%esi
	leal	-36(%esp), %esp
	.cfi_offset 6, -12
	.loc 6 467 0
	movl	12(%ebp), %eax
	movl	%eax, %esi
	addl	$60, %esi
	movl	8(%ebp), %eax
	movl	%eax, (%esp)
	call	_ZN4_STL6vectorIN7IwTween6CTweenENS_9allocatorIS2_EEE3endEv
	cmpl	%eax, %esi
	setne	%al
	testb	%al, %al
	je	.L319
	.loc 6 468 0
	movl	8(%ebp), %eax
	movl	4(%eax), %eax
	movl	12(%ebp), %edx
	movl	%edx, %ecx
	addl	$60, %ecx
	leal	-9(%ebp), %edx
	movl	%edx, 12(%esp)
	movl	12(%ebp), %edx
	movl	%edx, 8(%esp)
	movl	%eax, 4(%esp)
	movl	%ecx, (%esp)
	call	_ZN4_STL11__copy_ptrsIPN7IwTween6CTweenES3_EET0_T_S5_S4_RKNS_12__false_typeE
.L319:
	.loc 6 469 0
	movl	8(%ebp), %eax
	movl	4(%eax), %eax
	movl	%eax, %edx
	subl	$60, %edx
	movl	8(%ebp), %eax
	movl	%edx, 4(%eax)
	.loc 6 470 0
	movl	8(%ebp), %eax
	movl	4(%eax), %eax
	movl	%eax, (%esp)
	call	_ZN4_STL8_DestroyIN7IwTween6CTweenEEEvPT_
	.loc 6 471 0
	movl	12(%ebp), %eax
	.loc 6 472 0
	leal	36(%esp), %esp
	popl	%esi
	.cfi_restore 6
	popl	%ebp
	.cfi_restore 5
	.cfi_def_cfa 4, 4
	ret
	.cfi_endproc
.LFE545:
	.size	_ZN4_STL6vectorIN7IwTween6CTweenENS_9allocatorIS2_EEE5eraseEPS2_, .-_ZN4_STL6vectorIN7IwTween6CTweenENS_9allocatorIS2_EEE5eraseEPS2_
	.section	.text._ZN4_STL3minIfEERKT_S3_S3_,"axG",@progbits,_ZN4_STL3minIfEERKT_S3_S3_,comdat
	.weak	_ZN4_STL3minIfEERKT_S3_S3_
	.hidden	_ZN4_STL3minIfEERKT_S3_S3_
	.type	_ZN4_STL3minIfEERKT_S3_S3_, @function
_ZN4_STL3minIfEERKT_S3_S3_:
.LFB546:
	.file 7 "c:/marmalade/7.5/s3e/h/std/c++/stl/_algobase.h"
	.loc 7 77 0
	.cfi_startproc
	pushl	%ebp
	.cfi_def_cfa_offset 8
	.cfi_offset 5, -8
	leal	(%esp), %ebp
	.cfi_def_cfa_register 5
	.loc 7 77 0
	movl	12(%ebp), %eax
	movl	(%eax), %edx
	movl	8(%ebp), %eax
	movl	(%eax), %eax
	movd	%eax, %xmm0
	movd	%edx, %xmm1
	ucomiss	%xmm1, %xmm0
	jbe	.L327
	.loc 7 77 0 is_stmt 0 discriminator 1
	movl	12(%ebp), %eax
	jmp	.L324
.L327:
	.loc 7 77 0 discriminator 2
	movl	8(%ebp), %eax
.L324:
	.loc 7 77 0 discriminator 3
	popl	%ebp
	.cfi_restore 5
	.cfi_def_cfa 4, 4
	ret
	.cfi_endproc
.LFE546:
	.size	_ZN4_STL3minIfEERKT_S3_S3_, .-_ZN4_STL3minIfEERKT_S3_S3_
	.section	.text._ZN4_STL6vectorIN7IwTween6CTween9ValueTypeENS_9allocatorIS3_EEE5beginEv,"axG",@progbits,_ZN4_STL6vectorIN7IwTween6CTween9ValueTypeENS_9allocatorIS3_EEE5beginEv,comdat
	.align 2
	.weak	_ZN4_STL6vectorIN7IwTween6CTween9ValueTypeENS_9allocatorIS3_EEE5beginEv
	.hidden	_ZN4_STL6vectorIN7IwTween6CTween9ValueTypeENS_9allocatorIS3_EEE5beginEv
	.type	_ZN4_STL6vectorIN7IwTween6CTween9ValueTypeENS_9allocatorIS3_EEE5beginEv, @function
_ZN4_STL6vectorIN7IwTween6CTween9ValueTypeENS_9allocatorIS3_EEE5beginEv:
.LFB547:
	.loc 6 172 0 is_stmt 1
	.cfi_startproc
	pushl	%ebp
	.cfi_def_cfa_offset 8
	.cfi_offset 5, -8
	leal	(%esp), %ebp
	.cfi_def_cfa_register 5
	.loc 6 172 0
	movl	8(%ebp), %eax
	movl	(%eax), %eax
	popl	%ebp
	.cfi_restore 5
	.cfi_def_cfa 4, 4
	ret
	.cfi_endproc
.LFE547:
	.size	_ZN4_STL6vectorIN7IwTween6CTween9ValueTypeENS_9allocatorIS3_EEE5beginEv, .-_ZN4_STL6vectorIN7IwTween6CTween9ValueTypeENS_9allocatorIS3_EEE5beginEv
	.section	.text._ZN4_STL6vectorIN7IwTween6CTween9ValueTypeENS_9allocatorIS3_EEE3endEv,"axG",@progbits,_ZN4_STL6vectorIN7IwTween6CTween9ValueTypeENS_9allocatorIS3_EEE3endEv,comdat
	.align 2
	.weak	_ZN4_STL6vectorIN7IwTween6CTween9ValueTypeENS_9allocatorIS3_EEE3endEv
	.hidden	_ZN4_STL6vectorIN7IwTween6CTween9ValueTypeENS_9allocatorIS3_EEE3endEv
	.type	_ZN4_STL6vectorIN7IwTween6CTween9ValueTypeENS_9allocatorIS3_EEE3endEv, @function
_ZN4_STL6vectorIN7IwTween6CTween9ValueTypeENS_9allocatorIS3_EEE3endEv:
.LFB548:
	.loc 6 174 0
	.cfi_startproc
	pushl	%ebp
	.cfi_def_cfa_offset 8
	.cfi_offset 5, -8
	leal	(%esp), %ebp
	.cfi_def_cfa_register 5
	.loc 6 174 0
	movl	8(%ebp), %eax
	movl	4(%eax), %eax
	popl	%ebp
	.cfi_restore 5
	.cfi_def_cfa 4, 4
	ret
	.cfi_endproc
.LFE548:
	.size	_ZN4_STL6vectorIN7IwTween6CTween9ValueTypeENS_9allocatorIS3_EEE3endEv, .-_ZN4_STL6vectorIN7IwTween6CTween9ValueTypeENS_9allocatorIS3_EEE3endEv
	.section	.text._ZN4_STL17_STLP_alloc_proxyIPN7IwTween6CTween9ValueTypeES3_NS_9allocatorIS3_EEED2Ev,"axG",@progbits,_ZN4_STL17_STLP_alloc_proxyIPN7IwTween6CTween9ValueTypeES3_NS_9allocatorIS3_EEED5Ev,comdat
	.align 2
	.weak	_ZN4_STL17_STLP_alloc_proxyIPN7IwTween6CTween9ValueTypeES3_NS_9allocatorIS3_EEED2Ev
	.hidden	_ZN4_STL17_STLP_alloc_proxyIPN7IwTween6CTween9ValueTypeES3_NS_9allocatorIS3_EEED2Ev
	.type	_ZN4_STL17_STLP_alloc_proxyIPN7IwTween6CTween9ValueTypeES3_NS_9allocatorIS3_EEED2Ev, @function
_ZN4_STL17_STLP_alloc_proxyIPN7IwTween6CTween9ValueTypeES3_NS_9allocatorIS3_EEED2Ev:
.LFB551:
	.loc 5 481 0
	.cfi_startproc
	pushl	%ebp
	.cfi_def_cfa_offset 8
	.cfi_offset 5, -8
	leal	(%esp), %ebp
	.cfi_def_cfa_register 5
	leal	-24(%esp), %esp
.LBB68:
	.loc 5 481 0
	movl	8(%ebp), %eax
	movl	%eax, (%esp)
	call	_ZN4_STL9allocatorIN7IwTween6CTween9ValueTypeEED2Ev
.LBE68:
	leave
	.cfi_restore 5
	.cfi_def_cfa 4, 4
	ret
	.cfi_endproc
.LFE551:
	.size	_ZN4_STL17_STLP_alloc_proxyIPN7IwTween6CTween9ValueTypeES3_NS_9allocatorIS3_EEED2Ev, .-_ZN4_STL17_STLP_alloc_proxyIPN7IwTween6CTween9ValueTypeES3_NS_9allocatorIS3_EEED2Ev
	.weak	_ZN4_STL17_STLP_alloc_proxyIPN7IwTween6CTween9ValueTypeES3_NS_9allocatorIS3_EEED1Ev
	.hidden	_ZN4_STL17_STLP_alloc_proxyIPN7IwTween6CTween9ValueTypeES3_NS_9allocatorIS3_EEED1Ev
	.set	_ZN4_STL17_STLP_alloc_proxyIPN7IwTween6CTween9ValueTypeES3_NS_9allocatorIS3_EEED1Ev,_ZN4_STL17_STLP_alloc_proxyIPN7IwTween6CTween9ValueTypeES3_NS_9allocatorIS3_EEED2Ev
	.section	.text._ZN4_STL12_Vector_baseIN7IwTween6CTween9ValueTypeENS_9allocatorIS3_EEEC2ERKS5_,"axG",@progbits,_ZN4_STL12_Vector_baseIN7IwTween6CTween9ValueTypeENS_9allocatorIS3_EEEC5ERKS5_,comdat
	.align 2
	.weak	_ZN4_STL12_Vector_baseIN7IwTween6CTween9ValueTypeENS_9allocatorIS3_EEEC2ERKS5_
	.hidden	_ZN4_STL12_Vector_baseIN7IwTween6CTween9ValueTypeENS_9allocatorIS3_EEEC2ERKS5_
	.type	_ZN4_STL12_Vector_baseIN7IwTween6CTween9ValueTypeENS_9allocatorIS3_EEEC2ERKS5_, @function
_ZN4_STL12_Vector_baseIN7IwTween6CTween9ValueTypeENS_9allocatorIS3_EEEC2ERKS5_:
.LFB553:
	.loc 6 71 0
	.cfi_startproc
	pushl	%ebp
	.cfi_def_cfa_offset 8
	.cfi_offset 5, -8
	leal	(%esp), %ebp
	.cfi_def_cfa_register 5
	leal	-24(%esp), %esp
.LBB69:
	.loc 6 72 0
	movl	8(%ebp), %eax
	movl	$0, (%eax)
	movl	8(%ebp), %eax
	movl	$0, 4(%eax)
	movl	8(%ebp), %eax
	movl	%eax, %edx
	addl	$8, %edx
	movl	$0, 8(%esp)
	movl	12(%ebp), %eax
	movl	%eax, 4(%esp)
	movl	%edx, (%esp)
	call	_ZN4_STL17_STLP_alloc_proxyIPN7IwTween6CTween9ValueTypeES3_NS_9allocatorIS3_EEEC1ERKS6_S4_
.LBE69:
	.loc 6 73 0
	leave
	.cfi_restore 5
	.cfi_def_cfa 4, 4
	ret
	.cfi_endproc
.LFE553:
	.size	_ZN4_STL12_Vector_baseIN7IwTween6CTween9ValueTypeENS_9allocatorIS3_EEEC2ERKS5_, .-_ZN4_STL12_Vector_baseIN7IwTween6CTween9ValueTypeENS_9allocatorIS3_EEEC2ERKS5_
	.weak	_ZN4_STL12_Vector_baseIN7IwTween6CTween9ValueTypeENS_9allocatorIS3_EEEC1ERKS5_
	.hidden	_ZN4_STL12_Vector_baseIN7IwTween6CTween9ValueTypeENS_9allocatorIS3_EEEC1ERKS5_
	.set	_ZN4_STL12_Vector_baseIN7IwTween6CTween9ValueTypeENS_9allocatorIS3_EEEC1ERKS5_,_ZN4_STL12_Vector_baseIN7IwTween6CTween9ValueTypeENS_9allocatorIS3_EEEC2ERKS5_
	.section	.text._ZN4_STL12_Vector_baseIN7IwTween6CTween9ValueTypeENS_9allocatorIS3_EEED2Ev,"axG",@progbits,_ZN4_STL12_Vector_baseIN7IwTween6CTween9ValueTypeENS_9allocatorIS3_EEED5Ev,comdat
	.align 2
	.weak	_ZN4_STL12_Vector_baseIN7IwTween6CTween9ValueTypeENS_9allocatorIS3_EEED2Ev
	.hidden	_ZN4_STL12_Vector_baseIN7IwTween6CTween9ValueTypeENS_9allocatorIS3_EEED2Ev
	.type	_ZN4_STL12_Vector_baseIN7IwTween6CTween9ValueTypeENS_9allocatorIS3_EEED2Ev, @function
_ZN4_STL12_Vector_baseIN7IwTween6CTween9ValueTypeENS_9allocatorIS3_EEED2Ev:
.LFB556:
	.loc 6 83 0
	.cfi_startproc
	pushl	%ebp
	.cfi_def_cfa_offset 8
	.cfi_offset 5, -8
	leal	(%esp), %ebp
	.cfi_def_cfa_register 5
	leal	-24(%esp), %esp
.LBB70:
	.loc 6 84 0
	movl	8(%ebp), %eax
	movl	(%eax), %eax
	testl	%eax, %eax
	je	.L336
	.loc 6 85 0
	movl	8(%ebp), %eax
	movl	8(%eax), %eax
	movl	%eax, %edx
	movl	8(%ebp), %eax
	movl	(%eax), %eax
	subl	%eax, %edx
	movl	%edx, %eax
	sarl	$4, %eax
	movl	%eax, %edx
	movl	8(%ebp), %eax
	movl	(%eax), %eax
	movl	8(%ebp), %ecx
	addl	$8, %ecx
	movl	%edx, 8(%esp)
	movl	%eax, 4(%esp)
	movl	%ecx, (%esp)
	call	_ZN4_STL9allocatorIN7IwTween6CTween9ValueTypeEE10deallocateEPS3_j
.L336:
	.loc 6 86 0
	movl	8(%ebp), %eax
	addl	$8, %eax
	movl	%eax, (%esp)
	call	_ZN4_STL17_STLP_alloc_proxyIPN7IwTween6CTween9ValueTypeES3_NS_9allocatorIS3_EEED1Ev
.LBE70:
	leave
	.cfi_restore 5
	.cfi_def_cfa 4, 4
	ret
	.cfi_endproc
.LFE556:
	.size	_ZN4_STL12_Vector_baseIN7IwTween6CTween9ValueTypeENS_9allocatorIS3_EEED2Ev, .-_ZN4_STL12_Vector_baseIN7IwTween6CTween9ValueTypeENS_9allocatorIS3_EEED2Ev
	.weak	_ZN4_STL12_Vector_baseIN7IwTween6CTween9ValueTypeENS_9allocatorIS3_EEED1Ev
	.hidden	_ZN4_STL12_Vector_baseIN7IwTween6CTween9ValueTypeENS_9allocatorIS3_EEED1Ev
	.set	_ZN4_STL12_Vector_baseIN7IwTween6CTween9ValueTypeENS_9allocatorIS3_EEED1Ev,_ZN4_STL12_Vector_baseIN7IwTween6CTween9ValueTypeENS_9allocatorIS3_EEED2Ev
	.section	.text._ZN4_STL8_DestroyIPN7IwTween6CTween9ValueTypeEEEvT_S5_,"axG",@progbits,_ZN4_STL8_DestroyIPN7IwTween6CTween9ValueTypeEEEvT_S5_,comdat
	.weak	_ZN4_STL8_DestroyIPN7IwTween6CTween9ValueTypeEEEvT_S5_
	.hidden	_ZN4_STL8_DestroyIPN7IwTween6CTween9ValueTypeEEEvT_S5_
	.type	_ZN4_STL8_DestroyIPN7IwTween6CTween9ValueTypeEEEvT_S5_, @function
_ZN4_STL8_DestroyIPN7IwTween6CTween9ValueTypeEEEvT_S5_:
.LFB558:
	.file 8 "c:/marmalade/7.5/s3e/h/std/c++/stl/_construct.h"
	.loc 8 138 0
	.cfi_startproc
	pushl	%ebp
	.cfi_def_cfa_offset 8
	.cfi_offset 5, -8
	movl	%esp, %ebp
	.cfi_def_cfa_register 5
	leal	-24(%esp), %esp
	.loc 8 139 0
	movl	$0, 8(%esp)
	movl	12(%ebp), %eax
	movl	%eax, 4(%esp)
	movl	8(%ebp), %eax
	movl	%eax, (%esp)
	call	_ZN4_STL9__destroyIPN7IwTween6CTween9ValueTypeES3_EEvT_S5_PT0_
	.loc 8 140 0
	leave
	.cfi_restore 5
	.cfi_def_cfa 4, 4
	ret
	.cfi_endproc
.LFE558:
	.size	_ZN4_STL8_DestroyIPN7IwTween6CTween9ValueTypeEEEvT_S5_, .-_ZN4_STL8_DestroyIPN7IwTween6CTween9ValueTypeEEEvT_S5_
	.section	.text._ZN4_STL8_DestroyIPN7IwTween6CTweenEEEvT_S4_,"axG",@progbits,_ZN4_STL8_DestroyIPN7IwTween6CTweenEEEvT_S4_,comdat
	.weak	_ZN4_STL8_DestroyIPN7IwTween6CTweenEEEvT_S4_
	.hidden	_ZN4_STL8_DestroyIPN7IwTween6CTweenEEEvT_S4_
	.type	_ZN4_STL8_DestroyIPN7IwTween6CTweenEEEvT_S4_, @function
_ZN4_STL8_DestroyIPN7IwTween6CTweenEEEvT_S4_:
.LFB568:
	.loc 8 138 0
	.cfi_startproc
	pushl	%ebp
	.cfi_def_cfa_offset 8
	.cfi_offset 5, -8
	movl	%esp, %ebp
	.cfi_def_cfa_register 5
	leal	-24(%esp), %esp
	.loc 8 139 0
	movl	$0, 8(%esp)
	movl	12(%ebp), %eax
	movl	%eax, 4(%esp)
	movl	8(%ebp), %eax
	movl	%eax, (%esp)
	call	_ZN4_STL9__destroyIPN7IwTween6CTweenES2_EEvT_S4_PT0_
	.loc 8 140 0
	leave
	.cfi_restore 5
	.cfi_def_cfa 4, 4
	ret
	.cfi_endproc
.LFE568:
	.size	_ZN4_STL8_DestroyIPN7IwTween6CTweenEEEvT_S4_, .-_ZN4_STL8_DestroyIPN7IwTween6CTweenEEEvT_S4_
	.section	.text._ZN7IwTween6CTweenC2ERKS0_,"axG",@progbits,_ZN7IwTween6CTweenC5ERKS0_,comdat
	.align 2
	.weak	_ZN7IwTween6CTweenC2ERKS0_
	.hidden	_ZN7IwTween6CTweenC2ERKS0_
	.type	_ZN7IwTween6CTweenC2ERKS0_, @function
_ZN7IwTween6CTweenC2ERKS0_:
.LFB572:
	.loc 2 377 0
	.cfi_startproc
	pushl	%ebp
	.cfi_def_cfa_offset 8
	.cfi_offset 5, -8
	leal	(%esp), %ebp
	.cfi_def_cfa_register 5
	leal	-24(%esp), %esp
.LBB71:
	.loc 2 377 0
	movl	8(%ebp), %eax
	movl	12(%ebp), %edx
	movl	(%edx), %ecx
	movl	%ecx, (%eax)
	movl	4(%edx), %ecx
	movl	%ecx, 4(%eax)
	movl	8(%edx), %ecx
	movl	%ecx, 8(%eax)
	movl	12(%edx), %ecx
	movl	%ecx, 12(%eax)
	movl	16(%edx), %ecx
	movl	%ecx, 16(%eax)
	movl	20(%edx), %ecx
	movl	%ecx, 20(%eax)
	movl	24(%edx), %ecx
	movl	%ecx, 24(%eax)
	movl	28(%edx), %edx
	movl	%edx, 28(%eax)
	movl	12(%ebp), %eax
	movl	32(%eax), %eax
	movl	8(%ebp), %edx
	movl	%eax, 32(%edx)
	movl	12(%ebp), %eax
	movzbl	36(%eax), %edx
	movl	8(%ebp), %eax
	movb	%dl, 36(%eax)
	movl	12(%ebp), %eax
	movzbl	37(%eax), %edx
	movl	8(%ebp), %eax
	movb	%dl, 37(%eax)
	movl	12(%ebp), %eax
	movzbl	38(%eax), %edx
	movl	8(%ebp), %eax
	movb	%dl, 38(%eax)
	movl	12(%ebp), %eax
	movzbl	39(%eax), %edx
	movl	8(%ebp), %eax
	movb	%dl, 39(%eax)
	movl	12(%ebp), %eax
	movl	40(%eax), %edx
	movl	8(%ebp), %eax
	movl	%edx, 40(%eax)
	movl	12(%ebp), %eax
	movl	%eax, %edx
	addl	$44, %edx
	movl	8(%ebp), %eax
	addl	$44, %eax
	movl	%edx, 4(%esp)
	movl	%eax, (%esp)
	call	_ZN4_STL6vectorIN7IwTween6CTween9ValueTypeENS_9allocatorIS3_EEEC1ERKS6_
	movl	12(%ebp), %eax
	movl	56(%eax), %edx
	movl	8(%ebp), %eax
	movl	%edx, 56(%eax)
.LBE71:
	leave
	.cfi_restore 5
	.cfi_def_cfa 4, 4
	ret
	.cfi_endproc
.LFE572:
	.size	_ZN7IwTween6CTweenC2ERKS0_, .-_ZN7IwTween6CTweenC2ERKS0_
	.weak	_ZN7IwTween6CTweenC1ERKS0_
	.hidden	_ZN7IwTween6CTweenC1ERKS0_
	.set	_ZN7IwTween6CTweenC1ERKS0_,_ZN7IwTween6CTweenC2ERKS0_
	.section	.text._ZN4_STL10_ConstructIN7IwTween6CTweenES2_EEvPT_RKT0_,"axG",@progbits,_ZN4_STL10_ConstructIN7IwTween6CTweenES2_EEvPT_RKT0_,comdat
	.weak	_ZN4_STL10_ConstructIN7IwTween6CTweenES2_EEvPT_RKT0_
	.hidden	_ZN4_STL10_ConstructIN7IwTween6CTweenES2_EEvPT_RKT0_
	.type	_ZN4_STL10_ConstructIN7IwTween6CTweenES2_EEvPT_RKT0_, @function
_ZN4_STL10_ConstructIN7IwTween6CTweenES2_EEvPT_RKT0_:
.LFB570:
	.loc 8 93 0
	.cfi_startproc
	pushl	%ebp
	.cfi_def_cfa_offset 8
	.cfi_offset 5, -8
	leal	(%esp), %ebp
	.cfi_def_cfa_register 5
	leal	-24(%esp), %esp
	.loc 8 97 0
	movl	8(%ebp), %eax
	movl	%eax, 4(%esp)
	movl	$60, (%esp)
	call	_ZnwjPv
	movl	12(%ebp), %edx
	movl	%edx, 4(%esp)
	movl	%eax, (%esp)
	call	_ZN7IwTween6CTweenC1ERKS0_
	.loc 8 98 0
	leave
	.cfi_restore 5
	.cfi_def_cfa 4, 4
	ret
	.cfi_endproc
.LFE570:
	.size	_ZN4_STL10_ConstructIN7IwTween6CTweenES2_EEvPT_RKT0_, .-_ZN4_STL10_ConstructIN7IwTween6CTweenES2_EEvPT_RKT0_
	.section	.text._ZN4_STL6vectorIN7IwTween6CTweenENS_9allocatorIS2_EEE18_M_insert_overflowEPS2_RKS2_RKNS_12__false_typeEjb,"axG",@progbits,_ZN4_STL6vectorIN7IwTween6CTweenENS_9allocatorIS2_EEE18_M_insert_overflowEPS2_RKS2_RKNS_12__false_typeEjb,comdat
	.align 2
	.weak	_ZN4_STL6vectorIN7IwTween6CTweenENS_9allocatorIS2_EEE18_M_insert_overflowEPS2_RKS2_RKNS_12__false_typeEjb
	.hidden	_ZN4_STL6vectorIN7IwTween6CTweenENS_9allocatorIS2_EEE18_M_insert_overflowEPS2_RKS2_RKNS_12__false_typeEjb
	.type	_ZN4_STL6vectorIN7IwTween6CTweenENS_9allocatorIS2_EEE18_M_insert_overflowEPS2_RKS2_RKNS_12__false_typeEjb, @function
_ZN4_STL6vectorIN7IwTween6CTweenENS_9allocatorIS2_EEE18_M_insert_overflowEPS2_RKS2_RKNS_12__false_typeEjb:
.LFB574:
	.loc 6 125 0
	.cfi_startproc
	pushl	%ebp
	.cfi_def_cfa_offset 8
	.cfi_offset 5, -8
	leal	(%esp), %ebp
	.cfi_def_cfa_register 5
	leal	-72(%esp), %esp
	movl	28(%ebp), %eax
	movb	%al, -44(%ebp)
.LBB72:
	.loc 6 127 0
	movl	8(%ebp), %eax
	movl	%eax, (%esp)
	call	_ZNK4_STL6vectorIN7IwTween6CTweenENS_9allocatorIS2_EEE4sizeEv
	movl	%eax, -28(%ebp)
	.loc 6 128 0
	leal	24(%ebp), %eax
	movl	%eax, 4(%esp)
	leal	-28(%ebp), %eax
	movl	%eax, (%esp)
	call	_ZN4_STL3maxIjEERKT_S3_S3_
	movl	(%eax), %edx
	movl	-28(%ebp), %eax
	addl	%edx, %eax
	movl	%eax, -16(%ebp)
	.loc 6 130 0
	movl	8(%ebp), %eax
	movl	%eax, %edx
	addl	$8, %edx
	movl	$0, 8(%esp)
	movl	-16(%ebp), %eax
	movl	%eax, 4(%esp)
	movl	%edx, (%esp)
	call	_ZN4_STL9allocatorIN7IwTween6CTweenEE8allocateEjPKv
	movl	%eax, -20(%ebp)
	.loc 6 131 0
	movl	-20(%ebp), %eax
	movl	%eax, -12(%ebp)
	.loc 6 133 0
	movl	8(%ebp), %eax
	movl	(%eax), %eax
	leal	-23(%ebp), %edx
	movl	%edx, 12(%esp)
	movl	-20(%ebp), %edx
	movl	%edx, 8(%esp)
	movl	12(%ebp), %edx
	movl	%edx, 4(%esp)
	movl	%eax, (%esp)
	call	_ZN4_STL20__uninitialized_copyIPN7IwTween6CTweenES3_EET0_T_S5_S4_RKNS_12__false_typeE
	movl	%eax, -12(%ebp)
	.loc 6 135 0
	movl	24(%ebp), %eax
	cmpl	$1, %eax
	jne	.L343
	.loc 6 136 0
	movl	16(%ebp), %eax
	movl	%eax, 4(%esp)
	movl	-12(%ebp), %eax
	movl	%eax, (%esp)
	call	_ZN4_STL10_ConstructIN7IwTween6CTweenES2_EEvPT_RKT0_
	.loc 6 137 0
	addl	$60, -12(%ebp)
	jmp	.L344
.L343:
	.loc 6 139 0
	movl	24(%ebp), %eax
	leal	-22(%ebp), %edx
	movl	%edx, 12(%esp)
	movl	16(%ebp), %edx
	movl	%edx, 8(%esp)
	movl	%eax, 4(%esp)
	movl	-12(%ebp), %eax
	movl	%eax, (%esp)
	call	_ZN4_STL22__uninitialized_fill_nIPN7IwTween6CTweenEjS2_EET_S4_T0_RKT1_RKNS_12__false_typeE
	movl	%eax, -12(%ebp)
.L344:
	.loc 6 140 0
	movzbl	-44(%ebp), %eax
	xorl	$1, %eax
	testb	%al, %al
	je	.L345
	.loc 6 142 0
	movl	8(%ebp), %eax
	movl	4(%eax), %eax
	leal	-21(%ebp), %edx
	movl	%edx, 12(%esp)
	movl	-12(%ebp), %edx
	movl	%edx, 8(%esp)
	movl	%eax, 4(%esp)
	movl	12(%ebp), %eax
	movl	%eax, (%esp)
	call	_ZN4_STL20__uninitialized_copyIPN7IwTween6CTweenES3_EET0_T_S5_S4_RKNS_12__false_typeE
	movl	%eax, -12(%ebp)
.L345:
	.loc 6 146 0
	movl	8(%ebp), %eax
	movl	%eax, (%esp)
	call	_ZN4_STL6vectorIN7IwTween6CTweenENS_9allocatorIS2_EEE8_M_clearEv
	.loc 6 147 0
	movl	-16(%ebp), %eax
	sall	$2, %eax
	movl	%eax, %edx
	sall	$4, %edx
	subl	%eax, %edx
	movl	-20(%ebp), %eax
	addl	%edx, %eax
	movl	%eax, 12(%esp)
	movl	-12(%ebp), %eax
	movl	%eax, 8(%esp)
	movl	-20(%ebp), %eax
	movl	%eax, 4(%esp)
	movl	8(%ebp), %eax
	movl	%eax, (%esp)
	call	_ZN4_STL6vectorIN7IwTween6CTweenENS_9allocatorIS2_EEE6_M_setEPS2_S6_S6_
.LBE72:
	.loc 6 148 0
	leave
	.cfi_restore 5
	.cfi_def_cfa 4, 4
	ret
	.cfi_endproc
.LFE574:
	.size	_ZN4_STL6vectorIN7IwTween6CTweenENS_9allocatorIS2_EEE18_M_insert_overflowEPS2_RKS2_RKNS_12__false_typeEjb, .-_ZN4_STL6vectorIN7IwTween6CTweenENS_9allocatorIS2_EEE18_M_insert_overflowEPS2_RKS2_RKNS_12__false_typeEjb
	.section	.text._ZN4_STL10_ConstructIN7IwTween6CTween9ValueTypeES3_EEvPT_RKT0_,"axG",@progbits,_ZN4_STL10_ConstructIN7IwTween6CTween9ValueTypeES3_EEvPT_RKT0_,comdat
	.weak	_ZN4_STL10_ConstructIN7IwTween6CTween9ValueTypeES3_EEvPT_RKT0_
	.hidden	_ZN4_STL10_ConstructIN7IwTween6CTween9ValueTypeES3_EEvPT_RKT0_
	.type	_ZN4_STL10_ConstructIN7IwTween6CTween9ValueTypeES3_EEvPT_RKT0_, @function
_ZN4_STL10_ConstructIN7IwTween6CTween9ValueTypeES3_EEvPT_RKT0_:
.LFB575:
	.loc 8 93 0
	.cfi_startproc
	pushl	%ebp
	.cfi_def_cfa_offset 8
	.cfi_offset 5, -8
	leal	(%esp), %ebp
	.cfi_def_cfa_register 5
	leal	-24(%esp), %esp
	.loc 8 97 0
	movl	8(%ebp), %eax
	movl	%eax, 4(%esp)
	movl	$16, (%esp)
	call	_ZnwjPv
	movl	12(%ebp), %edx
	movl	(%edx), %ecx
	movl	%ecx, (%eax)
	movl	4(%edx), %ecx
	movl	%ecx, 4(%eax)
	movl	8(%edx), %ecx
	movl	%ecx, 8(%eax)
	movl	12(%edx), %edx
	movl	%edx, 12(%eax)
	.loc 8 98 0
	leave
	.cfi_restore 5
	.cfi_def_cfa 4, 4
	ret
	.cfi_endproc
.LFE575:
	.size	_ZN4_STL10_ConstructIN7IwTween6CTween9ValueTypeES3_EEvPT_RKT0_, .-_ZN4_STL10_ConstructIN7IwTween6CTween9ValueTypeES3_EEvPT_RKT0_
	.section	.text._ZN4_STL6vectorIN7IwTween6CTween9ValueTypeENS_9allocatorIS3_EEE18_M_insert_overflowEPS3_RKS3_RKNS_12__false_typeEjb,"axG",@progbits,_ZN4_STL6vectorIN7IwTween6CTween9ValueTypeENS_9allocatorIS3_EEE18_M_insert_overflowEPS3_RKS3_RKNS_12__false_typeEjb,comdat
	.align 2
	.weak	_ZN4_STL6vectorIN7IwTween6CTween9ValueTypeENS_9allocatorIS3_EEE18_M_insert_overflowEPS3_RKS3_RKNS_12__false_typeEjb
	.hidden	_ZN4_STL6vectorIN7IwTween6CTween9ValueTypeENS_9allocatorIS3_EEE18_M_insert_overflowEPS3_RKS3_RKNS_12__false_typeEjb
	.type	_ZN4_STL6vectorIN7IwTween6CTween9ValueTypeENS_9allocatorIS3_EEE18_M_insert_overflowEPS3_RKS3_RKNS_12__false_typeEjb, @function
_ZN4_STL6vectorIN7IwTween6CTween9ValueTypeENS_9allocatorIS3_EEE18_M_insert_overflowEPS3_RKS3_RKNS_12__false_typeEjb:
.LFB576:
	.loc 6 125 0
	.cfi_startproc
	pushl	%ebp
	.cfi_def_cfa_offset 8
	.cfi_offset 5, -8
	leal	(%esp), %ebp
	.cfi_def_cfa_register 5
	leal	-72(%esp), %esp
	movl	28(%ebp), %eax
	movb	%al, -44(%ebp)
.LBB73:
	.loc 6 127 0
	movl	8(%ebp), %eax
	movl	%eax, (%esp)
	call	_ZNK4_STL6vectorIN7IwTween6CTween9ValueTypeENS_9allocatorIS3_EEE4sizeEv
	movl	%eax, -28(%ebp)
	.loc 6 128 0
	leal	24(%ebp), %eax
	movl	%eax, 4(%esp)
	leal	-28(%ebp), %eax
	movl	%eax, (%esp)
	call	_ZN4_STL3maxIjEERKT_S3_S3_
	movl	(%eax), %edx
	movl	-28(%ebp), %eax
	addl	%edx, %eax
	movl	%eax, -16(%ebp)
	.loc 6 130 0
	movl	8(%ebp), %eax
	movl	%eax, %edx
	addl	$8, %edx
	movl	$0, 8(%esp)
	movl	-16(%ebp), %eax
	movl	%eax, 4(%esp)
	movl	%edx, (%esp)
	call	_ZN4_STL9allocatorIN7IwTween6CTween9ValueTypeEE8allocateEjPKv
	movl	%eax, -20(%ebp)
	.loc 6 131 0
	movl	-20(%ebp), %eax
	movl	%eax, -12(%ebp)
	.loc 6 133 0
	movl	8(%ebp), %eax
	movl	(%eax), %eax
	leal	-23(%ebp), %edx
	movl	%edx, 12(%esp)
	movl	-20(%ebp), %edx
	movl	%edx, 8(%esp)
	movl	12(%ebp), %edx
	movl	%edx, 4(%esp)
	movl	%eax, (%esp)
	call	_ZN4_STL20__uninitialized_copyIPN7IwTween6CTween9ValueTypeES4_EET0_T_S6_S5_RKNS_12__false_typeE
	movl	%eax, -12(%ebp)
	.loc 6 135 0
	movl	24(%ebp), %eax
	cmpl	$1, %eax
	jne	.L348
	.loc 6 136 0
	movl	16(%ebp), %eax
	movl	%eax, 4(%esp)
	movl	-12(%ebp), %eax
	movl	%eax, (%esp)
	call	_ZN4_STL10_ConstructIN7IwTween6CTween9ValueTypeES3_EEvPT_RKT0_
	.loc 6 137 0
	addl	$16, -12(%ebp)
	jmp	.L349
.L348:
	.loc 6 139 0
	movl	24(%ebp), %eax
	leal	-22(%ebp), %edx
	movl	%edx, 12(%esp)
	movl	16(%ebp), %edx
	movl	%edx, 8(%esp)
	movl	%eax, 4(%esp)
	movl	-12(%ebp), %eax
	movl	%eax, (%esp)
	call	_ZN4_STL22__uninitialized_fill_nIPN7IwTween6CTween9ValueTypeEjS3_EET_S5_T0_RKT1_RKNS_12__false_typeE
	movl	%eax, -12(%ebp)
.L349:
	.loc 6 140 0
	movzbl	-44(%ebp), %eax
	xorl	$1, %eax
	testb	%al, %al
	je	.L350
	.loc 6 142 0
	movl	8(%ebp), %eax
	movl	4(%eax), %eax
	leal	-21(%ebp), %edx
	movl	%edx, 12(%esp)
	movl	-12(%ebp), %edx
	movl	%edx, 8(%esp)
	movl	%eax, 4(%esp)
	movl	12(%ebp), %eax
	movl	%eax, (%esp)
	call	_ZN4_STL20__uninitialized_copyIPN7IwTween6CTween9ValueTypeES4_EET0_T_S6_S5_RKNS_12__false_typeE
	movl	%eax, -12(%ebp)
.L350:
	.loc 6 146 0
	movl	8(%ebp), %eax
	movl	%eax, (%esp)
	call	_ZN4_STL6vectorIN7IwTween6CTween9ValueTypeENS_9allocatorIS3_EEE8_M_clearEv
	.loc 6 147 0
	movl	-16(%ebp), %eax
	sall	$4, %eax
	movl	%eax, %edx
	movl	-20(%ebp), %eax
	addl	%edx, %eax
	movl	%eax, 12(%esp)
	movl	-12(%ebp), %eax
	movl	%eax, 8(%esp)
	movl	-20(%ebp), %eax
	movl	%eax, 4(%esp)
	movl	8(%ebp), %eax
	movl	%eax, (%esp)
	call	_ZN4_STL6vectorIN7IwTween6CTween9ValueTypeENS_9allocatorIS3_EEE6_M_setEPS3_S7_S7_
.LBE73:
	.loc 6 148 0
	leave
	.cfi_restore 5
	.cfi_def_cfa 4, 4
	ret
	.cfi_endproc
.LFE576:
	.size	_ZN4_STL6vectorIN7IwTween6CTween9ValueTypeENS_9allocatorIS3_EEE18_M_insert_overflowEPS3_RKS3_RKNS_12__false_typeEjb, .-_ZN4_STL6vectorIN7IwTween6CTween9ValueTypeENS_9allocatorIS3_EEE18_M_insert_overflowEPS3_RKS3_RKNS_12__false_typeEjb
	.section	.text._ZN4_STL11__copy_ptrsIPN7IwTween6CTweenES3_EET0_T_S5_S4_RKNS_12__false_typeE,"axG",@progbits,_ZN4_STL11__copy_ptrsIPN7IwTween6CTweenES3_EET0_T_S5_S4_RKNS_12__false_typeE,comdat
	.weak	_ZN4_STL11__copy_ptrsIPN7IwTween6CTweenES3_EET0_T_S5_S4_RKNS_12__false_typeE
	.hidden	_ZN4_STL11__copy_ptrsIPN7IwTween6CTweenES3_EET0_T_S5_S4_RKNS_12__false_typeE
	.type	_ZN4_STL11__copy_ptrsIPN7IwTween6CTweenES3_EET0_T_S5_S4_RKNS_12__false_typeE, @function
_ZN4_STL11__copy_ptrsIPN7IwTween6CTweenES3_EET0_T_S5_S4_RKNS_12__false_typeE:
.LFB577:
	.loc 7 188 0
	.cfi_startproc
	pushl	%ebp
	.cfi_def_cfa_offset 8
	.cfi_offset 5, -8
	movl	%esp, %ebp
	.cfi_def_cfa_register 5
	leal	-56(%esp), %esp
	.loc 7 191 0
	movl	$0, 16(%esp)
	leal	-9(%ebp), %eax
	movl	%eax, 12(%esp)
	movl	16(%ebp), %eax
	movl	%eax, 8(%esp)
	movl	12(%ebp), %eax
	movl	%eax, 4(%esp)
	movl	8(%ebp), %eax
	movl	%eax, (%esp)
	call	_ZN4_STL6__copyIPN7IwTween6CTweenES3_iEET0_T_S5_S4_RKNS_26random_access_iterator_tagEPT1_
	.loc 7 192 0
	leave
	.cfi_restore 5
	.cfi_def_cfa 4, 4
	ret
	.cfi_endproc
.LFE577:
	.size	_ZN4_STL11__copy_ptrsIPN7IwTween6CTweenES3_EET0_T_S5_S4_RKNS_12__false_typeE, .-_ZN4_STL11__copy_ptrsIPN7IwTween6CTweenES3_EET0_T_S5_S4_RKNS_12__false_typeE
	.section	.text._ZN4_STL8_DestroyIN7IwTween6CTweenEEEvPT_,"axG",@progbits,_ZN4_STL8_DestroyIN7IwTween6CTweenEEEvPT_,comdat
	.weak	_ZN4_STL8_DestroyIN7IwTween6CTweenEEEvPT_
	.hidden	_ZN4_STL8_DestroyIN7IwTween6CTweenEEEvPT_
	.type	_ZN4_STL8_DestroyIN7IwTween6CTweenEEEvPT_, @function
_ZN4_STL8_DestroyIN7IwTween6CTweenEEEvPT_:
.LFB578:
	.loc 8 56 0
	.cfi_startproc
	pushl	%ebp
	.cfi_def_cfa_offset 8
	.cfi_offset 5, -8
	leal	(%esp), %ebp
	.cfi_def_cfa_register 5
	leal	-24(%esp), %esp
	.loc 8 67 0
	movl	8(%ebp), %eax
	movl	%eax, (%esp)
	call	_ZN7IwTween6CTweenD1Ev
	.loc 8 73 0
	leave
	.cfi_restore 5
	.cfi_def_cfa 4, 4
	ret
	.cfi_endproc
.LFE578:
	.size	_ZN4_STL8_DestroyIN7IwTween6CTweenEEEvPT_, .-_ZN4_STL8_DestroyIN7IwTween6CTweenEEEvPT_
	.section	.text._ZN4_STL17_STLP_alloc_proxyIPN7IwTween6CTween9ValueTypeES3_NS_9allocatorIS3_EEEC2ERKS6_S4_,"axG",@progbits,_ZN4_STL17_STLP_alloc_proxyIPN7IwTween6CTween9ValueTypeES3_NS_9allocatorIS3_EEEC5ERKS6_S4_,comdat
	.align 2
	.weak	_ZN4_STL17_STLP_alloc_proxyIPN7IwTween6CTween9ValueTypeES3_NS_9allocatorIS3_EEEC2ERKS6_S4_
	.hidden	_ZN4_STL17_STLP_alloc_proxyIPN7IwTween6CTween9ValueTypeES3_NS_9allocatorIS3_EEEC2ERKS6_S4_
	.type	_ZN4_STL17_STLP_alloc_proxyIPN7IwTween6CTween9ValueTypeES3_NS_9allocatorIS3_EEEC2ERKS6_S4_, @function
_ZN4_STL17_STLP_alloc_proxyIPN7IwTween6CTween9ValueTypeES3_NS_9allocatorIS3_EEEC2ERKS6_S4_:
.LFB580:
	.loc 5 487 0
	.cfi_startproc
	pushl	%ebp
	.cfi_def_cfa_offset 8
	.cfi_offset 5, -8
	leal	(%esp), %ebp
	.cfi_def_cfa_register 5
	leal	-24(%esp), %esp
.LBB74:
	.loc 5 487 0
	movl	12(%ebp), %eax
	movl	%eax, 4(%esp)
	movl	8(%ebp), %eax
	movl	%eax, (%esp)
	call	_ZN4_STL9allocatorIN7IwTween6CTween9ValueTypeEEC2ERKS4_
	movl	8(%ebp), %eax
	movl	16(%ebp), %edx
	movl	%edx, (%eax)
.LBE74:
	leave
	.cfi_restore 5
	.cfi_def_cfa 4, 4
	ret
	.cfi_endproc
.LFE580:
	.size	_ZN4_STL17_STLP_alloc_proxyIPN7IwTween6CTween9ValueTypeES3_NS_9allocatorIS3_EEEC2ERKS6_S4_, .-_ZN4_STL17_STLP_alloc_proxyIPN7IwTween6CTween9ValueTypeES3_NS_9allocatorIS3_EEEC2ERKS6_S4_
	.weak	_ZN4_STL17_STLP_alloc_proxyIPN7IwTween6CTween9ValueTypeES3_NS_9allocatorIS3_EEEC1ERKS6_S4_
	.hidden	_ZN4_STL17_STLP_alloc_proxyIPN7IwTween6CTween9ValueTypeES3_NS_9allocatorIS3_EEEC1ERKS6_S4_
	.set	_ZN4_STL17_STLP_alloc_proxyIPN7IwTween6CTween9ValueTypeES3_NS_9allocatorIS3_EEEC1ERKS6_S4_,_ZN4_STL17_STLP_alloc_proxyIPN7IwTween6CTween9ValueTypeES3_NS_9allocatorIS3_EEEC2ERKS6_S4_
	.section	.text._ZN4_STL9allocatorIN7IwTween6CTween9ValueTypeEE10deallocateEPS3_j,"axG",@progbits,_ZN4_STL9allocatorIN7IwTween6CTween9ValueTypeEE10deallocateEPS3_j,comdat
	.align 2
	.weak	_ZN4_STL9allocatorIN7IwTween6CTween9ValueTypeEE10deallocateEPS3_j
	.hidden	_ZN4_STL9allocatorIN7IwTween6CTween9ValueTypeEE10deallocateEPS3_j
	.type	_ZN4_STL9allocatorIN7IwTween6CTween9ValueTypeEE10deallocateEPS3_j, @function
_ZN4_STL9allocatorIN7IwTween6CTween9ValueTypeEE10deallocateEPS3_j:
.LFB582:
	.loc 5 358 0
	.cfi_startproc
	pushl	%ebp
	.cfi_def_cfa_offset 8
	.cfi_offset 5, -8
	leal	(%esp), %ebp
	.cfi_def_cfa_register 5
	leal	-24(%esp), %esp
	.loc 5 360 0
	cmpl	$0, 12(%ebp)
	je	.L355
	.loc 5 360 0 is_stmt 0 discriminator 1
	movl	16(%ebp), %eax
	sall	$4, %eax
	movl	%eax, 4(%esp)
	movl	12(%ebp), %eax
	movl	%eax, (%esp)
	call	_ZN4_STL14__malloc_allocILi0EE10deallocateEPvj
.L355:
	.loc 5 361 0 is_stmt 1
	leave
	.cfi_restore 5
	.cfi_def_cfa 4, 4
	ret
	.cfi_endproc
.LFE582:
	.size	_ZN4_STL9allocatorIN7IwTween6CTween9ValueTypeEE10deallocateEPS3_j, .-_ZN4_STL9allocatorIN7IwTween6CTween9ValueTypeEE10deallocateEPS3_j
	.section	.text._ZN4_STL9__destroyIPN7IwTween6CTween9ValueTypeES3_EEvT_S5_PT0_,"axG",@progbits,_ZN4_STL9__destroyIPN7IwTween6CTween9ValueTypeES3_EEvT_S5_PT0_,comdat
	.weak	_ZN4_STL9__destroyIPN7IwTween6CTween9ValueTypeES3_EEvT_S5_PT0_
	.hidden	_ZN4_STL9__destroyIPN7IwTween6CTween9ValueTypeES3_EEvT_S5_PT0_
	.type	_ZN4_STL9__destroyIPN7IwTween6CTween9ValueTypeES3_EEvT_S5_PT0_, @function
_ZN4_STL9__destroyIPN7IwTween6CTween9ValueTypeES3_EEvT_S5_PT0_:
.LFB583:
	.loc 8 132 0
	.cfi_startproc
	pushl	%ebp
	.cfi_def_cfa_offset 8
	.cfi_offset 5, -8
	movl	%esp, %ebp
	.cfi_def_cfa_register 5
	leal	-40(%esp), %esp
.LBB75:
	.loc 8 134 0
	leal	-9(%ebp), %eax
	movl	%eax, 8(%esp)
	movl	12(%ebp), %eax
	movl	%eax, 4(%esp)
	movl	8(%ebp), %eax
	movl	%eax, (%esp)
	call	_ZN4_STL13__destroy_auxIPN7IwTween6CTween9ValueTypeEEEvT_S5_RKNS_12__false_typeE
.LBE75:
	.loc 8 135 0
	leave
	.cfi_restore 5
	.cfi_def_cfa 4, 4
	ret
	.cfi_endproc
.LFE583:
	.size	_ZN4_STL9__destroyIPN7IwTween6CTween9ValueTypeES3_EEvT_S5_PT0_, .-_ZN4_STL9__destroyIPN7IwTween6CTween9ValueTypeES3_EEvT_S5_PT0_
	.section	.text._ZN4_STL9allocatorIN7IwTween6CTweenEE10deallocateEPS2_j,"axG",@progbits,_ZN4_STL9allocatorIN7IwTween6CTweenEE10deallocateEPS2_j,comdat
	.align 2
	.weak	_ZN4_STL9allocatorIN7IwTween6CTweenEE10deallocateEPS2_j
	.hidden	_ZN4_STL9allocatorIN7IwTween6CTweenEE10deallocateEPS2_j
	.type	_ZN4_STL9allocatorIN7IwTween6CTweenEE10deallocateEPS2_j, @function
_ZN4_STL9allocatorIN7IwTween6CTweenEE10deallocateEPS2_j:
.LFB587:
	.loc 5 358 0
	.cfi_startproc
	pushl	%ebp
	.cfi_def_cfa_offset 8
	.cfi_offset 5, -8
	leal	(%esp), %ebp
	.cfi_def_cfa_register 5
	leal	-24(%esp), %esp
	.loc 5 360 0
	cmpl	$0, 12(%ebp)
	je	.L358
	.loc 5 360 0 is_stmt 0 discriminator 1
	movl	16(%ebp), %eax
	sall	$2, %eax
	movl	%eax, %edx
	sall	$4, %edx
	subl	%eax, %edx
	movl	%edx, %eax
	movl	%eax, 4(%esp)
	movl	12(%ebp), %eax
	movl	%eax, (%esp)
	call	_ZN4_STL14__malloc_allocILi0EE10deallocateEPvj
.L358:
	.loc 5 361 0 is_stmt 1
	leave
	.cfi_restore 5
	.cfi_def_cfa 4, 4
	ret
	.cfi_endproc
.LFE587:
	.size	_ZN4_STL9allocatorIN7IwTween6CTweenEE10deallocateEPS2_j, .-_ZN4_STL9allocatorIN7IwTween6CTweenEE10deallocateEPS2_j
	.section	.text._ZN4_STL9__destroyIPN7IwTween6CTweenES2_EEvT_S4_PT0_,"axG",@progbits,_ZN4_STL9__destroyIPN7IwTween6CTweenES2_EEvT_S4_PT0_,comdat
	.weak	_ZN4_STL9__destroyIPN7IwTween6CTweenES2_EEvT_S4_PT0_
	.hidden	_ZN4_STL9__destroyIPN7IwTween6CTweenES2_EEvT_S4_PT0_
	.type	_ZN4_STL9__destroyIPN7IwTween6CTweenES2_EEvT_S4_PT0_, @function
_ZN4_STL9__destroyIPN7IwTween6CTweenES2_EEvT_S4_PT0_:
.LFB588:
	.loc 8 132 0
	.cfi_startproc
	pushl	%ebp
	.cfi_def_cfa_offset 8
	.cfi_offset 5, -8
	movl	%esp, %ebp
	.cfi_def_cfa_register 5
	leal	-40(%esp), %esp
.LBB76:
	.loc 8 134 0
	leal	-9(%ebp), %eax
	movl	%eax, 8(%esp)
	movl	12(%ebp), %eax
	movl	%eax, 4(%esp)
	movl	8(%ebp), %eax
	movl	%eax, (%esp)
	call	_ZN4_STL13__destroy_auxIPN7IwTween6CTweenEEEvT_S4_RKNS_12__false_typeE
.LBE76:
	.loc 8 135 0
	leave
	.cfi_restore 5
	.cfi_def_cfa 4, 4
	ret
	.cfi_endproc
.LFE588:
	.size	_ZN4_STL9__destroyIPN7IwTween6CTweenES2_EEvT_S4_PT0_, .-_ZN4_STL9__destroyIPN7IwTween6CTweenES2_EEvT_S4_PT0_
	.section	.text._ZN4_STL6vectorIN7IwTween6CTween9ValueTypeENS_9allocatorIS3_EEEC2ERKS6_,"axG",@progbits,_ZN4_STL6vectorIN7IwTween6CTween9ValueTypeENS_9allocatorIS3_EEEC5ERKS6_,comdat
	.align 2
	.weak	_ZN4_STL6vectorIN7IwTween6CTween9ValueTypeENS_9allocatorIS3_EEEC2ERKS6_
	.hidden	_ZN4_STL6vectorIN7IwTween6CTween9ValueTypeENS_9allocatorIS3_EEEC2ERKS6_
	.type	_ZN4_STL6vectorIN7IwTween6CTween9ValueTypeENS_9allocatorIS3_EEEC2ERKS6_, @function
_ZN4_STL6vectorIN7IwTween6CTween9ValueTypeENS_9allocatorIS3_EEEC2ERKS6_:
.LFB590:
	.loc 6 212 0
	.cfi_startproc
	pushl	%ebp
	.cfi_def_cfa_offset 8
	.cfi_offset 5, -8
	movl	%esp, %ebp
	.cfi_def_cfa_register 5
	pushl	%esi
	leal	-36(%esp), %esp
	.cfi_offset 6, -12
.LBB77:
	.loc 6 213 0
	leal	-10(%ebp), %eax
	movl	12(%ebp), %edx
	movl	%edx, 4(%esp)
	movl	%eax, (%esp)
	call	_ZNK4_STL6vectorIN7IwTween6CTween9ValueTypeENS_9allocatorIS3_EEE13get_allocatorEv
	leal	-4(%esp), %esp
	movl	12(%ebp), %eax
	movl	%eax, (%esp)
	call	_ZNK4_STL6vectorIN7IwTween6CTween9ValueTypeENS_9allocatorIS3_EEE4sizeEv
	movl	8(%ebp), %edx
	leal	-10(%ebp), %ecx
	movl	%ecx, 8(%esp)
	movl	%eax, 4(%esp)
	movl	%edx, (%esp)
	call	_ZN4_STL12_Vector_baseIN7IwTween6CTween9ValueTypeENS_9allocatorIS3_EEEC2EjRKS5_
	leal	-10(%ebp), %eax
	movl	%eax, (%esp)
	call	_ZN4_STL9allocatorIN7IwTween6CTween9ValueTypeEED1Ev
	.loc 6 215 0
	movl	8(%ebp), %eax
	movl	(%eax), %ecx
	movl	12(%ebp), %eax
	movl	4(%eax), %edx
	movl	12(%ebp), %eax
	movl	(%eax), %eax
	leal	-9(%ebp), %esi
	movl	%esi, 12(%esp)
	movl	%ecx, 8(%esp)
	movl	%edx, 4(%esp)
	movl	%eax, (%esp)
	call	_ZN4_STL20__uninitialized_copyIPKN7IwTween6CTween9ValueTypeEPS3_EET0_T_S8_S7_RKNS_12__false_typeE
	.loc 6 214 0
	movl	8(%ebp), %edx
	movl	%eax, 4(%edx)
.LBE77:
	.loc 6 216 0
	movl	-4(%ebp), %esi
	leave
	.cfi_restore 5
	.cfi_restore 6
	.cfi_def_cfa 4, 4
	ret
	.cfi_endproc
.LFE590:
	.size	_ZN4_STL6vectorIN7IwTween6CTween9ValueTypeENS_9allocatorIS3_EEEC2ERKS6_, .-_ZN4_STL6vectorIN7IwTween6CTween9ValueTypeENS_9allocatorIS3_EEEC2ERKS6_
	.weak	_ZN4_STL6vectorIN7IwTween6CTween9ValueTypeENS_9allocatorIS3_EEEC1ERKS6_
	.hidden	_ZN4_STL6vectorIN7IwTween6CTween9ValueTypeENS_9allocatorIS3_EEEC1ERKS6_
	.set	_ZN4_STL6vectorIN7IwTween6CTween9ValueTypeENS_9allocatorIS3_EEEC1ERKS6_,_ZN4_STL6vectorIN7IwTween6CTween9ValueTypeENS_9allocatorIS3_EEEC2ERKS6_
	.section	.text._ZN4_STL3maxIjEERKT_S3_S3_,"axG",@progbits,_ZN4_STL3maxIjEERKT_S3_S3_,comdat
	.weak	_ZN4_STL3maxIjEERKT_S3_S3_
	.hidden	_ZN4_STL3maxIjEERKT_S3_S3_
	.type	_ZN4_STL3maxIjEERKT_S3_S3_, @function
_ZN4_STL3maxIjEERKT_S3_S3_:
.LFB592:
	.loc 7 79 0
	.cfi_startproc
	pushl	%ebp
	.cfi_def_cfa_offset 8
	.cfi_offset 5, -8
	leal	(%esp), %ebp
	.cfi_def_cfa_register 5
	.loc 7 79 0
	movl	8(%ebp), %eax
	movl	(%eax), %edx
	movl	12(%ebp), %eax
	movl	(%eax), %eax
	cmpl	%eax, %edx
	jae	.L363
	.loc 7 79 0 is_stmt 0 discriminator 1
	movl	12(%ebp), %eax
	jmp	.L364
.L363:
	.loc 7 79 0 discriminator 2
	movl	8(%ebp), %eax
.L364:
	.loc 7 79 0 discriminator 3
	popl	%ebp
	.cfi_restore 5
	.cfi_def_cfa 4, 4
	ret
	.cfi_endproc
.LFE592:
	.size	_ZN4_STL3maxIjEERKT_S3_S3_, .-_ZN4_STL3maxIjEERKT_S3_S3_
	.section	.text._ZN4_STL9allocatorIN7IwTween6CTweenEE8allocateEjPKv,"axG",@progbits,_ZN4_STL9allocatorIN7IwTween6CTweenEE8allocateEjPKv,comdat
	.align 2
	.weak	_ZN4_STL9allocatorIN7IwTween6CTweenEE8allocateEjPKv
	.hidden	_ZN4_STL9allocatorIN7IwTween6CTweenEE8allocateEjPKv
	.type	_ZN4_STL9allocatorIN7IwTween6CTweenEE8allocateEjPKv, @function
_ZN4_STL9allocatorIN7IwTween6CTweenEE8allocateEjPKv:
.LFB593:
	.loc 5 354 0 is_stmt 1
	.cfi_startproc
	pushl	%ebp
	.cfi_def_cfa_offset 8
	.cfi_offset 5, -8
	leal	(%esp), %ebp
	.cfi_def_cfa_register 5
	leal	-24(%esp), %esp
	.loc 5 355 0
	cmpl	$0, 12(%ebp)
	je	.L367
	.loc 5 355 0 is_stmt 0 discriminator 1
	movl	12(%ebp), %eax
	sall	$2, %eax
	movl	%eax, %edx
	sall	$4, %edx
	subl	%eax, %edx
	movl	%edx, %eax
	movl	%eax, (%esp)
	call	_ZN4_STL14__malloc_allocILi0EE8allocateEj
	jmp	.L368
.L367:
	.loc 5 355 0 discriminator 2
	movl	$0, %eax
.L368:
	.loc 5 356 0 is_stmt 1 discriminator 3
	leave
	.cfi_restore 5
	.cfi_def_cfa 4, 4
	ret
	.cfi_endproc
.LFE593:
	.size	_ZN4_STL9allocatorIN7IwTween6CTweenEE8allocateEjPKv, .-_ZN4_STL9allocatorIN7IwTween6CTweenEE8allocateEjPKv
	.section	.text._ZN4_STL20__uninitialized_copyIPN7IwTween6CTweenES3_EET0_T_S5_S4_RKNS_12__false_typeE,"axG",@progbits,_ZN4_STL20__uninitialized_copyIPN7IwTween6CTweenES3_EET0_T_S5_S4_RKNS_12__false_typeE,comdat
	.weak	_ZN4_STL20__uninitialized_copyIPN7IwTween6CTweenES3_EET0_T_S5_S4_RKNS_12__false_typeE
	.hidden	_ZN4_STL20__uninitialized_copyIPN7IwTween6CTweenES3_EET0_T_S5_S4_RKNS_12__false_typeE
	.type	_ZN4_STL20__uninitialized_copyIPN7IwTween6CTweenES3_EET0_T_S5_S4_RKNS_12__false_typeE, @function
_ZN4_STL20__uninitialized_copyIPN7IwTween6CTweenES3_EET0_T_S5_S4_RKNS_12__false_typeE:
.LFB594:
	.file 9 "c:/marmalade/7.5/s3e/h/std/c++/stl/_uninitialized.h"
	.loc 9 61 0
	.cfi_startproc
	pushl	%ebp
	.cfi_def_cfa_offset 8
	.cfi_offset 5, -8
	leal	(%esp), %ebp
	.cfi_def_cfa_register 5
	leal	-40(%esp), %esp
.LBB78:
	.loc 9 64 0
	movl	16(%ebp), %eax
	movl	%eax, -12(%ebp)
	.loc 9 66 0
	jmp	.L371
.L372:
	.loc 9 67 0 discriminator 2
	movl	8(%ebp), %eax
	movl	%eax, 4(%esp)
	movl	-12(%ebp), %eax
	movl	%eax, (%esp)
	call	_ZN4_STL10_ConstructIN7IwTween6CTweenES2_EEvPT_RKT0_
	.loc 9 66 0 discriminator 2
	addl	$60, 8(%ebp)
	addl	$60, -12(%ebp)
.L371:
	.loc 9 66 0 is_stmt 0 discriminator 1
	movl	8(%ebp), %eax
	cmpl	12(%ebp), %eax
	jne	.L372
	.loc 9 68 0 is_stmt 1
	movl	-12(%ebp), %eax
.LBE78:
	.loc 9 74 0
	leave
	.cfi_restore 5
	.cfi_def_cfa 4, 4
	ret
	.cfi_endproc
.LFE594:
	.size	_ZN4_STL20__uninitialized_copyIPN7IwTween6CTweenES3_EET0_T_S5_S4_RKNS_12__false_typeE, .-_ZN4_STL20__uninitialized_copyIPN7IwTween6CTweenES3_EET0_T_S5_S4_RKNS_12__false_typeE
	.section	.text._ZN4_STL22__uninitialized_fill_nIPN7IwTween6CTweenEjS2_EET_S4_T0_RKT1_RKNS_12__false_typeE,"axG",@progbits,_ZN4_STL22__uninitialized_fill_nIPN7IwTween6CTweenEjS2_EET_S4_T0_RKT1_RKNS_12__false_typeE,comdat
	.weak	_ZN4_STL22__uninitialized_fill_nIPN7IwTween6CTweenEjS2_EET_S4_T0_RKT1_RKNS_12__false_typeE
	.hidden	_ZN4_STL22__uninitialized_fill_nIPN7IwTween6CTweenEjS2_EET_S4_T0_RKT1_RKNS_12__false_typeE
	.type	_ZN4_STL22__uninitialized_fill_nIPN7IwTween6CTweenEjS2_EET_S4_T0_RKT1_RKNS_12__false_typeE, @function
_ZN4_STL22__uninitialized_fill_nIPN7IwTween6CTweenEjS2_EET_S4_T0_RKT1_RKNS_12__false_typeE:
.LFB595:
	.loc 9 190 0
	.cfi_startproc
	pushl	%ebp
	.cfi_def_cfa_offset 8
	.cfi_offset 5, -8
	leal	(%esp), %ebp
	.cfi_def_cfa_register 5
	leal	-40(%esp), %esp
.LBB79:
	.loc 9 193 0
	movl	8(%ebp), %eax
	movl	%eax, -12(%ebp)
	.loc 9 195 0
	jmp	.L375
.L376:
	.loc 9 196 0 discriminator 2
	movl	16(%ebp), %eax
	movl	%eax, 4(%esp)
	movl	-12(%ebp), %eax
	movl	%eax, (%esp)
	call	_ZN4_STL10_ConstructIN7IwTween6CTweenES2_EEvPT_RKT0_
	.loc 9 195 0 discriminator 2
	subl	$1, 12(%ebp)
	addl	$60, -12(%ebp)
.L375:
	.loc 9 195 0 is_stmt 0 discriminator 1
	cmpl	$0, 12(%ebp)
	jne	.L376
	.loc 9 197 0 is_stmt 1
	movl	-12(%ebp), %eax
.LBE79:
	.loc 9 203 0
	leave
	.cfi_restore 5
	.cfi_def_cfa 4, 4
	ret
	.cfi_endproc
.LFE595:
	.size	_ZN4_STL22__uninitialized_fill_nIPN7IwTween6CTweenEjS2_EET_S4_T0_RKT1_RKNS_12__false_typeE, .-_ZN4_STL22__uninitialized_fill_nIPN7IwTween6CTweenEjS2_EET_S4_T0_RKT1_RKNS_12__false_typeE
	.section	.text._ZN4_STL6vectorIN7IwTween6CTweenENS_9allocatorIS2_EEE8_M_clearEv,"axG",@progbits,_ZN4_STL6vectorIN7IwTween6CTweenENS_9allocatorIS2_EEE8_M_clearEv,comdat
	.align 2
	.weak	_ZN4_STL6vectorIN7IwTween6CTweenENS_9allocatorIS2_EEE8_M_clearEv
	.hidden	_ZN4_STL6vectorIN7IwTween6CTweenENS_9allocatorIS2_EEE8_M_clearEv
	.type	_ZN4_STL6vectorIN7IwTween6CTweenENS_9allocatorIS2_EEE8_M_clearEv, @function
_ZN4_STL6vectorIN7IwTween6CTweenENS_9allocatorIS2_EEE8_M_clearEv:
.LFB596:
	.loc 6 493 0
	.cfi_startproc
	pushl	%ebp
	.cfi_def_cfa_offset 8
	.cfi_offset 5, -8
	leal	(%esp), %ebp
	.cfi_def_cfa_register 5
	leal	-24(%esp), %esp
	.loc 6 495 0
	movl	8(%ebp), %eax
	movl	4(%eax), %edx
	movl	8(%ebp), %eax
	movl	(%eax), %eax
	movl	%edx, 4(%esp)
	movl	%eax, (%esp)
	call	_ZN4_STL8_DestroyIPN7IwTween6CTweenEEEvT_S4_
	.loc 6 496 0
	movl	8(%ebp), %eax
	movl	8(%eax), %eax
	movl	%eax, %edx
	movl	8(%ebp), %eax
	movl	(%eax), %eax
	subl	%eax, %edx
	movl	%edx, %eax
	sarl	$2, %eax
	imull	$-286331153, %eax, %eax
	movl	%eax, %edx
	movl	8(%ebp), %eax
	movl	(%eax), %eax
	movl	8(%ebp), %ecx
	addl	$8, %ecx
	movl	%edx, 8(%esp)
	movl	%eax, 4(%esp)
	movl	%ecx, (%esp)
	call	_ZN4_STL9allocatorIN7IwTween6CTweenEE10deallocateEPS2_j
	.loc 6 498 0
	leave
	.cfi_restore 5
	.cfi_def_cfa 4, 4
	ret
	.cfi_endproc
.LFE596:
	.size	_ZN4_STL6vectorIN7IwTween6CTweenENS_9allocatorIS2_EEE8_M_clearEv, .-_ZN4_STL6vectorIN7IwTween6CTweenENS_9allocatorIS2_EEE8_M_clearEv
	.section	.text._ZN4_STL6vectorIN7IwTween6CTweenENS_9allocatorIS2_EEE6_M_setEPS2_S6_S6_,"axG",@progbits,_ZN4_STL6vectorIN7IwTween6CTweenENS_9allocatorIS2_EEE6_M_setEPS2_S6_S6_,comdat
	.align 2
	.weak	_ZN4_STL6vectorIN7IwTween6CTweenENS_9allocatorIS2_EEE6_M_setEPS2_S6_S6_
	.hidden	_ZN4_STL6vectorIN7IwTween6CTweenENS_9allocatorIS2_EEE6_M_setEPS2_S6_S6_
	.type	_ZN4_STL6vectorIN7IwTween6CTweenENS_9allocatorIS2_EEE6_M_setEPS2_S6_S6_, @function
_ZN4_STL6vectorIN7IwTween6CTweenENS_9allocatorIS2_EEE6_M_setEPS2_S6_S6_:
.LFB597:
	.loc 6 500 0
	.cfi_startproc
	pushl	%ebp
	.cfi_def_cfa_offset 8
	.cfi_offset 5, -8
	leal	(%esp), %ebp
	.cfi_def_cfa_register 5
	.loc 6 501 0
	movl	8(%ebp), %eax
	movl	12(%ebp), %edx
	movl	%edx, (%eax)
	.loc 6 502 0
	movl	8(%ebp), %eax
	movl	16(%ebp), %edx
	movl	%edx, 4(%eax)
	.loc 6 503 0
	movl	8(%ebp), %eax
	movl	20(%ebp), %edx
	movl	%edx, 8(%eax)
	.loc 6 504 0
	popl	%ebp
	.cfi_restore 5
	.cfi_def_cfa 4, 4
	ret
	.cfi_endproc
.LFE597:
	.size	_ZN4_STL6vectorIN7IwTween6CTweenENS_9allocatorIS2_EEE6_M_setEPS2_S6_S6_, .-_ZN4_STL6vectorIN7IwTween6CTweenENS_9allocatorIS2_EEE6_M_setEPS2_S6_S6_
	.section	.text._ZNK4_STL6vectorIN7IwTween6CTween9ValueTypeENS_9allocatorIS3_EEE4sizeEv,"axG",@progbits,_ZNK4_STL6vectorIN7IwTween6CTween9ValueTypeENS_9allocatorIS3_EEE4sizeEv,comdat
	.align 2
	.weak	_ZNK4_STL6vectorIN7IwTween6CTween9ValueTypeENS_9allocatorIS3_EEE4sizeEv
	.hidden	_ZNK4_STL6vectorIN7IwTween6CTween9ValueTypeENS_9allocatorIS3_EEE4sizeEv
	.type	_ZNK4_STL6vectorIN7IwTween6CTween9ValueTypeENS_9allocatorIS3_EEE4sizeEv, @function
_ZNK4_STL6vectorIN7IwTween6CTween9ValueTypeENS_9allocatorIS3_EEE4sizeEv:
.LFB598:
	.loc 6 182 0
	.cfi_startproc
	pushl	%ebp
	.cfi_def_cfa_offset 8
	.cfi_offset 5, -8
	leal	(%esp), %ebp
	.cfi_def_cfa_register 5
	.loc 6 182 0
	movl	8(%ebp), %eax
	movl	4(%eax), %eax
	movl	%eax, %edx
	movl	8(%ebp), %eax
	movl	(%eax), %eax
	subl	%eax, %edx
	movl	%edx, %eax
	sarl	$4, %eax
	popl	%ebp
	.cfi_restore 5
	.cfi_def_cfa 4, 4
	ret
	.cfi_endproc
.LFE598:
	.size	_ZNK4_STL6vectorIN7IwTween6CTween9ValueTypeENS_9allocatorIS3_EEE4sizeEv, .-_ZNK4_STL6vectorIN7IwTween6CTween9ValueTypeENS_9allocatorIS3_EEE4sizeEv
	.section	.text._ZN4_STL9allocatorIN7IwTween6CTween9ValueTypeEE8allocateEjPKv,"axG",@progbits,_ZN4_STL9allocatorIN7IwTween6CTween9ValueTypeEE8allocateEjPKv,comdat
	.align 2
	.weak	_ZN4_STL9allocatorIN7IwTween6CTween9ValueTypeEE8allocateEjPKv
	.hidden	_ZN4_STL9allocatorIN7IwTween6CTween9ValueTypeEE8allocateEjPKv
	.type	_ZN4_STL9allocatorIN7IwTween6CTween9ValueTypeEE8allocateEjPKv, @function
_ZN4_STL9allocatorIN7IwTween6CTween9ValueTypeEE8allocateEjPKv:
.LFB599:
	.loc 5 354 0
	.cfi_startproc
	pushl	%ebp
	.cfi_def_cfa_offset 8
	.cfi_offset 5, -8
	leal	(%esp), %ebp
	.cfi_def_cfa_register 5
	leal	-24(%esp), %esp
	.loc 5 355 0
	cmpl	$0, 12(%ebp)
	je	.L383
	.loc 5 355 0 is_stmt 0 discriminator 1
	movl	12(%ebp), %eax
	sall	$4, %eax
	movl	%eax, (%esp)
	call	_ZN4_STL14__malloc_allocILi0EE8allocateEj
	jmp	.L384
.L383:
	.loc 5 355 0 discriminator 2
	movl	$0, %eax
.L384:
	.loc 5 356 0 is_stmt 1 discriminator 3
	leave
	.cfi_restore 5
	.cfi_def_cfa 4, 4
	ret
	.cfi_endproc
.LFE599:
	.size	_ZN4_STL9allocatorIN7IwTween6CTween9ValueTypeEE8allocateEjPKv, .-_ZN4_STL9allocatorIN7IwTween6CTween9ValueTypeEE8allocateEjPKv
	.section	.text._ZN4_STL20__uninitialized_copyIPN7IwTween6CTween9ValueTypeES4_EET0_T_S6_S5_RKNS_12__false_typeE,"axG",@progbits,_ZN4_STL20__uninitialized_copyIPN7IwTween6CTween9ValueTypeES4_EET0_T_S6_S5_RKNS_12__false_typeE,comdat
	.weak	_ZN4_STL20__uninitialized_copyIPN7IwTween6CTween9ValueTypeES4_EET0_T_S6_S5_RKNS_12__false_typeE
	.hidden	_ZN4_STL20__uninitialized_copyIPN7IwTween6CTween9ValueTypeES4_EET0_T_S6_S5_RKNS_12__false_typeE
	.type	_ZN4_STL20__uninitialized_copyIPN7IwTween6CTween9ValueTypeES4_EET0_T_S6_S5_RKNS_12__false_typeE, @function
_ZN4_STL20__uninitialized_copyIPN7IwTween6CTween9ValueTypeES4_EET0_T_S6_S5_RKNS_12__false_typeE:
.LFB600:
	.loc 9 61 0
	.cfi_startproc
	pushl	%ebp
	.cfi_def_cfa_offset 8
	.cfi_offset 5, -8
	leal	(%esp), %ebp
	.cfi_def_cfa_register 5
	leal	-40(%esp), %esp
.LBB80:
	.loc 9 64 0
	movl	16(%ebp), %eax
	movl	%eax, -12(%ebp)
	.loc 9 66 0
	jmp	.L387
.L388:
	.loc 9 67 0 discriminator 2
	movl	8(%ebp), %eax
	movl	%eax, 4(%esp)
	movl	-12(%ebp), %eax
	movl	%eax, (%esp)
	call	_ZN4_STL10_ConstructIN7IwTween6CTween9ValueTypeES3_EEvPT_RKT0_
	.loc 9 66 0 discriminator 2
	addl	$16, 8(%ebp)
	addl	$16, -12(%ebp)
.L387:
	.loc 9 66 0 is_stmt 0 discriminator 1
	movl	8(%ebp), %eax
	cmpl	12(%ebp), %eax
	jne	.L388
	.loc 9 68 0 is_stmt 1
	movl	-12(%ebp), %eax
.LBE80:
	.loc 9 74 0
	leave
	.cfi_restore 5
	.cfi_def_cfa 4, 4
	ret
	.cfi_endproc
.LFE600:
	.size	_ZN4_STL20__uninitialized_copyIPN7IwTween6CTween9ValueTypeES4_EET0_T_S6_S5_RKNS_12__false_typeE, .-_ZN4_STL20__uninitialized_copyIPN7IwTween6CTween9ValueTypeES4_EET0_T_S6_S5_RKNS_12__false_typeE
	.section	.text._ZN4_STL22__uninitialized_fill_nIPN7IwTween6CTween9ValueTypeEjS3_EET_S5_T0_RKT1_RKNS_12__false_typeE,"axG",@progbits,_ZN4_STL22__uninitialized_fill_nIPN7IwTween6CTween9ValueTypeEjS3_EET_S5_T0_RKT1_RKNS_12__false_typeE,comdat
	.weak	_ZN4_STL22__uninitialized_fill_nIPN7IwTween6CTween9ValueTypeEjS3_EET_S5_T0_RKT1_RKNS_12__false_typeE
	.hidden	_ZN4_STL22__uninitialized_fill_nIPN7IwTween6CTween9ValueTypeEjS3_EET_S5_T0_RKT1_RKNS_12__false_typeE
	.type	_ZN4_STL22__uninitialized_fill_nIPN7IwTween6CTween9ValueTypeEjS3_EET_S5_T0_RKT1_RKNS_12__false_typeE, @function
_ZN4_STL22__uninitialized_fill_nIPN7IwTween6CTween9ValueTypeEjS3_EET_S5_T0_RKT1_RKNS_12__false_typeE:
.LFB601:
	.loc 9 190 0
	.cfi_startproc
	pushl	%ebp
	.cfi_def_cfa_offset 8
	.cfi_offset 5, -8
	leal	(%esp), %ebp
	.cfi_def_cfa_register 5
	leal	-40(%esp), %esp
.LBB81:
	.loc 9 193 0
	movl	8(%ebp), %eax
	movl	%eax, -12(%ebp)
	.loc 9 195 0
	jmp	.L391
.L392:
	.loc 9 196 0 discriminator 2
	movl	16(%ebp), %eax
	movl	%eax, 4(%esp)
	movl	-12(%ebp), %eax
	movl	%eax, (%esp)
	call	_ZN4_STL10_ConstructIN7IwTween6CTween9ValueTypeES3_EEvPT_RKT0_
	.loc 9 195 0 discriminator 2
	subl	$1, 12(%ebp)
	addl	$16, -12(%ebp)
.L391:
	.loc 9 195 0 is_stmt 0 discriminator 1
	cmpl	$0, 12(%ebp)
	jne	.L392
	.loc 9 197 0 is_stmt 1
	movl	-12(%ebp), %eax
.LBE81:
	.loc 9 203 0
	leave
	.cfi_restore 5
	.cfi_def_cfa 4, 4
	ret
	.cfi_endproc
.LFE601:
	.size	_ZN4_STL22__uninitialized_fill_nIPN7IwTween6CTween9ValueTypeEjS3_EET_S5_T0_RKT1_RKNS_12__false_typeE, .-_ZN4_STL22__uninitialized_fill_nIPN7IwTween6CTween9ValueTypeEjS3_EET_S5_T0_RKT1_RKNS_12__false_typeE
	.section	.text._ZN4_STL6vectorIN7IwTween6CTween9ValueTypeENS_9allocatorIS3_EEE8_M_clearEv,"axG",@progbits,_ZN4_STL6vectorIN7IwTween6CTween9ValueTypeENS_9allocatorIS3_EEE8_M_clearEv,comdat
	.align 2
	.weak	_ZN4_STL6vectorIN7IwTween6CTween9ValueTypeENS_9allocatorIS3_EEE8_M_clearEv
	.hidden	_ZN4_STL6vectorIN7IwTween6CTween9ValueTypeENS_9allocatorIS3_EEE8_M_clearEv
	.type	_ZN4_STL6vectorIN7IwTween6CTween9ValueTypeENS_9allocatorIS3_EEE8_M_clearEv, @function
_ZN4_STL6vectorIN7IwTween6CTween9ValueTypeENS_9allocatorIS3_EEE8_M_clearEv:
.LFB602:
	.loc 6 493 0
	.cfi_startproc
	pushl	%ebp
	.cfi_def_cfa_offset 8
	.cfi_offset 5, -8
	leal	(%esp), %ebp
	.cfi_def_cfa_register 5
	leal	-24(%esp), %esp
	.loc 6 495 0
	movl	8(%ebp), %eax
	movl	4(%eax), %edx
	movl	8(%ebp), %eax
	movl	(%eax), %eax
	movl	%edx, 4(%esp)
	movl	%eax, (%esp)
	call	_ZN4_STL8_DestroyIPN7IwTween6CTween9ValueTypeEEEvT_S5_
	.loc 6 496 0
	movl	8(%ebp), %eax
	movl	8(%eax), %eax
	movl	%eax, %edx
	movl	8(%ebp), %eax
	movl	(%eax), %eax
	subl	%eax, %edx
	movl	%edx, %eax
	sarl	$4, %eax
	movl	%eax, %edx
	movl	8(%ebp), %eax
	movl	(%eax), %eax
	movl	8(%ebp), %ecx
	addl	$8, %ecx
	movl	%edx, 8(%esp)
	movl	%eax, 4(%esp)
	movl	%ecx, (%esp)
	call	_ZN4_STL9allocatorIN7IwTween6CTween9ValueTypeEE10deallocateEPS3_j
	.loc 6 498 0
	leave
	.cfi_restore 5
	.cfi_def_cfa 4, 4
	ret
	.cfi_endproc
.LFE602:
	.size	_ZN4_STL6vectorIN7IwTween6CTween9ValueTypeENS_9allocatorIS3_EEE8_M_clearEv, .-_ZN4_STL6vectorIN7IwTween6CTween9ValueTypeENS_9allocatorIS3_EEE8_M_clearEv
	.section	.text._ZN4_STL6vectorIN7IwTween6CTween9ValueTypeENS_9allocatorIS3_EEE6_M_setEPS3_S7_S7_,"axG",@progbits,_ZN4_STL6vectorIN7IwTween6CTween9ValueTypeENS_9allocatorIS3_EEE6_M_setEPS3_S7_S7_,comdat
	.align 2
	.weak	_ZN4_STL6vectorIN7IwTween6CTween9ValueTypeENS_9allocatorIS3_EEE6_M_setEPS3_S7_S7_
	.hidden	_ZN4_STL6vectorIN7IwTween6CTween9ValueTypeENS_9allocatorIS3_EEE6_M_setEPS3_S7_S7_
	.type	_ZN4_STL6vectorIN7IwTween6CTween9ValueTypeENS_9allocatorIS3_EEE6_M_setEPS3_S7_S7_, @function
_ZN4_STL6vectorIN7IwTween6CTween9ValueTypeENS_9allocatorIS3_EEE6_M_setEPS3_S7_S7_:
.LFB603:
	.loc 6 500 0
	.cfi_startproc
	pushl	%ebp
	.cfi_def_cfa_offset 8
	.cfi_offset 5, -8
	leal	(%esp), %ebp
	.cfi_def_cfa_register 5
	.loc 6 501 0
	movl	8(%ebp), %eax
	movl	12(%ebp), %edx
	movl	%edx, (%eax)
	.loc 6 502 0
	movl	8(%ebp), %eax
	movl	16(%ebp), %edx
	movl	%edx, 4(%eax)
	.loc 6 503 0
	movl	8(%ebp), %eax
	movl	20(%ebp), %edx
	movl	%edx, 8(%eax)
	.loc 6 504 0
	popl	%ebp
	.cfi_restore 5
	.cfi_def_cfa 4, 4
	ret
	.cfi_endproc
.LFE603:
	.size	_ZN4_STL6vectorIN7IwTween6CTween9ValueTypeENS_9allocatorIS3_EEE6_M_setEPS3_S7_S7_, .-_ZN4_STL6vectorIN7IwTween6CTween9ValueTypeENS_9allocatorIS3_EEE6_M_setEPS3_S7_S7_
	.section	.text._ZN7IwTween6CTweenaSERKS0_,"axG",@progbits,_ZN7IwTween6CTweenaSERKS0_,comdat
	.align 2
	.weak	_ZN7IwTween6CTweenaSERKS0_
	.hidden	_ZN7IwTween6CTweenaSERKS0_
	.type	_ZN7IwTween6CTweenaSERKS0_, @function
_ZN7IwTween6CTweenaSERKS0_:
.LFB605:
	.loc 2 377 0
	.cfi_startproc
	pushl	%ebp
	.cfi_def_cfa_offset 8
	.cfi_offset 5, -8
	leal	(%esp), %ebp
	.cfi_def_cfa_register 5
	leal	-24(%esp), %esp
	.loc 2 377 0
	movl	8(%ebp), %eax
	movl	12(%ebp), %edx
	movl	(%edx), %ecx
	movl	%ecx, (%eax)
	movl	4(%edx), %ecx
	movl	%ecx, 4(%eax)
	movl	8(%edx), %ecx
	movl	%ecx, 8(%eax)
	movl	12(%edx), %ecx
	movl	%ecx, 12(%eax)
	movl	16(%edx), %ecx
	movl	%ecx, 16(%eax)
	movl	20(%edx), %ecx
	movl	%ecx, 20(%eax)
	movl	24(%edx), %ecx
	movl	%ecx, 24(%eax)
	movl	28(%edx), %edx
	movl	%edx, 28(%eax)
	movl	12(%ebp), %eax
	movl	32(%eax), %eax
	movl	8(%ebp), %edx
	movl	%eax, 32(%edx)
	movl	12(%ebp), %eax
	movzbl	36(%eax), %edx
	movl	8(%ebp), %eax
	movb	%dl, 36(%eax)
	movl	12(%ebp), %eax
	movzbl	37(%eax), %edx
	movl	8(%ebp), %eax
	movb	%dl, 37(%eax)
	movl	12(%ebp), %eax
	movzbl	38(%eax), %edx
	movl	8(%ebp), %eax
	movb	%dl, 38(%eax)
	movl	12(%ebp), %eax
	movzbl	39(%eax), %edx
	movl	8(%ebp), %eax
	movb	%dl, 39(%eax)
	movl	12(%ebp), %eax
	movl	40(%eax), %edx
	movl	8(%ebp), %eax
	movl	%edx, 40(%eax)
	movl	12(%ebp), %eax
	movl	%eax, %edx
	addl	$44, %edx
	movl	8(%ebp), %eax
	addl	$44, %eax
	movl	%edx, 4(%esp)
	movl	%eax, (%esp)
	call	_ZN4_STL6vectorIN7IwTween6CTween9ValueTypeENS_9allocatorIS3_EEEaSERKS6_
	movl	12(%ebp), %eax
	movl	56(%eax), %edx
	movl	8(%ebp), %eax
	movl	%edx, 56(%eax)
	movl	8(%ebp), %eax
	leave
	.cfi_restore 5
	.cfi_def_cfa 4, 4
	ret
	.cfi_endproc
.LFE605:
	.size	_ZN7IwTween6CTweenaSERKS0_, .-_ZN7IwTween6CTweenaSERKS0_
	.section	.text._ZN4_STL6__copyIPN7IwTween6CTweenES3_iEET0_T_S5_S4_RKNS_26random_access_iterator_tagEPT1_,"axG",@progbits,_ZN4_STL6__copyIPN7IwTween6CTweenES3_iEET0_T_S5_S4_RKNS_26random_access_iterator_tagEPT1_,comdat
	.weak	_ZN4_STL6__copyIPN7IwTween6CTweenES3_iEET0_T_S5_S4_RKNS_26random_access_iterator_tagEPT1_
	.hidden	_ZN4_STL6__copyIPN7IwTween6CTweenES3_iEET0_T_S5_S4_RKNS_26random_access_iterator_tagEPT1_
	.type	_ZN4_STL6__copyIPN7IwTween6CTweenES3_iEET0_T_S5_S4_RKNS_26random_access_iterator_tagEPT1_, @function
_ZN4_STL6__copyIPN7IwTween6CTweenES3_iEET0_T_S5_S4_RKNS_26random_access_iterator_tagEPT1_:
.LFB604:
	.loc 7 136 0
	.cfi_startproc
	pushl	%ebp
	.cfi_def_cfa_offset 8
	.cfi_offset 5, -8
	leal	(%esp), %ebp
	.cfi_def_cfa_register 5
	leal	-40(%esp), %esp
.LBB82:
.LBB83:
	.loc 7 138 0
	movl	12(%ebp), %edx
	movl	8(%ebp), %eax
	subl	%eax, %edx
	movl	%edx, %eax
	sarl	$2, %eax
	imull	$-286331153, %eax, %eax
	movl	%eax, -12(%ebp)
	jmp	.L399
.L400:
	.loc 7 139 0 discriminator 2
	movl	8(%ebp), %eax
	movl	%eax, 4(%esp)
	movl	16(%ebp), %eax
	movl	%eax, (%esp)
	call	_ZN7IwTween6CTweenaSERKS0_
	.loc 7 140 0 discriminator 2
	addl	$60, 8(%ebp)
	.loc 7 141 0 discriminator 2
	addl	$60, 16(%ebp)
	.loc 7 138 0 discriminator 2
	subl	$1, -12(%ebp)
.L399:
	.loc 7 138 0 is_stmt 0 discriminator 1
	cmpl	$0, -12(%ebp)
	jg	.L400
.LBE83:
	.loc 7 143 0 is_stmt 1
	movl	16(%ebp), %eax
.LBE82:
	.loc 7 144 0
	leave
	.cfi_restore 5
	.cfi_def_cfa 4, 4
	ret
	.cfi_endproc
.LFE604:
	.size	_ZN4_STL6__copyIPN7IwTween6CTweenES3_iEET0_T_S5_S4_RKNS_26random_access_iterator_tagEPT1_, .-_ZN4_STL6__copyIPN7IwTween6CTweenES3_iEET0_T_S5_S4_RKNS_26random_access_iterator_tagEPT1_
	.section	.text._ZN4_STL9allocatorIN7IwTween6CTween9ValueTypeEEC2ERKS4_,"axG",@progbits,_ZN4_STL9allocatorIN7IwTween6CTween9ValueTypeEEC5ERKS4_,comdat
	.align 2
	.weak	_ZN4_STL9allocatorIN7IwTween6CTween9ValueTypeEEC2ERKS4_
	.hidden	_ZN4_STL9allocatorIN7IwTween6CTween9ValueTypeEEC2ERKS4_
	.type	_ZN4_STL9allocatorIN7IwTween6CTween9ValueTypeEEC2ERKS4_, @function
_ZN4_STL9allocatorIN7IwTween6CTween9ValueTypeEEC2ERKS4_:
.LFB607:
	.loc 5 349 0
	.cfi_startproc
	pushl	%ebp
	.cfi_def_cfa_offset 8
	.cfi_offset 5, -8
	movl	%esp, %ebp
	.cfi_def_cfa_register 5
	.loc 5 349 0
	popl	%ebp
	.cfi_restore 5
	.cfi_def_cfa 4, 4
	ret
	.cfi_endproc
.LFE607:
	.size	_ZN4_STL9allocatorIN7IwTween6CTween9ValueTypeEEC2ERKS4_, .-_ZN4_STL9allocatorIN7IwTween6CTween9ValueTypeEEC2ERKS4_
	.weak	_ZN4_STL9allocatorIN7IwTween6CTween9ValueTypeEEC1ERKS4_
	.hidden	_ZN4_STL9allocatorIN7IwTween6CTween9ValueTypeEEC1ERKS4_
	.set	_ZN4_STL9allocatorIN7IwTween6CTween9ValueTypeEEC1ERKS4_,_ZN4_STL9allocatorIN7IwTween6CTween9ValueTypeEEC2ERKS4_
	.section	.text._ZN4_STL14__malloc_allocILi0EE10deallocateEPvj,"axG",@progbits,_ZN4_STL14__malloc_allocILi0EE10deallocateEPvj,comdat
	.weak	_ZN4_STL14__malloc_allocILi0EE10deallocateEPvj
	.hidden	_ZN4_STL14__malloc_allocILi0EE10deallocateEPvj
	.type	_ZN4_STL14__malloc_allocILi0EE10deallocateEPvj, @function
_ZN4_STL14__malloc_allocILi0EE10deallocateEPvj:
.LFB609:
	.loc 5 114 0
	.cfi_startproc
	pushl	%ebp
	.cfi_def_cfa_offset 8
	.cfi_offset 5, -8
	movl	%esp, %ebp
	.cfi_def_cfa_register 5
	pushl	%ebx
	leal	-20(%esp), %esp
	.cfi_offset 3, -12
	call	__x86.get_pc_thunk.bx
	addl	$_GLOBAL_OFFSET_TABLE_, %ebx
	.loc 5 114 0
	movl	8(%ebp), %eax
	movl	%eax, (%esp)
	call	free@PLT
	leal	20(%esp), %esp
	popl	%ebx
	.cfi_restore 3
	popl	%ebp
	.cfi_restore 5
	.cfi_def_cfa 4, 4
	ret
	.cfi_endproc
.LFE609:
	.size	_ZN4_STL14__malloc_allocILi0EE10deallocateEPvj, .-_ZN4_STL14__malloc_allocILi0EE10deallocateEPvj
	.section	.text._ZN4_STL13__destroy_auxIPN7IwTween6CTween9ValueTypeEEEvT_S5_RKNS_12__false_typeE,"axG",@progbits,_ZN4_STL13__destroy_auxIPN7IwTween6CTween9ValueTypeEEEvT_S5_RKNS_12__false_typeE,comdat
	.weak	_ZN4_STL13__destroy_auxIPN7IwTween6CTween9ValueTypeEEEvT_S5_RKNS_12__false_typeE
	.hidden	_ZN4_STL13__destroy_auxIPN7IwTween6CTween9ValueTypeEEEvT_S5_RKNS_12__false_typeE
	.type	_ZN4_STL13__destroy_auxIPN7IwTween6CTween9ValueTypeEEEvT_S5_RKNS_12__false_typeE, @function
_ZN4_STL13__destroy_auxIPN7IwTween6CTween9ValueTypeEEEvT_S5_RKNS_12__false_typeE:
.LFB610:
	.loc 8 122 0
	.cfi_startproc
	pushl	%ebp
	.cfi_def_cfa_offset 8
	.cfi_offset 5, -8
	movl	%esp, %ebp
	.cfi_def_cfa_register 5
	leal	-24(%esp), %esp
	.loc 8 123 0
	jmp	.L405
.L406:
	.loc 8 124 0 discriminator 2
	movl	8(%ebp), %eax
	movl	%eax, (%esp)
	call	_ZN4_STL8_DestroyIN7IwTween6CTween9ValueTypeEEEvPT_
	.loc 8 123 0 discriminator 2
	addl	$16, 8(%ebp)
.L405:
	.loc 8 123 0 is_stmt 0 discriminator 1
	movl	8(%ebp), %eax
	cmpl	12(%ebp), %eax
	jne	.L406
	.loc 8 125 0 is_stmt 1
	leave
	.cfi_restore 5
	.cfi_def_cfa 4, 4
	ret
	.cfi_endproc
.LFE610:
	.size	_ZN4_STL13__destroy_auxIPN7IwTween6CTween9ValueTypeEEEvT_S5_RKNS_12__false_typeE, .-_ZN4_STL13__destroy_auxIPN7IwTween6CTween9ValueTypeEEEvT_S5_RKNS_12__false_typeE
	.section	.text._ZN4_STL13__destroy_auxIPN7IwTween6CTweenEEEvT_S4_RKNS_12__false_typeE,"axG",@progbits,_ZN4_STL13__destroy_auxIPN7IwTween6CTweenEEEvT_S4_RKNS_12__false_typeE,comdat
	.weak	_ZN4_STL13__destroy_auxIPN7IwTween6CTweenEEEvT_S4_RKNS_12__false_typeE
	.hidden	_ZN4_STL13__destroy_auxIPN7IwTween6CTweenEEEvT_S4_RKNS_12__false_typeE
	.type	_ZN4_STL13__destroy_auxIPN7IwTween6CTweenEEEvT_S4_RKNS_12__false_typeE, @function
_ZN4_STL13__destroy_auxIPN7IwTween6CTweenEEEvT_S4_RKNS_12__false_typeE:
.LFB614:
	.loc 8 122 0
	.cfi_startproc
	pushl	%ebp
	.cfi_def_cfa_offset 8
	.cfi_offset 5, -8
	movl	%esp, %ebp
	.cfi_def_cfa_register 5
	leal	-24(%esp), %esp
	.loc 8 123 0
	jmp	.L408
.L409:
	.loc 8 124 0 discriminator 2
	movl	8(%ebp), %eax
	movl	%eax, (%esp)
	call	_ZN4_STL8_DestroyIN7IwTween6CTweenEEEvPT_
	.loc 8 123 0 discriminator 2
	addl	$60, 8(%ebp)
.L408:
	.loc 8 123 0 is_stmt 0 discriminator 1
	movl	8(%ebp), %eax
	cmpl	12(%ebp), %eax
	jne	.L409
	.loc 8 125 0 is_stmt 1
	leave
	.cfi_restore 5
	.cfi_def_cfa 4, 4
	ret
	.cfi_endproc
.LFE614:
	.size	_ZN4_STL13__destroy_auxIPN7IwTween6CTweenEEEvT_S4_RKNS_12__false_typeE, .-_ZN4_STL13__destroy_auxIPN7IwTween6CTweenEEEvT_S4_RKNS_12__false_typeE
	.section	.text._ZNK4_STL6vectorIN7IwTween6CTween9ValueTypeENS_9allocatorIS3_EEE13get_allocatorEv,"axG",@progbits,_ZNK4_STL6vectorIN7IwTween6CTween9ValueTypeENS_9allocatorIS3_EEE13get_allocatorEv,comdat
	.align 2
	.weak	_ZNK4_STL6vectorIN7IwTween6CTween9ValueTypeENS_9allocatorIS3_EEE13get_allocatorEv
	.hidden	_ZNK4_STL6vectorIN7IwTween6CTween9ValueTypeENS_9allocatorIS3_EEE13get_allocatorEv
	.type	_ZNK4_STL6vectorIN7IwTween6CTween9ValueTypeENS_9allocatorIS3_EEE13get_allocatorEv, @function
_ZNK4_STL6vectorIN7IwTween6CTween9ValueTypeENS_9allocatorIS3_EEE13get_allocatorEv:
.LFB615:
	.loc 6 117 0
	.cfi_startproc
	pushl	%ebp
	.cfi_def_cfa_offset 8
	.cfi_offset 5, -8
	leal	(%esp), %ebp
	.cfi_def_cfa_register 5
	leal	-24(%esp), %esp
	.loc 6 118 0
	movl	12(%ebp), %eax
	addl	$8, %eax
	movl	%eax, 4(%esp)
	movl	8(%ebp), %eax
	movl	%eax, (%esp)
	call	_ZN4_STL9allocatorIN7IwTween6CTween9ValueTypeEEC1ERKS4_
	.loc 6 119 0
	movl	8(%ebp), %eax
	leave
	.cfi_restore 5
	.cfi_def_cfa 4, 4
	ret	$4
	.cfi_endproc
.LFE615:
	.size	_ZNK4_STL6vectorIN7IwTween6CTween9ValueTypeENS_9allocatorIS3_EEE13get_allocatorEv, .-_ZNK4_STL6vectorIN7IwTween6CTween9ValueTypeENS_9allocatorIS3_EEE13get_allocatorEv
	.section	.text._ZN4_STL12_Vector_baseIN7IwTween6CTween9ValueTypeENS_9allocatorIS3_EEEC2EjRKS5_,"axG",@progbits,_ZN4_STL12_Vector_baseIN7IwTween6CTween9ValueTypeENS_9allocatorIS3_EEEC5EjRKS5_,comdat
	.align 2
	.weak	_ZN4_STL12_Vector_baseIN7IwTween6CTween9ValueTypeENS_9allocatorIS3_EEEC2EjRKS5_
	.hidden	_ZN4_STL12_Vector_baseIN7IwTween6CTween9ValueTypeENS_9allocatorIS3_EEEC2EjRKS5_
	.type	_ZN4_STL12_Vector_baseIN7IwTween6CTween9ValueTypeENS_9allocatorIS3_EEEC2EjRKS5_, @function
_ZN4_STL12_Vector_baseIN7IwTween6CTween9ValueTypeENS_9allocatorIS3_EEEC2EjRKS5_:
.LFB617:
	.loc 6 74 0
	.cfi_startproc
	pushl	%ebp
	.cfi_def_cfa_offset 8
	.cfi_offset 5, -8
	leal	(%esp), %ebp
	.cfi_def_cfa_register 5
	leal	-24(%esp), %esp
.LBB84:
	.loc 6 75 0
	movl	8(%ebp), %eax
	movl	$0, (%eax)
	movl	8(%ebp), %eax
	movl	$0, 4(%eax)
	movl	8(%ebp), %eax
	movl	%eax, %edx
	addl	$8, %edx
	movl	$0, 8(%esp)
	movl	16(%ebp), %eax
	movl	%eax, 4(%esp)
	movl	%edx, (%esp)
	call	_ZN4_STL17_STLP_alloc_proxyIPN7IwTween6CTween9ValueTypeES3_NS_9allocatorIS3_EEEC1ERKS6_S4_
	.loc 6 77 0
	movl	8(%ebp), %eax
	movl	%eax, %edx
	addl	$8, %edx
	movl	$0, 8(%esp)
	movl	12(%ebp), %eax
	movl	%eax, 4(%esp)
	movl	%edx, (%esp)
	call	_ZN4_STL9allocatorIN7IwTween6CTween9ValueTypeEE8allocateEjPKv
	movl	8(%ebp), %edx
	movl	%eax, (%edx)
	.loc 6 78 0
	movl	8(%ebp), %eax
	movl	(%eax), %edx
	movl	8(%ebp), %eax
	movl	%edx, 4(%eax)
	.loc 6 79 0
	movl	8(%ebp), %eax
	movl	(%eax), %eax
	movl	12(%ebp), %edx
	sall	$4, %edx
	addl	%eax, %edx
	movl	8(%ebp), %eax
	movl	%edx, 8(%eax)
.LBE84:
	.loc 6 81 0
	leave
	.cfi_restore 5
	.cfi_def_cfa 4, 4
	ret
	.cfi_endproc
.LFE617:
	.size	_ZN4_STL12_Vector_baseIN7IwTween6CTween9ValueTypeENS_9allocatorIS3_EEEC2EjRKS5_, .-_ZN4_STL12_Vector_baseIN7IwTween6CTween9ValueTypeENS_9allocatorIS3_EEEC2EjRKS5_
	.weak	_ZN4_STL12_Vector_baseIN7IwTween6CTween9ValueTypeENS_9allocatorIS3_EEEC1EjRKS5_
	.hidden	_ZN4_STL12_Vector_baseIN7IwTween6CTween9ValueTypeENS_9allocatorIS3_EEEC1EjRKS5_
	.set	_ZN4_STL12_Vector_baseIN7IwTween6CTween9ValueTypeENS_9allocatorIS3_EEEC1EjRKS5_,_ZN4_STL12_Vector_baseIN7IwTween6CTween9ValueTypeENS_9allocatorIS3_EEEC2EjRKS5_
	.section	.text._ZN4_STL20__uninitialized_copyIPKN7IwTween6CTween9ValueTypeEPS3_EET0_T_S8_S7_RKNS_12__false_typeE,"axG",@progbits,_ZN4_STL20__uninitialized_copyIPKN7IwTween6CTween9ValueTypeEPS3_EET0_T_S8_S7_RKNS_12__false_typeE,comdat
	.weak	_ZN4_STL20__uninitialized_copyIPKN7IwTween6CTween9ValueTypeEPS3_EET0_T_S8_S7_RKNS_12__false_typeE
	.hidden	_ZN4_STL20__uninitialized_copyIPKN7IwTween6CTween9ValueTypeEPS3_EET0_T_S8_S7_RKNS_12__false_typeE
	.type	_ZN4_STL20__uninitialized_copyIPKN7IwTween6CTween9ValueTypeEPS3_EET0_T_S8_S7_RKNS_12__false_typeE, @function
_ZN4_STL20__uninitialized_copyIPKN7IwTween6CTween9ValueTypeEPS3_EET0_T_S8_S7_RKNS_12__false_typeE:
.LFB619:
	.loc 9 61 0
	.cfi_startproc
	pushl	%ebp
	.cfi_def_cfa_offset 8
	.cfi_offset 5, -8
	leal	(%esp), %ebp
	.cfi_def_cfa_register 5
	leal	-40(%esp), %esp
.LBB85:
	.loc 9 64 0
	movl	16(%ebp), %eax
	movl	%eax, -12(%ebp)
	.loc 9 66 0
	jmp	.L414
.L415:
	.loc 9 67 0 discriminator 2
	movl	8(%ebp), %eax
	movl	%eax, 4(%esp)
	movl	-12(%ebp), %eax
	movl	%eax, (%esp)
	call	_ZN4_STL10_ConstructIN7IwTween6CTween9ValueTypeES3_EEvPT_RKT0_
	.loc 9 66 0 discriminator 2
	addl	$16, 8(%ebp)
	addl	$16, -12(%ebp)
.L414:
	.loc 9 66 0 is_stmt 0 discriminator 1
	movl	8(%ebp), %eax
	cmpl	12(%ebp), %eax
	jne	.L415
	.loc 9 68 0 is_stmt 1
	movl	-12(%ebp), %eax
.LBE85:
	.loc 9 74 0
	leave
	.cfi_restore 5
	.cfi_def_cfa 4, 4
	ret
	.cfi_endproc
.LFE619:
	.size	_ZN4_STL20__uninitialized_copyIPKN7IwTween6CTween9ValueTypeEPS3_EET0_T_S8_S7_RKNS_12__false_typeE, .-_ZN4_STL20__uninitialized_copyIPKN7IwTween6CTween9ValueTypeEPS3_EET0_T_S8_S7_RKNS_12__false_typeE
	.section	.text._ZN4_STL14__malloc_allocILi0EE8allocateEj,"axG",@progbits,_ZN4_STL14__malloc_allocILi0EE8allocateEj,comdat
	.weak	_ZN4_STL14__malloc_allocILi0EE8allocateEj
	.hidden	_ZN4_STL14__malloc_allocILi0EE8allocateEj
	.type	_ZN4_STL14__malloc_allocILi0EE8allocateEj, @function
_ZN4_STL14__malloc_allocILi0EE8allocateEj:
.LFB620:
	.loc 5 109 0
	.cfi_startproc
	pushl	%ebp
	.cfi_def_cfa_offset 8
	.cfi_offset 5, -8
	movl	%esp, %ebp
	.cfi_def_cfa_register 5
	pushl	%ebx
	leal	-36(%esp), %esp
	.cfi_offset 3, -12
	call	__x86.get_pc_thunk.bx
	addl	$_GLOBAL_OFFSET_TABLE_, %ebx
.LBB86:
	.loc 5 110 0
	movl	8(%ebp), %eax
	movl	%eax, (%esp)
	call	malloc@PLT
	movl	%eax, -12(%ebp)
	.loc 5 111 0
	cmpl	$0, -12(%ebp)
	jne	.L418
	.loc 5 111 0 is_stmt 0 discriminator 1
	movl	8(%ebp), %eax
	movl	%eax, (%esp)
	call	_ZN4_STL14__malloc_allocILi0EE13_S_oom_mallocEj@PLT
	movl	%eax, -12(%ebp)
.L418:
	.loc 5 112 0 is_stmt 1
	movl	-12(%ebp), %eax
.LBE86:
	.loc 5 113 0
	leal	36(%esp), %esp
	popl	%ebx
	.cfi_restore 3
	popl	%ebp
	.cfi_restore 5
	.cfi_def_cfa 4, 4
	ret
	.cfi_endproc
.LFE620:
	.size	_ZN4_STL14__malloc_allocILi0EE8allocateEj, .-_ZN4_STL14__malloc_allocILi0EE8allocateEj
	.section	.text._ZN4_STL6vectorIN7IwTween6CTween9ValueTypeENS_9allocatorIS3_EEEaSERKS6_,"axG",@progbits,_ZN4_STL6vectorIN7IwTween6CTween9ValueTypeENS_9allocatorIS3_EEEaSERKS6_,comdat
	.align 2
	.weak	_ZN4_STL6vectorIN7IwTween6CTween9ValueTypeENS_9allocatorIS3_EEEaSERKS6_
	.hidden	_ZN4_STL6vectorIN7IwTween6CTween9ValueTypeENS_9allocatorIS3_EEEaSERKS6_
	.type	_ZN4_STL6vectorIN7IwTween6CTween9ValueTypeENS_9allocatorIS3_EEEaSERKS6_, @function
_ZN4_STL6vectorIN7IwTween6CTween9ValueTypeENS_9allocatorIS3_EEEaSERKS6_:
.LFB621:
	.file 10 "c:/marmalade/7.5/s3e/h/std/c++/stl/_vector.c"
	.loc 10 92 0
	.cfi_startproc
	pushl	%ebp
	.cfi_def_cfa_offset 8
	.cfi_offset 5, -8
	movl	%esp, %ebp
	.cfi_def_cfa_register 5
	pushl	%edi
	pushl	%esi
	leal	-48(%esp), %esp
	.cfi_offset 7, -12
	.cfi_offset 6, -16
.LBB87:
.LBB88:
	.loc 10 94 0
	movl	12(%ebp), %eax
	cmpl	8(%ebp), %eax
	je	.L421
.LBB89:
	.loc 10 95 0
	movl	12(%ebp), %eax
	movl	%eax, (%esp)
	call	_ZNK4_STL6vectorIN7IwTween6CTween9ValueTypeENS_9allocatorIS3_EEE4sizeEv
	movl	%eax, -12(%ebp)
.LBB90:
	.loc 10 96 0
	movl	8(%ebp), %eax
	movl	%eax, (%esp)
	call	_ZNK4_STL6vectorIN7IwTween6CTween9ValueTypeENS_9allocatorIS3_EEE8capacityEv
	cmpl	-12(%ebp), %eax
	setb	%al
	testb	%al, %al
	je	.L422
.LBB91:
	.loc 10 97 0
	movl	12(%ebp), %eax
	movl	4(%eax), %edx
	movl	12(%ebp), %eax
	movl	(%eax), %eax
	movl	%edx, 12(%esp)
	movl	%eax, 8(%esp)
	movl	-12(%ebp), %eax
	movl	%eax, 4(%esp)
	movl	8(%ebp), %eax
	movl	%eax, (%esp)
	call	_ZN4_STL6vectorIN7IwTween6CTween9ValueTypeENS_9allocatorIS3_EEE20_M_allocate_and_copyIPKS3_EEPS3_jT_SB_
	movl	%eax, -16(%ebp)
	.loc 10 98 0
	movl	8(%ebp), %eax
	movl	%eax, (%esp)
	call	_ZN4_STL6vectorIN7IwTween6CTween9ValueTypeENS_9allocatorIS3_EEE8_M_clearEv
	.loc 10 99 0
	movl	8(%ebp), %eax
	movl	-16(%ebp), %edx
	movl	%edx, (%eax)
	.loc 10 100 0
	movl	8(%ebp), %eax
	movl	(%eax), %eax
	movl	-12(%ebp), %edx
	sall	$4, %edx
	addl	%eax, %edx
	movl	8(%ebp), %eax
	movl	%edx, 8(%eax)
.LBE91:
	jmp	.L423
.L422:
.LBB92:
.LBB93:
	.loc 10 102 0
	movl	8(%ebp), %eax
	movl	%eax, (%esp)
	call	_ZNK4_STL6vectorIN7IwTween6CTween9ValueTypeENS_9allocatorIS3_EEE4sizeEv
	cmpl	-12(%ebp), %eax
	setae	%al
	testb	%al, %al
	je	.L424
.LBB94:
	.loc 10 103 0
	movl	8(%ebp), %eax
	movl	(%eax), %ecx
	movl	12(%ebp), %eax
	movl	4(%eax), %edx
	movl	12(%ebp), %eax
	movl	(%eax), %eax
	leal	-23(%ebp), %esi
	movl	%esi, 12(%esp)
	movl	%ecx, 8(%esp)
	movl	%edx, 4(%esp)
	movl	%eax, (%esp)
	call	_ZN4_STL11__copy_ptrsIPKN7IwTween6CTween9ValueTypeEPS3_EET0_T_S8_S7_RKNS_12__false_typeE
	movl	%eax, -20(%ebp)
	.loc 10 104 0
	movl	8(%ebp), %eax
	movl	4(%eax), %eax
	movl	%eax, 4(%esp)
	movl	-20(%ebp), %eax
	movl	%eax, (%esp)
	call	_ZN4_STL8_DestroyIPN7IwTween6CTween9ValueTypeEEEvT_S5_
.LBE94:
	jmp	.L423
.L424:
	.loc 10 107 0
	movl	8(%ebp), %eax
	movl	(%eax), %esi
	movl	12(%ebp), %eax
	movl	(%eax), %edi
	movl	8(%ebp), %eax
	movl	%eax, (%esp)
	call	_ZNK4_STL6vectorIN7IwTween6CTween9ValueTypeENS_9allocatorIS3_EEE4sizeEv
	sall	$4, %eax
	movl	%edi, %ecx
	addl	%eax, %ecx
	movl	12(%ebp), %eax
	movl	(%eax), %eax
	leal	-22(%ebp), %edx
	movl	%edx, 12(%esp)
	movl	%esi, 8(%esp)
	movl	%ecx, 4(%esp)
	movl	%eax, (%esp)
	call	_ZN4_STL11__copy_ptrsIPKN7IwTween6CTween9ValueTypeEPS3_EET0_T_S8_S7_RKNS_12__false_typeE
	.loc 10 108 0
	movl	8(%ebp), %eax
	movl	4(%eax), %edi
	movl	12(%ebp), %eax
	movl	4(%eax), %esi
	movl	12(%ebp), %eax
	movl	(%eax), %eax
	movl	%eax, -28(%ebp)
	movl	8(%ebp), %eax
	movl	%eax, (%esp)
	call	_ZNK4_STL6vectorIN7IwTween6CTween9ValueTypeENS_9allocatorIS3_EEE4sizeEv
	sall	$4, %eax
	movl	-28(%ebp), %ecx
	movl	%ecx, %edx
	addl	%eax, %edx
	leal	-21(%ebp), %eax
	movl	%eax, 12(%esp)
	movl	%edi, 8(%esp)
	movl	%esi, 4(%esp)
	movl	%edx, (%esp)
	call	_ZN4_STL20__uninitialized_copyIPKN7IwTween6CTween9ValueTypeEPS3_EET0_T_S8_S7_RKNS_12__false_typeE
.L423:
.LBE93:
.LBE92:
.LBE90:
	.loc 10 110 0 discriminator 1
	movl	8(%ebp), %eax
	movl	(%eax), %eax
	movl	-12(%ebp), %edx
	sall	$4, %edx
	addl	%eax, %edx
	movl	8(%ebp), %eax
	movl	%edx, 4(%eax)
.L421:
.LBE89:
.LBE88:
	.loc 10 112 0
	movl	8(%ebp), %eax
.LBE87:
	.loc 10 113 0
	leal	48(%esp), %esp
	popl	%esi
	.cfi_restore 6
	popl	%edi
	.cfi_restore 7
	popl	%ebp
	.cfi_restore 5
	.cfi_def_cfa 4, 4
	ret
	.cfi_endproc
.LFE621:
	.size	_ZN4_STL6vectorIN7IwTween6CTween9ValueTypeENS_9allocatorIS3_EEEaSERKS6_, .-_ZN4_STL6vectorIN7IwTween6CTween9ValueTypeENS_9allocatorIS3_EEEaSERKS6_
	.section	.text._ZN4_STL8_DestroyIN7IwTween6CTween9ValueTypeEEEvPT_,"axG",@progbits,_ZN4_STL8_DestroyIN7IwTween6CTween9ValueTypeEEEvPT_,comdat
	.weak	_ZN4_STL8_DestroyIN7IwTween6CTween9ValueTypeEEEvPT_
	.hidden	_ZN4_STL8_DestroyIN7IwTween6CTween9ValueTypeEEEvPT_
	.type	_ZN4_STL8_DestroyIN7IwTween6CTween9ValueTypeEEEvPT_, @function
_ZN4_STL8_DestroyIN7IwTween6CTween9ValueTypeEEEvPT_:
.LFB622:
	.loc 8 56 0
	.cfi_startproc
	pushl	%ebp
	.cfi_def_cfa_offset 8
	.cfi_offset 5, -8
	movl	%esp, %ebp
	.cfi_def_cfa_register 5
	.loc 8 73 0
	popl	%ebp
	.cfi_restore 5
	.cfi_def_cfa 4, 4
	ret
	.cfi_endproc
.LFE622:
	.size	_ZN4_STL8_DestroyIN7IwTween6CTween9ValueTypeEEEvPT_, .-_ZN4_STL8_DestroyIN7IwTween6CTween9ValueTypeEEEvPT_
	.section	.text._ZNK4_STL6vectorIN7IwTween6CTween9ValueTypeENS_9allocatorIS3_EEE8capacityEv,"axG",@progbits,_ZNK4_STL6vectorIN7IwTween6CTween9ValueTypeENS_9allocatorIS3_EEE8capacityEv,comdat
	.align 2
	.weak	_ZNK4_STL6vectorIN7IwTween6CTween9ValueTypeENS_9allocatorIS3_EEE8capacityEv
	.hidden	_ZNK4_STL6vectorIN7IwTween6CTween9ValueTypeENS_9allocatorIS3_EEE8capacityEv
	.type	_ZNK4_STL6vectorIN7IwTween6CTween9ValueTypeENS_9allocatorIS3_EEE8capacityEv, @function
_ZNK4_STL6vectorIN7IwTween6CTween9ValueTypeENS_9allocatorIS3_EEE8capacityEv:
.LFB623:
	.loc 6 184 0
	.cfi_startproc
	pushl	%ebp
	.cfi_def_cfa_offset 8
	.cfi_offset 5, -8
	leal	(%esp), %ebp
	.cfi_def_cfa_register 5
	.loc 6 184 0
	movl	8(%ebp), %eax
	movl	8(%eax), %eax
	movl	%eax, %edx
	movl	8(%ebp), %eax
	movl	(%eax), %eax
	subl	%eax, %edx
	movl	%edx, %eax
	sarl	$4, %eax
	popl	%ebp
	.cfi_restore 5
	.cfi_def_cfa 4, 4
	ret
	.cfi_endproc
.LFE623:
	.size	_ZNK4_STL6vectorIN7IwTween6CTween9ValueTypeENS_9allocatorIS3_EEE8capacityEv, .-_ZNK4_STL6vectorIN7IwTween6CTween9ValueTypeENS_9allocatorIS3_EEE8capacityEv
	.section	.text._ZN4_STL6vectorIN7IwTween6CTween9ValueTypeENS_9allocatorIS3_EEE20_M_allocate_and_copyIPKS3_EEPS3_jT_SB_,"axG",@progbits,_ZN4_STL6vectorIN7IwTween6CTween9ValueTypeENS_9allocatorIS3_EEE20_M_allocate_and_copyIPKS3_EEPS3_jT_SB_,comdat
	.align 2
	.weak	_ZN4_STL6vectorIN7IwTween6CTween9ValueTypeENS_9allocatorIS3_EEE20_M_allocate_and_copyIPKS3_EEPS3_jT_SB_
	.hidden	_ZN4_STL6vectorIN7IwTween6CTween9ValueTypeENS_9allocatorIS3_EEE20_M_allocate_and_copyIPKS3_EEPS3_jT_SB_
	.type	_ZN4_STL6vectorIN7IwTween6CTween9ValueTypeENS_9allocatorIS3_EEE20_M_allocate_and_copyIPKS3_EEPS3_jT_SB_, @function
_ZN4_STL6vectorIN7IwTween6CTween9ValueTypeENS_9allocatorIS3_EEE20_M_allocate_and_copyIPKS3_EEPS3_jT_SB_:
.LFB624:
	.loc 6 508 0
	.cfi_startproc
	pushl	%ebp
	.cfi_def_cfa_offset 8
	.cfi_offset 5, -8
	leal	(%esp), %ebp
	.cfi_def_cfa_register 5
	leal	-40(%esp), %esp
.LBB95:
	.loc 6 515 0
	movl	8(%ebp), %eax
	movl	%eax, %edx
	addl	$8, %edx
	movl	$0, 8(%esp)
	movl	12(%ebp), %eax
	movl	%eax, 4(%esp)
	movl	%edx, (%esp)
	call	_ZN4_STL9allocatorIN7IwTween6CTween9ValueTypeEE8allocateEjPKv
	movl	%eax, -12(%ebp)
	.loc 6 518 0
	leal	-13(%ebp), %eax
	movl	%eax, 12(%esp)
	movl	-12(%ebp), %eax
	movl	%eax, 8(%esp)
	movl	20(%ebp), %eax
	movl	%eax, 4(%esp)
	movl	16(%ebp), %eax
	movl	%eax, (%esp)
	call	_ZN4_STL20__uninitialized_copyIPKN7IwTween6CTween9ValueTypeEPS3_EET0_T_S8_S7_RKNS_12__false_typeE
	.loc 6 522 0
	movl	-12(%ebp), %eax
.LBE95:
	.loc 6 528 0
	leave
	.cfi_restore 5
	.cfi_def_cfa 4, 4
	ret
	.cfi_endproc
.LFE624:
	.size	_ZN4_STL6vectorIN7IwTween6CTween9ValueTypeENS_9allocatorIS3_EEE20_M_allocate_and_copyIPKS3_EEPS3_jT_SB_, .-_ZN4_STL6vectorIN7IwTween6CTween9ValueTypeENS_9allocatorIS3_EEE20_M_allocate_and_copyIPKS3_EEPS3_jT_SB_
	.section	.text._ZN4_STL11__copy_ptrsIPKN7IwTween6CTween9ValueTypeEPS3_EET0_T_S8_S7_RKNS_12__false_typeE,"axG",@progbits,_ZN4_STL11__copy_ptrsIPKN7IwTween6CTween9ValueTypeEPS3_EET0_T_S8_S7_RKNS_12__false_typeE,comdat
	.weak	_ZN4_STL11__copy_ptrsIPKN7IwTween6CTween9ValueTypeEPS3_EET0_T_S8_S7_RKNS_12__false_typeE
	.hidden	_ZN4_STL11__copy_ptrsIPKN7IwTween6CTween9ValueTypeEPS3_EET0_T_S8_S7_RKNS_12__false_typeE
	.type	_ZN4_STL11__copy_ptrsIPKN7IwTween6CTween9ValueTypeEPS3_EET0_T_S8_S7_RKNS_12__false_typeE, @function
_ZN4_STL11__copy_ptrsIPKN7IwTween6CTween9ValueTypeEPS3_EET0_T_S8_S7_RKNS_12__false_typeE:
.LFB625:
	.loc 7 188 0
	.cfi_startproc
	pushl	%ebp
	.cfi_def_cfa_offset 8
	.cfi_offset 5, -8
	movl	%esp, %ebp
	.cfi_def_cfa_register 5
	leal	-56(%esp), %esp
	.loc 7 191 0
	movl	$0, 16(%esp)
	leal	-9(%ebp), %eax
	movl	%eax, 12(%esp)
	movl	16(%ebp), %eax
	movl	%eax, 8(%esp)
	movl	12(%ebp), %eax
	movl	%eax, 4(%esp)
	movl	8(%ebp), %eax
	movl	%eax, (%esp)
	call	_ZN4_STL6__copyIPKN7IwTween6CTween9ValueTypeEPS3_iEET0_T_S8_S7_RKNS_26random_access_iterator_tagEPT1_
	.loc 7 192 0
	leave
	.cfi_restore 5
	.cfi_def_cfa 4, 4
	ret
	.cfi_endproc
.LFE625:
	.size	_ZN4_STL11__copy_ptrsIPKN7IwTween6CTween9ValueTypeEPS3_EET0_T_S8_S7_RKNS_12__false_typeE, .-_ZN4_STL11__copy_ptrsIPKN7IwTween6CTween9ValueTypeEPS3_EET0_T_S8_S7_RKNS_12__false_typeE
	.section	.text._ZN4_STL6__copyIPKN7IwTween6CTween9ValueTypeEPS3_iEET0_T_S8_S7_RKNS_26random_access_iterator_tagEPT1_,"axG",@progbits,_ZN4_STL6__copyIPKN7IwTween6CTween9ValueTypeEPS3_iEET0_T_S8_S7_RKNS_26random_access_iterator_tagEPT1_,comdat
	.weak	_ZN4_STL6__copyIPKN7IwTween6CTween9ValueTypeEPS3_iEET0_T_S8_S7_RKNS_26random_access_iterator_tagEPT1_
	.hidden	_ZN4_STL6__copyIPKN7IwTween6CTween9ValueTypeEPS3_iEET0_T_S8_S7_RKNS_26random_access_iterator_tagEPT1_
	.type	_ZN4_STL6__copyIPKN7IwTween6CTween9ValueTypeEPS3_iEET0_T_S8_S7_RKNS_26random_access_iterator_tagEPT1_, @function
_ZN4_STL6__copyIPKN7IwTween6CTween9ValueTypeEPS3_iEET0_T_S8_S7_RKNS_26random_access_iterator_tagEPT1_:
.LFB626:
	.loc 7 136 0
	.cfi_startproc
	pushl	%ebp
	.cfi_def_cfa_offset 8
	.cfi_offset 5, -8
	leal	(%esp), %ebp
	.cfi_def_cfa_register 5
	leal	-16(%esp), %esp
.LBB96:
.LBB97:
	.loc 7 138 0
	movl	12(%ebp), %edx
	movl	8(%ebp), %eax
	subl	%eax, %edx
	movl	%edx, %eax
	sarl	$4, %eax
	movl	%eax, -4(%ebp)
	jmp	.L434
.L435:
	.loc 7 139 0 discriminator 2
	movl	16(%ebp), %eax
	movl	8(%ebp), %edx
	movl	(%edx), %ecx
	movl	%ecx, (%eax)
	movl	4(%edx), %ecx
	movl	%ecx, 4(%eax)
	movl	8(%edx), %ecx
	movl	%ecx, 8(%eax)
	movl	12(%edx), %edx
	movl	%edx, 12(%eax)
	.loc 7 140 0 discriminator 2
	addl	$16, 8(%ebp)
	.loc 7 141 0 discriminator 2
	addl	$16, 16(%ebp)
	.loc 7 138 0 discriminator 2
	subl	$1, -4(%ebp)
.L434:
	.loc 7 138 0 is_stmt 0 discriminator 1
	cmpl	$0, -4(%ebp)
	jg	.L435
.LBE97:
	.loc 7 143 0 is_stmt 1
	movl	16(%ebp), %eax
.LBE96:
	.loc 7 144 0
	leave
	.cfi_restore 5
	.cfi_def_cfa 4, 4
	ret
	.cfi_endproc
.LFE626:
	.size	_ZN4_STL6__copyIPKN7IwTween6CTween9ValueTypeEPS3_iEET0_T_S8_S7_RKNS_26random_access_iterator_tagEPT1_, .-_ZN4_STL6__copyIPKN7IwTween6CTween9ValueTypeEPS3_iEET0_T_S8_S7_RKNS_26random_access_iterator_tagEPT1_
	.local	_ZZN7IwTween13CTweenManager5TweenEfzE21_s_IwAssertIgnoreThis
	.comm	_ZZN7IwTween13CTweenManager5TweenEfzE21_s_IwAssertIgnoreThis,1,1
	.local	_ZZN7IwTween13CTweenManager5TweenEfzE21_s_IwAssertIgnoreThis_0
	.comm	_ZZN7IwTween13CTweenManager5TweenEfzE21_s_IwAssertIgnoreThis_0,1,1
	.section	.rodata
	.align 4
.LC0:
	.long	1065353216
	.align 4
.LC1:
	.long	0
	.align 4
.LC2:
	.long	1073741824
	.align 4
.LC3:
	.long	1056964608
	.align 4
.LC4:
	.long	1092616192
	.align 4
.LC5:
	.long	981668463
	.align 4
.LC6:
	.long	-1054867456
	.align 4
.LC7:
	.long	1070141403
	.align 4
.LC8:
	.long	1078530011
	.align 4
.LC9:
	.long	-1090519040
	.align 4
.LC10:
	.long	1086918619
	.align 4
.LC11:
	.long	1082130432
	.align 16
.LC12:
	.long	-2147483648
	.long	0
	.long	0
	.long	0
	.align 4
.LC13:
	.long	1055286887
	.align 8
.LC14:
	.long	1952257862
	.long	1071072721
	.align 4
.LC15:
	.long	1089601536
	.align 8
.LC16:
	.long	1952257862
	.long	1072121297
	.align 4
.LC17:
	.long	1057727209
	.align 4
.LC18:
	.long	1061158912
	.align 8
.LC19:
	.long	-780903145
	.long	1072502597
	.align 4
.LC20:
	.long	1062302813
	.align 4
.LC21:
	.long	1064304640
	.align 4
.LC22:
	.long	1064590615
	.align 4
.LC23:
	.long	1065091072
	.align 4
.LC24:
	.long	1071238496
	.align 4
.LC25:
	.long	1076237055
	.align 4
.LC32:
	.long	1199570944
	.align 16
.LC33:
	.long	1325400064
	.long	1325400064
	.long	1325400064
	.long	1325400064
	.section	.text.__x86.get_pc_thunk.cx,"axG",@progbits,__x86.get_pc_thunk.cx,comdat
	.globl	__x86.get_pc_thunk.cx
	.hidden	__x86.get_pc_thunk.cx
	.type	__x86.get_pc_thunk.cx, @function
__x86.get_pc_thunk.cx:
.LFB627:
	.cfi_startproc
	nop
	nop
	nop
	nop
	nop
	nop
	nop
	nop
	movl	(%esp), %ecx
	ret
	.cfi_endproc
.LFE627:
	.section	.text.__x86.get_pc_thunk.bx,"axG",@progbits,__x86.get_pc_thunk.bx,comdat
	.globl	__x86.get_pc_thunk.bx
	.hidden	__x86.get_pc_thunk.bx
	.type	__x86.get_pc_thunk.bx, @function
__x86.get_pc_thunk.bx:
.LFB628:
	.cfi_startproc
	nop
	nop
	nop
	nop
	nop
	nop
	nop
	nop
	movl	(%esp), %ebx
	ret
	.cfi_endproc
.LFE628:
	.text
.Letext0:
	.file 11 "c:/marmalade/7.5/s3e/h/std/c++/typeinfo.h"
	.file 12 "c:/marmalade/7.5/s3e/h/std/c++/cstddef"
	.file 13 "c:/marmalade/7.5/s3e/h/std/c++/using/cstring"
	.file 14 "c:/marmalade/7.5/s3e/h/std/c++/cstdlib"
	.file 15 "c:/marmalade/7.5/s3e/h/std/c++/stl/type_traits.h"
	.file 16 "c:/marmalade/7.5/s3e/h/std/c++/stl/_iterator_base.h"
	.file 17 "c:/marmalade/7.5/s3e/h/std/c++/cstdio"
	.file 18 "c:/marmalade/7.5/s3e/h/std/c++/exception"
	.file 19 "c:/marmalade/7.5/s3e/h/std/c++/typeinfo"
	.file 20 "c:/marmalade/7.5/s3e/h/std/c++/stl/_config.h"
	.file 21 "c:/marmalade/7.5/s3e/h/ext/../std/stddef.h"
	.file 22 "c:/marmalade/7.5/s3e/h/s3eTypes.h"
	.file 23 "c:/marmalade/7.5/s3e/h/ext/../std/string.h"
	.file 24 "c:/marmalade/7.5/s3e/h/ext/../std/stdlib.h"
	.file 25 "c:/marmalade/7.5/s3e/h/ext/../std/stdio.h"
	.file 26 "c:/marmalade/7.5/s3e/h/std/stdarg.h"
	.file 27 "c:/marmalade/7.5/s3e/h/s3eDebug.h"
	.file 28 "<built-in>"
	.section	.note.GNU-stack,"",@progbits
