	.arch armv6
	.fpu softvfp
	.eabi_attribute 20, 1
	.eabi_attribute 21, 1
	.eabi_attribute 23, 3
	.eabi_attribute 24, 1
	.eabi_attribute 25, 1
	.eabi_attribute 26, 2
	.eabi_attribute 30, 6
	.eabi_attribute 34, 1
	.eabi_attribute 18, 2
	.file	"mainMenu.cpp"
	.text
.Ltext0:
	.cfi_sections	.debug_frame
	.section	.text._ZN12SceneManager10GetCurrentEv,"axG",%progbits,_ZN12SceneManager10GetCurrentEv,comdat
	.align	2
	.weak	_ZN12SceneManager10GetCurrentEv
	.hidden	_ZN12SceneManager10GetCurrentEv
	.type	_ZN12SceneManager10GetCurrentEv, %function
_ZN12SceneManager10GetCurrentEv:
.LFB2499:
	.file 1 "c:/Stage4/source/scene.h"
	.loc 1 131 0
	.cfi_startproc
	@ args = 0, pretend = 0, frame = 8
	@ frame_needed = 0, uses_anonymous_args = 0
	@ link register save eliminated.
	sub	sp, sp, #8
.LCFI0:
	.cfi_def_cfa_offset 8
	str	r0, [sp, #4]
	.loc 1 131 0
	ldr	r3, [sp, #4]
	ldr	r3, [r3]
	mov	r0, r3
	add	sp, sp, #8
	@ sp needed
	bx	lr
	.cfi_endproc
.LFE2499:
	.size	_ZN12SceneManager10GetCurrentEv, .-_ZN12SceneManager10GetCurrentEv
	.section	.text._Z12IwGetGxStatev,"axG",%progbits,_Z12IwGetGxStatev,comdat
	.align	2
	.weak	_Z12IwGetGxStatev
	.hidden	_Z12IwGetGxStatev
	.type	_Z12IwGetGxStatev, %function
_Z12IwGetGxStatev:
.LFB2572:
	.file 2 "c:/marmalade/7.5/modules/iwgx/h/IwGxState.h"
	.loc 2 497 0
	.cfi_startproc
	@ args = 0, pretend = 0, frame = 0
	@ frame_needed = 0, uses_anonymous_args = 0
	@ link register save eliminated.
	ldr	r2, .L5
.LPIC0:
	add	r2, pc, r2
	.loc 2 497 0
	ldr	r3, .L5+4
	ldr	r3, [r2, r3]
	ldr	r3, [r3]
	mov	r0, r3
	bx	lr
.L6:
	.align	2
.L5:
	.word	_GLOBAL_OFFSET_TABLE_-(.LPIC0+8)
	.word	g_IwGxState(GOT)
	.cfi_endproc
.LFE2572:
	.size	_Z12IwGetGxStatev, .-_Z12IwGetGxStatev
	.section	.text.IwGxGetScreenWidth,"ax",%progbits
	.align	2
	.type	IwGxGetScreenWidth, %function
IwGxGetScreenWidth:
.LFB2591:
	.file 3 "c:/marmalade/7.5/modules/iwgx/h/IwGx.h"
	.loc 3 408 0
	.cfi_startproc
	@ args = 0, pretend = 0, frame = 0
	@ frame_needed = 0, uses_anonymous_args = 0
	stmfd	sp!, {r3, lr}
.LCFI1:
	.cfi_def_cfa_offset 8
	.cfi_offset 3, -8
	.cfi_offset 14, -4
	.loc 3 408 0
	bl	_Z12IwGetGxStatev(PLT)
	mov	r3, r0
	ldr	r3, [r3, #536]
	mov	r0, r3
	ldmfd	sp!, {r3, pc}
	.cfi_endproc
.LFE2591:
	.size	IwGxGetScreenWidth, .-IwGxGetScreenWidth
	.section	.text.IwGxGetScreenHeight,"ax",%progbits
	.align	2
	.type	IwGxGetScreenHeight, %function
IwGxGetScreenHeight:
.LFB2592:
	.loc 3 419 0
	.cfi_startproc
	@ args = 0, pretend = 0, frame = 0
	@ frame_needed = 0, uses_anonymous_args = 0
	stmfd	sp!, {r3, lr}
.LCFI2:
	.cfi_def_cfa_offset 8
	.cfi_offset 3, -8
	.cfi_offset 14, -4
	.loc 3 419 0
	bl	_Z12IwGetGxStatev(PLT)
	mov	r3, r0
	ldr	r3, [r3, #540]
	mov	r0, r3
	ldmfd	sp!, {r3, pc}
	.cfi_endproc
.LFE2592:
	.size	IwGxGetScreenHeight, .-IwGxGetScreenHeight
	.section	.text._ZN9Resources9getMenuBGEv,"axG",%progbits,_ZN9Resources9getMenuBGEv,comdat
	.align	2
	.weak	_ZN9Resources9getMenuBGEv
	.hidden	_ZN9Resources9getMenuBGEv
	.type	_ZN9Resources9getMenuBGEv, %function
_ZN9Resources9getMenuBGEv:
.LFB3048:
	.file 4 "c:/Stage4/source/resources.h"
	.loc 4 69 0
	.cfi_startproc
	@ args = 0, pretend = 0, frame = 8
	@ frame_needed = 0, uses_anonymous_args = 0
	@ link register save eliminated.
	sub	sp, sp, #8
.LCFI3:
	.cfi_def_cfa_offset 8
	str	r0, [sp, #4]
	.loc 4 69 0
	ldr	r3, [sp, #4]
	ldr	r3, [r3, #24]
	mov	r0, r3
	add	sp, sp, #8
	@ sp needed
	bx	lr
	.cfi_endproc
.LFE3048:
	.size	_ZN9Resources9getMenuBGEv, .-_ZN9Resources9getMenuBGEv
	.bss
	.align	2
_ZN4_STLL8_LocInitE:
	.space	1
	.align	2
_ZN4_STLL8_IosInitE:
	.space	1
	.section	.text._ZN8MainMenuD2Ev,"ax",%progbits
	.align	2
	.global	_ZN8MainMenuD2Ev
	.hidden	_ZN8MainMenuD2Ev
	.type	_ZN8MainMenuD2Ev, %function
_ZN8MainMenuD2Ev:
.LFB3520:
	.file 5 "c:/Stage4/source/mainMenu.cpp"
	.loc 5 20 0
	.cfi_startproc
	@ args = 0, pretend = 0, frame = 8
	@ frame_needed = 0, uses_anonymous_args = 0
	str	lr, [sp, #-4]!
.LCFI4:
	.cfi_def_cfa_offset 4
	.cfi_offset 14, -4
	sub	sp, sp, #12
.LCFI5:
	.cfi_def_cfa_offset 16
	str	r0, [sp, #4]
.LBB2:
	.loc 5 20 0
	ldr	r3, [sp, #4]
	ldr	r2, .L17
.LPIC1:
	add	r2, pc, r2
	add	r2, r2, #8
	str	r2, [r3]
	ldr	r3, [sp, #4]
	.loc 5 22 0
	mov	r0, r3
	bl	_ZN5SceneD2Ev(PLT)
.LBE2:
	mov	r3, #0
	cmp	r3, #0
	beq	.L15
	.loc 5 22 0 is_stmt 0 discriminator 1
	ldr	r0, [sp, #4]
	bl	_ZdlPv(PLT)
.L15:
	.loc 5 22 0 discriminator 2
	ldr	r3, [sp, #4]
	mov	r0, r3
	add	sp, sp, #12
	@ sp needed
	ldr	pc, [sp], #4
.L18:
	.align	2
.L17:
	.word	_ZTV8MainMenu-(.LPIC1+8)
	.cfi_endproc
.LFE3520:
	.size	_ZN8MainMenuD2Ev, .-_ZN8MainMenuD2Ev
	.global	_ZN8MainMenuD1Ev
	.hidden	_ZN8MainMenuD1Ev
	.set	_ZN8MainMenuD1Ev,_ZN8MainMenuD2Ev
	.section	.text._ZN8MainMenuD0Ev,"ax",%progbits
	.align	2
	.global	_ZN8MainMenuD0Ev
	.hidden	_ZN8MainMenuD0Ev
	.type	_ZN8MainMenuD0Ev, %function
_ZN8MainMenuD0Ev:
.LFB3522:
	.loc 5 20 0 is_stmt 1
	.cfi_startproc
	@ args = 0, pretend = 0, frame = 8
	@ frame_needed = 0, uses_anonymous_args = 0
	str	lr, [sp, #-4]!
.LCFI6:
	.cfi_def_cfa_offset 4
	.cfi_offset 14, -4
	sub	sp, sp, #12
.LCFI7:
	.cfi_def_cfa_offset 16
	str	r0, [sp, #4]
	.loc 5 22 0
	ldr	r0, [sp, #4]
	bl	_ZN8MainMenuD1Ev(PLT)
	ldr	r0, [sp, #4]
	bl	_ZdlPv(PLT)
	ldr	r3, [sp, #4]
	mov	r0, r3
	add	sp, sp, #12
	@ sp needed
	ldr	pc, [sp], #4
	.cfi_endproc
.LFE3522:
	.size	_ZN8MainMenuD0Ev, .-_ZN8MainMenuD0Ev
	.section	.rodata
	.align	2
.LC0:
	.ascii	"game\000"
	.align	2
.LC1:
	.ascii	"audio/in_game.mp3\000"
	.section	.text._ZN8MainMenu6UpdateEff,"ax",%progbits
	.align	2
	.global	_ZN8MainMenu6UpdateEff
	.hidden	_ZN8MainMenu6UpdateEff
	.type	_ZN8MainMenu6UpdateEff, %function
_ZN8MainMenu6UpdateEff:
.LFB3523:
	.loc 5 25 0
	.cfi_startproc
	@ args = 0, pretend = 0, frame = 24
	@ frame_needed = 0, uses_anonymous_args = 0
	stmfd	sp!, {r4, lr}
.LCFI8:
	.cfi_def_cfa_offset 8
	.cfi_offset 4, -8
	.cfi_offset 14, -4
	sub	sp, sp, #24
.LCFI9:
	.cfi_def_cfa_offset 32
	str	r0, [sp, #12]
	str	r1, [sp, #8]	@ float
	str	r2, [sp, #4]	@ float
	ldr	r4, .L28
.LPIC2:
	add	r4, pc, r4
.LBB3:
	.loc 5 26 0
	ldr	r3, [sp, #12]
	ldrb	r3, [r3, #120]	@ zero_extendqisi2
	eor	r3, r3, #1
	uxtb	r3, r3
	cmp	r3, #0
	beq	.L23
	.loc 5 27 0
	b	.L22
.L23:
	.loc 5 29 0
	ldr	r3, [sp, #12]
	mov	r0, r3
	ldr	r1, [sp, #8]	@ float
	ldr	r2, [sp, #4]	@ float
	bl	_ZN5Scene6UpdateEff(PLT)
.LBB4:
	.loc 5 32 0
	ldr	r3, [sp, #12]
	ldrb	r3, [r3, #121]	@ zero_extendqisi2
	cmp	r3, #0
	beq	.L25
	.loc 5 32 0 is_stmt 0 discriminator 1
	ldr	r3, [sp, #12]
	ldr	r3, [r3, #124]
	mov	r0, r3
	bl	_ZN12SceneManager10GetCurrentEv(PLT)
	mov	r2, r0
	ldr	r3, [sp, #12]
	cmp	r2, r3
	bne	.L25
	ldr	r3, .L28+4
	ldr	r3, [r4, r3]
	ldr	r3, [r3]
	ldrb	r3, [r3, #8]	@ zero_extendqisi2
	eor	r3, r3, #1
	uxtb	r3, r3
	cmp	r3, #0
	beq	.L25
	ldr	r3, .L28+4
	ldr	r3, [r4, r3]
	ldr	r3, [r3]
	ldrb	r3, [r3, #9]	@ zero_extendqisi2
	cmp	r3, #0
	beq	.L25
	.loc 5 32 0 discriminator 3
	mov	r3, #1
	b	.L26
.L25:
	.loc 5 32 0 discriminator 2
	mov	r3, #0
.L26:
	.loc 5 32 0 discriminator 4
	cmp	r3, #0
	beq	.L22
.LBB5:
	.loc 5 34 0 is_stmt 1
	ldr	r3, .L28+4
	ldr	r3, [r4, r3]
	ldr	r3, [r3]
	mov	r0, r3
	bl	_ZN5Input5ResetEv(PLT)
.LBB6:
	.loc 5 35 0
	ldr	r3, [sp, #12]
	ldr	r3, [r3, #236]
	mov	r1, r3
	ldr	r3, .L28+4
	ldr	r3, [r4, r3]
	ldr	r3, [r3]
	ldr	r2, [r3]
	ldr	r3, .L28+4
	ldr	r3, [r4, r3]
	ldr	r3, [r3]
	ldr	r3, [r3, #4]
	mov	r0, r1
	mov	r1, r2
	mov	r2, r3
	bl	_ZN18Iw2DSceneGraphCore5CNode7HitTestEii(PLT)
	mov	r3, r0
	cmp	r3, #0
	beq	.L27
.LBB7:
	.loc 5 38 0
	ldr	r3, .L28+8
	ldr	r3, [r4, r3]
	ldr	r3, [r3]
	mov	r0, r3
	ldr	r3, .L28+12
.LPIC3:
	add	r3, pc, r3
	mov	r1, r3
	bl	_ZN12SceneManager4FindEPKc(PLT)
	str	r0, [sp, #20]
	.loc 5 39 0
	ldr	r3, .L28+8
	ldr	r3, [r4, r3]
	ldr	r3, [r3]
	mov	r0, r3
	ldr	r1, [sp, #20]
	bl	_ZN12SceneManager8SwitchToEP5Scene(PLT)
	.loc 5 42 0
	ldr	r3, .L28+16
.LPIC4:
	add	r3, pc, r3
	mov	r0, r3
	mov	r1, #1
	bl	_ZN5Audio9PlayMusicEPKcb(PLT)
.L27:
.L22:
.LBE7:
.LBE6:
.LBE5:
.LBE4:
.LBE3:
	.loc 5 45 0
	add	sp, sp, #24
	@ sp needed
	ldmfd	sp!, {r4, pc}
.L29:
	.align	2
.L28:
	.word	_GLOBAL_OFFSET_TABLE_-(.LPIC2+8)
	.word	g_pInput(GOT)
	.word	g_pSceneManager(GOT)
	.word	.LC0-(.LPIC3+8)
	.word	.LC1-(.LPIC4+8)
	.cfi_endproc
.LFE3523:
	.size	_ZN8MainMenu6UpdateEff, .-_ZN8MainMenu6UpdateEff
	.section	.text._ZN8MainMenu6RenderEv,"ax",%progbits
	.align	2
	.global	_ZN8MainMenu6RenderEv
	.hidden	_ZN8MainMenu6RenderEv
	.type	_ZN8MainMenu6RenderEv, %function
_ZN8MainMenu6RenderEv:
.LFB3524:
	.loc 5 48 0
	.cfi_startproc
	@ args = 0, pretend = 0, frame = 8
	@ frame_needed = 0, uses_anonymous_args = 0
	str	lr, [sp, #-4]!
.LCFI10:
	.cfi_def_cfa_offset 4
	.cfi_offset 14, -4
	sub	sp, sp, #12
.LCFI11:
	.cfi_def_cfa_offset 16
	str	r0, [sp, #4]
	.loc 5 49 0
	ldr	r3, [sp, #4]
	mov	r0, r3
	bl	_ZN5Scene6RenderEv(PLT)
	.loc 5 50 0
	add	sp, sp, #12
	@ sp needed
	ldr	pc, [sp], #4
	.cfi_endproc
.LFE3524:
	.size	_ZN8MainMenu6RenderEv, .-_ZN8MainMenu6RenderEv
	.global	__aeabi_ui2f
	.global	__aeabi_fdiv
	.section	.rodata
	.align	2
.LC2:
	.ascii	"audio/frontend.mp3\000"
	.section	.text._ZN8MainMenu4InitEv,"ax",%progbits
	.align	2
	.global	_ZN8MainMenu4InitEv
	.hidden	_ZN8MainMenu4InitEv
	.type	_ZN8MainMenu4InitEv, %function
_ZN8MainMenu4InitEv:
.LFB3525:
	.loc 5 53 0
	.cfi_startproc
	@ args = 0, pretend = 0, frame = 16
	@ frame_needed = 0, uses_anonymous_args = 0
	stmfd	sp!, {r4, r5, lr}
.LCFI12:
	.cfi_def_cfa_offset 12
	.cfi_offset 4, -12
	.cfi_offset 5, -8
	.cfi_offset 14, -4
	sub	sp, sp, #20
.LCFI13:
	.cfi_def_cfa_offset 32
	str	r0, [sp, #4]
	ldr	r4, .L32
.LPIC5:
	add	r4, pc, r4
.LBB8:
	.loc 5 54 0
	ldr	r3, [sp, #4]
	mov	r0, r3
	bl	_ZN5Scene4InitEv(PLT)
	.loc 5 56 0
	ldr	r3, .L32+4
	ldr	r3, [r4, r3]
	ldr	r3, [r3]
	mov	r0, r3
	ldr	r3, .L32+8
.LPIC6:
	add	r3, pc, r3
	mov	r1, r3
	bl	_ZN12SceneManager4FindEPKc(PLT)
	str	r0, [sp, #12]
	.loc 5 59 0
	mov	r0, #148
	bl	_Znwj(PLT)
	mov	r5, r0
	mov	r0, r5
	bl	_ZN14Iw2DSceneGraph7CSpriteC1Ev(PLT)
	str	r5, [sp, #8]
	.loc 5 60 0
	bl	IwGxGetScreenWidth(PLT)
	mov	r3, r0
	mov	r0, r3
	bl	__aeabi_ui2f(PLT)
	mov	r3, r0
	mov	r0, r3
	mov	r1, #1073741824
	bl	__aeabi_fdiv(PLT)
	mov	r3, r0
	mov	r2, r3
	ldr	r3, [sp, #8]
	str	r2, [r3, #4]	@ float
	.loc 5 61 0
	bl	IwGxGetScreenHeight(PLT)
	mov	r3, r0
	mov	r0, r3
	bl	__aeabi_ui2f(PLT)
	mov	r3, r0
	mov	r0, r3
	mov	r1, #1073741824
	bl	__aeabi_fdiv(PLT)
	mov	r3, r0
	mov	r2, r3
	ldr	r3, [sp, #8]
	str	r2, [r3, #8]	@ float
	.loc 5 62 0
	ldr	r3, .L32+12
	ldr	r3, [r4, r3]
	ldr	r3, [r3]
	mov	r0, r3
	bl	_ZN9Resources9getMenuBGEv(PLT)
	mov	r3, r0
	ldr	r0, [sp, #8]
	mov	r1, r3
	bl	_ZN14Iw2DSceneGraph7CSprite8SetImageEP10CIw2DImage(PLT)
	.loc 5 63 0
	ldr	r0, [sp, #8]
	bl	_ZN14Iw2DSceneGraph7CSprite8GetImageEv(PLT)
	mov	r3, r0
	ldr	r2, [r3]
	ldr	r2, [r2]
	mov	r0, r3
	blx	r2
	mov	r2, r0
	ldr	r3, [sp, #8]
	str	r2, [r3, #12]	@ float
	.loc 5 64 0
	ldr	r0, [sp, #8]
	bl	_ZN14Iw2DSceneGraph7CSprite8GetImageEv(PLT)
	mov	r3, r0
	ldr	r2, [r3]
	add	r2, r2, #4
	ldr	r2, [r2]
	mov	r0, r3
	blx	r2
	mov	r2, r0
	ldr	r3, [sp, #8]
	str	r2, [r3, #16]	@ float
	.loc 5 65 0
	ldr	r3, [sp, #8]
	mov	r2, #1056964608
	str	r2, [r3, #20]	@ float
	.loc 5 66 0
	ldr	r3, [sp, #8]
	mov	r2, #1056964608
	str	r2, [r3, #24]	@ float
	.loc 5 68 0
	bl	IwGxGetScreenWidth(PLT)
	mov	r3, r0
	mov	r0, r3
	bl	__aeabi_ui2f(PLT)
	mov	r4, r0
	ldr	r0, [sp, #8]
	bl	_ZN14Iw2DSceneGraph7CSprite8GetImageEv(PLT)
	mov	r3, r0
	ldr	r2, [r3]
	ldr	r2, [r2]
	mov	r0, r3
	blx	r2
	mov	r3, r0
	mov	r0, r4
	mov	r1, r3
	bl	__aeabi_fdiv(PLT)
	mov	r3, r0
	mov	r2, r3
	ldr	r3, [sp, #8]
	str	r2, [r3, #28]	@ float
	.loc 5 69 0
	bl	IwGxGetScreenHeight(PLT)
	mov	r3, r0
	mov	r0, r3
	bl	__aeabi_ui2f(PLT)
	mov	r4, r0
	ldr	r0, [sp, #8]
	bl	_ZN14Iw2DSceneGraph7CSprite8GetImageEv(PLT)
	mov	r3, r0
	ldr	r2, [r3]
	add	r2, r2, #4
	ldr	r2, [r2]
	mov	r0, r3
	blx	r2
	mov	r3, r0
	mov	r0, r4
	mov	r1, r3
	bl	__aeabi_fdiv(PLT)
	mov	r3, r0
	mov	r2, r3
	ldr	r3, [sp, #8]
	str	r2, [r3, #32]	@ float
	.loc 5 70 0
	ldr	r3, [sp, #4]
	mov	r0, r3
	ldr	r1, [sp, #8]
	bl	_ZN18Iw2DSceneGraphCore5CNode8AddChildEPS0_(PLT)
	.loc 5 98 0
	ldr	r3, .L32+16
.LPIC7:
	add	r3, pc, r3
	mov	r0, r3
	mov	r1, #1
	bl	_ZN5Audio9PlayMusicEPKcb(PLT)
.LBE8:
	.loc 5 100 0
	add	sp, sp, #20
	@ sp needed
	ldmfd	sp!, {r4, r5, pc}
.L33:
	.align	2
.L32:
	.word	_GLOBAL_OFFSET_TABLE_-(.LPIC5+8)
	.word	g_pSceneManager(GOT)
	.word	.LC0-(.LPIC6+8)
	.word	g_pResources(GOT)
	.word	.LC2-(.LPIC7+8)
	.cfi_endproc
.LFE3525:
	.size	_ZN8MainMenu4InitEv, .-_ZN8MainMenu4InitEv
	.hidden	_ZTV8MainMenu
	.global	_ZTV8MainMenu
	.section	.data.rel.ro,"aw",%progbits
	.align	3
	.type	_ZTV8MainMenu, %object
	.size	_ZTV8MainMenu, 28
_ZTV8MainMenu:
	.word	0
	.word	_ZTI8MainMenu
	.word	_ZN8MainMenuD1Ev
	.word	_ZN8MainMenuD0Ev
	.word	_ZN8MainMenu6UpdateEff
	.word	_ZN8MainMenu6RenderEv
	.word	_ZN8MainMenu4InitEv
	.hidden	_ZTI8MainMenu
	.global	_ZTI8MainMenu
	.align	2
	.type	_ZTI8MainMenu, %object
	.size	_ZTI8MainMenu, 12
_ZTI8MainMenu:
	.word	_ZTVN10__cxxabiv120__si_class_type_infoE+8
	.word	_ZTS8MainMenu
	.word	_ZTI5Scene
	.hidden	_ZTS8MainMenu
	.global	_ZTS8MainMenu
	.section	.rodata
	.align	2
	.type	_ZTS8MainMenu, %object
	.size	_ZTS8MainMenu, 10
_ZTS8MainMenu:
	.ascii	"8MainMenu\000"
	.section	.text._Z41__static_initialization_and_destruction_0ii,"ax",%progbits
	.align	2
	.type	_Z41__static_initialization_and_destruction_0ii, %function
_Z41__static_initialization_and_destruction_0ii:
.LFB3958:
	.loc 5 100 0
	.cfi_startproc
	@ args = 0, pretend = 0, frame = 8
	@ frame_needed = 0, uses_anonymous_args = 0
	stmfd	sp!, {r4, lr}
.LCFI14:
	.cfi_def_cfa_offset 8
	.cfi_offset 4, -8
	.cfi_offset 14, -4
	sub	sp, sp, #8
.LCFI15:
	.cfi_def_cfa_offset 16
	str	r0, [sp, #4]
	str	r1, [sp]
	ldr	r4, .L36
.LPIC10:
	add	r4, pc, r4
	.loc 5 100 0
	ldr	r3, [sp, #4]
	cmp	r3, #1
	bne	.L34
	.loc 5 100 0 is_stmt 0 discriminator 1
	ldr	r2, [sp]
	ldr	r3, .L36+4
	cmp	r2, r3
	bne	.L34
	.file 6 "c:/marmalade/7.5/s3e/h/std/c++/iostream"
	.loc 6 69 0 is_stmt 1
	ldr	r3, .L36+8
.LPIC8:
	add	r3, pc, r3
	mov	r0, r3
	bl	_ZN4_STL8ios_base9_Loc_initC1Ev(PLT)
	ldr	r3, .L36+12
.LPIC9:
	add	r3, pc, r3
	mov	r0, r3
	ldr	r3, .L36+16
	ldr	r3, [r4, r3]
	mov	r1, r3
	ldr	r3, .L36+20
.LPIC11:
	add	r3, pc, r3
	mov	r2, r3
	bl	__aeabi_atexit(PLT)
	.loc 6 75 0
	ldr	r3, .L36+24
.LPIC12:
	add	r3, pc, r3
	mov	r0, r3
	bl	_ZN4_STL8ios_base4InitC1Ev(PLT)
	ldr	r3, .L36+28
.LPIC13:
	add	r3, pc, r3
	mov	r0, r3
	ldr	r3, .L36+32
	ldr	r3, [r4, r3]
	mov	r1, r3
	ldr	r3, .L36+36
.LPIC14:
	add	r3, pc, r3
	mov	r2, r3
	bl	__aeabi_atexit(PLT)
.L34:
	.loc 5 100 0
	add	sp, sp, #8
	@ sp needed
	ldmfd	sp!, {r4, pc}
.L37:
	.align	2
.L36:
	.word	_GLOBAL_OFFSET_TABLE_-(.LPIC10+8)
	.word	65535
	.word	_ZN4_STLL8_LocInitE-(.LPIC8+8)
	.word	_ZN4_STLL8_LocInitE-(.LPIC9+8)
	.word	_ZN4_STL8ios_base9_Loc_initD1Ev(GOT)
	.word	__dso_handle-(.LPIC11+8)
	.word	_ZN4_STLL8_IosInitE-(.LPIC12+8)
	.word	_ZN4_STLL8_IosInitE-(.LPIC13+8)
	.word	_ZN4_STL8ios_base4InitD1Ev(GOT)
	.word	__dso_handle-(.LPIC14+8)
	.cfi_endproc
.LFE3958:
	.size	_Z41__static_initialization_and_destruction_0ii, .-_Z41__static_initialization_and_destruction_0ii
	.section	.text._GLOBAL__sub_I_mainMenu.cpp,"ax",%progbits
	.align	2
	.type	_GLOBAL__sub_I_mainMenu.cpp, %function
_GLOBAL__sub_I_mainMenu.cpp:
.LFB3959:
	.loc 5 100 0
	.cfi_startproc
	@ args = 0, pretend = 0, frame = 0
	@ frame_needed = 0, uses_anonymous_args = 0
	stmfd	sp!, {r3, lr}
.LCFI16:
	.cfi_def_cfa_offset 8
	.cfi_offset 3, -8
	.cfi_offset 14, -4
	.loc 5 100 0
	mov	r0, #1
	ldr	r1, .L39
	bl	_Z41__static_initialization_and_destruction_0ii(PLT)
	ldmfd	sp!, {r3, pc}
.L40:
	.align	2
.L39:
	.word	65535
	.cfi_endproc
.LFE3959:
	.size	_GLOBAL__sub_I_mainMenu.cpp, .-_GLOBAL__sub_I_mainMenu.cpp
	.section	.init_array,"aw",%init_array
	.align	2
	.word	_GLOBAL__sub_I_mainMenu.cpp(target1)
	.text
.Letext0:
	.file 7 "c:/marmalade/7.5/s3e/h/std/c++/typeinfo.h"
	.file 8 "c:/marmalade/7.5/s3e/h/std/c++/cstddef"
	.file 9 "c:/marmalade/7.5/s3e/h/std/c++/using/cstring"
	.file 10 "c:/marmalade/7.5/s3e/h/std/c++/cstdlib"
	.file 11 "c:/marmalade/7.5/s3e/h/std/c++/stl/type_traits.h"
	.file 12 "c:/marmalade/7.5/s3e/h/std/c++/cstdio"
	.file 13 "c:/marmalade/7.5/s3e/h/std/c++/exception"
	.file 14 "c:/marmalade/7.5/s3e/h/std/c++/typeinfo"
	.file 15 "c:/marmalade/7.5/s3e/h/std/c++/cwchar"
	.file 16 "c:/marmalade/7.5/s3e/h/std/c++/stl/_alloc.h"
	.file 17 "c:/marmalade/7.5/s3e/h/std/c++/stl/_vector.h"
	.file 18 "c:/marmalade/7.5/s3e/h/std/c++/stl/_vector.c"
	.file 19 "c:/marmalade/7.5/s3e/h/std/c++/stl/_list.h"
	.file 20 "c:/marmalade/7.5/s3e/h/std/c++/stl/_list.c"
	.file 21 "c:/marmalade/7.5/s3e/h/std/c++/stdexcept"
	.file 22 "c:/marmalade/7.5/s3e/h/std/c++/stl/_ios_base.h"
	.file 23 "c:/marmalade/7.5/s3e/h/std/c++/stl/_num_put.c"
	.file 24 "c:/marmalade/7.5/s3e/h/std/c++/stl/_num_get.c"
	.file 25 "c:/marmalade/7.5/s3e/h/std/c++/stl/_config.h"
	.file 26 "c:/marmalade/7.5/s3e/h/ext/../std/stddef.h"
	.file 27 "c:/marmalade/7.5/s3e/h/s3eTypes.h"
	.file 28 "c:/marmalade/7.5/s3e/h/ext/../std/string.h"
	.file 29 "c:/marmalade/7.5/s3e/h/ext/../std/stdlib.h"
	.file 30 "c:/marmalade/7.5/s3e/h/ext/../std/stdio.h"
	.file 31 "c:/marmalade/7.5/s3e/h/std/stdarg.h"
	.file 32 "<built-in>"
	.file 33 "c:/marmalade/7.5/modules/iwgeom/h/IwGeomCore.h"
	.file 34 "c:/marmalade/7.5/s3e/h/s3eFile.h"
	.file 35 "c:/marmalade/7.5/modules/iwutil/h/IwSerialise.h"
	.file 36 "c:/marmalade/7.5/modules/iwgeom/h/IwGeomSVec2.h"
	.file 37 "c:/marmalade/7.5/modules/iwgeom/h/IwGeomVec2.h"
	.file 38 "c:/marmalade/7.5/modules/iwgeom/h/IwGeomFVec2.h"
	.file 39 "c:/marmalade/7.5/modules/iwgeom/h/IwGeomSVec3.h"
	.file 40 "c:/marmalade/7.5/modules/iwgeom/h/IwGeomVec3.h"
	.file 41 "c:/marmalade/7.5/modules/iwgeom/h/IwGeomFVec3.h"
	.file 42 "c:/marmalade/7.5/modules/iwgeom/h/IwGeomMat.h"
	.file 43 "c:/marmalade/7.5/modules/iwgeom/h/IwGeomFMat.h"
	.file 44 "c:/marmalade/7.5/modules/iw2dscenegraphcore/h/Iw2DSceneGraphCore.h"
	.file 45 "c:/marmalade/7.5/s3e/h/s3eDebug.h"
	.file 46 "c:/marmalade/7.5/s3e/h/s3eSurface.h"
	.file 47 "c:/marmalade/7.5/modules/iwgx/h/IwColour.h"
	.file 48 "c:/marmalade/7.5/modules/iwutil/h/IwString.h"
	.file 49 "c:/marmalade/7.5/modules/iwutil/h/IwAllocator.h"
	.file 50 "c:/marmalade/7.5/modules/iwutil/h/IwManaged.h"
	.file 51 "c:/marmalade/7.5/modules/iwutil/h/IwArray.h"
	.file 52 "c:/marmalade/7.5/modules/iwutil/h/IwManagedList.h"
	.file 53 "c:/marmalade/7.5/modules/iwutil/h/IwEvent.h"
	.file 54 "c:/marmalade/7.5/modules/iwutil/h/IwImage.h"
	.file 55 "c:/marmalade/7.5/modules/iwutil/h/IwMemBucket.h"
	.file 56 "c:/marmalade/7.5/modules/iwutil/h/IwMemBucketHelpers.h"
	.file 57 "c:/marmalade/7.5/modules/iwutil/h/IwList.h"
	.file 58 "c:/marmalade/7.5/modules/iwgx/h/IwGxTypes.h"
	.file 59 "c:/marmalade/7.5/s3e/h/std/time.h"
	.file 60 "c:/marmalade/7.5/s3e/h/ext/../std/wchar.h"
	.file 61 "c:/marmalade/7.5/modules/iw2dscenegraph/h/Iw2DSceneGraph.h"
	.file 62 "c:/marmalade/7.5/modules/iw2d/h/Iw2D.h"
	.file 63 "c:/marmalade/7.5/modules/iwtween/h/IwTween.h"
	.file 64 "c:/marmalade/7.5/s3e/h/GLES/gl.h"
	.file 65 "c:/marmalade/7.5/modules/iwgx/h/IwGxStream.h"
	.file 66 "c:/marmalade/7.5/modules/iwgx/h/IwGxMetrics.h"
	.file 67 "c:/marmalade/7.5/modules/iwgx/h/IwMaterial.h"
	.file 68 "c:/marmalade/7.5/modules/iwgx/h/IwTexture.h"
	.file 69 "c:/marmalade/7.5/modules/iwgx/h/IwGxSurface.h"
	.file 70 "c:/marmalade/7.5/s3e/h/EGL/egl.h"
	.file 71 "c:/marmalade/7.5/modules/iwgx/h/IwTPage.h"
	.file 72 "c:/marmalade/7.5/modules/iwresmanager/h/IwResGroup.h"
	.file 73 "c:/marmalade/7.5/modules/iwresmanager/h/IwResManagerClass.h"
	.file 74 "c:/marmalade/7.5/s3e/h/s3ePointer.h"
	.file 75 "c:/Stage4/source/input.h"
	.file 76 "c:/Stage4/source/MainMenu.h"
	.file 77 "c:/marmalade/7.5/modules/iwgeom/h/IwGeomSqrt.h"
	.file 78 "c:/marmalade/7.5/modules/iwutil/h/IwMenu.h"
	.file 79 "c:/marmalade/7.5/modules/iwutil/h/IwTextParserITX.h"
	.file 80 "c:/marmalade/7.5/modules/iwgx/h/IwGxFuncTable.h"
	.file 81 "c:/stage4/modules/soundengine/h/IwSoundManager.h"
	.file 82 "c:/marmalade/7.5/s3e/h/std/c++/stl/_stdio_file.h"
	.file 83 "c:/marmalade/7.5/modules/iwutil/h/IwTypes.h"