	.file	"main.cpp"
	.text
.Ltext0:
	.section	.text._ZN4_STL18_Bit_iterator_baseC2Ev,"axG",@progbits,_ZN4_STL18_Bit_iterator_baseC5Ev,comdat
	.align 2
	.weak	_ZN4_STL18_Bit_iterator_baseC2Ev
	.hidden	_ZN4_STL18_Bit_iterator_baseC2Ev
	.type	_ZN4_STL18_Bit_iterator_baseC2Ev, @function
_ZN4_STL18_Bit_iterator_baseC2Ev:
.LFB1891:
	.file 1 "c:/marmalade/7.5/s3e/h/std/c++/stl/_bvector.h"
	.loc 1 112 0
	.cfi_startproc
	pushl	%ebp
	.cfi_def_cfa_offset 8
	.cfi_offset 5, -8
	leal	(%esp), %ebp
	.cfi_def_cfa_register 5
.LBB2:
	.loc 1 112 0
	movl	8(%ebp), %eax
	movl	$0, (%eax)
	movl	8(%ebp), %eax
	movl	$0, 4(%eax)
.LBE2:
	popl	%ebp
	.cfi_restore 5
	.cfi_def_cfa 4, 4
	ret
	.cfi_endproc
.LFE1891:
	.size	_ZN4_STL18_Bit_iterator_baseC2Ev, .-_ZN4_STL18_Bit_iterator_baseC2Ev
	.weak	_ZN4_STL18_Bit_iterator_baseC1Ev
	.hidden	_ZN4_STL18_Bit_iterator_baseC1Ev
	.set	_ZN4_STL18_Bit_iterator_baseC1Ev,_ZN4_STL18_Bit_iterator_baseC2Ev
	.section	.text._ZN7IwTween6CTweenD2Ev,"axG",@progbits,_ZN7IwTween6CTweenD5Ev,comdat
	.align 2
	.weak	_ZN7IwTween6CTweenD2Ev
	.hidden	_ZN7IwTween6CTweenD2Ev
	.type	_ZN7IwTween6CTweenD2Ev, @function
_ZN7IwTween6CTweenD2Ev:
.LFB1995:
	.file 2 "c:/marmalade/7.5/modules/iwtween/h/IwTween.h"
	.loc 2 430 0
	.cfi_startproc
	pushl	%ebp
	.cfi_def_cfa_offset 8
	.cfi_offset 5, -8
	leal	(%esp), %ebp
	.cfi_def_cfa_register 5
	leal	-24(%esp), %esp
.LBB3:
	.loc 2 430 0
	movl	8(%ebp), %eax
	addl	$44, %eax
	movl	%eax, (%esp)
	call	_ZN4_STL6vectorIN7IwTween6CTween9ValueTypeENS_9allocatorIS3_EEED1Ev
.LBE3:
	leave
	.cfi_restore 5
	.cfi_def_cfa 4, 4
	ret
	.cfi_endproc
.LFE1995:
	.size	_ZN7IwTween6CTweenD2Ev, .-_ZN7IwTween6CTweenD2Ev
	.weak	_ZN7IwTween6CTweenD1Ev
	.hidden	_ZN7IwTween6CTweenD1Ev
	.set	_ZN7IwTween6CTweenD1Ev,_ZN7IwTween6CTweenD2Ev
	.section	.text._ZN7IwTween13CTweenManagerC2Ev,"axG",@progbits,_ZN7IwTween13CTweenManagerC5Ev,comdat
	.align 2
	.weak	_ZN7IwTween13CTweenManagerC2Ev
	.hidden	_ZN7IwTween13CTweenManagerC2Ev
	.type	_ZN7IwTween13CTweenManagerC2Ev, @function
_ZN7IwTween13CTweenManagerC2Ev:
.LFB2003:
	.loc 2 543 0
	.cfi_startproc
	pushl	%ebp
	.cfi_def_cfa_offset 8
	.cfi_offset 5, -8
	movl	%esp, %ebp
	.cfi_def_cfa_register 5
	leal	-40(%esp), %esp
.LBB4:
	.loc 2 543 0
	leal	-9(%ebp), %eax
	movl	%eax, (%esp)
	call	_ZN4_STL9allocatorIN7IwTween6CTweenEEC1Ev
	movl	8(%ebp), %eax
	leal	-9(%ebp), %edx
	movl	%edx, 4(%esp)
	movl	%eax, (%esp)
	call	_ZN4_STL6vectorIN7IwTween6CTweenENS_9allocatorIS2_EEEC1ERKS4_
	leal	-9(%ebp), %eax
	movl	%eax, (%esp)
	call	_ZN4_STL9allocatorIN7IwTween6CTweenEED1Ev
.LBE4:
	leave
	.cfi_restore 5
	.cfi_def_cfa 4, 4
	ret
	.cfi_endproc
.LFE2003:
	.size	_ZN7IwTween13CTweenManagerC2Ev, .-_ZN7IwTween13CTweenManagerC2Ev
	.weak	_ZN7IwTween13CTweenManagerC1Ev
	.hidden	_ZN7IwTween13CTweenManagerC1Ev
	.set	_ZN7IwTween13CTweenManagerC1Ev,_ZN7IwTween13CTweenManagerC2Ev
	.section	.text._ZN7IwTween13CTweenManagerD2Ev,"axG",@progbits,_ZN7IwTween13CTweenManagerD5Ev,comdat
	.align 2
	.weak	_ZN7IwTween13CTweenManagerD2Ev
	.hidden	_ZN7IwTween13CTweenManagerD2Ev
	.type	_ZN7IwTween13CTweenManagerD2Ev, @function
_ZN7IwTween13CTweenManagerD2Ev:
.LFB2006:
	.loc 2 544 0
	.cfi_startproc
	pushl	%ebp
	.cfi_def_cfa_offset 8
	.cfi_offset 5, -8
	leal	(%esp), %ebp
	.cfi_def_cfa_register 5
	leal	-24(%esp), %esp
.LBB5:
	.loc 2 544 0
	movl	8(%ebp), %eax
	movl	%eax, (%esp)
	call	_ZN4_STL6vectorIN7IwTween6CTweenENS_9allocatorIS2_EEED1Ev
.LBE5:
	leave
	.cfi_restore 5
	.cfi_def_cfa 4, 4
	ret
	.cfi_endproc
.LFE2006:
	.size	_ZN7IwTween13CTweenManagerD2Ev, .-_ZN7IwTween13CTweenManagerD2Ev
	.weak	_ZN7IwTween13CTweenManagerD1Ev
	.hidden	_ZN7IwTween13CTweenManagerD1Ev
	.set	_ZN7IwTween13CTweenManagerD1Ev,_ZN7IwTween13CTweenManagerD2Ev
	.local	_ZN4_STLL8_LocInitE
	.comm	_ZN4_STLL8_LocInitE,1,1
	.local	_ZN4_STLL8_IosInitE
	.comm	_ZN4_STLL8_IosInitE,1,1
	.section	.text._ZN4GameC2Ev,"axG",@progbits,_ZN4GameC5Ev,comdat
	.align 2
	.weak	_ZN4GameC2Ev
	.hidden	_ZN4GameC2Ev
	.type	_ZN4GameC2Ev, @function
_ZN4GameC2Ev:
.LFB3127:
	.file 3 "c:/Stage4/source/game.h"
	.loc 3 53 0
	.cfi_startproc
	pushl	%ebp
	.cfi_def_cfa_offset 8
	.cfi_offset 5, -8
	movl	%esp, %ebp
	.cfi_def_cfa_register 5
	pushl	%ebx
	leal	-36(%esp), %esp
	.cfi_offset 3, -12
	call	__x86.get_pc_thunk.bx
	addl	$_GLOBAL_OFFSET_TABLE_, %ebx
.LBB6:
	.loc 3 53 0
	movl	8(%ebp), %eax
	movl	%eax, (%esp)
	call	_ZN5SceneC2Ev@PLT
	movl	8(%ebp), %eax
	movl	_ZTV4Game@GOT(%ebx), %edx
	addl	$8, %edx
	movl	%edx, (%eax)
	leal	-10(%ebp), %eax
	movl	%eax, (%esp)
	call	_ZN4_STL9allocatorIPN14Iw2DSceneGraph7CSpriteEEC1Ev
	movl	8(%ebp), %eax
	movl	%eax, %edx
	addl	$276, %edx
	leal	-10(%ebp), %eax
	movl	%eax, 4(%esp)
	movl	%edx, (%esp)
	call	_ZN4_STL6vectorIPN14Iw2DSceneGraph7CSpriteENS_9allocatorIS3_EEEC1ERKS5_
	leal	-10(%ebp), %eax
	movl	%eax, (%esp)
	call	_ZN4_STL9allocatorIPN14Iw2DSceneGraph7CSpriteEED1Ev
	leal	-9(%ebp), %eax
	movl	%eax, (%esp)
	call	_ZN4_STL9allocatorIbEC1Ev
	movl	8(%ebp), %eax
	movl	%eax, %edx
	addl	$288, %edx
	leal	-9(%ebp), %eax
	movl	%eax, 4(%esp)
	movl	%edx, (%esp)
	call	_ZN4_STL6vectorIbNS_9allocatorIbEEEC1ERKS2_
	leal	-9(%ebp), %eax
	movl	%eax, (%esp)
	call	_ZN4_STL9allocatorIbED1Ev
.LBE6:
	leal	36(%esp), %esp
	popl	%ebx
	.cfi_restore 3
	popl	%ebp
	.cfi_restore 5
	.cfi_def_cfa 4, 4
	ret
	.cfi_endproc
.LFE3127:
	.size	_ZN4GameC2Ev, .-_ZN4GameC2Ev
	.weak	_ZN4GameC1Ev
	.hidden	_ZN4GameC1Ev
	.set	_ZN4GameC1Ev,_ZN4GameC2Ev
	.section	.text._ZN9PauseMenuC2Ev,"axG",@progbits,_ZN9PauseMenuC5Ev,comdat
	.align 2
	.weak	_ZN9PauseMenuC2Ev
	.hidden	_ZN9PauseMenuC2Ev
	.type	_ZN9PauseMenuC2Ev, @function
_ZN9PauseMenuC2Ev:
.LFB3132:
	.file 4 "c:/Stage4/source/pauseMenu.h"
	.loc 4 29 0
	.cfi_startproc
	pushl	%ebp
	.cfi_def_cfa_offset 8
	.cfi_offset 5, -8
	movl	%esp, %ebp
	.cfi_def_cfa_register 5
	pushl	%ebx
	leal	-20(%esp), %esp
	.cfi_offset 3, -12
	call	__x86.get_pc_thunk.bx
	addl	$_GLOBAL_OFFSET_TABLE_, %ebx
.LBB7:
	.loc 4 29 0
	movl	8(%ebp), %eax
	movl	%eax, (%esp)
	call	_ZN5SceneC2Ev@PLT
	movl	8(%ebp), %eax
	movl	_ZTV9PauseMenu@GOT(%ebx), %edx
	addl	$8, %edx
	movl	%edx, (%eax)
.LBE7:
	leal	20(%esp), %esp
	popl	%ebx
	.cfi_restore 3
	popl	%ebp
	.cfi_restore 5
	.cfi_def_cfa 4, 4
	ret
	.cfi_endproc
.LFE3132:
	.size	_ZN9PauseMenuC2Ev, .-_ZN9PauseMenuC2Ev
	.weak	_ZN9PauseMenuC1Ev
	.hidden	_ZN9PauseMenuC1Ev
	.set	_ZN9PauseMenuC1Ev,_ZN9PauseMenuC2Ev
	.hidden	g_pTweener
	.globl	g_pTweener
	.bss
	.align 4
	.type	g_pTweener, @object
	.size	g_pTweener, 4
g_pTweener:
	.zero	4
	.section	.rodata
.LC0:
	.string	"game"
.LC1:
	.string	"pausemenu"
	.text
	.globl	main
	.hidden	main
	.type	main, @function
main:
.LFB3134:
	.file 5 "c:/Stage4/source/main.cpp"
	.loc 5 31 0
	.cfi_startproc
	pushl	%ebp
	.cfi_def_cfa_offset 8
	.cfi_offset 5, -8
	movl	%esp, %ebp
	.cfi_def_cfa_register 5
	pushl	%esi
	pushl	%ebx
	andl	$-16, %esp
	leal	-64(%esp), %esp
	.cfi_offset 6, -12
	.cfi_offset 3, -16
	call	__x86.get_pc_thunk.bx
	addl	$_GLOBAL_OFFSET_TABLE_, %ebx
.LBB8:
	.loc 5 33 0
	call	_Z8Iw2DInitv@PLT
	.loc 5 36 0
	movl	$128, (%esp)
	call	_Znwj@PLT
	movl	%eax, %esi
	movl	%esi, (%esp)
	call	_ZN9ResourcesC1Ev@PLT
	movl	g_pResources@GOT(%ebx), %eax
	movl	%esi, (%eax)
	.loc 5 39 0
	movl	$12, (%esp)
	call	_Znwj@PLT
	movl	%eax, %esi
	movl	%esi, (%esp)
	call	_ZN7IwTween13CTweenManagerC1Ev
	movl	%esi, g_pTweener@GOTOFF(%ebx)
	.loc 5 42 0
	movl	$12, (%esp)
	call	_Znwj@PLT
	movl	%eax, %esi
	movl	%esi, (%esp)
	call	_ZN5InputC1Ev@PLT
	movl	g_pInput@GOT(%ebx), %eax
	movl	%esi, (%eax)
	.loc 5 45 0
	movl	$4, (%esp)
	call	_Znwj@PLT
	movl	%eax, %esi
	movl	%esi, (%esp)
	call	_ZN5AudioC1Ev@PLT
	movl	g_pAudio@GOT(%ebx), %eax
	movl	%esi, (%eax)
	.loc 5 48 0
	movl	$12, (%esp)
	call	_Znwj@PLT
	movl	%eax, %esi
	movl	%esi, (%esp)
	call	_ZN12SceneManagerC1Ev@PLT
	movl	g_pSceneManager@GOT(%ebx), %eax
	movl	%esi, (%eax)
	.loc 5 51 0
	movl	$372, (%esp)
	call	_Znwj@PLT
	movl	%eax, %esi
	movl	%esi, (%esp)
	call	_ZN4GameC1Ev
	movl	%esi, 56(%esp)
	.loc 5 52 0
	movl	56(%esp), %eax
	leal	.LC0@GOTOFF(%ebx), %edx
	movl	%edx, 4(%esp)
	movl	%eax, (%esp)
	call	_ZN5Scene7SetNameEPKc@PLT
	.loc 5 53 0
	movl	56(%esp), %eax
	movl	(%eax), %eax
	leal	16(%eax), %eax
	movl	(%eax), %eax
	movl	56(%esp), %edx
	movl	%edx, (%esp)
	call	*%eax
	.loc 5 54 0
	movl	g_pSceneManager@GOT(%ebx), %eax
	movl	(%eax), %eax
	movl	56(%esp), %edx
	movl	%edx, 4(%esp)
	movl	%eax, (%esp)
	call	_ZN12SceneManager3AddEP5Scene@PLT
	.loc 5 55 0
	movl	56(%esp), %eax
	movl	%eax, (%esp)
	call	_ZN4Game7newGameEv@PLT
	.loc 5 64 0
	movl	$248, (%esp)
	call	_Znwj@PLT
	movl	%eax, %esi
	movl	%esi, (%esp)
	call	_ZN9PauseMenuC1Ev
	movl	%esi, 52(%esp)
	.loc 5 65 0
	movl	52(%esp), %eax
	leal	.LC1@GOTOFF(%ebx), %edx
	movl	%edx, 4(%esp)
	movl	%eax, (%esp)
	call	_ZN5Scene7SetNameEPKc@PLT
	.loc 5 66 0
	movl	52(%esp), %eax
	movl	(%eax), %eax
	leal	16(%eax), %eax
	movl	(%eax), %eax
	movl	52(%esp), %edx
	movl	%edx, (%esp)
	call	*%eax
	.loc 5 67 0
	movl	g_pSceneManager@GOT(%ebx), %eax
	movl	(%eax), %eax
	movl	52(%esp), %edx
	movl	%edx, 4(%esp)
	movl	%eax, (%esp)
	call	_ZN12SceneManager3AddEP5Scene@PLT
	.loc 5 70 0
	movl	g_pSceneManager@GOT(%ebx), %eax
	movl	(%eax), %eax
	movl	56(%esp), %edx
	movl	%edx, 4(%esp)
	movl	%eax, (%esp)
	call	_ZN12SceneManager8SwitchToEP5Scene@PLT
	.loc 5 73 0
	jmp	.L10
.L13:
.LBB9:
	.loc 5 75 0
	call	s3eTimerGetMs@PLT
	movl	%eax, 40(%esp)
	movl	%edx, 44(%esp)
	.loc 5 78 0
	movl	g_pInput@GOT(%ebx), %eax
	movl	(%eax), %eax
	movl	%eax, (%esp)
	call	_ZN5Input6UpdateEv@PLT
	.loc 5 81 0
	movl	g_pAudio@GOT(%ebx), %eax
	movl	(%eax), %eax
	movl	%eax, (%esp)
	call	_ZN5Audio6UpdateEv@PLT
	.loc 5 84 0
	movl	g_pTweener@GOTOFF(%ebx), %edx
	movl	.LC2@GOTOFF(%ebx), %eax
	movl	%eax, 4(%esp)
	movl	%edx, (%esp)
	call	_ZN7IwTween13CTweenManager6UpdateEf@PLT
	.loc 5 87 0
	movl	g_pSceneManager@GOT(%ebx), %eax
	movl	(%eax), %edx
	movl	.LC2@GOTOFF(%ebx), %eax
	movl	%eax, 4(%esp)
	movl	%edx, (%esp)
	call	_ZN12SceneManager6UpdateEf@PLT
	.loc 5 90 0
	movl	$-16777216, (%esp)
	call	_Z16Iw2DSurfaceClearj@PLT
	.loc 5 93 0
	movl	g_pSceneManager@GOT(%ebx), %eax
	movl	(%eax), %eax
	movl	%eax, (%esp)
	call	_ZN12SceneManager6RenderEv@PLT
	.loc 5 96 0
	call	_Z15Iw2DSurfaceShowv@PLT
	.loc 5 99 0
	call	s3eTimerGetMs@PLT
	subl	40(%esp), %eax
	sbbl	44(%esp), %edx
	movd	%eax, %xmm3
	movd	%edx, %xmm4
	punpckldq	%xmm4, %xmm3
	movq	%xmm3, 16(%esp)
	fildq	16(%esp)
	testl	%edx, %edx
	jns	.L11
	fldt	.LC3@GOTOFF(%ebx)
	faddp	%st, %st(1)
.L11:
	fstps	28(%esp)
	movss	28(%esp), %xmm0
	movl	.LC4@GOTOFF(%ebx), %eax
	movd	%eax, %xmm1
	subss	%xmm0, %xmm1
	movd	%xmm1, %eax
	movd	%eax, %xmm2
	cvttss2si	%xmm2, %eax
	movl	%eax, 60(%esp)
	.loc 5 100 0
	cmpl	$0, 60(%esp)
	jns	.L12
	.loc 5 101 0
	movl	$0, 60(%esp)
.L12:
	.loc 5 103 0
	movl	60(%esp), %eax
	movl	%eax, (%esp)
	call	s3eDeviceYield@PLT
.L10:
.LBE9:
	.loc 5 73 0 discriminator 1
	call	s3eDeviceCheckQuitRequest@PLT
	testb	%al, %al
	sete	%al
	testb	%al, %al
	jne	.L13
	.loc 5 107 0
	movl	g_pAudio@GOT(%ebx), %eax
	movl	(%eax), %esi
	testl	%esi, %esi
	je	.L14
	.loc 5 107 0 is_stmt 0 discriminator 1
	movl	%esi, (%esp)
	call	_ZN5AudioD1Ev@PLT
	movl	%esi, (%esp)
	call	_ZdlPv@PLT
.L14:
	.loc 5 108 0 is_stmt 1
	movl	g_pInput@GOT(%ebx), %eax
	movl	(%eax), %eax
	movl	%eax, (%esp)
	call	_ZdlPv@PLT
	.loc 5 109 0
	movl	g_pSceneManager@GOT(%ebx), %eax
	movl	(%eax), %esi
	testl	%esi, %esi
	je	.L15
	.loc 5 109 0 is_stmt 0 discriminator 1
	movl	%esi, (%esp)
	call	_ZN12SceneManagerD1Ev@PLT
	movl	%esi, (%esp)
	call	_ZdlPv@PLT
.L15:
	.loc 5 110 0 is_stmt 1
	movl	g_pTweener@GOTOFF(%ebx), %esi
	testl	%esi, %esi
	je	.L16
	.loc 5 110 0 is_stmt 0 discriminator 1
	movl	%esi, (%esp)
	call	_ZN7IwTween13CTweenManagerD1Ev
	movl	%esi, (%esp)
	call	_ZdlPv@PLT
.L16:
	.loc 5 111 0 is_stmt 1
	movl	g_pResources@GOT(%ebx), %eax
	movl	(%eax), %esi
	testl	%esi, %esi
	je	.L17
	.loc 5 111 0 is_stmt 0 discriminator 1
	movl	%esi, (%esp)
	call	_ZN9ResourcesD1Ev@PLT
	movl	%esi, (%esp)
	call	_ZdlPv@PLT
.L17:
	.loc 5 112 0 is_stmt 1
	call	_Z13Iw2DTerminatev@PLT
	.loc 5 114 0
	movl	$0, %eax
.LBE8:
	.loc 5 115 0
	leal	-8(%ebp), %esp
	popl	%ebx
	.cfi_restore 3
	popl	%esi
	.cfi_restore 6
	popl	%ebp
	.cfi_restore 5
	.cfi_def_cfa 4, 4
	ret
	.cfi_endproc
.LFE3134:
	.size	main, .-main
	.section	.text._ZN4_STL9allocatorIN7IwTween6CTween9ValueTypeEED2Ev,"axG",@progbits,_ZN4_STL9allocatorIN7IwTween6CTween9ValueTypeEED5Ev,comdat
	.align 2
	.weak	_ZN4_STL9allocatorIN7IwTween6CTween9ValueTypeEED2Ev
	.hidden	_ZN4_STL9allocatorIN7IwTween6CTween9ValueTypeEED2Ev
	.type	_ZN4_STL9allocatorIN7IwTween6CTween9ValueTypeEED2Ev, @function
_ZN4_STL9allocatorIN7IwTween6CTween9ValueTypeEED2Ev:
.LFB3200:
	.file 6 "c:/marmalade/7.5/s3e/h/std/c++/stl/_alloc.h"
	.loc 6 350 0
	.cfi_startproc
	pushl	%ebp
	.cfi_def_cfa_offset 8
	.cfi_offset 5, -8
	movl	%esp, %ebp
	.cfi_def_cfa_register 5
	.loc 6 350 0
	popl	%ebp
	.cfi_restore 5
	.cfi_def_cfa 4, 4
	ret
	.cfi_endproc
.LFE3200:
	.size	_ZN4_STL9allocatorIN7IwTween6CTween9ValueTypeEED2Ev, .-_ZN4_STL9allocatorIN7IwTween6CTween9ValueTypeEED2Ev
	.weak	_ZN4_STL9allocatorIN7IwTween6CTween9ValueTypeEED1Ev
	.hidden	_ZN4_STL9allocatorIN7IwTween6CTween9ValueTypeEED1Ev
	.set	_ZN4_STL9allocatorIN7IwTween6CTween9ValueTypeEED1Ev,_ZN4_STL9allocatorIN7IwTween6CTween9ValueTypeEED2Ev
	.section	.text._ZN4_STL6vectorIN7IwTween6CTween9ValueTypeENS_9allocatorIS3_EEED2Ev,"axG",@progbits,_ZN4_STL6vectorIN7IwTween6CTween9ValueTypeENS_9allocatorIS3_EEED5Ev,comdat
	.align 2
	.weak	_ZN4_STL6vectorIN7IwTween6CTween9ValueTypeENS_9allocatorIS3_EEED2Ev
	.hidden	_ZN4_STL6vectorIN7IwTween6CTween9ValueTypeENS_9allocatorIS3_EEED2Ev
	.type	_ZN4_STL6vectorIN7IwTween6CTween9ValueTypeENS_9allocatorIS3_EEED2Ev, @function
_ZN4_STL6vectorIN7IwTween6CTween9ValueTypeENS_9allocatorIS3_EEED2Ev:
.LFB3206:
	.file 7 "c:/marmalade/7.5/s3e/h/std/c++/stl/_vector.h"
	.loc 7 258 0
	.cfi_startproc
	pushl	%ebp
	.cfi_def_cfa_offset 8
	.cfi_offset 5, -8
	leal	(%esp), %ebp
	.cfi_def_cfa_register 5
	leal	-24(%esp), %esp
.LBB10:
	.loc 7 258 0
	movl	8(%ebp), %eax
	movl	4(%eax), %edx
	movl	8(%ebp), %eax
	movl	(%eax), %eax
	movl	%edx, 4(%esp)
	movl	%eax, (%esp)
	call	_ZN4_STL8_DestroyIPN7IwTween6CTween9ValueTypeEEEvT_S5_
	movl	8(%ebp), %eax
	movl	%eax, (%esp)
	call	_ZN4_STL12_Vector_baseIN7IwTween6CTween9ValueTypeENS_9allocatorIS3_EEED2Ev
.LBE10:
	leave
	.cfi_restore 5
	.cfi_def_cfa 4, 4
	ret
	.cfi_endproc
.LFE3206:
	.size	_ZN4_STL6vectorIN7IwTween6CTween9ValueTypeENS_9allocatorIS3_EEED2Ev, .-_ZN4_STL6vectorIN7IwTween6CTween9ValueTypeENS_9allocatorIS3_EEED2Ev
	.weak	_ZN4_STL6vectorIN7IwTween6CTween9ValueTypeENS_9allocatorIS3_EEED1Ev
	.hidden	_ZN4_STL6vectorIN7IwTween6CTween9ValueTypeENS_9allocatorIS3_EEED1Ev
	.set	_ZN4_STL6vectorIN7IwTween6CTween9ValueTypeENS_9allocatorIS3_EEED1Ev,_ZN4_STL6vectorIN7IwTween6CTween9ValueTypeENS_9allocatorIS3_EEED2Ev
	.section	.text._ZN4_STL9allocatorIN7IwTween6CTweenEEC2Ev,"axG",@progbits,_ZN4_STL9allocatorIN7IwTween6CTweenEEC5Ev,comdat
	.align 2
	.weak	_ZN4_STL9allocatorIN7IwTween6CTweenEEC2Ev
	.hidden	_ZN4_STL9allocatorIN7IwTween6CTweenEEC2Ev
	.type	_ZN4_STL9allocatorIN7IwTween6CTweenEEC2Ev, @function
_ZN4_STL9allocatorIN7IwTween6CTweenEEC2Ev:
.LFB3209:
	.loc 6 345 0
	.cfi_startproc
	pushl	%ebp
	.cfi_def_cfa_offset 8
	.cfi_offset 5, -8
	movl	%esp, %ebp
	.cfi_def_cfa_register 5
	.loc 6 345 0
	popl	%ebp
	.cfi_restore 5
	.cfi_def_cfa 4, 4
	ret
	.cfi_endproc
.LFE3209:
	.size	_ZN4_STL9allocatorIN7IwTween6CTweenEEC2Ev, .-_ZN4_STL9allocatorIN7IwTween6CTweenEEC2Ev
	.weak	_ZN4_STL9allocatorIN7IwTween6CTweenEEC1Ev
	.hidden	_ZN4_STL9allocatorIN7IwTween6CTweenEEC1Ev
	.set	_ZN4_STL9allocatorIN7IwTween6CTweenEEC1Ev,_ZN4_STL9allocatorIN7IwTween6CTweenEEC2Ev
	.section	.text._ZN4_STL9allocatorIN7IwTween6CTweenEED2Ev,"axG",@progbits,_ZN4_STL9allocatorIN7IwTween6CTweenEED5Ev,comdat
	.align 2
	.weak	_ZN4_STL9allocatorIN7IwTween6CTweenEED2Ev
	.hidden	_ZN4_STL9allocatorIN7IwTween6CTweenEED2Ev
	.type	_ZN4_STL9allocatorIN7IwTween6CTweenEED2Ev, @function
_ZN4_STL9allocatorIN7IwTween6CTweenEED2Ev:
.LFB3212:
	.loc 6 350 0
	.cfi_startproc
	pushl	%ebp
	.cfi_def_cfa_offset 8
	.cfi_offset 5, -8
	movl	%esp, %ebp
	.cfi_def_cfa_register 5
	.loc 6 350 0
	popl	%ebp
	.cfi_restore 5
	.cfi_def_cfa 4, 4
	ret
	.cfi_endproc
.LFE3212:
	.size	_ZN4_STL9allocatorIN7IwTween6CTweenEED2Ev, .-_ZN4_STL9allocatorIN7IwTween6CTweenEED2Ev
	.weak	_ZN4_STL9allocatorIN7IwTween6CTweenEED1Ev
	.hidden	_ZN4_STL9allocatorIN7IwTween6CTweenEED1Ev
	.set	_ZN4_STL9allocatorIN7IwTween6CTweenEED1Ev,_ZN4_STL9allocatorIN7IwTween6CTweenEED2Ev
	.section	.text._ZN4_STL6vectorIN7IwTween6CTweenENS_9allocatorIS2_EEEC2ERKS4_,"axG",@progbits,_ZN4_STL6vectorIN7IwTween6CTweenENS_9allocatorIS2_EEEC5ERKS4_,comdat
	.align 2
	.weak	_ZN4_STL6vectorIN7IwTween6CTweenENS_9allocatorIS2_EEEC2ERKS4_
	.hidden	_ZN4_STL6vectorIN7IwTween6CTweenENS_9allocatorIS2_EEEC2ERKS4_
	.type	_ZN4_STL6vectorIN7IwTween6CTweenENS_9allocatorIS2_EEEC2ERKS4_, @function
_ZN4_STL6vectorIN7IwTween6CTweenENS_9allocatorIS2_EEEC2ERKS4_:
.LFB3215:
	.loc 7 198 0
	.cfi_startproc
	pushl	%ebp
	.cfi_def_cfa_offset 8
	.cfi_offset 5, -8
	leal	(%esp), %ebp
	.cfi_def_cfa_register 5
	leal	-24(%esp), %esp
.LBB11:
	.loc 7 199 0
	movl	8(%ebp), %eax
	movl	12(%ebp), %edx
	movl	%edx, 4(%esp)
	movl	%eax, (%esp)
	call	_ZN4_STL12_Vector_baseIN7IwTween6CTweenENS_9allocatorIS2_EEEC2ERKS4_
.LBE11:
	leave
	.cfi_restore 5
	.cfi_def_cfa 4, 4
	ret
	.cfi_endproc
.LFE3215:
	.size	_ZN4_STL6vectorIN7IwTween6CTweenENS_9allocatorIS2_EEEC2ERKS4_, .-_ZN4_STL6vectorIN7IwTween6CTweenENS_9allocatorIS2_EEEC2ERKS4_
	.weak	_ZN4_STL6vectorIN7IwTween6CTweenENS_9allocatorIS2_EEEC1ERKS4_
	.hidden	_ZN4_STL6vectorIN7IwTween6CTweenENS_9allocatorIS2_EEEC1ERKS4_
	.set	_ZN4_STL6vectorIN7IwTween6CTweenENS_9allocatorIS2_EEEC1ERKS4_,_ZN4_STL6vectorIN7IwTween6CTweenENS_9allocatorIS2_EEEC2ERKS4_
	.section	.text._ZN4_STL6vectorIN7IwTween6CTweenENS_9allocatorIS2_EEED2Ev,"axG",@progbits,_ZN4_STL6vectorIN7IwTween6CTweenENS_9allocatorIS2_EEED5Ev,comdat
	.align 2
	.weak	_ZN4_STL6vectorIN7IwTween6CTweenENS_9allocatorIS2_EEED2Ev
	.hidden	_ZN4_STL6vectorIN7IwTween6CTweenENS_9allocatorIS2_EEED2Ev
	.type	_ZN4_STL6vectorIN7IwTween6CTweenENS_9allocatorIS2_EEED2Ev, @function
_ZN4_STL6vectorIN7IwTween6CTweenENS_9allocatorIS2_EEED2Ev:
.LFB3218:
	.loc 7 258 0
	.cfi_startproc
	pushl	%ebp
	.cfi_def_cfa_offset 8
	.cfi_offset 5, -8
	leal	(%esp), %ebp
	.cfi_def_cfa_register 5
	leal	-24(%esp), %esp
.LBB12:
	.loc 7 258 0
	movl	8(%ebp), %eax
	movl	4(%eax), %edx
	movl	8(%ebp), %eax
	movl	(%eax), %eax
	movl	%edx, 4(%esp)
	movl	%eax, (%esp)
	call	_ZN4_STL8_DestroyIPN7IwTween6CTweenEEEvT_S4_
	movl	8(%ebp), %eax
	movl	%eax, (%esp)
	call	_ZN4_STL12_Vector_baseIN7IwTween6CTweenENS_9allocatorIS2_EEED2Ev
.LBE12:
	leave
	.cfi_restore 5
	.cfi_def_cfa 4, 4
	ret
	.cfi_endproc
.LFE3218:
	.size	_ZN4_STL6vectorIN7IwTween6CTweenENS_9allocatorIS2_EEED2Ev, .-_ZN4_STL6vectorIN7IwTween6CTweenENS_9allocatorIS2_EEED2Ev
	.weak	_ZN4_STL6vectorIN7IwTween6CTweenENS_9allocatorIS2_EEED1Ev
	.hidden	_ZN4_STL6vectorIN7IwTween6CTweenENS_9allocatorIS2_EEED1Ev
	.set	_ZN4_STL6vectorIN7IwTween6CTweenENS_9allocatorIS2_EEED1Ev,_ZN4_STL6vectorIN7IwTween6CTweenENS_9allocatorIS2_EEED2Ev
	.section	.text._ZN4_STL9allocatorIPN14Iw2DSceneGraph7CSpriteEEC2Ev,"axG",@progbits,_ZN4_STL9allocatorIPN14Iw2DSceneGraph7CSpriteEEC5Ev,comdat
	.align 2
	.weak	_ZN4_STL9allocatorIPN14Iw2DSceneGraph7CSpriteEEC2Ev
	.hidden	_ZN4_STL9allocatorIPN14Iw2DSceneGraph7CSpriteEEC2Ev
	.type	_ZN4_STL9allocatorIPN14Iw2DSceneGraph7CSpriteEEC2Ev, @function
_ZN4_STL9allocatorIPN14Iw2DSceneGraph7CSpriteEEC2Ev:
.LFB3248:
	.loc 6 345 0
	.cfi_startproc
	pushl	%ebp
	.cfi_def_cfa_offset 8
	.cfi_offset 5, -8
	movl	%esp, %ebp
	.cfi_def_cfa_register 5
	.loc 6 345 0
	popl	%ebp
	.cfi_restore 5
	.cfi_def_cfa 4, 4
	ret
	.cfi_endproc
.LFE3248:
	.size	_ZN4_STL9allocatorIPN14Iw2DSceneGraph7CSpriteEEC2Ev, .-_ZN4_STL9allocatorIPN14Iw2DSceneGraph7CSpriteEEC2Ev
	.weak	_ZN4_STL9allocatorIPN14Iw2DSceneGraph7CSpriteEEC1Ev
	.hidden	_ZN4_STL9allocatorIPN14Iw2DSceneGraph7CSpriteEEC1Ev
	.set	_ZN4_STL9allocatorIPN14Iw2DSceneGraph7CSpriteEEC1Ev,_ZN4_STL9allocatorIPN14Iw2DSceneGraph7CSpriteEEC2Ev
	.section	.text._ZN4_STL9allocatorIPN14Iw2DSceneGraph7CSpriteEED2Ev,"axG",@progbits,_ZN4_STL9allocatorIPN14Iw2DSceneGraph7CSpriteEED5Ev,comdat
	.align 2
	.weak	_ZN4_STL9allocatorIPN14Iw2DSceneGraph7CSpriteEED2Ev
	.hidden	_ZN4_STL9allocatorIPN14Iw2DSceneGraph7CSpriteEED2Ev
	.type	_ZN4_STL9allocatorIPN14Iw2DSceneGraph7CSpriteEED2Ev, @function
_ZN4_STL9allocatorIPN14Iw2DSceneGraph7CSpriteEED2Ev:
.LFB3251:
	.loc 6 350 0
	.cfi_startproc
	pushl	%ebp
	.cfi_def_cfa_offset 8
	.cfi_offset 5, -8
	movl	%esp, %ebp
	.cfi_def_cfa_register 5
	.loc 6 350 0
	popl	%ebp
	.cfi_restore 5
	.cfi_def_cfa 4, 4
	ret
	.cfi_endproc
.LFE3251:
	.size	_ZN4_STL9allocatorIPN14Iw2DSceneGraph7CSpriteEED2Ev, .-_ZN4_STL9allocatorIPN14Iw2DSceneGraph7CSpriteEED2Ev
	.weak	_ZN4_STL9allocatorIPN14Iw2DSceneGraph7CSpriteEED1Ev
	.hidden	_ZN4_STL9allocatorIPN14Iw2DSceneGraph7CSpriteEED1Ev
	.set	_ZN4_STL9allocatorIPN14Iw2DSceneGraph7CSpriteEED1Ev,_ZN4_STL9allocatorIPN14Iw2DSceneGraph7CSpriteEED2Ev
	.section	.text._ZN4_STL6vectorIPN14Iw2DSceneGraph7CSpriteENS_9allocatorIS3_EEEC2ERKS5_,"axG",@progbits,_ZN4_STL6vectorIPN14Iw2DSceneGraph7CSpriteENS_9allocatorIS3_EEEC5ERKS5_,comdat
	.align 2
	.weak	_ZN4_STL6vectorIPN14Iw2DSceneGraph7CSpriteENS_9allocatorIS3_EEEC2ERKS5_
	.hidden	_ZN4_STL6vectorIPN14Iw2DSceneGraph7CSpriteENS_9allocatorIS3_EEEC2ERKS5_
	.type	_ZN4_STL6vectorIPN14Iw2DSceneGraph7CSpriteENS_9allocatorIS3_EEEC2ERKS5_, @function
_ZN4_STL6vectorIPN14Iw2DSceneGraph7CSpriteENS_9allocatorIS3_EEEC2ERKS5_:
.LFB3254:
	.loc 7 198 0
	.cfi_startproc
	pushl	%ebp
	.cfi_def_cfa_offset 8
	.cfi_offset 5, -8
	leal	(%esp), %ebp
	.cfi_def_cfa_register 5
	leal	-24(%esp), %esp
.LBB13:
	.loc 7 199 0
	movl	8(%ebp), %eax
	movl	12(%ebp), %edx
	movl	%edx, 4(%esp)
	movl	%eax, (%esp)
	call	_ZN4_STL12_Vector_baseIPN14Iw2DSceneGraph7CSpriteENS_9allocatorIS3_EEEC2ERKS5_
.LBE13:
	leave
	.cfi_restore 5
	.cfi_def_cfa 4, 4
	ret
	.cfi_endproc
.LFE3254:
	.size	_ZN4_STL6vectorIPN14Iw2DSceneGraph7CSpriteENS_9allocatorIS3_EEEC2ERKS5_, .-_ZN4_STL6vectorIPN14Iw2DSceneGraph7CSpriteENS_9allocatorIS3_EEEC2ERKS5_
	.weak	_ZN4_STL6vectorIPN14Iw2DSceneGraph7CSpriteENS_9allocatorIS3_EEEC1ERKS5_
	.hidden	_ZN4_STL6vectorIPN14Iw2DSceneGraph7CSpriteENS_9allocatorIS3_EEEC1ERKS5_
	.set	_ZN4_STL6vectorIPN14Iw2DSceneGraph7CSpriteENS_9allocatorIS3_EEEC1ERKS5_,_ZN4_STL6vectorIPN14Iw2DSceneGraph7CSpriteENS_9allocatorIS3_EEEC2ERKS5_
	.section	.text._ZN4_STL9allocatorIbEC2Ev,"axG",@progbits,_ZN4_STL9allocatorIbEC5Ev,comdat
	.align 2
	.weak	_ZN4_STL9allocatorIbEC2Ev
	.hidden	_ZN4_STL9allocatorIbEC2Ev
	.type	_ZN4_STL9allocatorIbEC2Ev, @function
_ZN4_STL9allocatorIbEC2Ev:
.LFB3260:
	.loc 6 345 0
	.cfi_startproc
	pushl	%ebp
	.cfi_def_cfa_offset 8
	.cfi_offset 5, -8
	movl	%esp, %ebp
	.cfi_def_cfa_register 5
	.loc 6 345 0
	popl	%ebp
	.cfi_restore 5
	.cfi_def_cfa 4, 4
	ret
	.cfi_endproc
.LFE3260:
	.size	_ZN4_STL9allocatorIbEC2Ev, .-_ZN4_STL9allocatorIbEC2Ev
	.weak	_ZN4_STL9allocatorIbEC1Ev
	.hidden	_ZN4_STL9allocatorIbEC1Ev
	.set	_ZN4_STL9allocatorIbEC1Ev,_ZN4_STL9allocatorIbEC2Ev
	.section	.text._ZN4_STL9allocatorIbED2Ev,"axG",@progbits,_ZN4_STL9allocatorIbED5Ev,comdat
	.align 2
	.weak	_ZN4_STL9allocatorIbED2Ev
	.hidden	_ZN4_STL9allocatorIbED2Ev
	.type	_ZN4_STL9allocatorIbED2Ev, @function
_ZN4_STL9allocatorIbED2Ev:
.LFB3263:
	.loc 6 350 0
	.cfi_startproc
	pushl	%ebp
	.cfi_def_cfa_offset 8
	.cfi_offset 5, -8
	movl	%esp, %ebp
	.cfi_def_cfa_register 5
	.loc 6 350 0
	popl	%ebp
	.cfi_restore 5
	.cfi_def_cfa 4, 4
	ret
	.cfi_endproc
.LFE3263:
	.size	_ZN4_STL9allocatorIbED2Ev, .-_ZN4_STL9allocatorIbED2Ev
	.weak	_ZN4_STL9allocatorIbED1Ev
	.hidden	_ZN4_STL9allocatorIbED1Ev
	.set	_ZN4_STL9allocatorIbED1Ev,_ZN4_STL9allocatorIbED2Ev
	.section	.text._ZN4_STL6vectorIbNS_9allocatorIbEEEC2ERKS2_,"axG",@progbits,_ZN4_STL6vectorIbNS_9allocatorIbEEEC5ERKS2_,comdat
	.align 2
	.weak	_ZN4_STL6vectorIbNS_9allocatorIbEEEC2ERKS2_
	.hidden	_ZN4_STL6vectorIbNS_9allocatorIbEEEC2ERKS2_
	.type	_ZN4_STL6vectorIbNS_9allocatorIbEEEC2ERKS2_, @function
_ZN4_STL6vectorIbNS_9allocatorIbEEEC2ERKS2_:
.LFB3266:
	.loc 1 474 0
	.cfi_startproc
	pushl	%ebp
	.cfi_def_cfa_offset 8
	.cfi_offset 5, -8
	leal	(%esp), %ebp
	.cfi_def_cfa_register 5
	leal	-24(%esp), %esp
.LBB14:
	.loc 1 475 0
	movl	8(%ebp), %eax
	movl	12(%ebp), %edx
	movl	%edx, 4(%esp)
	movl	%eax, (%esp)
	call	_ZN4_STL13_Bvector_baseINS_9allocatorIbEEEC2ERKS2_
.LBE14:
	leave
	.cfi_restore 5
	.cfi_def_cfa 4, 4
	ret
	.cfi_endproc
.LFE3266:
	.size	_ZN4_STL6vectorIbNS_9allocatorIbEEEC2ERKS2_, .-_ZN4_STL6vectorIbNS_9allocatorIbEEEC2ERKS2_
	.weak	_ZN4_STL6vectorIbNS_9allocatorIbEEEC1ERKS2_
	.hidden	_ZN4_STL6vectorIbNS_9allocatorIbEEEC1ERKS2_
	.set	_ZN4_STL6vectorIbNS_9allocatorIbEEEC1ERKS2_,_ZN4_STL6vectorIbNS_9allocatorIbEEEC2ERKS2_
	.section	.text._ZN4_STL17_STLP_alloc_proxyIPN7IwTween6CTween9ValueTypeES3_NS_9allocatorIS3_EEED2Ev,"axG",@progbits,_ZN4_STL17_STLP_alloc_proxyIPN7IwTween6CTween9ValueTypeES3_NS_9allocatorIS3_EEED5Ev,comdat
	.align 2
	.weak	_ZN4_STL17_STLP_alloc_proxyIPN7IwTween6CTween9ValueTypeES3_NS_9allocatorIS3_EEED2Ev
	.hidden	_ZN4_STL17_STLP_alloc_proxyIPN7IwTween6CTween9ValueTypeES3_NS_9allocatorIS3_EEED2Ev
	.type	_ZN4_STL17_STLP_alloc_proxyIPN7IwTween6CTween9ValueTypeES3_NS_9allocatorIS3_EEED2Ev, @function
_ZN4_STL17_STLP_alloc_proxyIPN7IwTween6CTween9ValueTypeES3_NS_9allocatorIS3_EEED2Ev:
.LFB3296:
	.loc 6 481 0
	.cfi_startproc
	pushl	%ebp
	.cfi_def_cfa_offset 8
	.cfi_offset 5, -8
	leal	(%esp), %ebp
	.cfi_def_cfa_register 5
	leal	-24(%esp), %esp
.LBB15:
	.loc 6 481 0
	movl	8(%ebp), %eax
	movl	%eax, (%esp)
	call	_ZN4_STL9allocatorIN7IwTween6CTween9ValueTypeEED2Ev
.LBE15:
	leave
	.cfi_restore 5
	.cfi_def_cfa 4, 4
	ret
	.cfi_endproc
.LFE3296:
	.size	_ZN4_STL17_STLP_alloc_proxyIPN7IwTween6CTween9ValueTypeES3_NS_9allocatorIS3_EEED2Ev, .-_ZN4_STL17_STLP_alloc_proxyIPN7IwTween6CTween9ValueTypeES3_NS_9allocatorIS3_EEED2Ev
	.weak	_ZN4_STL17_STLP_alloc_proxyIPN7IwTween6CTween9ValueTypeES3_NS_9allocatorIS3_EEED1Ev
	.hidden	_ZN4_STL17_STLP_alloc_proxyIPN7IwTween6CTween9ValueTypeES3_NS_9allocatorIS3_EEED1Ev
	.set	_ZN4_STL17_STLP_alloc_proxyIPN7IwTween6CTween9ValueTypeES3_NS_9allocatorIS3_EEED1Ev,_ZN4_STL17_STLP_alloc_proxyIPN7IwTween6CTween9ValueTypeES3_NS_9allocatorIS3_EEED2Ev
	.section	.text._ZN4_STL12_Vector_baseIN7IwTween6CTween9ValueTypeENS_9allocatorIS3_EEED2Ev,"axG",@progbits,_ZN4_STL12_Vector_baseIN7IwTween6CTween9ValueTypeENS_9allocatorIS3_EEED5Ev,comdat
	.align 2
	.weak	_ZN4_STL12_Vector_baseIN7IwTween6CTween9ValueTypeENS_9allocatorIS3_EEED2Ev
	.hidden	_ZN4_STL12_Vector_baseIN7IwTween6CTween9ValueTypeENS_9allocatorIS3_EEED2Ev
	.type	_ZN4_STL12_Vector_baseIN7IwTween6CTween9ValueTypeENS_9allocatorIS3_EEED2Ev, @function
_ZN4_STL12_Vector_baseIN7IwTween6CTween9ValueTypeENS_9allocatorIS3_EEED2Ev:
.LFB3301:
	.loc 7 83 0
	.cfi_startproc
	pushl	%ebp
	.cfi_def_cfa_offset 8
	.cfi_offset 5, -8
	leal	(%esp), %ebp
	.cfi_def_cfa_register 5
	leal	-24(%esp), %esp
.LBB16:
	.loc 7 84 0
	movl	8(%ebp), %eax
	movl	(%eax), %eax
	testl	%eax, %eax
	je	.L40
	.loc 7 85 0
	movl	8(%ebp), %eax
	movl	8(%eax), %eax
	movl	%eax, %edx
	movl	8(%ebp), %eax
	movl	(%eax), %eax
	subl	%eax, %edx
	movl	%edx, %eax
	sarl	$4, %eax
	movl	%eax, %edx
	movl	8(%ebp), %eax
	movl	(%eax), %eax
	movl	8(%ebp), %ecx
	addl	$8, %ecx
	movl	%edx, 8(%esp)
	movl	%eax, 4(%esp)
	movl	%ecx, (%esp)
	call	_ZN4_STL9allocatorIN7IwTween6CTween9ValueTypeEE10deallocateEPS3_j
.L40:
	.loc 7 86 0
	movl	8(%ebp), %eax
	addl	$8, %eax
	movl	%eax, (%esp)
	call	_ZN4_STL17_STLP_alloc_proxyIPN7IwTween6CTween9ValueTypeES3_NS_9allocatorIS3_EEED1Ev
.LBE16:
	leave
	.cfi_restore 5
	.cfi_def_cfa 4, 4
	ret
	.cfi_endproc
.LFE3301:
	.size	_ZN4_STL12_Vector_baseIN7IwTween6CTween9ValueTypeENS_9allocatorIS3_EEED2Ev, .-_ZN4_STL12_Vector_baseIN7IwTween6CTween9ValueTypeENS_9allocatorIS3_EEED2Ev
	.weak	_ZN4_STL12_Vector_baseIN7IwTween6CTween9ValueTypeENS_9allocatorIS3_EEED1Ev
	.hidden	_ZN4_STL12_Vector_baseIN7IwTween6CTween9ValueTypeENS_9allocatorIS3_EEED1Ev
	.set	_ZN4_STL12_Vector_baseIN7IwTween6CTween9ValueTypeENS_9allocatorIS3_EEED1Ev,_ZN4_STL12_Vector_baseIN7IwTween6CTween9ValueTypeENS_9allocatorIS3_EEED2Ev
	.section	.text._ZN4_STL8_DestroyIPN7IwTween6CTween9ValueTypeEEEvT_S5_,"axG",@progbits,_ZN4_STL8_DestroyIPN7IwTween6CTween9ValueTypeEEEvT_S5_,comdat
	.weak	_ZN4_STL8_DestroyIPN7IwTween6CTween9ValueTypeEEEvT_S5_
	.hidden	_ZN4_STL8_DestroyIPN7IwTween6CTween9ValueTypeEEEvT_S5_
	.type	_ZN4_STL8_DestroyIPN7IwTween6CTween9ValueTypeEEEvT_S5_, @function
_ZN4_STL8_DestroyIPN7IwTween6CTween9ValueTypeEEEvT_S5_:
.LFB3303:
	.file 8 "c:/marmalade/7.5/s3e/h/std/c++/stl/_construct.h"
	.loc 8 138 0
	.cfi_startproc
	pushl	%ebp
	.cfi_def_cfa_offset 8
	.cfi_offset 5, -8
	movl	%esp, %ebp
	.cfi_def_cfa_register 5
	leal	-24(%esp), %esp
	.loc 8 139 0
	movl	$0, 8(%esp)
	movl	12(%ebp), %eax
	movl	%eax, 4(%esp)
	movl	8(%ebp), %eax
	movl	%eax, (%esp)
	call	_ZN4_STL9__destroyIPN7IwTween6CTween9ValueTypeES3_EEvT_S5_PT0_
	.loc 8 140 0
	leave
	.cfi_restore 5
	.cfi_def_cfa 4, 4
	ret
	.cfi_endproc
.LFE3303:
	.size	_ZN4_STL8_DestroyIPN7IwTween6CTween9ValueTypeEEEvT_S5_, .-_ZN4_STL8_DestroyIPN7IwTween6CTween9ValueTypeEEEvT_S5_
	.section	.text._ZN4_STL17_STLP_alloc_proxyIPN7IwTween6CTweenES2_NS_9allocatorIS2_EEED2Ev,"axG",@progbits,_ZN4_STL17_STLP_alloc_proxyIPN7IwTween6CTweenES2_NS_9allocatorIS2_EEED5Ev,comdat
	.align 2
	.weak	_ZN4_STL17_STLP_alloc_proxyIPN7IwTween6CTweenES2_NS_9allocatorIS2_EEED2Ev
	.hidden	_ZN4_STL17_STLP_alloc_proxyIPN7IwTween6CTweenES2_NS_9allocatorIS2_EEED2Ev
	.type	_ZN4_STL17_STLP_alloc_proxyIPN7IwTween6CTweenES2_NS_9allocatorIS2_EEED2Ev, @function
_ZN4_STL17_STLP_alloc_proxyIPN7IwTween6CTweenES2_NS_9allocatorIS2_EEED2Ev:
.LFB3306:
	.loc 6 481 0
	.cfi_startproc
	pushl	%ebp
	.cfi_def_cfa_offset 8
	.cfi_offset 5, -8
	leal	(%esp), %ebp
	.cfi_def_cfa_register 5
	leal	-24(%esp), %esp
.LBB17:
	.loc 6 481 0
	movl	8(%ebp), %eax
	movl	%eax, (%esp)
	call	_ZN4_STL9allocatorIN7IwTween6CTweenEED2Ev
.LBE17:
	leave
	.cfi_restore 5
	.cfi_def_cfa 4, 4
	ret
	.cfi_endproc
.LFE3306:
	.size	_ZN4_STL17_STLP_alloc_proxyIPN7IwTween6CTweenES2_NS_9allocatorIS2_EEED2Ev, .-_ZN4_STL17_STLP_alloc_proxyIPN7IwTween6CTweenES2_NS_9allocatorIS2_EEED2Ev
	.weak	_ZN4_STL17_STLP_alloc_proxyIPN7IwTween6CTweenES2_NS_9allocatorIS2_EEED1Ev
	.hidden	_ZN4_STL17_STLP_alloc_proxyIPN7IwTween6CTweenES2_NS_9allocatorIS2_EEED1Ev
	.set	_ZN4_STL17_STLP_alloc_proxyIPN7IwTween6CTweenES2_NS_9allocatorIS2_EEED1Ev,_ZN4_STL17_STLP_alloc_proxyIPN7IwTween6CTweenES2_NS_9allocatorIS2_EEED2Ev
	.section	.text._ZN4_STL12_Vector_baseIN7IwTween6CTweenENS_9allocatorIS2_EEEC2ERKS4_,"axG",@progbits,_ZN4_STL12_Vector_baseIN7IwTween6CTweenENS_9allocatorIS2_EEEC5ERKS4_,comdat
	.align 2
	.weak	_ZN4_STL12_Vector_baseIN7IwTween6CTweenENS_9allocatorIS2_EEEC2ERKS4_
	.hidden	_ZN4_STL12_Vector_baseIN7IwTween6CTweenENS_9allocatorIS2_EEEC2ERKS4_
	.type	_ZN4_STL12_Vector_baseIN7IwTween6CTweenENS_9allocatorIS2_EEEC2ERKS4_, @function
_ZN4_STL12_Vector_baseIN7IwTween6CTweenENS_9allocatorIS2_EEEC2ERKS4_:
.LFB3308:
	.loc 7 71 0
	.cfi_startproc
	pushl	%ebp
	.cfi_def_cfa_offset 8
	.cfi_offset 5, -8
	leal	(%esp), %ebp
	.cfi_def_cfa_register 5
	leal	-24(%esp), %esp
.LBB18:
	.loc 7 72 0
	movl	8(%ebp), %eax
	movl	$0, (%eax)
	movl	8(%ebp), %eax
	movl	$0, 4(%eax)
	movl	8(%ebp), %eax
	movl	%eax, %edx
	addl	$8, %edx
	movl	$0, 8(%esp)
	movl	12(%ebp), %eax
	movl	%eax, 4(%esp)
	movl	%edx, (%esp)
	call	_ZN4_STL17_STLP_alloc_proxyIPN7IwTween6CTweenES2_NS_9allocatorIS2_EEEC1ERKS5_S3_
.LBE18:
	.loc 7 73 0
	leave
	.cfi_restore 5
	.cfi_def_cfa 4, 4
	ret
	.cfi_endproc
.LFE3308:
	.size	_ZN4_STL12_Vector_baseIN7IwTween6CTweenENS_9allocatorIS2_EEEC2ERKS4_, .-_ZN4_STL12_Vector_baseIN7IwTween6CTweenENS_9allocatorIS2_EEEC2ERKS4_
	.weak	_ZN4_STL12_Vector_baseIN7IwTween6CTweenENS_9allocatorIS2_EEEC1ERKS4_
	.hidden	_ZN4_STL12_Vector_baseIN7IwTween6CTweenENS_9allocatorIS2_EEEC1ERKS4_
	.set	_ZN4_STL12_Vector_baseIN7IwTween6CTweenENS_9allocatorIS2_EEEC1ERKS4_,_ZN4_STL12_Vector_baseIN7IwTween6CTweenENS_9allocatorIS2_EEEC2ERKS4_
	.section	.text._ZN4_STL12_Vector_baseIN7IwTween6CTweenENS_9allocatorIS2_EEED2Ev,"axG",@progbits,_ZN4_STL12_Vector_baseIN7IwTween6CTweenENS_9allocatorIS2_EEED5Ev,comdat
	.align 2
	.weak	_ZN4_STL12_Vector_baseIN7IwTween6CTweenENS_9allocatorIS2_EEED2Ev
	.hidden	_ZN4_STL12_Vector_baseIN7IwTween6CTweenENS_9allocatorIS2_EEED2Ev
	.type	_ZN4_STL12_Vector_baseIN7IwTween6CTweenENS_9allocatorIS2_EEED2Ev, @function
_ZN4_STL12_Vector_baseIN7IwTween6CTweenENS_9allocatorIS2_EEED2Ev:
.LFB3311:
	.loc 7 83 0
	.cfi_startproc
	pushl	%ebp
	.cfi_def_cfa_offset 8
	.cfi_offset 5, -8
	leal	(%esp), %ebp
	.cfi_def_cfa_register 5
	leal	-24(%esp), %esp
.LBB19:
	.loc 7 84 0
	movl	8(%ebp), %eax
	movl	(%eax), %eax
	testl	%eax, %eax
	je	.L47
	.loc 7 85 0
	movl	8(%ebp), %eax
	movl	8(%eax), %eax
	movl	%eax, %edx
	movl	8(%ebp), %eax
	movl	(%eax), %eax
	subl	%eax, %edx
	movl	%edx, %eax
	sarl	$2, %eax
	imull	$-286331153, %eax, %eax
	movl	%eax, %edx
	movl	8(%ebp), %eax
	movl	(%eax), %eax
	movl	8(%ebp), %ecx
	addl	$8, %ecx
	movl	%edx, 8(%esp)
	movl	%eax, 4(%esp)
	movl	%ecx, (%esp)
	call	_ZN4_STL9allocatorIN7IwTween6CTweenEE10deallocateEPS2_j
.L47:
	.loc 7 86 0
	movl	8(%ebp), %eax
	addl	$8, %eax
	movl	%eax, (%esp)
	call	_ZN4_STL17_STLP_alloc_proxyIPN7IwTween6CTweenES2_NS_9allocatorIS2_EEED1Ev
.LBE19:
	leave
	.cfi_restore 5
	.cfi_def_cfa 4, 4
	ret
	.cfi_endproc
.LFE3311:
	.size	_ZN4_STL12_Vector_baseIN7IwTween6CTweenENS_9allocatorIS2_EEED2Ev, .-_ZN4_STL12_Vector_baseIN7IwTween6CTweenENS_9allocatorIS2_EEED2Ev
	.weak	_ZN4_STL12_Vector_baseIN7IwTween6CTweenENS_9allocatorIS2_EEED1Ev
	.hidden	_ZN4_STL12_Vector_baseIN7IwTween6CTweenENS_9allocatorIS2_EEED1Ev
	.set	_ZN4_STL12_Vector_baseIN7IwTween6CTweenENS_9allocatorIS2_EEED1Ev,_ZN4_STL12_Vector_baseIN7IwTween6CTweenENS_9allocatorIS2_EEED2Ev
	.section	.text._ZN4_STL8_DestroyIPN7IwTween6CTweenEEEvT_S4_,"axG",@progbits,_ZN4_STL8_DestroyIPN7IwTween6CTweenEEEvT_S4_,comdat
	.weak	_ZN4_STL8_DestroyIPN7IwTween6CTweenEEEvT_S4_
	.hidden	_ZN4_STL8_DestroyIPN7IwTween6CTweenEEEvT_S4_
	.type	_ZN4_STL8_DestroyIPN7IwTween6CTweenEEEvT_S4_, @function
_ZN4_STL8_DestroyIPN7IwTween6CTweenEEEvT_S4_:
.LFB3313:
	.loc 8 138 0
	.cfi_startproc
	pushl	%ebp
	.cfi_def_cfa_offset 8
	.cfi_offset 5, -8
	movl	%esp, %ebp
	.cfi_def_cfa_register 5
	leal	-24(%esp), %esp
	.loc 8 139 0
	movl	$0, 8(%esp)
	movl	12(%ebp), %eax
	movl	%eax, 4(%esp)
	movl	8(%ebp), %eax
	movl	%eax, (%esp)
	call	_ZN4_STL9__destroyIPN7IwTween6CTweenES2_EEvT_S4_PT0_
	.loc 8 140 0
	leave
	.cfi_restore 5
	.cfi_def_cfa 4, 4
	ret
	.cfi_endproc
.LFE3313:
	.size	_ZN4_STL8_DestroyIPN7IwTween6CTweenEEEvT_S4_, .-_ZN4_STL8_DestroyIPN7IwTween6CTweenEEEvT_S4_
	.section	.text._ZN4_STL12_Vector_baseIPN14Iw2DSceneGraph7CSpriteENS_9allocatorIS3_EEEC2ERKS5_,"axG",@progbits,_ZN4_STL12_Vector_baseIPN14Iw2DSceneGraph7CSpriteENS_9allocatorIS3_EEEC5ERKS5_,comdat
	.align 2
	.weak	_ZN4_STL12_Vector_baseIPN14Iw2DSceneGraph7CSpriteENS_9allocatorIS3_EEEC2ERKS5_
	.hidden	_ZN4_STL12_Vector_baseIPN14Iw2DSceneGraph7CSpriteENS_9allocatorIS3_EEEC2ERKS5_
	.type	_ZN4_STL12_Vector_baseIPN14Iw2DSceneGraph7CSpriteENS_9allocatorIS3_EEEC2ERKS5_, @function
_ZN4_STL12_Vector_baseIPN14Iw2DSceneGraph7CSpriteENS_9allocatorIS3_EEEC2ERKS5_:
.LFB3357:
	.loc 7 71 0
	.cfi_startproc
	pushl	%ebp
	.cfi_def_cfa_offset 8
	.cfi_offset 5, -8
	leal	(%esp), %ebp
	.cfi_def_cfa_register 5
	leal	-24(%esp), %esp
.LBB20:
	.loc 7 72 0
	movl	8(%ebp), %eax
	movl	$0, (%eax)
	movl	8(%ebp), %eax
	movl	$0, 4(%eax)
	movl	8(%ebp), %eax
	movl	%eax, %edx
	addl	$8, %edx
	movl	$0, 8(%esp)
	movl	12(%ebp), %eax
	movl	%eax, 4(%esp)
	movl	%edx, (%esp)
	call	_ZN4_STL17_STLP_alloc_proxyIPPN14Iw2DSceneGraph7CSpriteES3_NS_9allocatorIS3_EEEC1ERKS6_S4_
.LBE20:
	.loc 7 73 0
	leave
	.cfi_restore 5
	.cfi_def_cfa 4, 4
	ret
	.cfi_endproc
.LFE3357:
	.size	_ZN4_STL12_Vector_baseIPN14Iw2DSceneGraph7CSpriteENS_9allocatorIS3_EEEC2ERKS5_, .-_ZN4_STL12_Vector_baseIPN14Iw2DSceneGraph7CSpriteENS_9allocatorIS3_EEEC2ERKS5_
	.weak	_ZN4_STL12_Vector_baseIPN14Iw2DSceneGraph7CSpriteENS_9allocatorIS3_EEEC1ERKS5_
	.hidden	_ZN4_STL12_Vector_baseIPN14Iw2DSceneGraph7CSpriteENS_9allocatorIS3_EEEC1ERKS5_
	.set	_ZN4_STL12_Vector_baseIPN14Iw2DSceneGraph7CSpriteENS_9allocatorIS3_EEEC1ERKS5_,_ZN4_STL12_Vector_baseIPN14Iw2DSceneGraph7CSpriteENS_9allocatorIS3_EEEC2ERKS5_
	.section	.text._ZN4_STL13_Bvector_baseINS_9allocatorIbEEEC2ERKS2_,"axG",@progbits,_ZN4_STL13_Bvector_baseINS_9allocatorIbEEEC5ERKS2_,comdat
	.align 2
	.weak	_ZN4_STL13_Bvector_baseINS_9allocatorIbEEEC2ERKS2_
	.hidden	_ZN4_STL13_Bvector_baseINS_9allocatorIbEEEC2ERKS2_
	.type	_ZN4_STL13_Bvector_baseINS_9allocatorIbEEEC2ERKS2_, @function
_ZN4_STL13_Bvector_baseINS_9allocatorIbEEEC2ERKS2_:
.LFB3367:
	.loc 1 251 0
	.cfi_startproc
	pushl	%ebp
	.cfi_def_cfa_offset 8
	.cfi_offset 5, -8
	leal	(%esp), %ebp
	.cfi_def_cfa_register 5
	leal	-40(%esp), %esp
.LBB21:
	.loc 1 253 0
	movl	8(%ebp), %eax
	movl	%eax, (%esp)
	call	_ZN4_STL9_Bit_iterINS_14_Bit_referenceEPS1_EC1Ev
	movl	8(%ebp), %eax
	addl	$8, %eax
	movl	%eax, (%esp)
	call	_ZN4_STL9_Bit_iterINS_14_Bit_referenceEPS1_EC1Ev
	movl	12(%ebp), %eax
	movl	%eax, 4(%esp)
	leal	-9(%ebp), %eax
	movl	%eax, (%esp)
	call	_ZN4_STL9allocatorIjEC1IbEERKNS0_IT_EE
	movl	8(%ebp), %eax
	movl	%eax, %edx
	addl	$16, %edx
	movl	$0, 8(%esp)
	leal	-9(%ebp), %eax
	movl	%eax, 4(%esp)
	movl	%edx, (%esp)
	call	_ZN4_STL17_STLP_alloc_proxyIPjjNS_9allocatorIjEEEC1ERKS3_S1_
	leal	-9(%ebp), %eax
	movl	%eax, (%esp)
	call	_ZN4_STL9allocatorIjED1Ev
.LBE21:
	.loc 1 254 0
	leave
	.cfi_restore 5
	.cfi_def_cfa 4, 4
	ret
	.cfi_endproc
.LFE3367:
	.size	_ZN4_STL13_Bvector_baseINS_9allocatorIbEEEC2ERKS2_, .-_ZN4_STL13_Bvector_baseINS_9allocatorIbEEEC2ERKS2_
	.weak	_ZN4_STL13_Bvector_baseINS_9allocatorIbEEEC1ERKS2_
	.hidden	_ZN4_STL13_Bvector_baseINS_9allocatorIbEEEC1ERKS2_
	.set	_ZN4_STL13_Bvector_baseINS_9allocatorIbEEEC1ERKS2_,_ZN4_STL13_Bvector_baseINS_9allocatorIbEEEC2ERKS2_
	.section	.text._ZN4_STL9allocatorIN7IwTween6CTween9ValueTypeEE10deallocateEPS3_j,"axG",@progbits,_ZN4_STL9allocatorIN7IwTween6CTween9ValueTypeEE10deallocateEPS3_j,comdat
	.align 2
	.weak	_ZN4_STL9allocatorIN7IwTween6CTween9ValueTypeEE10deallocateEPS3_j
	.hidden	_ZN4_STL9allocatorIN7IwTween6CTween9ValueTypeEE10deallocateEPS3_j
	.type	_ZN4_STL9allocatorIN7IwTween6CTween9ValueTypeEE10deallocateEPS3_j, @function
_ZN4_STL9allocatorIN7IwTween6CTween9ValueTypeEE10deallocateEPS3_j:
.LFB3383:
	.loc 6 358 0
	.cfi_startproc
	pushl	%ebp
	.cfi_def_cfa_offset 8
	.cfi_offset 5, -8
	leal	(%esp), %ebp
	.cfi_def_cfa_register 5
	leal	-24(%esp), %esp
	.loc 6 360 0
	cmpl	$0, 12(%ebp)
	je	.L52
	.loc 6 360 0 is_stmt 0 discriminator 1
	movl	16(%ebp), %eax
	sall	$4, %eax
	movl	%eax, 4(%esp)
	movl	12(%ebp), %eax
	movl	%eax, (%esp)
	call	_ZN4_STL14__malloc_allocILi0EE10deallocateEPvj
.L52:
	.loc 6 361 0 is_stmt 1
	leave
	.cfi_restore 5
	.cfi_def_cfa 4, 4
	ret
	.cfi_endproc
.LFE3383:
	.size	_ZN4_STL9allocatorIN7IwTween6CTween9ValueTypeEE10deallocateEPS3_j, .-_ZN4_STL9allocatorIN7IwTween6CTween9ValueTypeEE10deallocateEPS3_j
	.section	.text._ZN4_STL9__destroyIPN7IwTween6CTween9ValueTypeES3_EEvT_S5_PT0_,"axG",@progbits,_ZN4_STL9__destroyIPN7IwTween6CTween9ValueTypeES3_EEvT_S5_PT0_,comdat
	.weak	_ZN4_STL9__destroyIPN7IwTween6CTween9ValueTypeES3_EEvT_S5_PT0_
	.hidden	_ZN4_STL9__destroyIPN7IwTween6CTween9ValueTypeES3_EEvT_S5_PT0_
	.type	_ZN4_STL9__destroyIPN7IwTween6CTween9ValueTypeES3_EEvT_S5_PT0_, @function
_ZN4_STL9__destroyIPN7IwTween6CTween9ValueTypeES3_EEvT_S5_PT0_:
.LFB3384:
	.loc 8 132 0
	.cfi_startproc
	pushl	%ebp
	.cfi_def_cfa_offset 8
	.cfi_offset 5, -8
	movl	%esp, %ebp
	.cfi_def_cfa_register 5
	leal	-40(%esp), %esp
.LBB22:
	.loc 8 134 0
	leal	-9(%ebp), %eax
	movl	%eax, 8(%esp)
	movl	12(%ebp), %eax
	movl	%eax, 4(%esp)
	movl	8(%ebp), %eax
	movl	%eax, (%esp)
	call	_ZN4_STL13__destroy_auxIPN7IwTween6CTween9ValueTypeEEEvT_S5_RKNS_12__false_typeE
.LBE22:
	.loc 8 135 0
	leave
	.cfi_restore 5
	.cfi_def_cfa 4, 4
	ret
	.cfi_endproc
.LFE3384:
	.size	_ZN4_STL9__destroyIPN7IwTween6CTween9ValueTypeES3_EEvT_S5_PT0_, .-_ZN4_STL9__destroyIPN7IwTween6CTween9ValueTypeES3_EEvT_S5_PT0_
	.section	.text._ZN4_STL17_STLP_alloc_proxyIPN7IwTween6CTweenES2_NS_9allocatorIS2_EEEC2ERKS5_S3_,"axG",@progbits,_ZN4_STL17_STLP_alloc_proxyIPN7IwTween6CTweenES2_NS_9allocatorIS2_EEEC5ERKS5_S3_,comdat
	.align 2
	.weak	_ZN4_STL17_STLP_alloc_proxyIPN7IwTween6CTweenES2_NS_9allocatorIS2_EEEC2ERKS5_S3_
	.hidden	_ZN4_STL17_STLP_alloc_proxyIPN7IwTween6CTweenES2_NS_9allocatorIS2_EEEC2ERKS5_S3_
	.type	_ZN4_STL17_STLP_alloc_proxyIPN7IwTween6CTweenES2_NS_9allocatorIS2_EEEC2ERKS5_S3_, @function
_ZN4_STL17_STLP_alloc_proxyIPN7IwTween6CTweenES2_NS_9allocatorIS2_EEEC2ERKS5_S3_:
.LFB3386:
	.loc 6 487 0
	.cfi_startproc
	pushl	%ebp
	.cfi_def_cfa_offset 8
	.cfi_offset 5, -8
	leal	(%esp), %ebp
	.cfi_def_cfa_register 5
	leal	-24(%esp), %esp
.LBB23:
	.loc 6 487 0
	movl	12(%ebp), %eax
	movl	%eax, 4(%esp)
	movl	8(%ebp), %eax
	movl	%eax, (%esp)
	call	_ZN4_STL9allocatorIN7IwTween6CTweenEEC2ERKS3_
	movl	8(%ebp), %eax
	movl	16(%ebp), %edx
	movl	%edx, (%eax)
.LBE23:
	leave
	.cfi_restore 5
	.cfi_def_cfa 4, 4
	ret
	.cfi_endproc
.LFE3386:
	.size	_ZN4_STL17_STLP_alloc_proxyIPN7IwTween6CTweenES2_NS_9allocatorIS2_EEEC2ERKS5_S3_, .-_ZN4_STL17_STLP_alloc_proxyIPN7IwTween6CTweenES2_NS_9allocatorIS2_EEEC2ERKS5_S3_
	.weak	_ZN4_STL17_STLP_alloc_proxyIPN7IwTween6CTweenES2_NS_9allocatorIS2_EEEC1ERKS5_S3_
	.hidden	_ZN4_STL17_STLP_alloc_proxyIPN7IwTween6CTweenES2_NS_9allocatorIS2_EEEC1ERKS5_S3_
	.set	_ZN4_STL17_STLP_alloc_proxyIPN7IwTween6CTweenES2_NS_9allocatorIS2_EEEC1ERKS5_S3_,_ZN4_STL17_STLP_alloc_proxyIPN7IwTween6CTweenES2_NS_9allocatorIS2_EEEC2ERKS5_S3_
	.section	.text._ZN4_STL9allocatorIN7IwTween6CTweenEE10deallocateEPS2_j,"axG",@progbits,_ZN4_STL9allocatorIN7IwTween6CTweenEE10deallocateEPS2_j,comdat
	.align 2
	.weak	_ZN4_STL9allocatorIN7IwTween6CTweenEE10deallocateEPS2_j
	.hidden	_ZN4_STL9allocatorIN7IwTween6CTweenEE10deallocateEPS2_j
	.type	_ZN4_STL9allocatorIN7IwTween6CTweenEE10deallocateEPS2_j, @function
_ZN4_STL9allocatorIN7IwTween6CTweenEE10deallocateEPS2_j:
.LFB3388:
	.loc 6 358 0
	.cfi_startproc
	pushl	%ebp
	.cfi_def_cfa_offset 8
	.cfi_offset 5, -8
	leal	(%esp), %ebp
	.cfi_def_cfa_register 5
	leal	-24(%esp), %esp
	.loc 6 360 0
	cmpl	$0, 12(%ebp)
	je	.L56
	.loc 6 360 0 is_stmt 0 discriminator 1
	movl	16(%ebp), %eax
	sall	$2, %eax
	movl	%eax, %edx
	sall	$4, %edx
	subl	%eax, %edx
	movl	%edx, %eax
	movl	%eax, 4(%esp)
	movl	12(%ebp), %eax
	movl	%eax, (%esp)
	call	_ZN4_STL14__malloc_allocILi0EE10deallocateEPvj
.L56:
	.loc 6 361 0 is_stmt 1
	leave
	.cfi_restore 5
	.cfi_def_cfa 4, 4
	ret
	.cfi_endproc
.LFE3388:
	.size	_ZN4_STL9allocatorIN7IwTween6CTweenEE10deallocateEPS2_j, .-_ZN4_STL9allocatorIN7IwTween6CTweenEE10deallocateEPS2_j
	.section	.text._ZN4_STL9__destroyIPN7IwTween6CTweenES2_EEvT_S4_PT0_,"axG",@progbits,_ZN4_STL9__destroyIPN7IwTween6CTweenES2_EEvT_S4_PT0_,comdat
	.weak	_ZN4_STL9__destroyIPN7IwTween6CTweenES2_EEvT_S4_PT0_
	.hidden	_ZN4_STL9__destroyIPN7IwTween6CTweenES2_EEvT_S4_PT0_
	.type	_ZN4_STL9__destroyIPN7IwTween6CTweenES2_EEvT_S4_PT0_, @function
_ZN4_STL9__destroyIPN7IwTween6CTweenES2_EEvT_S4_PT0_:
.LFB3389:
	.loc 8 132 0
	.cfi_startproc
	pushl	%ebp
	.cfi_def_cfa_offset 8
	.cfi_offset 5, -8
	movl	%esp, %ebp
	.cfi_def_cfa_register 5
	leal	-40(%esp), %esp
.LBB24:
	.loc 8 134 0
	leal	-9(%ebp), %eax
	movl	%eax, 8(%esp)
	movl	12(%ebp), %eax
	movl	%eax, 4(%esp)
	movl	8(%ebp), %eax
	movl	%eax, (%esp)
	call	_ZN4_STL13__destroy_auxIPN7IwTween6CTweenEEEvT_S4_RKNS_12__false_typeE
.LBE24:
	.loc 8 135 0
	leave
	.cfi_restore 5
	.cfi_def_cfa 4, 4
	ret
	.cfi_endproc
.LFE3389:
	.size	_ZN4_STL9__destroyIPN7IwTween6CTweenES2_EEvT_S4_PT0_, .-_ZN4_STL9__destroyIPN7IwTween6CTweenES2_EEvT_S4_PT0_
	.section	.text._ZN4_STL17_STLP_alloc_proxyIPPN14Iw2DSceneGraph7CSpriteES3_NS_9allocatorIS3_EEEC2ERKS6_S4_,"axG",@progbits,_ZN4_STL17_STLP_alloc_proxyIPPN14Iw2DSceneGraph7CSpriteES3_NS_9allocatorIS3_EEEC5ERKS6_S4_,comdat
	.align 2
	.weak	_ZN4_STL17_STLP_alloc_proxyIPPN14Iw2DSceneGraph7CSpriteES3_NS_9allocatorIS3_EEEC2ERKS6_S4_
	.hidden	_ZN4_STL17_STLP_alloc_proxyIPPN14Iw2DSceneGraph7CSpriteES3_NS_9allocatorIS3_EEEC2ERKS6_S4_
	.type	_ZN4_STL17_STLP_alloc_proxyIPPN14Iw2DSceneGraph7CSpriteES3_NS_9allocatorIS3_EEEC2ERKS6_S4_, @function
_ZN4_STL17_STLP_alloc_proxyIPPN14Iw2DSceneGraph7CSpriteES3_NS_9allocatorIS3_EEEC2ERKS6_S4_:
.LFB3422:
	.loc 6 487 0
	.cfi_startproc
	pushl	%ebp
	.cfi_def_cfa_offset 8
	.cfi_offset 5, -8
	leal	(%esp), %ebp
	.cfi_def_cfa_register 5
	leal	-24(%esp), %esp
.LBB25:
	.loc 6 487 0
	movl	12(%ebp), %eax
	movl	%eax, 4(%esp)
	movl	8(%ebp), %eax
	movl	%eax, (%esp)
	call	_ZN4_STL9allocatorIPN14Iw2DSceneGraph7CSpriteEEC2ERKS4_
	movl	8(%ebp), %eax
	movl	16(%ebp), %edx
	movl	%edx, (%eax)
.LBE25:
	leave
	.cfi_restore 5
	.cfi_def_cfa 4, 4
	ret
	.cfi_endproc
.LFE3422:
	.size	_ZN4_STL17_STLP_alloc_proxyIPPN14Iw2DSceneGraph7CSpriteES3_NS_9allocatorIS3_EEEC2ERKS6_S4_, .-_ZN4_STL17_STLP_alloc_proxyIPPN14Iw2DSceneGraph7CSpriteES3_NS_9allocatorIS3_EEEC2ERKS6_S4_
	.weak	_ZN4_STL17_STLP_alloc_proxyIPPN14Iw2DSceneGraph7CSpriteES3_NS_9allocatorIS3_EEEC1ERKS6_S4_
	.hidden	_ZN4_STL17_STLP_alloc_proxyIPPN14Iw2DSceneGraph7CSpriteES3_NS_9allocatorIS3_EEEC1ERKS6_S4_
	.set	_ZN4_STL17_STLP_alloc_proxyIPPN14Iw2DSceneGraph7CSpriteES3_NS_9allocatorIS3_EEEC1ERKS6_S4_,_ZN4_STL17_STLP_alloc_proxyIPPN14Iw2DSceneGraph7CSpriteES3_NS_9allocatorIS3_EEEC2ERKS6_S4_
	.section	.text._ZN4_STL9_Bit_iterINS_14_Bit_referenceEPS1_EC2Ev,"axG",@progbits,_ZN4_STL9_Bit_iterINS_14_Bit_referenceEPS1_EC5Ev,comdat
	.align 2
	.weak	_ZN4_STL9_Bit_iterINS_14_Bit_referenceEPS1_EC2Ev
	.hidden	_ZN4_STL9_Bit_iterINS_14_Bit_referenceEPS1_EC2Ev
	.type	_ZN4_STL9_Bit_iterINS_14_Bit_referenceEPS1_EC2Ev, @function
_ZN4_STL9_Bit_iterINS_14_Bit_referenceEPS1_EC2Ev:
.LFB3427:
	.loc 1 166 0
	.cfi_startproc
	pushl	%ebp
	.cfi_def_cfa_offset 8
	.cfi_offset 5, -8
	leal	(%esp), %ebp
	.cfi_def_cfa_register 5
	leal	-24(%esp), %esp
.LBB26:
	.loc 1 166 0
	movl	8(%ebp), %eax
	movl	%eax, (%esp)
	call	_ZN4_STL18_Bit_iterator_baseC2Ev
.LBE26:
	leave
	.cfi_restore 5
	.cfi_def_cfa 4, 4
	ret
	.cfi_endproc
.LFE3427:
	.size	_ZN4_STL9_Bit_iterINS_14_Bit_referenceEPS1_EC2Ev, .-_ZN4_STL9_Bit_iterINS_14_Bit_referenceEPS1_EC2Ev
	.weak	_ZN4_STL9_Bit_iterINS_14_Bit_referenceEPS1_EC1Ev
	.hidden	_ZN4_STL9_Bit_iterINS_14_Bit_referenceEPS1_EC1Ev
	.set	_ZN4_STL9_Bit_iterINS_14_Bit_referenceEPS1_EC1Ev,_ZN4_STL9_Bit_iterINS_14_Bit_referenceEPS1_EC2Ev
	.section	.text._ZN4_STL9allocatorIjEC2IbEERKNS0_IT_EE,"axG",@progbits,_ZN4_STL9allocatorIjEC5IbEERKNS0_IT_EE,comdat
	.align 2
	.weak	_ZN4_STL9allocatorIjEC2IbEERKNS0_IT_EE
	.hidden	_ZN4_STL9allocatorIjEC2IbEERKNS0_IT_EE
	.type	_ZN4_STL9allocatorIjEC2IbEERKNS0_IT_EE, @function
_ZN4_STL9allocatorIjEC2IbEERKNS0_IT_EE:
.LFB3430:
	.loc 6 347 0
	.cfi_startproc
	pushl	%ebp
	.cfi_def_cfa_offset 8
	.cfi_offset 5, -8
	movl	%esp, %ebp
	.cfi_def_cfa_register 5
	.loc 6 347 0
	popl	%ebp
	.cfi_restore 5
	.cfi_def_cfa 4, 4
	ret
	.cfi_endproc
.LFE3430:
	.size	_ZN4_STL9allocatorIjEC2IbEERKNS0_IT_EE, .-_ZN4_STL9allocatorIjEC2IbEERKNS0_IT_EE
	.weak	_ZN4_STL9allocatorIjEC1IbEERKNS0_IT_EE
	.hidden	_ZN4_STL9allocatorIjEC1IbEERKNS0_IT_EE
	.set	_ZN4_STL9allocatorIjEC1IbEERKNS0_IT_EE,_ZN4_STL9allocatorIjEC2IbEERKNS0_IT_EE
	.section	.text._ZN4_STL9allocatorIjED2Ev,"axG",@progbits,_ZN4_STL9allocatorIjED5Ev,comdat
	.align 2
	.weak	_ZN4_STL9allocatorIjED2Ev
	.hidden	_ZN4_STL9allocatorIjED2Ev
	.type	_ZN4_STL9allocatorIjED2Ev, @function
_ZN4_STL9allocatorIjED2Ev:
.LFB3433:
	.loc 6 350 0
	.cfi_startproc
	pushl	%ebp
	.cfi_def_cfa_offset 8
	.cfi_offset 5, -8
	movl	%esp, %ebp
	.cfi_def_cfa_register 5
	.loc 6 350 0
	popl	%ebp
	.cfi_restore 5
	.cfi_def_cfa 4, 4
	ret
	.cfi_endproc
.LFE3433:
	.size	_ZN4_STL9allocatorIjED2Ev, .-_ZN4_STL9allocatorIjED2Ev
	.weak	_ZN4_STL9allocatorIjED1Ev
	.hidden	_ZN4_STL9allocatorIjED1Ev
	.set	_ZN4_STL9allocatorIjED1Ev,_ZN4_STL9allocatorIjED2Ev
	.section	.text._ZN4_STL17_STLP_alloc_proxyIPjjNS_9allocatorIjEEEC2ERKS3_S1_,"axG",@progbits,_ZN4_STL17_STLP_alloc_proxyIPjjNS_9allocatorIjEEEC5ERKS3_S1_,comdat
	.align 2
	.weak	_ZN4_STL17_STLP_alloc_proxyIPjjNS_9allocatorIjEEEC2ERKS3_S1_
	.hidden	_ZN4_STL17_STLP_alloc_proxyIPjjNS_9allocatorIjEEEC2ERKS3_S1_
	.type	_ZN4_STL17_STLP_alloc_proxyIPjjNS_9allocatorIjEEEC2ERKS3_S1_, @function
_ZN4_STL17_STLP_alloc_proxyIPjjNS_9allocatorIjEEEC2ERKS3_S1_:
.LFB3436:
	.loc 6 487 0
	.cfi_startproc
	pushl	%ebp
	.cfi_def_cfa_offset 8
	.cfi_offset 5, -8
	leal	(%esp), %ebp
	.cfi_def_cfa_register 5
	leal	-24(%esp), %esp
.LBB27:
	.loc 6 487 0
	movl	12(%ebp), %eax
	movl	%eax, 4(%esp)
	movl	8(%ebp), %eax
	movl	%eax, (%esp)
	call	_ZN4_STL9allocatorIjEC2ERKS1_
	movl	8(%ebp), %eax
	movl	16(%ebp), %edx
	movl	%edx, (%eax)
.LBE27:
	leave
	.cfi_restore 5
	.cfi_def_cfa 4, 4
	ret
	.cfi_endproc
.LFE3436:
	.size	_ZN4_STL17_STLP_alloc_proxyIPjjNS_9allocatorIjEEEC2ERKS3_S1_, .-_ZN4_STL17_STLP_alloc_proxyIPjjNS_9allocatorIjEEEC2ERKS3_S1_
	.weak	_ZN4_STL17_STLP_alloc_proxyIPjjNS_9allocatorIjEEEC1ERKS3_S1_
	.hidden	_ZN4_STL17_STLP_alloc_proxyIPjjNS_9allocatorIjEEEC1ERKS3_S1_
	.set	_ZN4_STL17_STLP_alloc_proxyIPjjNS_9allocatorIjEEEC1ERKS3_S1_,_ZN4_STL17_STLP_alloc_proxyIPjjNS_9allocatorIjEEEC2ERKS3_S1_
	.section	.text._ZN4_STL14__malloc_allocILi0EE10deallocateEPvj,"axG",@progbits,_ZN4_STL14__malloc_allocILi0EE10deallocateEPvj,comdat
	.weak	_ZN4_STL14__malloc_allocILi0EE10deallocateEPvj
	.hidden	_ZN4_STL14__malloc_allocILi0EE10deallocateEPvj
	.type	_ZN4_STL14__malloc_allocILi0EE10deallocateEPvj, @function
_ZN4_STL14__malloc_allocILi0EE10deallocateEPvj:
.LFB3446:
	.loc 6 114 0
	.cfi_startproc
	pushl	%ebp
	.cfi_def_cfa_offset 8
	.cfi_offset 5, -8
	movl	%esp, %ebp
	.cfi_def_cfa_register 5
	pushl	%ebx
	leal	-20(%esp), %esp
	.cfi_offset 3, -12
	call	__x86.get_pc_thunk.bx
	addl	$_GLOBAL_OFFSET_TABLE_, %ebx
	.loc 6 114 0
	movl	8(%ebp), %eax
	movl	%eax, (%esp)
	call	free@PLT
	leal	20(%esp), %esp
	popl	%ebx
	.cfi_restore 3
	popl	%ebp
	.cfi_restore 5
	.cfi_def_cfa 4, 4
	ret
	.cfi_endproc
.LFE3446:
	.size	_ZN4_STL14__malloc_allocILi0EE10deallocateEPvj, .-_ZN4_STL14__malloc_allocILi0EE10deallocateEPvj
	.section	.text._ZN4_STL13__destroy_auxIPN7IwTween6CTween9ValueTypeEEEvT_S5_RKNS_12__false_typeE,"axG",@progbits,_ZN4_STL13__destroy_auxIPN7IwTween6CTween9ValueTypeEEEvT_S5_RKNS_12__false_typeE,comdat
	.weak	_ZN4_STL13__destroy_auxIPN7IwTween6CTween9ValueTypeEEEvT_S5_RKNS_12__false_typeE
	.hidden	_ZN4_STL13__destroy_auxIPN7IwTween6CTween9ValueTypeEEEvT_S5_RKNS_12__false_typeE
	.type	_ZN4_STL13__destroy_auxIPN7IwTween6CTween9ValueTypeEEEvT_S5_RKNS_12__false_typeE, @function
_ZN4_STL13__destroy_auxIPN7IwTween6CTween9ValueTypeEEEvT_S5_RKNS_12__false_typeE:
.LFB3447:
	.loc 8 122 0
	.cfi_startproc
	pushl	%ebp
	.cfi_def_cfa_offset 8
	.cfi_offset 5, -8
	movl	%esp, %ebp
	.cfi_def_cfa_register 5
	leal	-24(%esp), %esp
	.loc 8 123 0
	jmp	.L67
.L68:
	.loc 8 124 0 discriminator 2
	movl	8(%ebp), %eax
	movl	%eax, (%esp)
	call	_ZN4_STL8_DestroyIN7IwTween6CTween9ValueTypeEEEvPT_
	.loc 8 123 0 discriminator 2
	addl	$16, 8(%ebp)
.L67:
	.loc 8 123 0 is_stmt 0 discriminator 1
	movl	8(%ebp), %eax
	cmpl	12(%ebp), %eax
	jne	.L68
	.loc 8 125 0 is_stmt 1
	leave
	.cfi_restore 5
	.cfi_def_cfa 4, 4
	ret
	.cfi_endproc
.LFE3447:
	.size	_ZN4_STL13__destroy_auxIPN7IwTween6CTween9ValueTypeEEEvT_S5_RKNS_12__false_typeE, .-_ZN4_STL13__destroy_auxIPN7IwTween6CTween9ValueTypeEEEvT_S5_RKNS_12__false_typeE
	.section	.text._ZN4_STL9allocatorIN7IwTween6CTweenEEC2ERKS3_,"axG",@progbits,_ZN4_STL9allocatorIN7IwTween6CTweenEEC5ERKS3_,comdat
	.align 2
	.weak	_ZN4_STL9allocatorIN7IwTween6CTweenEEC2ERKS3_
	.hidden	_ZN4_STL9allocatorIN7IwTween6CTweenEEC2ERKS3_
	.type	_ZN4_STL9allocatorIN7IwTween6CTweenEEC2ERKS3_, @function
_ZN4_STL9allocatorIN7IwTween6CTweenEEC2ERKS3_:
.LFB3449:
	.loc 6 349 0
	.cfi_startproc
	pushl	%ebp
	.cfi_def_cfa_offset 8
	.cfi_offset 5, -8
	movl	%esp, %ebp
	.cfi_def_cfa_register 5
	.loc 6 349 0
	popl	%ebp
	.cfi_restore 5
	.cfi_def_cfa 4, 4
	ret
	.cfi_endproc
.LFE3449:
	.size	_ZN4_STL9allocatorIN7IwTween6CTweenEEC2ERKS3_, .-_ZN4_STL9allocatorIN7IwTween6CTweenEEC2ERKS3_
	.weak	_ZN4_STL9allocatorIN7IwTween6CTweenEEC1ERKS3_
	.hidden	_ZN4_STL9allocatorIN7IwTween6CTweenEEC1ERKS3_
	.set	_ZN4_STL9allocatorIN7IwTween6CTweenEEC1ERKS3_,_ZN4_STL9allocatorIN7IwTween6CTweenEEC2ERKS3_
	.section	.text._ZN4_STL13__destroy_auxIPN7IwTween6CTweenEEEvT_S4_RKNS_12__false_typeE,"axG",@progbits,_ZN4_STL13__destroy_auxIPN7IwTween6CTweenEEEvT_S4_RKNS_12__false_typeE,comdat
	.weak	_ZN4_STL13__destroy_auxIPN7IwTween6CTweenEEEvT_S4_RKNS_12__false_typeE
	.hidden	_ZN4_STL13__destroy_auxIPN7IwTween6CTweenEEEvT_S4_RKNS_12__false_typeE
	.type	_ZN4_STL13__destroy_auxIPN7IwTween6CTweenEEEvT_S4_RKNS_12__false_typeE, @function
_ZN4_STL13__destroy_auxIPN7IwTween6CTweenEEEvT_S4_RKNS_12__false_typeE:
.LFB3451:
	.loc 8 122 0
	.cfi_startproc
	pushl	%ebp
	.cfi_def_cfa_offset 8
	.cfi_offset 5, -8
	movl	%esp, %ebp
	.cfi_def_cfa_register 5
	leal	-24(%esp), %esp
	.loc 8 123 0
	jmp	.L71
.L72:
	.loc 8 124 0 discriminator 2
	movl	8(%ebp), %eax
	movl	%eax, (%esp)
	call	_ZN4_STL8_DestroyIN7IwTween6CTweenEEEvPT_
	.loc 8 123 0 discriminator 2
	addl	$60, 8(%ebp)
.L71:
	.loc 8 123 0 is_stmt 0 discriminator 1
	movl	8(%ebp), %eax
	cmpl	12(%ebp), %eax
	jne	.L72
	.loc 8 125 0 is_stmt 1
	leave
	.cfi_restore 5
	.cfi_def_cfa 4, 4
	ret
	.cfi_endproc
.LFE3451:
	.size	_ZN4_STL13__destroy_auxIPN7IwTween6CTweenEEEvT_S4_RKNS_12__false_typeE, .-_ZN4_STL13__destroy_auxIPN7IwTween6CTweenEEEvT_S4_RKNS_12__false_typeE
	.section	.text._ZN4_STL9allocatorIPN14Iw2DSceneGraph7CSpriteEEC2ERKS4_,"axG",@progbits,_ZN4_STL9allocatorIPN14Iw2DSceneGraph7CSpriteEEC5ERKS4_,comdat
	.align 2
	.weak	_ZN4_STL9allocatorIPN14Iw2DSceneGraph7CSpriteEEC2ERKS4_
	.hidden	_ZN4_STL9allocatorIPN14Iw2DSceneGraph7CSpriteEEC2ERKS4_
	.type	_ZN4_STL9allocatorIPN14Iw2DSceneGraph7CSpriteEEC2ERKS4_, @function
_ZN4_STL9allocatorIPN14Iw2DSceneGraph7CSpriteEEC2ERKS4_:
.LFB3473:
	.loc 6 349 0
	.cfi_startproc
	pushl	%ebp
	.cfi_def_cfa_offset 8
	.cfi_offset 5, -8
	movl	%esp, %ebp
	.cfi_def_cfa_register 5
	.loc 6 349 0
	popl	%ebp
	.cfi_restore 5
	.cfi_def_cfa 4, 4
	ret
	.cfi_endproc
.LFE3473:
	.size	_ZN4_STL9allocatorIPN14Iw2DSceneGraph7CSpriteEEC2ERKS4_, .-_ZN4_STL9allocatorIPN14Iw2DSceneGraph7CSpriteEEC2ERKS4_
	.weak	_ZN4_STL9allocatorIPN14Iw2DSceneGraph7CSpriteEEC1ERKS4_
	.hidden	_ZN4_STL9allocatorIPN14Iw2DSceneGraph7CSpriteEEC1ERKS4_
	.set	_ZN4_STL9allocatorIPN14Iw2DSceneGraph7CSpriteEEC1ERKS4_,_ZN4_STL9allocatorIPN14Iw2DSceneGraph7CSpriteEEC2ERKS4_
	.section	.text._ZN4_STL9allocatorIjEC2ERKS1_,"axG",@progbits,_ZN4_STL9allocatorIjEC5ERKS1_,comdat
	.align 2
	.weak	_ZN4_STL9allocatorIjEC2ERKS1_
	.hidden	_ZN4_STL9allocatorIjEC2ERKS1_
	.type	_ZN4_STL9allocatorIjEC2ERKS1_, @function
_ZN4_STL9allocatorIjEC2ERKS1_:
.LFB3477:
	.loc 6 349 0
	.cfi_startproc
	pushl	%ebp
	.cfi_def_cfa_offset 8
	.cfi_offset 5, -8
	movl	%esp, %ebp
	.cfi_def_cfa_register 5
	.loc 6 349 0
	popl	%ebp
	.cfi_restore 5
	.cfi_def_cfa 4, 4
	ret
	.cfi_endproc
.LFE3477:
	.size	_ZN4_STL9allocatorIjEC2ERKS1_, .-_ZN4_STL9allocatorIjEC2ERKS1_
	.weak	_ZN4_STL9allocatorIjEC1ERKS1_
	.hidden	_ZN4_STL9allocatorIjEC1ERKS1_
	.set	_ZN4_STL9allocatorIjEC1ERKS1_,_ZN4_STL9allocatorIjEC2ERKS1_
	.section	.text._ZN4_STL8_DestroyIN7IwTween6CTween9ValueTypeEEEvPT_,"axG",@progbits,_ZN4_STL8_DestroyIN7IwTween6CTween9ValueTypeEEEvPT_,comdat
	.weak	_ZN4_STL8_DestroyIN7IwTween6CTween9ValueTypeEEEvPT_
	.hidden	_ZN4_STL8_DestroyIN7IwTween6CTween9ValueTypeEEEvPT_
	.type	_ZN4_STL8_DestroyIN7IwTween6CTween9ValueTypeEEEvPT_, @function
_ZN4_STL8_DestroyIN7IwTween6CTween9ValueTypeEEEvPT_:
.LFB3484:
	.loc 8 56 0
	.cfi_startproc
	pushl	%ebp
	.cfi_def_cfa_offset 8
	.cfi_offset 5, -8
	movl	%esp, %ebp
	.cfi_def_cfa_register 5
	.loc 8 73 0
	popl	%ebp
	.cfi_restore 5
	.cfi_def_cfa 4, 4
	ret
	.cfi_endproc
.LFE3484:
	.size	_ZN4_STL8_DestroyIN7IwTween6CTween9ValueTypeEEEvPT_, .-_ZN4_STL8_DestroyIN7IwTween6CTween9ValueTypeEEEvPT_
	.section	.text._ZN4_STL8_DestroyIN7IwTween6CTweenEEEvPT_,"axG",@progbits,_ZN4_STL8_DestroyIN7IwTween6CTweenEEEvPT_,comdat
	.weak	_ZN4_STL8_DestroyIN7IwTween6CTweenEEEvPT_
	.hidden	_ZN4_STL8_DestroyIN7IwTween6CTweenEEEvPT_
	.type	_ZN4_STL8_DestroyIN7IwTween6CTweenEEEvPT_, @function
_ZN4_STL8_DestroyIN7IwTween6CTweenEEEvPT_:
.LFB3485:
	.loc 8 56 0
	.cfi_startproc
	pushl	%ebp
	.cfi_def_cfa_offset 8
	.cfi_offset 5, -8
	leal	(%esp), %ebp
	.cfi_def_cfa_register 5
	leal	-24(%esp), %esp
	.loc 8 67 0
	movl	8(%ebp), %eax
	movl	%eax, (%esp)
	call	_ZN7IwTween6CTweenD1Ev
	.loc 8 73 0
	leave
	.cfi_restore 5
	.cfi_def_cfa 4, 4
	ret
	.cfi_endproc
.LFE3485:
	.size	_ZN4_STL8_DestroyIN7IwTween6CTweenEEEvPT_, .-_ZN4_STL8_DestroyIN7IwTween6CTweenEEEvPT_
	.text
	.type	_Z41__static_initialization_and_destruction_0ii, @function
_Z41__static_initialization_and_destruction_0ii:
.LFB3613:
	.loc 5 115 0
	.cfi_startproc
	pushl	%ebp
	.cfi_def_cfa_offset 8
	.cfi_offset 5, -8
	movl	%esp, %ebp
	.cfi_def_cfa_register 5
	pushl	%ebx
	leal	-20(%esp), %esp
	.cfi_offset 3, -12
	call	__x86.get_pc_thunk.bx
	addl	$_GLOBAL_OFFSET_TABLE_, %ebx
	.loc 5 115 0
	cmpl	$1, 8(%ebp)
	jne	.L77
	.loc 5 115 0 is_stmt 0 discriminator 1
	cmpl	$65535, 12(%ebp)
	jne	.L77
	.file 9 "c:/marmalade/7.5/s3e/h/std/c++/iostream"
	.loc 9 69 0 is_stmt 1
	leal	_ZN4_STLL8_LocInitE@GOTOFF(%ebx), %eax
	movl	%eax, (%esp)
	call	_ZN4_STL8ios_base9_Loc_initC1Ev@PLT
	leal	__dso_handle@GOTOFF(%ebx), %eax
	movl	%eax, 8(%esp)
	leal	_ZN4_STLL8_LocInitE@GOTOFF(%ebx), %eax
	movl	%eax, 4(%esp)
	movl	_ZN4_STL8ios_base9_Loc_initD1Ev@GOT(%ebx), %eax
	movl	%eax, (%esp)
	call	__cxa_atexit@PLT
	.loc 9 75 0
	leal	_ZN4_STLL8_IosInitE@GOTOFF(%ebx), %eax
	movl	%eax, (%esp)
	call	_ZN4_STL8ios_base4InitC1Ev@PLT
	leal	__dso_handle@GOTOFF(%ebx), %eax
	movl	%eax, 8(%esp)
	leal	_ZN4_STLL8_IosInitE@GOTOFF(%ebx), %eax
	movl	%eax, 4(%esp)
	movl	_ZN4_STL8ios_base4InitD1Ev@GOT(%ebx), %eax
	movl	%eax, (%esp)
	call	__cxa_atexit@PLT
.L77:
	.loc 5 115 0
	leal	20(%esp), %esp
	popl	%ebx
	.cfi_restore 3
	popl	%ebp
	.cfi_restore 5
	.cfi_def_cfa 4, 4
	ret
	.cfi_endproc
.LFE3613:
	.size	_Z41__static_initialization_and_destruction_0ii, .-_Z41__static_initialization_and_destruction_0ii
	.type	_GLOBAL__sub_I_main.cpp, @function
_GLOBAL__sub_I_main.cpp:
.LFB3614:
	.loc 5 115 0
	.cfi_startproc
	pushl	%ebp
	.cfi_def_cfa_offset 8
	.cfi_offset 5, -8
	movl	%esp, %ebp
	.cfi_def_cfa_register 5
	leal	-24(%esp), %esp
	.loc 5 115 0
	movl	$65535, 4(%esp)
	movl	$1, (%esp)
	call	_Z41__static_initialization_and_destruction_0ii
	leave
	.cfi_restore 5
	.cfi_def_cfa 4, 4
	ret
	.cfi_endproc
.LFE3614:
	.size	_GLOBAL__sub_I_main.cpp, .-_GLOBAL__sub_I_main.cpp
	.section	.init_array,"aw"
	.align 4
	.long	_GLOBAL__sub_I_main.cpp
	.section	.rodata
	.align 4
.LC2:
	.long	1022739087
	.align 16
.LC3:
	.long	0
	.long	-2147483648
	.long	16447
	.align 4
.LC4:
	.long	1106247680
	.section	.text.__x86.get_pc_thunk.bx,"axG",@progbits,__x86.get_pc_thunk.bx,comdat
	.globl	__x86.get_pc_thunk.bx
	.hidden	__x86.get_pc_thunk.bx
	.type	__x86.get_pc_thunk.bx, @function
__x86.get_pc_thunk.bx:
.LFB3615:
	.cfi_startproc
	nop
	nop
	nop
	nop
	nop
	nop
	nop
	nop
	movl	(%esp), %ebx
	ret
	.cfi_endproc
.LFE3615:
	.text
.Letext0:
	.file 10 "c:/marmalade/7.5/s3e/h/s3eTypes.h"
	.file 11 "c:/marmalade/7.5/s3e/h/std/stddef.h"
	.file 12 "c:/marmalade/7.5/s3e/h/std/stdarg.h"
	.file 13 "c:/marmalade/7.5/s3e/h/std/stdio.h"
	.file 14 "c:/marmalade/7.5/s3e/h/std/stdlib.h"
	.file 15 "c:/marmalade/7.5/s3e/h/std/c++/typeinfo.h"
	.file 16 "c:/marmalade/7.5/s3e/h/std/c++/exception"
	.file 17 "c:/marmalade/7.5/s3e/h/std/c++/typeinfo"
	.file 18 "c:/marmalade/7.5/s3e/h/std/c++/cstddef"
	.file 19 "c:/marmalade/7.5/s3e/h/std/c++/using/cstring"
	.file 20 "c:/marmalade/7.5/s3e/h/std/c++/cstdlib"
	.file 21 "c:/marmalade/7.5/s3e/h/std/c++/stl/type_traits.h"
	.file 22 "c:/marmalade/7.5/s3e/h/std/c++/stl/_iterator_base.h"
	.file 23 "c:/marmalade/7.5/s3e/h/std/c++/cstdio"
	.file 24 "c:/marmalade/7.5/s3e/h/std/c++/stl/_iterator.h"
	.file 25 "c:/marmalade/7.5/s3e/h/std/c++/stl/_vector.c"
	.file 26 "c:/marmalade/7.5/s3e/h/std/c++/stl/_list.h"
	.file 27 "c:/marmalade/7.5/s3e/h/std/c++/stl/_list.c"
	.file 28 "c:/marmalade/7.5/s3e/h/std/c++/cwchar"
	.file 29 "c:/marmalade/7.5/s3e/h/std/c++/stdexcept"
	.file 30 "c:/marmalade/7.5/s3e/h/std/c++/stl/_ios_base.h"
	.file 31 "c:/marmalade/7.5/s3e/h/std/c++/ctime"
	.file 32 "c:/marmalade/7.5/s3e/h/std/c++/stl/_num_put.c"
	.file 33 "c:/marmalade/7.5/s3e/h/std/c++/stl/_num_get.c"
	.file 34 "c:/marmalade/7.5/s3e/h/std/c++/stl/_config.h"
	.file 35 "c:/marmalade/7.5/s3e/h/s3eFile.h"
	.file 36 "c:/marmalade/7.5/modules/iwutil/h/IwSerialise.h"
	.file 37 "c:/marmalade/7.5/modules/iwgeom/h/IwGeomCore.h"
	.file 38 "c:/marmalade/7.5/modules/iwgx/h/IwColour.h"
	.file 39 "c:/marmalade/7.5/modules/iwutil/h/IwString.h"
	.file 40 "c:/marmalade/7.5/modules/iwutil/h/IwAllocator.h"
	.file 41 "c:/marmalade/7.5/modules/iwutil/h/IwManaged.h"
	.file 42 "c:/marmalade/7.5/modules/iwutil/h/IwArray.h"
	.file 43 "c:/marmalade/7.5/modules/iwutil/h/IwManagedList.h"
	.file 44 "c:/marmalade/7.5/s3e/h/s3eDebug.h"
	.file 45 "c:/marmalade/7.5/modules/iwutil/h/IwEvent.h"
	.file 46 "c:/marmalade/7.5/s3e/h/std/string.h"
	.file 47 "c:/marmalade/7.5/s3e/h/s3ePointer.h"
	.file 48 "c:/Stage4/source/input.h"
	.file 49 "c:/marmalade/7.5/modules/iwresmanager/h/IwResGroup.h"
	.file 50 "c:/marmalade/7.5/modules/iwresmanager/h/IwResManagerClass.h"
	.file 51 "c:/marmalade/7.5/modules/iwgx/h/IwGxTypes.h"
	.file 52 "c:/Stage4/source/audio.h"
	.file 53 "c:/marmalade/7.5/s3e/h/std/time.h"
	.file 54 "c:/marmalade/7.5/s3e/h/ext/../std/wchar.h"
	.file 55 "c:/marmalade/7.5/modules/iw2dscenegraph/h/Iw2DSceneGraph.h"
	.file 56 "c:/marmalade/7.5/modules/iw2d/h/Iw2D.h"
	.file 57 "c:/Stage4/source/scene.h"
	.file 58 "c:/Stage4/source/resources.h"
	.file 59 "c:/marmalade/7.5/modules/iwgeom/h/IwGeomSqrt.h"
	.file 60 "c:/marmalade/7.5/modules/iwutil/h/IwMenu.h"
	.file 61 "c:/marmalade/7.5/modules/iwutil/h/IwTextParserITX.h"
	.file 62 "c:/stage4/modules/soundengine/h/IwSoundManager.h"
	.file 63 "<built-in>"
	.file 64 "c:/marmalade/7.5/s3e/h/std/c++/stl/_stdio_file.h"
	.file 65 "c:/marmalade/7.5/modules/iwutil/h/IwTypes.h"
	.file 66 "c:/marmalade/7.5/modules/iw2dscenegraphcore/h/Iw2DSceneGraphCore.h"
	.section	.note.GNU-stack,"",@progbits
