	.arch armv6
	.fpu softvfp
	.eabi_attribute 20, 1
	.eabi_attribute 21, 1
	.eabi_attribute 23, 3
	.eabi_attribute 24, 1
	.eabi_attribute 25, 1
	.eabi_attribute 26, 2
	.eabi_attribute 30, 6
	.eabi_attribute 34, 1
	.eabi_attribute 18, 2
	.file	"resources.cpp"
	.text
.Ltext0:
	.cfi_sections	.debug_frame
	.section	.text._ZN9Resources17getInactivePlayerEv,"axG",%progbits,_ZN9Resources17getInactivePlayerEv,comdat
	.align	2
	.weak	_ZN9Resources17getInactivePlayerEv
	.hidden	_ZN9Resources17getInactivePlayerEv
	.type	_ZN9Resources17getInactivePlayerEv, %function
_ZN9Resources17getInactivePlayerEv:
.LFB2453:
	.file 1 "c:/Stage4/source/resources.h"
	.loc 1 64 0
	.cfi_startproc
	@ args = 0, pretend = 0, frame = 8
	@ frame_needed = 0, uses_anonymous_args = 0
	@ link register save eliminated.
	sub	sp, sp, #8
.LCFI0:
	.cfi_def_cfa_offset 8
	str	r0, [sp, #4]
	.loc 1 64 0
	ldr	r3, [sp, #4]
	ldr	r3, [r3, #4]
	mov	r0, r3
	add	sp, sp, #8
	@ sp needed
	bx	lr
	.cfi_endproc
.LFE2453:
	.size	_ZN9Resources17getInactivePlayerEv, .-_ZN9Resources17getInactivePlayerEv
	.section	.rodata
	.align	2
.LC0:
	.ascii	"textures/sparkle_tomato.png\000"
	.align	2
.LC1:
	.ascii	"textures/inactive_player.png\000"
	.align	2
.LC2:
	.ascii	"textures/active_player1.png\000"
	.align	2
.LC3:
	.ascii	"textures/active_player2.png\000"
	.align	2
.LC4:
	.ascii	"textures/active_player3.png\000"
	.align	2
.LC5:
	.ascii	"textures/active_player4.png\000"
	.align	2
.LC6:
	.ascii	"textures/menu_bkg.jpg\000"
	.align	2
.LC7:
	.ascii	"textures/bkg.jpg\000"
	.align	2
.LC8:
	.ascii	"textures/button_bg.png\000"
	.align	2
.LC9:
	.ascii	"textures/placard.png\000"
	.align	2
.LC10:
	.ascii	"textures/pause_icon.png\000"
	.align	2
.LC11:
	.ascii	"textures/play.png\000"
	.align	2
.LC12:
	.ascii	"textures/bonus.png\000"
	.align	2
.LC13:
	.ascii	"textures/bomb.png\000"
	.align	2
.LC14:
	.ascii	"textures/player1.png\000"
	.align	2
.LC15:
	.ascii	"textures/player2.png\000"
	.align	2
.LC16:
	.ascii	"textures/player3.png\000"
	.align	2
.LC17:
	.ascii	"textures/player4.png\000"
	.align	2
.LC18:
	.ascii	"fonts/arial8.gxfont\000"
	.global	__aeabi_fdiv
	.global	__aeabi_f2iz
	.section	.text._ZN9ResourcesC2Ev,"ax",%progbits
	.align	2
	.global	_ZN9ResourcesC2Ev
	.hidden	_ZN9ResourcesC2Ev
	.type	_ZN9ResourcesC2Ev, %function
_ZN9ResourcesC2Ev:
.LFB2478:
	.file 2 "c:/Stage4/source/resources.cpp"
	.loc 2 17 0
	.cfi_startproc
	@ args = 0, pretend = 0, frame = 16
	@ frame_needed = 0, uses_anonymous_args = 0
	stmfd	sp!, {r4, lr}
.LCFI1:
	.cfi_def_cfa_offset 8
	.cfi_offset 4, -8
	.cfi_offset 14, -4
	sub	sp, sp, #24
.LCFI2:
	.cfi_def_cfa_offset 32
	str	r0, [sp, #12]
.LBB2:
.LBB3:
	.loc 2 20 0
	ldr	r3, .L6
.LPIC0:
	add	r3, pc, r3
	mov	r0, r3
	bl	_Z15Iw2DCreateImagePKc(PLT)
	mov	r2, r0
	ldr	r3, [sp, #12]
	str	r2, [r3]
	.loc 2 21 0
	ldr	r3, .L6+4
.LPIC1:
	add	r3, pc, r3
	mov	r0, r3
	bl	_Z15Iw2DCreateImagePKc(PLT)
	mov	r2, r0
	ldr	r3, [sp, #12]
	str	r2, [r3, #4]
	.loc 2 22 0
	ldr	r3, .L6+8
.LPIC2:
	add	r3, pc, r3
	mov	r0, r3
	bl	_Z15Iw2DCreateImagePKc(PLT)
	mov	r2, r0
	ldr	r3, [sp, #12]
	str	r2, [r3, #8]
	.loc 2 23 0
	ldr	r3, .L6+12
.LPIC3:
	add	r3, pc, r3
	mov	r0, r3
	bl	_Z15Iw2DCreateImagePKc(PLT)
	mov	r2, r0
	ldr	r3, [sp, #12]
	str	r2, [r3, #12]
	.loc 2 24 0
	ldr	r3, .L6+16
.LPIC4:
	add	r3, pc, r3
	mov	r0, r3
	bl	_Z15Iw2DCreateImagePKc(PLT)
	mov	r2, r0
	ldr	r3, [sp, #12]
	str	r2, [r3, #16]
	.loc 2 25 0
	ldr	r3, .L6+20
.LPIC5:
	add	r3, pc, r3
	mov	r0, r3
	bl	_Z15Iw2DCreateImagePKc(PLT)
	mov	r2, r0
	ldr	r3, [sp, #12]
	str	r2, [r3, #20]
	.loc 2 26 0
	ldr	r3, .L6+24
.LPIC6:
	add	r3, pc, r3
	mov	r0, r3
	bl	_Z15Iw2DCreateImagePKc(PLT)
	mov	r2, r0
	ldr	r3, [sp, #12]
	str	r2, [r3, #24]
	.loc 2 27 0
	ldr	r3, .L6+28
.LPIC7:
	add	r3, pc, r3
	mov	r0, r3
	bl	_Z15Iw2DCreateImagePKc(PLT)
	mov	r2, r0
	ldr	r3, [sp, #12]
	str	r2, [r3, #28]
	.loc 2 28 0
	ldr	r3, .L6+32
.LPIC8:
	add	r3, pc, r3
	mov	r0, r3
	bl	_Z15Iw2DCreateImagePKc(PLT)
	mov	r2, r0
	ldr	r3, [sp, #12]
	str	r2, [r3, #32]
	.loc 2 29 0
	ldr	r3, .L6+36
.LPIC9:
	add	r3, pc, r3
	mov	r0, r3
	bl	_Z15Iw2DCreateImagePKc(PLT)
	mov	r2, r0
	ldr	r3, [sp, #12]
	str	r2, [r3, #36]
	.loc 2 30 0
	ldr	r3, .L6+40
.LPIC10:
	add	r3, pc, r3
	mov	r0, r3
	bl	_Z15Iw2DCreateImagePKc(PLT)
	mov	r2, r0
	ldr	r3, [sp, #12]
	str	r2, [r3, #40]
	.loc 2 31 0
	ldr	r3, .L6+44
.LPIC11:
	add	r3, pc, r3
	mov	r0, r3
	bl	_Z15Iw2DCreateImagePKc(PLT)
	mov	r2, r0
	ldr	r3, [sp, #12]
	str	r2, [r3, #44]
	.loc 2 32 0
	ldr	r3, .L6+48
.LPIC12:
	add	r3, pc, r3
	mov	r0, r3
	bl	_Z15Iw2DCreateImagePKc(PLT)
	mov	r2, r0
	ldr	r3, [sp, #12]
	str	r2, [r3, #76]
	.loc 2 33 0
	ldr	r3, .L6+52
.LPIC13:
	add	r3, pc, r3
	mov	r0, r3
	bl	_Z15Iw2DCreateImagePKc(PLT)
	mov	r2, r0
	ldr	r3, [sp, #12]
	str	r2, [r3, #80]
	.loc 2 34 0
	ldr	r3, .L6+56
.LPIC14:
	add	r3, pc, r3
	mov	r0, r3
	bl	_Z15Iw2DCreateImagePKc(PLT)
	mov	r2, r0
	ldr	r3, [sp, #12]
	str	r2, [r3, #84]
	.loc 2 35 0
	ldr	r3, .L6+60
.LPIC15:
	add	r3, pc, r3
	mov	r0, r3
	bl	_Z15Iw2DCreateImagePKc(PLT)
	mov	r2, r0
	ldr	r3, [sp, #12]
	str	r2, [r3, #88]
	.loc 2 36 0
	ldr	r3, .L6+64
.LPIC16:
	add	r3, pc, r3
	mov	r0, r3
	bl	_Z15Iw2DCreateImagePKc(PLT)
	mov	r2, r0
	ldr	r3, [sp, #12]
	str	r2, [r3, #92]
	.loc 2 37 0
	ldr	r3, .L6+68
.LPIC17:
	add	r3, pc, r3
	mov	r0, r3
	bl	_Z15Iw2DCreateImagePKc(PLT)
	mov	r2, r0
	ldr	r3, [sp, #12]
	str	r2, [r3, #96]
	.loc 2 39 0
	ldr	r3, .L6+72
.LPIC18:
	add	r3, pc, r3
	mov	r0, r3
	bl	_Z14Iw2DCreateFontPKc(PLT)
	mov	r2, r0
	ldr	r3, [sp, #12]
	str	r2, [r3, #48]
	.loc 2 42 0
	ldr	r3, [sp, #12]
	ldr	r3, [r3]
	ldr	r3, [r3]
	ldr	r3, [r3]
	ldr	r2, [sp, #12]
	ldr	r2, [r2]
	mov	r0, r2
	blx	r3
	mov	r3, r0
	mov	r0, r3
	ldr	r1, .L6+76
	bl	__aeabi_fdiv(PLT)
	mov	r3, r0
	mov	r0, r3
	bl	__aeabi_f2iz(PLT)
	mov	r3, r0
	str	r3, [sp, #20]
	.loc 2 43 0
	ldr	r3, [sp, #12]
	ldr	r3, [r3]
	ldr	r3, [r3]
	add	r3, r3, #4
	ldr	r3, [r3]
	ldr	r2, [sp, #12]
	ldr	r2, [r2]
	mov	r0, r2
	blx	r3
	mov	r3, r0
	mov	r0, r3
	ldr	r1, .L6+80
	bl	__aeabi_fdiv(PLT)
	mov	r3, r0
	mov	r0, r3
	bl	__aeabi_f2iz(PLT)
	mov	r3, r0
	str	r3, [sp, #16]
	.loc 2 44 0
	mov	r0, #24
	bl	_Znwj(PLT)
	mov	r4, r0
	ldr	r3, [sp, #12]
	ldr	r3, [r3]
	str	r3, [sp]
	mov	r0, r4
	ldr	r1, [sp, #20]
	ldr	r2, [sp, #16]
	mov	r3, #15
	bl	_ZN14Iw2DSceneGraph6CAtlasC1EiiiP10CIw2DImage(PLT)
	ldr	r3, [sp, #12]
	str	r4, [r3, #52]
	.loc 2 46 0
	ldr	r0, [sp, #12]
	bl	_ZN9Resources17getInactivePlayerEv(PLT)
	mov	r3, r0
	ldr	r2, [r3]
	ldr	r2, [r2]
	mov	r0, r3
	blx	r2
	mov	r3, r0
	mov	r0, r3
	ldr	r1, .L6+84
	bl	__aeabi_fdiv(PLT)
	mov	r3, r0
	mov	r0, r3
	bl	__aeabi_f2iz(PLT)
	mov	r3, r0
	str	r3, [sp, #20]
	.loc 2 47 0
	ldr	r0, [sp, #12]
	bl	_ZN9Resources17getInactivePlayerEv(PLT)
	mov	r3, r0
	ldr	r2, [r3]
	add	r2, r2, #4
	ldr	r2, [r2]
	mov	r0, r3
	blx	r2
	mov	r3, r0
	mov	r0, r3
	mov	r1, #1073741824
	bl	__aeabi_fdiv(PLT)
	mov	r3, r0
	mov	r0, r3
	bl	__aeabi_f2iz(PLT)
	mov	r3, r0
	str	r3, [sp, #16]
	.loc 2 48 0
	mov	r0, #24
	bl	_Znwj(PLT)
	mov	r4, r0
	ldr	r3, [sp, #12]
	ldr	r3, [r3, #4]
	str	r3, [sp]
	mov	r0, r4
	ldr	r1, [sp, #20]
	ldr	r2, [sp, #16]
	mov	r3, #8
	bl	_ZN14Iw2DSceneGraph6CAtlasC1EiiiP10CIw2DImage(PLT)
	ldr	r3, [sp, #12]
	str	r4, [r3, #56]
	.loc 2 50 0
	mov	r0, #24
	bl	_Znwj(PLT)
	mov	r4, r0
	ldr	r3, [sp, #12]
	ldr	r3, [r3, #8]
	str	r3, [sp]
	mov	r0, r4
	ldr	r1, [sp, #20]
	ldr	r2, [sp, #16]
	mov	r3, #8
	bl	_ZN14Iw2DSceneGraph6CAtlasC1EiiiP10CIw2DImage(PLT)
	ldr	r3, [sp, #12]
	str	r4, [r3, #60]
	.loc 2 51 0
	mov	r0, #24
	bl	_Znwj(PLT)
	mov	r4, r0
	ldr	r3, [sp, #12]
	ldr	r3, [r3, #12]
	str	r3, [sp]
	mov	r0, r4
	ldr	r1, [sp, #20]
	ldr	r2, [sp, #16]
	mov	r3, #8
	bl	_ZN14Iw2DSceneGraph6CAtlasC1EiiiP10CIw2DImage(PLT)
	ldr	r3, [sp, #12]
	str	r4, [r3, #64]
	.loc 2 52 0
	mov	r0, #24
	bl	_Znwj(PLT)
	mov	r4, r0
	ldr	r3, [sp, #12]
	ldr	r3, [r3, #16]
	str	r3, [sp]
	mov	r0, r4
	ldr	r1, [sp, #20]
	ldr	r2, [sp, #16]
	mov	r3, #8
	bl	_ZN14Iw2DSceneGraph6CAtlasC1EiiiP10CIw2DImage(PLT)
	ldr	r3, [sp, #12]
	str	r4, [r3, #68]
	.loc 2 53 0
	mov	r0, #24
	bl	_Znwj(PLT)
	mov	r4, r0
	ldr	r3, [sp, #12]
	ldr	r3, [r3, #20]
	str	r3, [sp]
	mov	r0, r4
	ldr	r1, [sp, #20]
	ldr	r2, [sp, #16]
	mov	r3, #8
	bl	_ZN14Iw2DSceneGraph6CAtlasC1EiiiP10CIw2DImage(PLT)
	ldr	r3, [sp, #12]
	str	r4, [r3, #72]
.LBE3:
.LBE2:
	.loc 2 54 0
	ldr	r3, [sp, #12]
	mov	r0, r3
	add	sp, sp, #24
	@ sp needed
	ldmfd	sp!, {r4, pc}
.L7:
	.align	2
.L6:
	.word	.LC0-(.LPIC0+8)
	.word	.LC1-(.LPIC1+8)
	.word	.LC2-(.LPIC2+8)
	.word	.LC3-(.LPIC3+8)
	.word	.LC4-(.LPIC4+8)
	.word	.LC5-(.LPIC5+8)
	.word	.LC6-(.LPIC6+8)
	.word	.LC7-(.LPIC7+8)
	.word	.LC8-(.LPIC8+8)
	.word	.LC9-(.LPIC9+8)
	.word	.LC10-(.LPIC10+8)
	.word	.LC11-(.LPIC11+8)
	.word	.LC12-(.LPIC12+8)
	.word	.LC13-(.LPIC13+8)
	.word	.LC14-(.LPIC14+8)
	.word	.LC15-(.LPIC15+8)
	.word	.LC16-(.LPIC16+8)
	.word	.LC17-(.LPIC17+8)
	.word	.LC18-(.LPIC18+8)
	.word	1084227584
	.word	1077936128
	.word	1082130432
	.cfi_endproc
.LFE2478:
	.size	_ZN9ResourcesC2Ev, .-_ZN9ResourcesC2Ev
	.global	_ZN9ResourcesC1Ev
	.hidden	_ZN9ResourcesC1Ev
	.set	_ZN9ResourcesC1Ev,_ZN9ResourcesC2Ev
	.section	.text._ZN14Iw2DSceneGraph6CAtlasD2Ev,"axG",%progbits,_ZN14Iw2DSceneGraph6CAtlasD5Ev,comdat
	.align	2
	.weak	_ZN14Iw2DSceneGraph6CAtlasD2Ev
	.hidden	_ZN14Iw2DSceneGraph6CAtlasD2Ev
	.type	_ZN14Iw2DSceneGraph6CAtlasD2Ev, %function
_ZN14Iw2DSceneGraph6CAtlasD2Ev:
.LFB2482:
	.file 3 "c:/marmalade/7.5/modules/iw2dscenegraph/h/Iw2DSceneGraph.h"
	.loc 3 64 0
	.cfi_startproc
	@ args = 0, pretend = 0, frame = 8
	@ frame_needed = 0, uses_anonymous_args = 0
	str	lr, [sp, #-4]!
.LCFI3:
	.cfi_def_cfa_offset 4
	.cfi_offset 14, -4
	sub	sp, sp, #12
.LCFI4:
	.cfi_def_cfa_offset 16
	str	r0, [sp, #4]
.LBB4:
	.loc 3 64 0
	ldr	r3, [sp, #4]
	add	r3, r3, #4
	mov	r0, r3
	bl	_ZN4_STL6vectorI7CIwRectNS_9allocatorIS1_EEED1Ev(PLT)
.LBE4:
	ldr	r3, [sp, #4]
	mov	r0, r3
	add	sp, sp, #12
	@ sp needed
	ldr	pc, [sp], #4
	.cfi_endproc
.LFE2482:
	.size	_ZN14Iw2DSceneGraph6CAtlasD2Ev, .-_ZN14Iw2DSceneGraph6CAtlasD2Ev
	.weak	_ZN14Iw2DSceneGraph6CAtlasD1Ev
	.hidden	_ZN14Iw2DSceneGraph6CAtlasD1Ev
	.set	_ZN14Iw2DSceneGraph6CAtlasD1Ev,_ZN14Iw2DSceneGraph6CAtlasD2Ev
	.section	.text._ZN9ResourcesD2Ev,"ax",%progbits
	.align	2
	.global	_ZN9ResourcesD2Ev
	.hidden	_ZN9ResourcesD2Ev
	.type	_ZN9ResourcesD2Ev, %function
_ZN9ResourcesD2Ev:
.LFB2484:
	.loc 2 56 0
	.cfi_startproc
	@ args = 0, pretend = 0, frame = 8
	@ frame_needed = 0, uses_anonymous_args = 0
	stmfd	sp!, {r4, lr}
.LCFI5:
	.cfi_def_cfa_offset 8
	.cfi_offset 4, -8
	.cfi_offset 14, -4
	sub	sp, sp, #8
.LCFI6:
	.cfi_def_cfa_offset 16
	str	r0, [sp, #4]
.LBB5:
	.loc 2 58 0
	ldr	r3, [sp, #4]
	ldr	r4, [r3, #56]
	cmp	r4, #0
	beq	.L12
	.loc 2 58 0 is_stmt 0 discriminator 1
	mov	r0, r4
	bl	_ZN14Iw2DSceneGraph6CAtlasD1Ev(PLT)
	mov	r0, r4
	bl	_ZdlPv(PLT)
.L12:
	.loc 2 59 0 is_stmt 1
	ldr	r3, [sp, #4]
	ldr	r3, [r3, #8]
	cmp	r3, #0
	beq	.L13
	.loc 2 59 0 is_stmt 0 discriminator 1
	ldr	r3, [sp, #4]
	ldr	r3, [r3, #8]
	ldr	r3, [r3]
	add	r3, r3, #16
	ldr	r3, [r3]
	ldr	r2, [sp, #4]
	ldr	r2, [r2, #8]
	mov	r0, r2
	blx	r3
.L13:
	.loc 2 60 0 is_stmt 1
	ldr	r3, [sp, #4]
	ldr	r3, [r3, #12]
	cmp	r3, #0
	beq	.L14
	.loc 2 60 0 is_stmt 0 discriminator 1
	ldr	r3, [sp, #4]
	ldr	r3, [r3, #12]
	ldr	r3, [r3]
	add	r3, r3, #16
	ldr	r3, [r3]
	ldr	r2, [sp, #4]
	ldr	r2, [r2, #12]
	mov	r0, r2
	blx	r3
.L14:
	.loc 2 61 0 is_stmt 1
	ldr	r3, [sp, #4]
	ldr	r3, [r3, #16]
	cmp	r3, #0
	beq	.L15
	.loc 2 61 0 is_stmt 0 discriminator 1
	ldr	r3, [sp, #4]
	ldr	r3, [r3, #16]
	ldr	r3, [r3]
	add	r3, r3, #16
	ldr	r3, [r3]
	ldr	r2, [sp, #4]
	ldr	r2, [r2, #16]
	mov	r0, r2
	blx	r3
.L15:
	.loc 2 62 0 is_stmt 1
	ldr	r3, [sp, #4]
	ldr	r3, [r3, #20]
	cmp	r3, #0
	beq	.L16
	.loc 2 62 0 is_stmt 0 discriminator 1
	ldr	r3, [sp, #4]
	ldr	r3, [r3, #20]
	ldr	r3, [r3]
	add	r3, r3, #16
	ldr	r3, [r3]
	ldr	r2, [sp, #4]
	ldr	r2, [r2, #20]
	mov	r0, r2
	blx	r3
.L16:
	.loc 2 63 0 is_stmt 1
	ldr	r3, [sp, #4]
	ldr	r4, [r3, #60]
	cmp	r4, #0
	beq	.L17
	.loc 2 63 0 is_stmt 0 discriminator 1
	mov	r0, r4
	bl	_ZN14Iw2DSceneGraph6CAtlasD1Ev(PLT)
	mov	r0, r4
	bl	_ZdlPv(PLT)
.L17:
	.loc 2 64 0 is_stmt 1
	ldr	r3, [sp, #4]
	ldr	r4, [r3, #64]
	cmp	r4, #0
	beq	.L18
	.loc 2 64 0 is_stmt 0 discriminator 1
	mov	r0, r4
	bl	_ZN14Iw2DSceneGraph6CAtlasD1Ev(PLT)
	mov	r0, r4
	bl	_ZdlPv(PLT)
.L18:
	.loc 2 65 0 is_stmt 1
	ldr	r3, [sp, #4]
	ldr	r4, [r3, #68]
	cmp	r4, #0
	beq	.L19
	.loc 2 65 0 is_stmt 0 discriminator 1
	mov	r0, r4
	bl	_ZN14Iw2DSceneGraph6CAtlasD1Ev(PLT)
	mov	r0, r4
	bl	_ZdlPv(PLT)
.L19:
	.loc 2 66 0 is_stmt 1
	ldr	r3, [sp, #4]
	ldr	r4, [r3, #72]
	cmp	r4, #0
	beq	.L20
	.loc 2 66 0 is_stmt 0 discriminator 1
	mov	r0, r4
	bl	_ZN14Iw2DSceneGraph6CAtlasD1Ev(PLT)
	mov	r0, r4
	bl	_ZdlPv(PLT)
.L20:
	.loc 2 67 0 is_stmt 1
	ldr	r3, [sp, #4]
	ldr	r4, [r3, #52]
	cmp	r4, #0
	beq	.L21
	.loc 2 67 0 is_stmt 0 discriminator 1
	mov	r0, r4
	bl	_ZN14Iw2DSceneGraph6CAtlasD1Ev(PLT)
	mov	r0, r4
	bl	_ZdlPv(PLT)
.L21:
	.loc 2 68 0 is_stmt 1
	ldr	r3, [sp, #4]
	ldr	r3, [r3, #76]
	cmp	r3, #0
	beq	.L22
	.loc 2 68 0 is_stmt 0 discriminator 1
	ldr	r3, [sp, #4]
	ldr	r3, [r3, #76]
	ldr	r3, [r3]
	add	r3, r3, #16
	ldr	r3, [r3]
	ldr	r2, [sp, #4]
	ldr	r2, [r2, #76]
	mov	r0, r2
	blx	r3
.L22:
	.loc 2 69 0 is_stmt 1
	ldr	r3, [sp, #4]
	ldr	r3, [r3, #80]
	cmp	r3, #0
	beq	.L23
	.loc 2 69 0 is_stmt 0 discriminator 1
	ldr	r3, [sp, #4]
	ldr	r3, [r3, #80]
	ldr	r3, [r3]
	add	r3, r3, #16
	ldr	r3, [r3]
	ldr	r2, [sp, #4]
	ldr	r2, [r2, #80]
	mov	r0, r2
	blx	r3
.L23:
	.loc 2 70 0 is_stmt 1
	ldr	r3, [sp, #4]
	ldr	r3, [r3]
	cmp	r3, #0
	beq	.L24
	.loc 2 70 0 is_stmt 0 discriminator 1
	ldr	r3, [sp, #4]
	ldr	r3, [r3]
	ldr	r3, [r3]
	add	r3, r3, #16
	ldr	r3, [r3]
	ldr	r2, [sp, #4]
	ldr	r2, [r2]
	mov	r0, r2
	blx	r3
.L24:
	.loc 2 71 0 is_stmt 1
	ldr	r3, [sp, #4]
	ldr	r3, [r3, #24]
	cmp	r3, #0
	beq	.L25
	.loc 2 71 0 is_stmt 0 discriminator 1
	ldr	r3, [sp, #4]
	ldr	r3, [r3, #24]
	ldr	r3, [r3]
	add	r3, r3, #16
	ldr	r3, [r3]
	ldr	r2, [sp, #4]
	ldr	r2, [r2, #24]
	mov	r0, r2
	blx	r3
.L25:
	.loc 2 72 0 is_stmt 1
	ldr	r3, [sp, #4]
	ldr	r3, [r3, #28]
	cmp	r3, #0
	beq	.L26
	.loc 2 72 0 is_stmt 0 discriminator 1
	ldr	r3, [sp, #4]
	ldr	r3, [r3, #28]
	ldr	r3, [r3]
	add	r3, r3, #16
	ldr	r3, [r3]
	ldr	r2, [sp, #4]
	ldr	r2, [r2, #28]
	mov	r0, r2
	blx	r3
.L26:
	.loc 2 73 0 is_stmt 1
	ldr	r3, [sp, #4]
	ldr	r3, [r3, #32]
	cmp	r3, #0
	beq	.L27
	.loc 2 73 0 is_stmt 0 discriminator 1
	ldr	r3, [sp, #4]
	ldr	r3, [r3, #32]
	ldr	r3, [r3]
	add	r3, r3, #16
	ldr	r3, [r3]
	ldr	r2, [sp, #4]
	ldr	r2, [r2, #32]
	mov	r0, r2
	blx	r3
.L27:
	.loc 2 74 0 is_stmt 1
	ldr	r3, [sp, #4]
	ldr	r3, [r3, #40]
	cmp	r3, #0
	beq	.L28
	.loc 2 74 0 is_stmt 0 discriminator 1
	ldr	r3, [sp, #4]
	ldr	r3, [r3, #40]
	ldr	r3, [r3]
	add	r3, r3, #16
	ldr	r3, [r3]
	ldr	r2, [sp, #4]
	ldr	r2, [r2, #40]
	mov	r0, r2
	blx	r3
.L28:
	.loc 2 75 0 is_stmt 1
	ldr	r3, [sp, #4]
	ldr	r3, [r3, #36]
	cmp	r3, #0
	beq	.L29
	.loc 2 75 0 is_stmt 0 discriminator 1
	ldr	r3, [sp, #4]
	ldr	r3, [r3, #36]
	ldr	r3, [r3]
	add	r3, r3, #16
	ldr	r3, [r3]
	ldr	r2, [sp, #4]
	ldr	r2, [r2, #36]
	mov	r0, r2
	blx	r3
.L29:
	.loc 2 76 0 is_stmt 1
	ldr	r3, [sp, #4]
	ldr	r3, [r3, #44]
	cmp	r3, #0
	beq	.L30
	.loc 2 76 0 is_stmt 0 discriminator 1
	ldr	r3, [sp, #4]
	ldr	r3, [r3, #44]
	ldr	r3, [r3]
	add	r3, r3, #16
	ldr	r3, [r3]
	ldr	r2, [sp, #4]
	ldr	r2, [r2, #44]
	mov	r0, r2
	blx	r3
.L30:
	.loc 2 77 0 is_stmt 1
	ldr	r3, [sp, #4]
	ldr	r3, [r3, #48]
	cmp	r3, #0
	beq	.L31
	.loc 2 77 0 is_stmt 0 discriminator 1
	ldr	r3, [sp, #4]
	ldr	r3, [r3, #48]
	ldr	r3, [r3]
	add	r3, r3, #12
	ldr	r3, [r3]
	ldr	r2, [sp, #4]
	ldr	r2, [r2, #48]
	mov	r0, r2
	blx	r3
.L31:
	.loc 2 78 0 is_stmt 1
	ldr	r3, [sp, #4]
	ldr	r3, [r3, #84]
	cmp	r3, #0
	beq	.L32
	.loc 2 78 0 is_stmt 0 discriminator 1
	ldr	r3, [sp, #4]
	ldr	r3, [r3, #84]
	ldr	r3, [r3]
	add	r3, r3, #16
	ldr	r3, [r3]
	ldr	r2, [sp, #4]
	ldr	r2, [r2, #84]
	mov	r0, r2
	blx	r3
.L32:
	.loc 2 79 0 is_stmt 1
	ldr	r3, [sp, #4]
	ldr	r3, [r3, #88]
	cmp	r3, #0
	beq	.L33
	.loc 2 79 0 is_stmt 0 discriminator 1
	ldr	r3, [sp, #4]
	ldr	r3, [r3, #88]
	ldr	r3, [r3]
	add	r3, r3, #16
	ldr	r3, [r3]
	ldr	r2, [sp, #4]
	ldr	r2, [r2, #88]
	mov	r0, r2
	blx	r3
.L33:
	.loc 2 80 0 is_stmt 1
	ldr	r3, [sp, #4]
	ldr	r3, [r3, #92]
	cmp	r3, #0
	beq	.L34
	.loc 2 80 0 is_stmt 0 discriminator 1
	ldr	r3, [sp, #4]
	ldr	r3, [r3, #92]
	ldr	r3, [r3]
	add	r3, r3, #16
	ldr	r3, [r3]
	ldr	r2, [sp, #4]
	ldr	r2, [r2, #92]
	mov	r0, r2
	blx	r3
.L34:
	.loc 2 81 0 is_stmt 1
	ldr	r3, [sp, #4]
	ldr	r3, [r3, #96]
	cmp	r3, #0
	beq	.L35
	.loc 2 81 0 is_stmt 0 discriminator 1
	ldr	r3, [sp, #4]
	ldr	r3, [r3, #96]
	ldr	r3, [r3]
	add	r3, r3, #16
	ldr	r3, [r3]
	ldr	r2, [sp, #4]
	ldr	r2, [r2, #96]
	mov	r0, r2
	blx	r3
.L35:
.LBE5:
	.loc 2 82 0 is_stmt 1
	ldr	r3, [sp, #4]
	mov	r0, r3
	add	sp, sp, #8
	@ sp needed
	ldmfd	sp!, {r4, pc}
	.cfi_endproc
.LFE2484:
	.size	_ZN9ResourcesD2Ev, .-_ZN9ResourcesD2Ev
	.global	_ZN9ResourcesD1Ev
	.hidden	_ZN9ResourcesD1Ev
	.set	_ZN9ResourcesD1Ev,_ZN9ResourcesD2Ev
	.hidden	g_pResources
	.global	g_pResources
	.bss
	.align	2
	.type	g_pResources, %object
	.size	g_pResources, 4
g_pResources:
	.space	4
	.section	.text._ZN4_STL6vectorI7CIwRectNS_9allocatorIS1_EEED2Ev,"axG",%progbits,_ZN4_STL6vectorI7CIwRectNS_9allocatorIS1_EEED5Ev,comdat
	.align	2
	.weak	_ZN4_STL6vectorI7CIwRectNS_9allocatorIS1_EEED2Ev
	.hidden	_ZN4_STL6vectorI7CIwRectNS_9allocatorIS1_EEED2Ev
	.type	_ZN4_STL6vectorI7CIwRectNS_9allocatorIS1_EEED2Ev, %function
_ZN4_STL6vectorI7CIwRectNS_9allocatorIS1_EEED2Ev:
.LFB2554:
	.file 4 "c:/marmalade/7.5/s3e/h/std/c++/stl/_vector.h"
	.loc 4 258 0
	.cfi_startproc
	@ args = 0, pretend = 0, frame = 8
	@ frame_needed = 0, uses_anonymous_args = 0
	str	lr, [sp, #-4]!
.LCFI7:
	.cfi_def_cfa_offset 4
	.cfi_offset 14, -4
	sub	sp, sp, #12
.LCFI8:
	.cfi_def_cfa_offset 16
	str	r0, [sp, #4]
.LBB6:
	.loc 4 258 0
	ldr	r3, [sp, #4]
	ldr	r2, [r3]
	ldr	r3, [sp, #4]
	ldr	r3, [r3, #4]
	mov	r0, r2
	mov	r1, r3
	bl	_ZN4_STL8_DestroyIP7CIwRectEEvT_S3_(PLT)
	ldr	r3, [sp, #4]
	mov	r0, r3
	bl	_ZN4_STL12_Vector_baseI7CIwRectNS_9allocatorIS1_EEED2Ev(PLT)
.LBE6:
	ldr	r3, [sp, #4]
	mov	r0, r3
	add	sp, sp, #12
	@ sp needed
	ldr	pc, [sp], #4
	.cfi_endproc
.LFE2554:
	.size	_ZN4_STL6vectorI7CIwRectNS_9allocatorIS1_EEED2Ev, .-_ZN4_STL6vectorI7CIwRectNS_9allocatorIS1_EEED2Ev
	.weak	_ZN4_STL6vectorI7CIwRectNS_9allocatorIS1_EEED1Ev
	.hidden	_ZN4_STL6vectorI7CIwRectNS_9allocatorIS1_EEED1Ev
	.set	_ZN4_STL6vectorI7CIwRectNS_9allocatorIS1_EEED1Ev,_ZN4_STL6vectorI7CIwRectNS_9allocatorIS1_EEED2Ev
	.section	.text._ZN4_STL17_STLP_alloc_proxyIP7CIwRectS1_NS_9allocatorIS1_EEED2Ev,"axG",%progbits,_ZN4_STL17_STLP_alloc_proxyIP7CIwRectS1_NS_9allocatorIS1_EEED5Ev,comdat
	.align	2
	.weak	_ZN4_STL17_STLP_alloc_proxyIP7CIwRectS1_NS_9allocatorIS1_EEED2Ev
	.hidden	_ZN4_STL17_STLP_alloc_proxyIP7CIwRectS1_NS_9allocatorIS1_EEED2Ev
	.type	_ZN4_STL17_STLP_alloc_proxyIP7CIwRectS1_NS_9allocatorIS1_EEED2Ev, %function
_ZN4_STL17_STLP_alloc_proxyIP7CIwRectS1_NS_9allocatorIS1_EEED2Ev:
.LFB2589:
	.file 5 "c:/marmalade/7.5/s3e/h/std/c++/stl/_alloc.h"
	.loc 5 481 0
	.cfi_startproc
	@ args = 0, pretend = 0, frame = 8
	@ frame_needed = 0, uses_anonymous_args = 0
	str	lr, [sp, #-4]!
.LCFI9:
	.cfi_def_cfa_offset 4
	.cfi_offset 14, -4
	sub	sp, sp, #12
.LCFI10:
	.cfi_def_cfa_offset 16
	str	r0, [sp, #4]
.LBB7:
	.loc 5 481 0
	ldr	r0, [sp, #4]
	bl	_ZN4_STL9allocatorI7CIwRectED2Ev(PLT)
.LBE7:
	ldr	r3, [sp, #4]
	mov	r0, r3
	add	sp, sp, #12
	@ sp needed
	ldr	pc, [sp], #4
	.cfi_endproc
.LFE2589:
	.size	_ZN4_STL17_STLP_alloc_proxyIP7CIwRectS1_NS_9allocatorIS1_EEED2Ev, .-_ZN4_STL17_STLP_alloc_proxyIP7CIwRectS1_NS_9allocatorIS1_EEED2Ev
	.weak	_ZN4_STL17_STLP_alloc_proxyIP7CIwRectS1_NS_9allocatorIS1_EEED1Ev
	.hidden	_ZN4_STL17_STLP_alloc_proxyIP7CIwRectS1_NS_9allocatorIS1_EEED1Ev
	.set	_ZN4_STL17_STLP_alloc_proxyIP7CIwRectS1_NS_9allocatorIS1_EEED1Ev,_ZN4_STL17_STLP_alloc_proxyIP7CIwRectS1_NS_9allocatorIS1_EEED2Ev
	.section	.text._ZN4_STL12_Vector_baseI7CIwRectNS_9allocatorIS1_EEED2Ev,"axG",%progbits,_ZN4_STL12_Vector_baseI7CIwRectNS_9allocatorIS1_EEED5Ev,comdat
	.align	2
	.weak	_ZN4_STL12_Vector_baseI7CIwRectNS_9allocatorIS1_EEED2Ev
	.hidden	_ZN4_STL12_Vector_baseI7CIwRectNS_9allocatorIS1_EEED2Ev
	.type	_ZN4_STL12_Vector_baseI7CIwRectNS_9allocatorIS1_EEED2Ev, %function
_ZN4_STL12_Vector_baseI7CIwRectNS_9allocatorIS1_EEED2Ev:
.LFB2591:
	.loc 4 83 0
	.cfi_startproc
	@ args = 0, pretend = 0, frame = 8
	@ frame_needed = 0, uses_anonymous_args = 0
	str	lr, [sp, #-4]!
.LCFI11:
	.cfi_def_cfa_offset 4
	.cfi_offset 14, -4
	sub	sp, sp, #12
.LCFI12:
	.cfi_def_cfa_offset 16
	str	r0, [sp, #4]
.LBB8:
	.loc 4 84 0
	ldr	r3, [sp, #4]
	ldr	r3, [r3]
	cmp	r3, #0
	beq	.L44
	.loc 4 85 0
	ldr	r3, [sp, #4]
	add	r1, r3, #8
	ldr	r3, [sp, #4]
	ldr	r2, [r3]
	ldr	r3, [sp, #4]
	ldr	r3, [r3, #8]
	mov	r0, r3
	ldr	r3, [sp, #4]
	ldr	r3, [r3]
	rsb	r3, r3, r0
	mov	r3, r3, asr #3
	mov	r0, r1
	mov	r1, r2
	mov	r2, r3
	bl	_ZN4_STL9allocatorI7CIwRectE10deallocateEPS1_j(PLT)
.L44:
	.loc 4 86 0
	ldr	r3, [sp, #4]
	add	r3, r3, #8
	mov	r0, r3
	bl	_ZN4_STL17_STLP_alloc_proxyIP7CIwRectS1_NS_9allocatorIS1_EEED1Ev(PLT)
.LBE8:
	ldr	r3, [sp, #4]
	mov	r0, r3
	add	sp, sp, #12
	@ sp needed
	ldr	pc, [sp], #4
	.cfi_endproc
.LFE2591:
	.size	_ZN4_STL12_Vector_baseI7CIwRectNS_9allocatorIS1_EEED2Ev, .-_ZN4_STL12_Vector_baseI7CIwRectNS_9allocatorIS1_EEED2Ev
	.weak	_ZN4_STL12_Vector_baseI7CIwRectNS_9allocatorIS1_EEED1Ev
	.hidden	_ZN4_STL12_Vector_baseI7CIwRectNS_9allocatorIS1_EEED1Ev
	.set	_ZN4_STL12_Vector_baseI7CIwRectNS_9allocatorIS1_EEED1Ev,_ZN4_STL12_Vector_baseI7CIwRectNS_9allocatorIS1_EEED2Ev
	.section	.text._ZN4_STL8_DestroyIP7CIwRectEEvT_S3_,"axG",%progbits,_ZN4_STL8_DestroyIP7CIwRectEEvT_S3_,comdat
	.align	2
	.weak	_ZN4_STL8_DestroyIP7CIwRectEEvT_S3_
	.hidden	_ZN4_STL8_DestroyIP7CIwRectEEvT_S3_
	.type	_ZN4_STL8_DestroyIP7CIwRectEEvT_S3_, %function
_ZN4_STL8_DestroyIP7CIwRectEEvT_S3_:
.LFB2593:
	.file 6 "c:/marmalade/7.5/s3e/h/std/c++/stl/_construct.h"
	.loc 6 138 0
	.cfi_startproc
	@ args = 0, pretend = 0, frame = 8
	@ frame_needed = 0, uses_anonymous_args = 0
	str	lr, [sp, #-4]!
.LCFI13:
	.cfi_def_cfa_offset 4
	.cfi_offset 14, -4
	sub	sp, sp, #12
.LCFI14:
	.cfi_def_cfa_offset 16
	str	r0, [sp, #4]
	str	r1, [sp]
	.loc 6 139 0
	ldr	r0, [sp, #4]
	ldr	r1, [sp]
	mov	r2, #0
	bl	_ZN4_STL9__destroyIP7CIwRectS1_EEvT_S3_PT0_(PLT)
	.loc 6 140 0
	add	sp, sp, #12
	@ sp needed
	ldr	pc, [sp], #4
	.cfi_endproc
.LFE2593:
	.size	_ZN4_STL8_DestroyIP7CIwRectEEvT_S3_, .-_ZN4_STL8_DestroyIP7CIwRectEEvT_S3_
	.section	.text._ZN4_STL9allocatorI7CIwRectED2Ev,"axG",%progbits,_ZN4_STL9allocatorI7CIwRectED5Ev,comdat
	.align	2
	.weak	_ZN4_STL9allocatorI7CIwRectED2Ev
	.hidden	_ZN4_STL9allocatorI7CIwRectED2Ev
	.type	_ZN4_STL9allocatorI7CIwRectED2Ev, %function
_ZN4_STL9allocatorI7CIwRectED2Ev:
.LFB2614:
	.loc 5 350 0
	.cfi_startproc
	@ args = 0, pretend = 0, frame = 8
	@ frame_needed = 0, uses_anonymous_args = 0
	@ link register save eliminated.
	sub	sp, sp, #8
.LCFI15:
	.cfi_def_cfa_offset 8
	str	r0, [sp, #4]
	.loc 5 350 0
	ldr	r3, [sp, #4]
	mov	r0, r3
	add	sp, sp, #8
	@ sp needed
	bx	lr
	.cfi_endproc
.LFE2614:
	.size	_ZN4_STL9allocatorI7CIwRectED2Ev, .-_ZN4_STL9allocatorI7CIwRectED2Ev
	.weak	_ZN4_STL9allocatorI7CIwRectED1Ev
	.hidden	_ZN4_STL9allocatorI7CIwRectED1Ev
	.set	_ZN4_STL9allocatorI7CIwRectED1Ev,_ZN4_STL9allocatorI7CIwRectED2Ev
	.section	.text._ZN4_STL9allocatorI7CIwRectE10deallocateEPS1_j,"axG",%progbits,_ZN4_STL9allocatorI7CIwRectE10deallocateEPS1_j,comdat
	.align	2
	.weak	_ZN4_STL9allocatorI7CIwRectE10deallocateEPS1_j
	.hidden	_ZN4_STL9allocatorI7CIwRectE10deallocateEPS1_j
	.type	_ZN4_STL9allocatorI7CIwRectE10deallocateEPS1_j, %function
_ZN4_STL9allocatorI7CIwRectE10deallocateEPS1_j:
.LFB2616:
	.loc 5 358 0
	.cfi_startproc
	@ args = 0, pretend = 0, frame = 16
	@ frame_needed = 0, uses_anonymous_args = 0
	str	lr, [sp, #-4]!
.LCFI16:
	.cfi_def_cfa_offset 4
	.cfi_offset 14, -4
	sub	sp, sp, #20
.LCFI17:
	.cfi_def_cfa_offset 24
	str	r0, [sp, #12]
	str	r1, [sp, #8]
	str	r2, [sp, #4]
	.loc 5 360 0
	ldr	r3, [sp, #8]
	cmp	r3, #0
	beq	.L51
	.loc 5 360 0 is_stmt 0 discriminator 1
	ldr	r3, [sp, #4]
	mov	r3, r3, asl #3
	ldr	r0, [sp, #8]
	mov	r1, r3
	bl	_ZN4_STL14__malloc_allocILi0EE10deallocateEPvj(PLT)
.L51:
	.loc 5 361 0 is_stmt 1
	add	sp, sp, #20
	@ sp needed
	ldr	pc, [sp], #4
	.cfi_endproc
.LFE2616:
	.size	_ZN4_STL9allocatorI7CIwRectE10deallocateEPS1_j, .-_ZN4_STL9allocatorI7CIwRectE10deallocateEPS1_j
	.section	.text._ZN4_STL9__destroyIP7CIwRectS1_EEvT_S3_PT0_,"axG",%progbits,_ZN4_STL9__destroyIP7CIwRectS1_EEvT_S3_PT0_,comdat
	.align	2
	.weak	_ZN4_STL9__destroyIP7CIwRectS1_EEvT_S3_PT0_
	.hidden	_ZN4_STL9__destroyIP7CIwRectS1_EEvT_S3_PT0_
	.type	_ZN4_STL9__destroyIP7CIwRectS1_EEvT_S3_PT0_, %function
_ZN4_STL9__destroyIP7CIwRectS1_EEvT_S3_PT0_:
.LFB2617:
	.loc 6 132 0
	.cfi_startproc
	@ args = 0, pretend = 0, frame = 24
	@ frame_needed = 0, uses_anonymous_args = 0
	str	lr, [sp, #-4]!
.LCFI18:
	.cfi_def_cfa_offset 4
	.cfi_offset 14, -4
	sub	sp, sp, #28
.LCFI19:
	.cfi_def_cfa_offset 32
	str	r0, [sp, #12]
	str	r1, [sp, #8]
	str	r2, [sp, #4]
.LBB9:
	.loc 6 134 0
	add	r3, sp, #20
	ldr	r0, [sp, #12]
	ldr	r1, [sp, #8]
	mov	r2, r3
	bl	_ZN4_STL13__destroy_auxIP7CIwRectEEvT_S3_RKNS_12__false_typeE(PLT)
.LBE9:
	.loc 6 135 0
	add	sp, sp, #28
	@ sp needed
	ldr	pc, [sp], #4
	.cfi_endproc
.LFE2617:
	.size	_ZN4_STL9__destroyIP7CIwRectS1_EEvT_S3_PT0_, .-_ZN4_STL9__destroyIP7CIwRectS1_EEvT_S3_PT0_
	.section	.text._ZN4_STL14__malloc_allocILi0EE10deallocateEPvj,"axG",%progbits,_ZN4_STL14__malloc_allocILi0EE10deallocateEPvj,comdat
	.align	2
	.weak	_ZN4_STL14__malloc_allocILi0EE10deallocateEPvj
	.hidden	_ZN4_STL14__malloc_allocILi0EE10deallocateEPvj
	.type	_ZN4_STL14__malloc_allocILi0EE10deallocateEPvj, %function
_ZN4_STL14__malloc_allocILi0EE10deallocateEPvj:
.LFB2626:
	.loc 5 114 0
	.cfi_startproc
	@ args = 0, pretend = 0, frame = 8
	@ frame_needed = 0, uses_anonymous_args = 0
	str	lr, [sp, #-4]!
.LCFI20:
	.cfi_def_cfa_offset 4
	.cfi_offset 14, -4
	sub	sp, sp, #12
.LCFI21:
	.cfi_def_cfa_offset 16
	str	r0, [sp, #4]
	str	r1, [sp]
	.loc 5 114 0
	ldr	r0, [sp, #4]
	bl	free(PLT)
	add	sp, sp, #12
	@ sp needed
	ldr	pc, [sp], #4
	.cfi_endproc
.LFE2626:
	.size	_ZN4_STL14__malloc_allocILi0EE10deallocateEPvj, .-_ZN4_STL14__malloc_allocILi0EE10deallocateEPvj
	.section	.text._ZN4_STL13__destroy_auxIP7CIwRectEEvT_S3_RKNS_12__false_typeE,"axG",%progbits,_ZN4_STL13__destroy_auxIP7CIwRectEEvT_S3_RKNS_12__false_typeE,comdat
	.align	2
	.weak	_ZN4_STL13__destroy_auxIP7CIwRectEEvT_S3_RKNS_12__false_typeE
	.hidden	_ZN4_STL13__destroy_auxIP7CIwRectEEvT_S3_RKNS_12__false_typeE
	.type	_ZN4_STL13__destroy_auxIP7CIwRectEEvT_S3_RKNS_12__false_typeE, %function
_ZN4_STL13__destroy_auxIP7CIwRectEEvT_S3_RKNS_12__false_typeE:
.LFB2627:
	.loc 6 122 0
	.cfi_startproc
	@ args = 0, pretend = 0, frame = 16
	@ frame_needed = 0, uses_anonymous_args = 0
	str	lr, [sp, #-4]!
.LCFI22:
	.cfi_def_cfa_offset 4
	.cfi_offset 14, -4
	sub	sp, sp, #20
.LCFI23:
	.cfi_def_cfa_offset 24
	str	r0, [sp, #12]
	str	r1, [sp, #8]
	str	r2, [sp, #4]
	.loc 6 123 0
	b	.L56
.L57:
	.loc 6 124 0 discriminator 2
	ldr	r0, [sp, #12]
	bl	_ZN4_STL8_DestroyI7CIwRectEEvPT_(PLT)
	.loc 6 123 0 discriminator 2
	ldr	r3, [sp, #12]
	add	r3, r3, #8
	str	r3, [sp, #12]
.L56:
	.loc 6 123 0 is_stmt 0 discriminator 1
	ldr	r2, [sp, #12]
	ldr	r3, [sp, #8]
	cmp	r2, r3
	bne	.L57
	.loc 6 125 0 is_stmt 1
	add	sp, sp, #20
	@ sp needed
	ldr	pc, [sp], #4
	.cfi_endproc
.LFE2627:
	.size	_ZN4_STL13__destroy_auxIP7CIwRectEEvT_S3_RKNS_12__false_typeE, .-_ZN4_STL13__destroy_auxIP7CIwRectEEvT_S3_RKNS_12__false_typeE
	.section	.text._ZN4_STL8_DestroyI7CIwRectEEvPT_,"axG",%progbits,_ZN4_STL8_DestroyI7CIwRectEEvPT_,comdat
	.align	2
	.weak	_ZN4_STL8_DestroyI7CIwRectEEvPT_
	.hidden	_ZN4_STL8_DestroyI7CIwRectEEvPT_
	.type	_ZN4_STL8_DestroyI7CIwRectEEvPT_, %function
_ZN4_STL8_DestroyI7CIwRectEEvPT_:
.LFB2634:
	.loc 6 56 0
	.cfi_startproc
	@ args = 0, pretend = 0, frame = 8
	@ frame_needed = 0, uses_anonymous_args = 0
	@ link register save eliminated.
	sub	sp, sp, #8
.LCFI24:
	.cfi_def_cfa_offset 8
	str	r0, [sp, #4]
	.loc 6 73 0
	add	sp, sp, #8
	@ sp needed
	bx	lr
	.cfi_endproc
.LFE2634:
	.size	_ZN4_STL8_DestroyI7CIwRectEEvPT_, .-_ZN4_STL8_DestroyI7CIwRectEEvPT_
	.text
.Letext0:
	.file 7 "c:/marmalade/7.5/s3e/h/s3eTypes.h"
	.file 8 "c:/marmalade/7.5/s3e/h/std/stddef.h"
	.file 9 "c:/marmalade/7.5/s3e/h/std/stdarg.h"
	.file 10 "c:/marmalade/7.5/s3e/h/std/stdio.h"
	.file 11 "c:/marmalade/7.5/s3e/h/std/stdlib.h"
	.file 12 "c:/marmalade/7.5/s3e/h/std/c++/typeinfo.h"
	.file 13 "c:/marmalade/7.5/s3e/h/std/c++/exception"
	.file 14 "c:/marmalade/7.5/s3e/h/std/c++/typeinfo"
	.file 15 "c:/marmalade/7.5/s3e/h/std/c++/cstddef"
	.file 16 "c:/marmalade/7.5/s3e/h/std/c++/using/cstring"
	.file 17 "c:/marmalade/7.5/s3e/h/std/c++/cstdlib"
	.file 18 "c:/marmalade/7.5/s3e/h/std/c++/stl/type_traits.h"
	.file 19 "c:/marmalade/7.5/s3e/h/std/c++/cstdio"
	.file 20 "c:/marmalade/7.5/s3e/h/std/c++/cwchar"
	.file 21 "<built-in>"
	.file 22 "c:/marmalade/7.5/s3e/h/std/c++/stl/_vector.c"
	.file 23 "c:/marmalade/7.5/s3e/h/std/c++/stl/_config.h"
	.file 24 "c:/marmalade/7.5/s3e/h/s3eFile.h"
	.file 25 "c:/marmalade/7.5/modules/iwutil/h/IwSerialise.h"
	.file 26 "c:/marmalade/7.5/modules/iwgeom/h/IwGeomCore.h"
	.file 27 "c:/marmalade/7.5/modules/iwgx/h/IwColour.h"
	.file 28 "c:/marmalade/7.5/s3e/h/s3eDebug.h"
	.file 29 "c:/marmalade/7.5/modules/iwutil/h/IwEvent.h"
	.file 30 "c:/marmalade/7.5/s3e/h/std/string.h"
	.file 31 "c:/marmalade/7.5/modules/iwgx/h/IwGxTypes.h"
	.file 32 "c:/marmalade/7.5/s3e/h/std/time.h"
	.file 33 "c:/marmalade/7.5/s3e/h/ext/../std/wchar.h"
	.file 34 "c:/marmalade/7.5/modules/iw2d/h/Iw2D.h"
	.file 35 "c:/marmalade/7.5/modules/iwgeom/h/IwGeomSqrt.h"
	.file 36 "c:/marmalade/7.5/modules/iwutil/h/IwMenu.h"
	.file 37 "c:/marmalade/7.5/modules/iwutil/h/IwTextParserITX.h"
	.file 38 "c:/marmalade/7.5/modules/iwutil/h/IwTypes.h"
	.file 39 "c:/marmalade/7.5/modules/iw2dscenegraphcore/h/Iw2DSceneGraphCore.h"