	.arch armv6
	.fpu softvfp
	.eabi_attribute 20, 1
	.eabi_attribute 21, 1
	.eabi_attribute 23, 3
	.eabi_attribute 24, 1
	.eabi_attribute 25, 1
	.eabi_attribute 26, 2
	.eabi_attribute 30, 6
	.eabi_attribute 34, 1
	.eabi_attribute 18, 2
	.file	"scene.cpp"
	.text
.Ltext0:
	.cfi_sections	.debug_frame
	.section	.text._ZnwjPv,"axG",%progbits,_ZnwjPv,comdat
	.align	2
	.weak	_ZnwjPv
	.hidden	_ZnwjPv
	.type	_ZnwjPv, %function
_ZnwjPv:
.LFB164:
	.file 1 "c:/marmalade/7.5/s3e/h/std/c++/new.h"
	.loc 1 52 0
	.cfi_startproc
	@ args = 0, pretend = 0, frame = 8
	@ frame_needed = 0, uses_anonymous_args = 0
	@ link register save eliminated.
	sub	sp, sp, #8
.LCFI0:
	.cfi_def_cfa_offset 8
	str	r0, [sp, #4]
	str	r1, [sp]
	.loc 1 52 0
	ldr	r3, [sp]
	mov	r0, r3
	add	sp, sp, #8
	@ sp needed
	bx	lr
	.cfi_endproc
.LFE164:
	.size	_ZnwjPv, .-_ZnwjPv
	.section	.text._ZN4_STL19_List_iterator_baseC2EPNS_15_List_node_baseE,"axG",%progbits,_ZN4_STL19_List_iterator_baseC5EPNS_15_List_node_baseE,comdat
	.align	2
	.weak	_ZN4_STL19_List_iterator_baseC2EPNS_15_List_node_baseE
	.hidden	_ZN4_STL19_List_iterator_baseC2EPNS_15_List_node_baseE
	.type	_ZN4_STL19_List_iterator_baseC2EPNS_15_List_node_baseE, %function
_ZN4_STL19_List_iterator_baseC2EPNS_15_List_node_baseE:
.LFB269:
	.file 2 "c:/marmalade/7.5/s3e/h/std/c++/stl/_list.h"
	.loc 2 95 0
	.cfi_startproc
	@ args = 0, pretend = 0, frame = 8
	@ frame_needed = 0, uses_anonymous_args = 0
	@ link register save eliminated.
	sub	sp, sp, #8
.LCFI1:
	.cfi_def_cfa_offset 8
	str	r0, [sp, #4]
	str	r1, [sp]
.LBB2:
	.loc 2 95 0
	ldr	r3, [sp, #4]
	ldr	r2, [sp]
	str	r2, [r3]
.LBE2:
	ldr	r3, [sp, #4]
	mov	r0, r3
	add	sp, sp, #8
	@ sp needed
	bx	lr
	.cfi_endproc
.LFE269:
	.size	_ZN4_STL19_List_iterator_baseC2EPNS_15_List_node_baseE, .-_ZN4_STL19_List_iterator_baseC2EPNS_15_List_node_baseE
	.weak	_ZN4_STL19_List_iterator_baseC1EPNS_15_List_node_baseE
	.hidden	_ZN4_STL19_List_iterator_baseC1EPNS_15_List_node_baseE
	.set	_ZN4_STL19_List_iterator_baseC1EPNS_15_List_node_baseE,_ZN4_STL19_List_iterator_baseC2EPNS_15_List_node_baseE
	.section	.text._ZN4_STL19_List_iterator_base7_M_incrEv,"axG",%progbits,_ZN4_STL19_List_iterator_base7_M_incrEv,comdat
	.align	2
	.weak	_ZN4_STL19_List_iterator_base7_M_incrEv
	.hidden	_ZN4_STL19_List_iterator_base7_M_incrEv
	.type	_ZN4_STL19_List_iterator_base7_M_incrEv, %function
_ZN4_STL19_List_iterator_base7_M_incrEv:
.LFB274:
	.loc 2 98 0
	.cfi_startproc
	@ args = 0, pretend = 0, frame = 8
	@ frame_needed = 0, uses_anonymous_args = 0
	@ link register save eliminated.
	sub	sp, sp, #8
.LCFI2:
	.cfi_def_cfa_offset 8
	str	r0, [sp, #4]
	.loc 2 98 0
	ldr	r3, [sp, #4]
	ldr	r3, [r3]
	ldr	r2, [r3]
	ldr	r3, [sp, #4]
	str	r2, [r3]
	add	sp, sp, #8
	@ sp needed
	bx	lr
	.cfi_endproc
.LFE274:
	.size	_ZN4_STL19_List_iterator_base7_M_incrEv, .-_ZN4_STL19_List_iterator_base7_M_incrEv
	.section	.text._ZNK4_STL19_List_iterator_baseneERKS0_,"axG",%progbits,_ZNK4_STL19_List_iterator_baseneERKS0_,comdat
	.align	2
	.weak	_ZNK4_STL19_List_iterator_baseneERKS0_
	.hidden	_ZNK4_STL19_List_iterator_baseneERKS0_
	.type	_ZNK4_STL19_List_iterator_baseneERKS0_, %function
_ZNK4_STL19_List_iterator_baseneERKS0_:
.LFB277:
	.loc 2 103 0
	.cfi_startproc
	@ args = 0, pretend = 0, frame = 8
	@ frame_needed = 0, uses_anonymous_args = 0
	@ link register save eliminated.
	sub	sp, sp, #8
.LCFI3:
	.cfi_def_cfa_offset 8
	str	r0, [sp, #4]
	str	r1, [sp]
	.loc 2 104 0
	ldr	r3, [sp, #4]
	ldr	r2, [r3]
	ldr	r3, [sp]
	ldr	r3, [r3]
	cmp	r2, r3
	moveq	r3, #0
	movne	r3, #1
	uxtb	r3, r3
	.loc 2 105 0
	mov	r0, r3
	add	sp, sp, #8
	@ sp needed
	bx	lr
	.cfi_endproc
.LFE277:
	.size	_ZNK4_STL19_List_iterator_baseneERKS0_, .-_ZNK4_STL19_List_iterator_baseneERKS0_
	.section	.text._ZN7IwTween6CTweenD2Ev,"axG",%progbits,_ZN7IwTween6CTweenD5Ev,comdat
	.align	2
	.weak	_ZN7IwTween6CTweenD2Ev
	.hidden	_ZN7IwTween6CTweenD2Ev
	.type	_ZN7IwTween6CTweenD2Ev, %function
_ZN7IwTween6CTweenD2Ev:
.LFB2478:
	.file 3 "c:/marmalade/7.5/modules/iwtween/h/IwTween.h"
	.loc 3 430 0
	.cfi_startproc
	@ args = 0, pretend = 0, frame = 8
	@ frame_needed = 0, uses_anonymous_args = 0
	str	lr, [sp, #-4]!
.LCFI4:
	.cfi_def_cfa_offset 4
	.cfi_offset 14, -4
	sub	sp, sp, #12
.LCFI5:
	.cfi_def_cfa_offset 16
	str	r0, [sp, #4]
.LBB3:
	.loc 3 430 0
	ldr	r3, [sp, #4]
	add	r3, r3, #44
	mov	r0, r3
	bl	_ZN4_STL6vectorIN7IwTween6CTween9ValueTypeENS_9allocatorIS3_EEED1Ev(PLT)
.LBE3:
	ldr	r3, [sp, #4]
	mov	r0, r3
	add	sp, sp, #12
	@ sp needed
	ldr	pc, [sp], #4
	.cfi_endproc
.LFE2478:
	.size	_ZN7IwTween6CTweenD2Ev, .-_ZN7IwTween6CTweenD2Ev
	.weak	_ZN7IwTween6CTweenD1Ev
	.hidden	_ZN7IwTween6CTweenD1Ev
	.set	_ZN7IwTween6CTweenD1Ev,_ZN7IwTween6CTweenD2Ev
	.section	.text._ZN7IwTween13CTweenManagerC2Ev,"axG",%progbits,_ZN7IwTween13CTweenManagerC5Ev,comdat
	.align	2
	.weak	_ZN7IwTween13CTweenManagerC2Ev
	.hidden	_ZN7IwTween13CTweenManagerC2Ev
	.type	_ZN7IwTween13CTweenManagerC2Ev, %function
_ZN7IwTween13CTweenManagerC2Ev:
.LFB2486:
	.loc 3 543 0
	.cfi_startproc
	@ args = 0, pretend = 0, frame = 16
	@ frame_needed = 0, uses_anonymous_args = 0
	stmfd	sp!, {r4, lr}
.LCFI6:
	.cfi_def_cfa_offset 8
	.cfi_offset 4, -8
	.cfi_offset 14, -4
	sub	sp, sp, #16
.LCFI7:
	.cfi_def_cfa_offset 24
	str	r0, [sp, #4]
.LBB4:
	.loc 3 543 0
	ldr	r4, [sp, #4]
	add	r3, sp, #12
	mov	r0, r3
	bl	_ZN4_STL9allocatorIN7IwTween6CTweenEEC1Ev(PLT)
	add	r3, sp, #12
	mov	r0, r4
	mov	r1, r3
	bl	_ZN4_STL6vectorIN7IwTween6CTweenENS_9allocatorIS2_EEEC1ERKS4_(PLT)
	add	r3, sp, #12
	mov	r0, r3
	bl	_ZN4_STL9allocatorIN7IwTween6CTweenEED1Ev(PLT)
.LBE4:
	ldr	r3, [sp, #4]
	mov	r0, r3
	add	sp, sp, #16
	@ sp needed
	ldmfd	sp!, {r4, pc}
	.cfi_endproc
.LFE2486:
	.size	_ZN7IwTween13CTweenManagerC2Ev, .-_ZN7IwTween13CTweenManagerC2Ev
	.weak	_ZN7IwTween13CTweenManagerC1Ev
	.hidden	_ZN7IwTween13CTweenManagerC1Ev
	.set	_ZN7IwTween13CTweenManagerC1Ev,_ZN7IwTween13CTweenManagerC2Ev
	.section	.text._ZN7IwTween13CTweenManagerD2Ev,"axG",%progbits,_ZN7IwTween13CTweenManagerD5Ev,comdat
	.align	2
	.weak	_ZN7IwTween13CTweenManagerD2Ev
	.hidden	_ZN7IwTween13CTweenManagerD2Ev
	.type	_ZN7IwTween13CTweenManagerD2Ev, %function
_ZN7IwTween13CTweenManagerD2Ev:
.LFB2489:
	.loc 3 544 0
	.cfi_startproc
	@ args = 0, pretend = 0, frame = 8
	@ frame_needed = 0, uses_anonymous_args = 0
	str	lr, [sp, #-4]!
.LCFI8:
	.cfi_def_cfa_offset 4
	.cfi_offset 14, -4
	sub	sp, sp, #12
.LCFI9:
	.cfi_def_cfa_offset 16
	str	r0, [sp, #4]
.LBB5:
	.loc 3 544 0
	ldr	r3, [sp, #4]
	mov	r0, r3
	bl	_ZN4_STL6vectorIN7IwTween6CTweenENS_9allocatorIS2_EEED1Ev(PLT)
.LBE5:
	ldr	r3, [sp, #4]
	mov	r0, r3
	add	sp, sp, #12
	@ sp needed
	ldr	pc, [sp], #4
	.cfi_endproc
.LFE2489:
	.size	_ZN7IwTween13CTweenManagerD2Ev, .-_ZN7IwTween13CTweenManagerD2Ev
	.weak	_ZN7IwTween13CTweenManagerD1Ev
	.hidden	_ZN7IwTween13CTweenManagerD1Ev
	.set	_ZN7IwTween13CTweenManagerD1Ev,_ZN7IwTween13CTweenManagerD2Ev
	.section	.text._ZN5Scene9SetActiveEb,"axG",%progbits,_ZN5Scene9SetActiveEb,comdat
	.align	2
	.weak	_ZN5Scene9SetActiveEb
	.hidden	_ZN5Scene9SetActiveEb
	.type	_ZN5Scene9SetActiveEb, %function
_ZN5Scene9SetActiveEb:
.LFB2494:
	.file 4 "c:/Stage4/source/scene.h"
	.loc 4 53 0
	.cfi_startproc
	@ args = 0, pretend = 0, frame = 8
	@ frame_needed = 0, uses_anonymous_args = 0
	@ link register save eliminated.
	sub	sp, sp, #8
.LCFI10:
	.cfi_def_cfa_offset 8
	str	r0, [sp, #4]
	mov	r3, r1
	strb	r3, [sp, #3]
	.loc 4 53 0
	ldr	r3, [sp, #4]
	ldrb	r2, [sp, #3]
	strb	r2, [r3, #120]
	add	sp, sp, #8
	@ sp needed
	bx	lr
	.cfi_endproc
.LFE2494:
	.size	_ZN5Scene9SetActiveEb, .-_ZN5Scene9SetActiveEb
	.section	.text._ZNK5Scene11GetNameHashEv,"axG",%progbits,_ZNK5Scene11GetNameHashEv,comdat
	.align	2
	.weak	_ZNK5Scene11GetNameHashEv
	.hidden	_ZNK5Scene11GetNameHashEv
	.type	_ZNK5Scene11GetNameHashEv, %function
_ZNK5Scene11GetNameHashEv:
.LFB2495:
	.loc 4 55 0
	.cfi_startproc
	@ args = 0, pretend = 0, frame = 8
	@ frame_needed = 0, uses_anonymous_args = 0
	@ link register save eliminated.
	sub	sp, sp, #8
.LCFI11:
	.cfi_def_cfa_offset 8
	str	r0, [sp, #4]
	.loc 4 55 0
	ldr	r3, [sp, #4]
	ldr	r3, [r3, #116]
	mov	r0, r3
	add	sp, sp, #8
	@ sp needed
	bx	lr
	.cfi_endproc
.LFE2495:
	.size	_ZNK5Scene11GetNameHashEv, .-_ZNK5Scene11GetNameHashEv
	.section	.text._ZN5Scene10SetManagerEP12SceneManager,"axG",%progbits,_ZN5Scene10SetManagerEP12SceneManager,comdat
	.align	2
	.weak	_ZN5Scene10SetManagerEP12SceneManager
	.hidden	_ZN5Scene10SetManagerEP12SceneManager
	.type	_ZN5Scene10SetManagerEP12SceneManager, %function
_ZN5Scene10SetManagerEP12SceneManager:
.LFB2496:
	.loc 4 56 0
	.cfi_startproc
	@ args = 0, pretend = 0, frame = 8
	@ frame_needed = 0, uses_anonymous_args = 0
	@ link register save eliminated.
	sub	sp, sp, #8
.LCFI12:
	.cfi_def_cfa_offset 8
	str	r0, [sp, #4]
	str	r1, [sp]
	.loc 4 56 0
	ldr	r3, [sp, #4]
	ldr	r2, [sp]
	str	r2, [r3, #124]
	add	sp, sp, #8
	@ sp needed
	bx	lr
	.cfi_endproc
.LFE2496:
	.size	_ZN5Scene10SetManagerEP12SceneManager, .-_ZN5Scene10SetManagerEP12SceneManager
	.section	.text._ZN5Scene14SetInputActiveEb,"axG",%progbits,_ZN5Scene14SetInputActiveEb,comdat
	.align	2
	.weak	_ZN5Scene14SetInputActiveEb
	.hidden	_ZN5Scene14SetInputActiveEb
	.type	_ZN5Scene14SetInputActiveEb, %function
_ZN5Scene14SetInputActiveEb:
.LFB2497:
	.loc 4 57 0
	.cfi_startproc
	@ args = 0, pretend = 0, frame = 8
	@ frame_needed = 0, uses_anonymous_args = 0
	@ link register save eliminated.
	sub	sp, sp, #8
.LCFI13:
	.cfi_def_cfa_offset 8
	str	r0, [sp, #4]
	mov	r3, r1
	strb	r3, [sp, #3]
	.loc 4 57 0
	ldr	r3, [sp, #4]
	ldrb	r2, [sp, #3]
	strb	r2, [r3, #121]
	add	sp, sp, #8
	@ sp needed
	bx	lr
	.cfi_endproc
.LFE2497:
	.size	_ZN5Scene14SetInputActiveEb, .-_ZN5Scene14SetInputActiveEb
	.section	.text._Z12IwGetGxStatev,"axG",%progbits,_Z12IwGetGxStatev,comdat
	.align	2
	.weak	_Z12IwGetGxStatev
	.hidden	_Z12IwGetGxStatev
	.type	_Z12IwGetGxStatev, %function
_Z12IwGetGxStatev:
.LFB2569:
	.file 5 "c:/marmalade/7.5/modules/iwgx/h/IwGxState.h"
	.loc 5 497 0
	.cfi_startproc
	@ args = 0, pretend = 0, frame = 0
	@ frame_needed = 0, uses_anonymous_args = 0
	@ link register save eliminated.
	ldr	r2, .L25
.LPIC0:
	add	r2, pc, r2
	.loc 5 497 0
	ldr	r3, .L25+4
	ldr	r3, [r2, r3]
	ldr	r3, [r3]
	mov	r0, r3
	bx	lr
.L26:
	.align	2
.L25:
	.word	_GLOBAL_OFFSET_TABLE_-(.LPIC0+8)
	.word	g_IwGxState(GOT)
	.cfi_endproc
.LFE2569:
	.size	_Z12IwGetGxStatev, .-_Z12IwGetGxStatev
	.section	.text.IwGxGetScreenWidth,"ax",%progbits
	.align	2
	.type	IwGxGetScreenWidth, %function
IwGxGetScreenWidth:
.LFB2588:
	.file 6 "c:/marmalade/7.5/modules/iwgx/h/IwGx.h"
	.loc 6 408 0
	.cfi_startproc
	@ args = 0, pretend = 0, frame = 0
	@ frame_needed = 0, uses_anonymous_args = 0
	stmfd	sp!, {r3, lr}
.LCFI14:
	.cfi_def_cfa_offset 8
	.cfi_offset 3, -8
	.cfi_offset 14, -4
	.loc 6 408 0
	bl	_Z12IwGetGxStatev(PLT)
	mov	r3, r0
	ldr	r3, [r3, #536]
	mov	r0, r3
	ldmfd	sp!, {r3, pc}
	.cfi_endproc
.LFE2588:
	.size	IwGxGetScreenWidth, .-IwGxGetScreenWidth
	.hidden	g_pSceneManager
	.global	g_pSceneManager
	.bss
	.align	2
	.type	g_pSceneManager, %object
	.size	g_pSceneManager, 4
g_pSceneManager:
	.space	4
	.global	__aeabi_ui2f
	.section	.text._ZN5SceneC2Ev,"ax",%progbits
	.align	2
	.global	_ZN5SceneC2Ev
	.hidden	_ZN5SceneC2Ev
	.type	_ZN5SceneC2Ev, %function
_ZN5SceneC2Ev:
.LFB2971:
	.file 7 "c:/Stage4/source/scene.cpp"
	.loc 7 27 0
	.cfi_startproc
	@ args = 0, pretend = 0, frame = 8
	@ frame_needed = 0, uses_anonymous_args = 0
	str	lr, [sp, #-4]!
.LCFI15:
	.cfi_def_cfa_offset 4
	.cfi_offset 14, -4
	sub	sp, sp, #12
.LCFI16:
	.cfi_def_cfa_offset 16
	str	r0, [sp, #4]
.LBB6:
	.loc 7 27 0
	ldr	r3, [sp, #4]
	mov	r0, r3
	bl	_ZN18Iw2DSceneGraphCore5CNodeC2Ev(PLT)
	ldr	r3, [sp, #4]
	ldr	r2, .L32
.LPIC1:
	add	r2, pc, r2
	add	r2, r2, #8
	str	r2, [r3]
	ldr	r3, [sp, #4]
	mov	r2, #0
	str	r2, [r3, #116]
	ldr	r3, [sp, #4]
	mov	r2, #1
	strb	r2, [r3, #120]
	ldr	r3, [sp, #4]
	mov	r2, #0
	strb	r2, [r3, #121]
	ldr	r3, [sp, #4]
	add	r3, r3, #128
	mov	r0, r3
	bl	_ZN7IwTween13CTweenManagerC1Ev(PLT)
	.loc 7 29 0
	bl	IwGxGetScreenWidth(PLT)
	mov	r3, r0
	mov	r0, r3
	bl	__aeabi_ui2f(PLT)
	mov	r3, r0
	eor	r2, r3, #-2147483648
	ldr	r3, [sp, #4]
	str	r2, [r3, #4]	@ float
.LBE6:
	.loc 7 30 0
	ldr	r3, [sp, #4]
	mov	r0, r3
	add	sp, sp, #12
	@ sp needed
	ldr	pc, [sp], #4
.L33:
	.align	2
.L32:
	.word	_ZTV5Scene-(.LPIC1+8)
	.cfi_endproc
.LFE2971:
	.size	_ZN5SceneC2Ev, .-_ZN5SceneC2Ev
	.global	_ZN5SceneC1Ev
	.hidden	_ZN5SceneC1Ev
	.set	_ZN5SceneC1Ev,_ZN5SceneC2Ev
	.section	.text._ZN5SceneD2Ev,"ax",%progbits
	.align	2
	.global	_ZN5SceneD2Ev
	.hidden	_ZN5SceneD2Ev
	.type	_ZN5SceneD2Ev, %function
_ZN5SceneD2Ev:
.LFB2974:
	.loc 7 32 0
	.cfi_startproc
	@ args = 0, pretend = 0, frame = 8
	@ frame_needed = 0, uses_anonymous_args = 0
	str	lr, [sp, #-4]!
.LCFI17:
	.cfi_def_cfa_offset 4
	.cfi_offset 14, -4
	sub	sp, sp, #12
.LCFI18:
	.cfi_def_cfa_offset 16
	str	r0, [sp, #4]
.LBB7:
	.loc 7 32 0
	ldr	r3, [sp, #4]
	ldr	r2, .L38
.LPIC2:
	add	r2, pc, r2
	add	r2, r2, #8
	str	r2, [r3]
	ldr	r3, [sp, #4]
	add	r3, r3, #128
	mov	r0, r3
	bl	_ZN7IwTween13CTweenManagerD1Ev(PLT)
	ldr	r3, [sp, #4]
	.loc 7 34 0
	mov	r0, r3
	bl	_ZN18Iw2DSceneGraphCore5CNodeD2Ev(PLT)
.LBE7:
	mov	r3, #0
	cmp	r3, #0
	beq	.L36
	.loc 7 34 0 is_stmt 0 discriminator 1
	ldr	r0, [sp, #4]
	bl	_ZdlPv(PLT)
.L36:
	.loc 7 34 0 discriminator 2
	ldr	r3, [sp, #4]
	mov	r0, r3
	add	sp, sp, #12
	@ sp needed
	ldr	pc, [sp], #4
.L39:
	.align	2
.L38:
	.word	_ZTV5Scene-(.LPIC2+8)
	.cfi_endproc
.LFE2974:
	.size	_ZN5SceneD2Ev, .-_ZN5SceneD2Ev
	.global	_ZN5SceneD1Ev
	.hidden	_ZN5SceneD1Ev
	.set	_ZN5SceneD1Ev,_ZN5SceneD2Ev
	.section	.text._ZN5SceneD0Ev,"ax",%progbits
	.align	2
	.global	_ZN5SceneD0Ev
	.hidden	_ZN5SceneD0Ev
	.type	_ZN5SceneD0Ev, %function
_ZN5SceneD0Ev:
.LFB2976:
	.loc 7 32 0 is_stmt 1
	.cfi_startproc
	@ args = 0, pretend = 0, frame = 8
	@ frame_needed = 0, uses_anonymous_args = 0
	str	lr, [sp, #-4]!
.LCFI19:
	.cfi_def_cfa_offset 4
	.cfi_offset 14, -4
	sub	sp, sp, #12
.LCFI20:
	.cfi_def_cfa_offset 16
	str	r0, [sp, #4]
	.loc 7 34 0
	ldr	r0, [sp, #4]
	bl	_ZN5SceneD1Ev(PLT)
	ldr	r0, [sp, #4]
	bl	_ZdlPv(PLT)
	ldr	r3, [sp, #4]
	mov	r0, r3
	add	sp, sp, #12
	@ sp needed
	ldr	pc, [sp], #4
	.cfi_endproc
.LFE2976:
	.size	_ZN5SceneD0Ev, .-_ZN5SceneD0Ev
	.section	.text._ZN5Scene7SetNameEPKc,"ax",%progbits
	.align	2
	.global	_ZN5Scene7SetNameEPKc
	.hidden	_ZN5Scene7SetNameEPKc
	.type	_ZN5Scene7SetNameEPKc, %function
_ZN5Scene7SetNameEPKc:
.LFB2977:
	.loc 7 37 0
	.cfi_startproc
	@ args = 0, pretend = 0, frame = 8
	@ frame_needed = 0, uses_anonymous_args = 0
	str	lr, [sp, #-4]!
.LCFI21:
	.cfi_def_cfa_offset 4
	.cfi_offset 14, -4
	sub	sp, sp, #12
.LCFI22:
	.cfi_def_cfa_offset 16
	str	r0, [sp, #4]
	str	r1, [sp]
	.loc 7 38 0
	ldr	r0, [sp]
	bl	_Z12IwHashStringPKc(PLT)
	mov	r2, r0
	ldr	r3, [sp, #4]
	str	r2, [r3, #116]
	.loc 7 39 0
	add	sp, sp, #12
	@ sp needed
	ldr	pc, [sp], #4
	.cfi_endproc
.LFE2977:
	.size	_ZN5Scene7SetNameEPKc, .-_ZN5Scene7SetNameEPKc
	.section	.text._ZN5Scene4InitEv,"ax",%progbits
	.align	2
	.global	_ZN5Scene4InitEv
	.hidden	_ZN5Scene4InitEv
	.type	_ZN5Scene4InitEv, %function
_ZN5Scene4InitEv:
.LFB2978:
	.loc 7 42 0
	.cfi_startproc
	@ args = 0, pretend = 0, frame = 8
	@ frame_needed = 0, uses_anonymous_args = 0
	@ link register save eliminated.
	sub	sp, sp, #8
.LCFI23:
	.cfi_def_cfa_offset 8
	str	r0, [sp, #4]
	.loc 7 43 0
	add	sp, sp, #8
	@ sp needed
	bx	lr
	.cfi_endproc
.LFE2978:
	.size	_ZN5Scene4InitEv, .-_ZN5Scene4InitEv
	.section	.text._ZN5Scene6UpdateEff,"ax",%progbits
	.align	2
	.global	_ZN5Scene6UpdateEff
	.hidden	_ZN5Scene6UpdateEff
	.type	_ZN5Scene6UpdateEff, %function
_ZN5Scene6UpdateEff:
.LFB2979:
	.loc 7 46 0
	.cfi_startproc
	@ args = 0, pretend = 0, frame = 16
	@ frame_needed = 0, uses_anonymous_args = 0
	str	lr, [sp, #-4]!
.LCFI24:
	.cfi_def_cfa_offset 4
	.cfi_offset 14, -4
	sub	sp, sp, #20
.LCFI25:
	.cfi_def_cfa_offset 24
	str	r0, [sp, #12]
	str	r1, [sp, #8]	@ float
	str	r2, [sp, #4]	@ float
	.loc 7 47 0
	ldr	r3, [sp, #12]
	ldrb	r3, [r3, #120]	@ zero_extendqisi2
	eor	r3, r3, #1
	uxtb	r3, r3
	cmp	r3, #0
	beq	.L46
	.loc 7 48 0
	b	.L45
.L46:
	.loc 7 50 0
	ldr	r3, [sp, #12]
	add	r3, r3, #128
	mov	r0, r3
	ldr	r1, [sp, #8]	@ float
	bl	_ZN7IwTween13CTweenManager6UpdateEf(PLT)
	.loc 7 52 0
	ldr	r3, [sp, #12]
	mov	r0, r3
	ldr	r1, [sp, #8]	@ float
	ldr	r2, [sp, #4]	@ float
	bl	_ZN18Iw2DSceneGraphCore5CNode6UpdateEff(PLT)
.L45:
	.loc 7 53 0
	add	sp, sp, #20
	@ sp needed
	ldr	pc, [sp], #4
	.cfi_endproc
.LFE2979:
	.size	_ZN5Scene6UpdateEff, .-_ZN5Scene6UpdateEff
	.section	.text._ZN5Scene6RenderEv,"ax",%progbits
	.align	2
	.global	_ZN5Scene6RenderEv
	.hidden	_ZN5Scene6RenderEv
	.type	_ZN5Scene6RenderEv, %function
_ZN5Scene6RenderEv:
.LFB2980:
	.loc 7 56 0
	.cfi_startproc
	@ args = 0, pretend = 0, frame = 8
	@ frame_needed = 0, uses_anonymous_args = 0
	str	lr, [sp, #-4]!
.LCFI26:
	.cfi_def_cfa_offset 4
	.cfi_offset 14, -4
	sub	sp, sp, #12
.LCFI27:
	.cfi_def_cfa_offset 16
	str	r0, [sp, #4]
	.loc 7 57 0
	ldr	r3, [sp, #4]
	mov	r0, r3
	bl	_ZN18Iw2DSceneGraphCore5CNode6RenderEv(PLT)
	.loc 7 58 0
	add	sp, sp, #12
	@ sp needed
	ldr	pc, [sp], #4
	.cfi_endproc
.LFE2980:
	.size	_ZN5Scene6RenderEv, .-_ZN5Scene6RenderEv
	.section	.text._ZN12SceneManagerC2Ev,"ax",%progbits
	.align	2
	.global	_ZN12SceneManagerC2Ev
	.hidden	_ZN12SceneManagerC2Ev
	.type	_ZN12SceneManagerC2Ev, %function
_ZN12SceneManagerC2Ev:
.LFB2982:
	.loc 7 65 0
	.cfi_startproc
	@ args = 0, pretend = 0, frame = 16
	@ frame_needed = 0, uses_anonymous_args = 0
	stmfd	sp!, {r4, lr}
.LCFI28:
	.cfi_def_cfa_offset 8
	.cfi_offset 4, -8
	.cfi_offset 14, -4
	sub	sp, sp, #16
.LCFI29:
	.cfi_def_cfa_offset 24
	str	r0, [sp, #4]
.LBB8:
	.loc 7 65 0
	ldr	r3, [sp, #4]
	mov	r2, #0
	str	r2, [r3]
	ldr	r3, [sp, #4]
	mov	r2, #0
	str	r2, [r3, #4]
	ldr	r3, [sp, #4]
	add	r4, r3, #8
	add	r3, sp, #12
	mov	r0, r3
	bl	_ZN4_STL9allocatorIP5SceneEC1Ev(PLT)
	add	r3, sp, #12
	mov	r0, r4
	mov	r1, r3
	bl	_ZN4_STL4listIP5SceneNS_9allocatorIS2_EEEC1ERKS4_(PLT)
	add	r3, sp, #12
	mov	r0, r3
	bl	_ZN4_STL9allocatorIP5SceneED1Ev(PLT)
.LBE8:
	.loc 7 67 0
	ldr	r3, [sp, #4]
	mov	r0, r3
	add	sp, sp, #16
	@ sp needed
	ldmfd	sp!, {r4, pc}
	.cfi_endproc
.LFE2982:
	.size	_ZN12SceneManagerC2Ev, .-_ZN12SceneManagerC2Ev
	.global	_ZN12SceneManagerC1Ev
	.hidden	_ZN12SceneManagerC1Ev
	.set	_ZN12SceneManagerC1Ev,_ZN12SceneManagerC2Ev
	.section	.text._ZN12SceneManagerD2Ev,"ax",%progbits
	.align	2
	.global	_ZN12SceneManagerD2Ev
	.hidden	_ZN12SceneManagerD2Ev
	.type	_ZN12SceneManagerD2Ev, %function
_ZN12SceneManagerD2Ev:
.LFB2985:
	.loc 7 69 0
	.cfi_startproc
	@ args = 0, pretend = 0, frame = 16
	@ frame_needed = 0, uses_anonymous_args = 0
	str	lr, [sp, #-4]!
.LCFI30:
	.cfi_def_cfa_offset 4
	.cfi_offset 14, -4
	sub	sp, sp, #20
.LCFI31:
	.cfi_def_cfa_offset 24
	str	r0, [sp, #4]
.LBB9:
.LBB10:
.LBB11:
	.loc 7 71 0
	ldr	r3, [sp, #4]
	add	r3, r3, #8
	add	r2, sp, #8
	mov	r0, r2
	mov	r1, r3
	bl	_ZN4_STL4listIP5SceneNS_9allocatorIS2_EEE5beginEv(PLT)
	b	.L53
.L55:
	.loc 7 72 0
	add	r3, sp, #8
	mov	r0, r3
	bl	_ZNK4_STL14_List_iteratorIP5SceneNS_16_Nonconst_traitsIS2_EEEdeEv(PLT)
	mov	r3, r0
	ldr	r3, [r3]
	cmp	r3, #0
	beq	.L54
	.loc 7 72 0 is_stmt 0 discriminator 1
	ldr	r2, [r3]
	add	r2, r2, #4
	ldr	r2, [r2]
	mov	r0, r3
	blx	r2
.L54:
	.loc 7 71 0 is_stmt 1
	add	r3, sp, #8
	mov	r0, r3
	bl	_ZN4_STL14_List_iteratorIP5SceneNS_16_Nonconst_traitsIS2_EEEppEv(PLT)
.L53:
	.loc 7 71 0 is_stmt 0 discriminator 1
	ldr	r3, [sp, #4]
	add	r3, r3, #8
	add	r2, sp, #12
	mov	r0, r2
	mov	r1, r3
	bl	_ZN4_STL4listIP5SceneNS_9allocatorIS2_EEE3endEv(PLT)
	add	r2, sp, #8
	add	r3, sp, #12
	mov	r0, r2
	mov	r1, r3
	bl	_ZNK4_STL19_List_iterator_baseneERKS0_(PLT)
	mov	r3, r0
	cmp	r3, #0
	bne	.L55
.LBE11:
.LBE10:
	.loc 7 69 0 is_stmt 1
	ldr	r3, [sp, #4]
	add	r3, r3, #8
	.loc 7 73 0
	mov	r0, r3
	bl	_ZN4_STL4listIP5SceneNS_9allocatorIS2_EEED1Ev(PLT)
.LBE9:
	ldr	r3, [sp, #4]
	mov	r0, r3
	add	sp, sp, #20
	@ sp needed
	ldr	pc, [sp], #4
	.cfi_endproc
.LFE2985:
	.size	_ZN12SceneManagerD2Ev, .-_ZN12SceneManagerD2Ev
	.global	_ZN12SceneManagerD1Ev
	.hidden	_ZN12SceneManagerD1Ev
	.set	_ZN12SceneManagerD1Ev,_ZN12SceneManagerD2Ev
	.section	.text._ZN12SceneManager3AddEP5Scene,"ax",%progbits
	.align	2
	.global	_ZN12SceneManager3AddEP5Scene
	.hidden	_ZN12SceneManager3AddEP5Scene
	.type	_ZN12SceneManager3AddEP5Scene, %function
_ZN12SceneManager3AddEP5Scene:
.LFB2987:
	.loc 7 76 0
	.cfi_startproc
	@ args = 0, pretend = 0, frame = 8
	@ frame_needed = 0, uses_anonymous_args = 0
	str	lr, [sp, #-4]!
.LCFI32:
	.cfi_def_cfa_offset 4
	.cfi_offset 14, -4
	sub	sp, sp, #12
.LCFI33:
	.cfi_def_cfa_offset 16
	str	r0, [sp, #4]
	str	r1, [sp]
	.loc 7 77 0
	ldr	r3, [sp, #4]
	add	r2, r3, #8
	mov	r3, sp
	mov	r0, r2
	mov	r1, r3
	bl	_ZN4_STL4listIP5SceneNS_9allocatorIS2_EEE9push_backERKS2_(PLT)
	.loc 7 78 0
	ldr	r3, [sp]
	mov	r0, r3
	ldr	r1, [sp, #4]
	bl	_ZN5Scene10SetManagerEP12SceneManager(PLT)
	.loc 7 79 0
	add	sp, sp, #12
	@ sp needed
	ldr	pc, [sp], #4
	.cfi_endproc
.LFE2987:
	.size	_ZN12SceneManager3AddEP5Scene, .-_ZN12SceneManager3AddEP5Scene
	.section	.text._ZN12SceneManager6RemoveEP5Scene,"ax",%progbits
	.align	2
	.global	_ZN12SceneManager6RemoveEP5Scene
	.hidden	_ZN12SceneManager6RemoveEP5Scene
	.type	_ZN12SceneManager6RemoveEP5Scene, %function
_ZN12SceneManager6RemoveEP5Scene:
.LFB2988:
	.loc 7 82 0
	.cfi_startproc
	@ args = 0, pretend = 0, frame = 8
	@ frame_needed = 0, uses_anonymous_args = 0
	str	lr, [sp, #-4]!
.LCFI34:
	.cfi_def_cfa_offset 4
	.cfi_offset 14, -4
	sub	sp, sp, #12
.LCFI35:
	.cfi_def_cfa_offset 16
	str	r0, [sp, #4]
	str	r1, [sp]
	.loc 7 83 0
	ldr	r3, [sp, #4]
	add	r2, r3, #8
	mov	r3, sp
	mov	r0, r2
	mov	r1, r3
	bl	_ZN4_STL4listIP5SceneNS_9allocatorIS2_EEE6removeERKS2_(PLT)
	.loc 7 84 0
	add	sp, sp, #12
	@ sp needed
	ldr	pc, [sp], #4
	.cfi_endproc
.LFE2988:
	.size	_ZN12SceneManager6RemoveEP5Scene, .-_ZN12SceneManager6RemoveEP5Scene
	.section	.text._ZN12SceneManager4FindEPKc,"ax",%progbits
	.align	2
	.global	_ZN12SceneManager4FindEPKc
	.hidden	_ZN12SceneManager4FindEPKc
	.type	_ZN12SceneManager4FindEPKc, %function
_ZN12SceneManager4FindEPKc:
.LFB2989:
	.loc 7 87 0
	.cfi_startproc
	@ args = 0, pretend = 0, frame = 24
	@ frame_needed = 0, uses_anonymous_args = 0
	str	lr, [sp, #-4]!
.LCFI36:
	.cfi_def_cfa_offset 4
	.cfi_offset 14, -4
	sub	sp, sp, #28
.LCFI37:
	.cfi_def_cfa_offset 32
	str	r0, [sp, #4]
	str	r1, [sp]
.LBB12:
	.loc 7 88 0
	ldr	r0, [sp]
	bl	_Z12IwHashStringPKc(PLT)
	str	r0, [sp, #20]
.LBB13:
	.loc 7 89 0
	ldr	r3, [sp, #4]
	add	r3, r3, #8
	add	r2, sp, #12
	mov	r0, r2
	mov	r1, r3
	bl	_ZN4_STL4listIP5SceneNS_9allocatorIS2_EEE5beginEv(PLT)
	b	.L61
.L64:
	.loc 7 91 0
	add	r3, sp, #12
	mov	r0, r3
	bl	_ZNK4_STL14_List_iteratorIP5SceneNS_16_Nonconst_traitsIS2_EEEdeEv(PLT)
	mov	r3, r0
	ldr	r3, [r3]
	mov	r0, r3
	bl	_ZNK5Scene11GetNameHashEv(PLT)
	mov	r2, r0
	ldr	r3, [sp, #20]
	cmp	r2, r3
	movne	r3, #0
	moveq	r3, #1
	uxtb	r3, r3
	cmp	r3, #0
	beq	.L62
	.loc 7 92 0
	add	r3, sp, #12
	mov	r0, r3
	bl	_ZNK4_STL14_List_iteratorIP5SceneNS_16_Nonconst_traitsIS2_EEEdeEv(PLT)
	mov	r3, r0
	ldr	r3, [r3]
	b	.L63
.L62:
	.loc 7 89 0
	add	r3, sp, #12
	mov	r0, r3
	bl	_ZN4_STL14_List_iteratorIP5SceneNS_16_Nonconst_traitsIS2_EEEppEv(PLT)
.L61:
	.loc 7 89 0 is_stmt 0 discriminator 1
	ldr	r3, [sp, #4]
	add	r3, r3, #8
	add	r2, sp, #16
	mov	r0, r2
	mov	r1, r3
	bl	_ZN4_STL4listIP5SceneNS_9allocatorIS2_EEE3endEv(PLT)
	add	r2, sp, #12
	add	r3, sp, #16
	mov	r0, r2
	mov	r1, r3
	bl	_ZNK4_STL19_List_iterator_baseneERKS0_(PLT)
	mov	r3, r0
	cmp	r3, #0
	bne	.L64
.LBE13:
	.loc 7 95 0 is_stmt 1
	mov	r3, #0
.L63:
.LBE12:
	.loc 7 96 0
	mov	r0, r3
	add	sp, sp, #28
	@ sp needed
	ldr	pc, [sp], #4
	.cfi_endproc
.LFE2989:
	.size	_ZN12SceneManager4FindEPKc, .-_ZN12SceneManager4FindEPKc
	.section	.text._ZN12SceneManager6UpdateEf,"ax",%progbits
	.align	2
	.global	_ZN12SceneManager6UpdateEf
	.hidden	_ZN12SceneManager6UpdateEf
	.type	_ZN12SceneManager6UpdateEf, %function
_ZN12SceneManager6UpdateEf:
.LFB2990:
	.loc 7 99 0
	.cfi_startproc
	@ args = 0, pretend = 0, frame = 16
	@ frame_needed = 0, uses_anonymous_args = 0
	str	lr, [sp, #-4]!
.LCFI38:
	.cfi_def_cfa_offset 4
	.cfi_offset 14, -4
	sub	sp, sp, #20
.LCFI39:
	.cfi_def_cfa_offset 24
	str	r0, [sp, #4]
	str	r1, [sp]	@ float
.LBB14:
.LBB15:
	.loc 7 100 0
	ldr	r3, [sp, #4]
	add	r3, r3, #8
	add	r2, sp, #8
	mov	r0, r2
	mov	r1, r3
	bl	_ZN4_STL4listIP5SceneNS_9allocatorIS2_EEE5beginEv(PLT)
	b	.L66
.L67:
	.loc 7 101 0 discriminator 2
	add	r3, sp, #8
	mov	r0, r3
	bl	_ZNK4_STL14_List_iteratorIP5SceneNS_16_Nonconst_traitsIS2_EEEdeEv(PLT)
	mov	r3, r0
	ldr	r3, [r3]
	ldr	r2, [r3]
	add	r2, r2, #8
	ldr	ip, [r2]
	mov	r0, r3
	ldr	r1, [sp]	@ float
	mov	r2, #1065353216
	blx	ip
	.loc 7 100 0 discriminator 2
	add	r3, sp, #8
	mov	r0, r3
	bl	_ZN4_STL14_List_iteratorIP5SceneNS_16_Nonconst_traitsIS2_EEEppEv(PLT)
.L66:
	.loc 7 100 0 is_stmt 0 discriminator 1
	ldr	r3, [sp, #4]
	add	r3, r3, #8
	add	r2, sp, #12
	mov	r0, r2
	mov	r1, r3
	bl	_ZN4_STL4listIP5SceneNS_9allocatorIS2_EEE3endEv(PLT)
	add	r2, sp, #8
	add	r3, sp, #12
	mov	r0, r2
	mov	r1, r3
	bl	_ZNK4_STL19_List_iterator_baseneERKS0_(PLT)
	mov	r3, r0
	cmp	r3, #0
	bne	.L67
.LBE15:
.LBE14:
	.loc 7 102 0 is_stmt 1
	add	sp, sp, #20
	@ sp needed
	ldr	pc, [sp], #4
	.cfi_endproc
.LFE2990:
	.size	_ZN12SceneManager6UpdateEf, .-_ZN12SceneManager6UpdateEf
	.section	.text._ZN12SceneManager6RenderEv,"ax",%progbits
	.align	2
	.global	_ZN12SceneManager6RenderEv
	.hidden	_ZN12SceneManager6RenderEv
	.type	_ZN12SceneManager6RenderEv, %function
_ZN12SceneManager6RenderEv:
.LFB2991:
	.loc 7 105 0
	.cfi_startproc
	@ args = 0, pretend = 0, frame = 16
	@ frame_needed = 0, uses_anonymous_args = 0
	str	lr, [sp, #-4]!
.LCFI40:
	.cfi_def_cfa_offset 4
	.cfi_offset 14, -4
	sub	sp, sp, #20
.LCFI41:
	.cfi_def_cfa_offset 24
	str	r0, [sp, #4]
.LBB16:
.LBB17:
	.loc 7 106 0
	ldr	r3, [sp, #4]
	add	r3, r3, #8
	add	r2, sp, #8
	mov	r0, r2
	mov	r1, r3
	bl	_ZN4_STL4listIP5SceneNS_9allocatorIS2_EEE5beginEv(PLT)
	b	.L69
.L70:
	.loc 7 107 0 discriminator 2
	add	r3, sp, #8
	mov	r0, r3
	bl	_ZNK4_STL14_List_iteratorIP5SceneNS_16_Nonconst_traitsIS2_EEEdeEv(PLT)
	mov	r3, r0
	ldr	r3, [r3]
	ldr	r2, [r3]
	add	r2, r2, #12
	ldr	r2, [r2]
	mov	r0, r3
	blx	r2
	.loc 7 106 0 discriminator 2
	add	r3, sp, #8
	mov	r0, r3
	bl	_ZN4_STL14_List_iteratorIP5SceneNS_16_Nonconst_traitsIS2_EEEppEv(PLT)
.L69:
	.loc 7 106 0 is_stmt 0 discriminator 1
	ldr	r3, [sp, #4]
	add	r3, r3, #8
	add	r2, sp, #12
	mov	r0, r2
	mov	r1, r3
	bl	_ZN4_STL4listIP5SceneNS_9allocatorIS2_EEE3endEv(PLT)
	add	r2, sp, #8
	add	r3, sp, #12
	mov	r0, r2
	mov	r1, r3
	bl	_ZNK4_STL19_List_iterator_baseneERKS0_(PLT)
	mov	r3, r0
	cmp	r3, #0
	bne	.L70
.LBE17:
.LBE16:
	.loc 7 108 0 is_stmt 1
	add	sp, sp, #20
	@ sp needed
	ldr	pc, [sp], #4
	.cfi_endproc
.LFE2991:
	.size	_ZN12SceneManager6RenderEv, .-_ZN12SceneManager6RenderEv
	.section	.text._ZN12SceneManager16OnSwitchCompleteEPN7IwTween6CTweenE,"ax",%progbits
	.align	2
	.global	_ZN12SceneManager16OnSwitchCompleteEPN7IwTween6CTweenE
	.hidden	_ZN12SceneManager16OnSwitchCompleteEPN7IwTween6CTweenE
	.type	_ZN12SceneManager16OnSwitchCompleteEPN7IwTween6CTweenE, %function
_ZN12SceneManager16OnSwitchCompleteEPN7IwTween6CTweenE:
.LFB2992:
	.loc 7 111 0
	.cfi_startproc
	@ args = 0, pretend = 0, frame = 8
	@ frame_needed = 0, uses_anonymous_args = 0
	str	lr, [sp, #-4]!
.LCFI42:
	.cfi_def_cfa_offset 4
	.cfi_offset 14, -4
	sub	sp, sp, #12
.LCFI43:
	.cfi_def_cfa_offset 16
	str	r0, [sp, #4]
	.loc 7 112 0
	ldr	r3, .L72
.LPIC3:
	add	r3, pc, r3
	ldr	r3, [r3]
	mov	r0, r3
	bl	_ZN12SceneManager12FinishSwitchEv(PLT)
	.loc 7 113 0
	add	sp, sp, #12
	@ sp needed
	ldr	pc, [sp], #4
.L73:
	.align	2
.L72:
	.word	g_pSceneManager-(.LPIC3+8)
	.cfi_endproc
.LFE2992:
	.size	_ZN12SceneManager16OnSwitchCompleteEPN7IwTween6CTweenE, .-_ZN12SceneManager16OnSwitchCompleteEPN7IwTween6CTweenE
	.section	.text._ZN12SceneManager12FinishSwitchEv,"ax",%progbits
	.align	2
	.global	_ZN12SceneManager12FinishSwitchEv
	.hidden	_ZN12SceneManager12FinishSwitchEv
	.type	_ZN12SceneManager12FinishSwitchEv, %function
_ZN12SceneManager12FinishSwitchEv:
.LFB2993:
	.loc 7 116 0
	.cfi_startproc
	@ args = 0, pretend = 0, frame = 8
	@ frame_needed = 0, uses_anonymous_args = 0
	str	lr, [sp, #-4]!
.LCFI44:
	.cfi_def_cfa_offset 4
	.cfi_offset 14, -4
	sub	sp, sp, #12
.LCFI45:
	.cfi_def_cfa_offset 16
	str	r0, [sp, #4]
	.loc 7 117 0
	ldr	r3, [sp, #4]
	ldr	r3, [r3, #4]
	mov	r0, r3
	mov	r1, #1
	bl	_ZN5Scene14SetInputActiveEb(PLT)
	.loc 7 118 0
	ldr	r3, [sp, #4]
	ldr	r3, [r3, #4]
	mov	r0, r3
	mov	r1, #1
	bl	_ZN5Scene9SetActiveEb(PLT)
	.loc 7 119 0
	ldr	r3, [sp, #4]
	ldr	r3, [r3]
	ldr	r3, [r3]
	add	r3, r3, #8
	ldr	r3, [r3]
	ldr	r2, [sp, #4]
	ldr	r2, [r2]
	mov	r0, r2
	mov	r1, #0
	mov	r2, #1065353216
	blx	r3
	.loc 7 120 0
	ldr	r3, [sp, #4]
	ldr	r3, [r3]
	mov	r0, r3
	mov	r1, #0
	bl	_ZN5Scene9SetActiveEb(PLT)
	.loc 7 121 0
	ldr	r3, [sp, #4]
	ldr	r2, [r3, #4]
	ldr	r3, [sp, #4]
	str	r2, [r3]
	.loc 7 122 0
	ldr	r3, [sp, #4]
	mov	r2, #0
	str	r2, [r3, #4]
	.loc 7 123 0
	add	sp, sp, #12
	@ sp needed
	ldr	pc, [sp], #4
	.cfi_endproc
.LFE2993:
	.size	_ZN12SceneManager12FinishSwitchEv, .-_ZN12SceneManager12FinishSwitchEv
	.global	__aeabi_f2d
	.section	.text._ZN12SceneManager8SwitchToEP5Scene,"ax",%progbits
	.align	2
	.global	_ZN12SceneManager8SwitchToEP5Scene
	.hidden	_ZN12SceneManager8SwitchToEP5Scene
	.type	_ZN12SceneManager8SwitchToEP5Scene, %function
_ZN12SceneManager8SwitchToEP5Scene:
.LFB2994:
	.loc 7 126 0
	.cfi_startproc
	@ args = 0, pretend = 0, frame = 8
	@ frame_needed = 0, uses_anonymous_args = 0
	stmfd	sp!, {r4, r5, r6, r7, r8, r9, lr}
.LCFI46:
	.cfi_def_cfa_offset 28
	.cfi_offset 4, -28
	.cfi_offset 5, -24
	.cfi_offset 6, -20
	.cfi_offset 7, -16
	.cfi_offset 8, -12
	.cfi_offset 9, -8
	.cfi_offset 14, -4
	sub	sp, sp, #60
.LCFI47:
	.cfi_def_cfa_offset 88
	str	r0, [sp, #52]
	str	r1, [sp, #48]
	ldr	r4, .L78
.LPIC4:
	add	r4, pc, r4
	.loc 7 127 0
	ldr	r3, [sp, #52]
	ldr	r2, [sp, #48]
	str	r2, [r3, #4]
	.loc 7 128 0
	ldr	r3, [sp, #52]
	ldr	r3, [r3]
	cmp	r3, #0
	bne	.L76
	.loc 7 130 0
	ldr	r3, [sp, #52]
	ldr	r2, [r3, #4]
	ldr	r3, [sp, #52]
	str	r2, [r3]
	.loc 7 131 0
	ldr	r3, [sp, #52]
	ldr	r3, [r3]
	mov	r2, #0
	str	r2, [r3, #4]	@ float
	.loc 7 132 0
	ldr	r3, [sp, #52]
	ldr	r3, [r3]
	mov	r0, r3
	mov	r1, #1
	bl	_ZN5Scene9SetActiveEb(PLT)
	.loc 7 133 0
	ldr	r3, [sp, #52]
	ldr	r3, [r3]
	mov	r0, r3
	mov	r1, #1
	bl	_ZN5Scene14SetInputActiveEb(PLT)
	.loc 7 134 0
	ldr	r3, [sp, #52]
	mov	r2, #0
	str	r2, [r3, #4]
	b	.L75
.L76:
	.loc 7 138 0
	ldr	r3, [sp, #52]
	ldr	r3, [r3]
	mov	r0, r3
	mov	r1, #0
	bl	_ZN5Scene14SetInputActiveEb(PLT)
	.loc 7 139 0
	ldr	r3, [sp, #52]
	ldr	r3, [r3, #4]
	mov	r0, r3
	mov	r1, #1
	bl	_ZN5Scene9SetActiveEb(PLT)
	.loc 7 140 0
	ldr	r3, [sp, #52]
	ldr	r5, [r3, #4]
	bl	IwGxGetScreenWidth(PLT)
	mov	r3, r0
	mov	r0, r3
	bl	__aeabi_ui2f(PLT)
	mov	r3, r0
	eor	r3, r3, #-2147483648
	str	r3, [r5, #4]	@ float
	.loc 7 146 0
	ldr	r3, .L78+4
	ldr	r3, [r4, r3]
	ldr	r8, [r3]
	ldr	r3, [sp, #52]
	ldr	r3, [r3, #4]
	add	r5, r3, #4
	mov	r6, #0
	mov	r7, #0
	ldr	r3, [sp, #52]
	ldr	r3, [r3]
	add	r9, r3, #4
	.loc 7 143 0
	bl	IwGxGetScreenWidth(PLT)
	mov	r3, r0
	.loc 7 146 0
	mov	r0, r3
	bl	__aeabi_ui2f(PLT)
	mov	r3, r0
	mov	r0, r3
	bl	__aeabi_f2d(PLT)
	mov	r2, r0
	mov	r3, r1
	strd	r6, [sp]
	ldr	r1, .L78+8
	str	r1, [sp, #8]
	str	r9, [sp, #12]
	strd	r2, [sp, #16]
	ldr	r3, .L78+12
	str	r3, [sp, #24]
	ldr	r3, .L78+16
	ldr	r3, [r4, r3]
	str	r3, [sp, #28]
	ldr	r3, .L78+20
	str	r3, [sp, #32]
	ldr	r3, .L78+24
.LPIC5:
	add	r3, pc, r3
	str	r3, [sp, #36]
	ldr	r3, .L78+28
	str	r3, [sp, #40]
	mov	r0, r8
	mov	r1, #1056964608
	ldr	r2, .L78+8
	mov	r3, r5
	bl	_ZN7IwTween13CTweenManager5TweenEfz(PLT)
.L75:
	.loc 7 148 0
	add	sp, sp, #60
	@ sp needed
	ldmfd	sp!, {r4, r5, r6, r7, r8, r9, pc}
.L79:
	.align	2
.L78:
	.word	_GLOBAL_OFFSET_TABLE_-(.LPIC4+8)
	.word	g_pTweener(GOT)
	.word	263
	.word	270
	.word	_ZN7IwTween4Ease6sineInEff(GOT)
	.word	273
	.word	_ZN12SceneManager16OnSwitchCompleteEPN7IwTween6CTweenE-(.LPIC5+8)
	.word	274
	.cfi_endproc
.LFE2994:
	.size	_ZN12SceneManager8SwitchToEP5Scene, .-_ZN12SceneManager8SwitchToEP5Scene
	.section	.text._ZN4_STL9allocatorIN7IwTween6CTween9ValueTypeEED2Ev,"axG",%progbits,_ZN4_STL9allocatorIN7IwTween6CTween9ValueTypeEED5Ev,comdat
	.align	2
	.weak	_ZN4_STL9allocatorIN7IwTween6CTween9ValueTypeEED2Ev
	.hidden	_ZN4_STL9allocatorIN7IwTween6CTween9ValueTypeEED2Ev
	.type	_ZN4_STL9allocatorIN7IwTween6CTween9ValueTypeEED2Ev, %function
_ZN4_STL9allocatorIN7IwTween6CTween9ValueTypeEED2Ev:
.LFB3066:
	.file 8 "c:/marmalade/7.5/s3e/h/std/c++/stl/_alloc.h"
	.loc 8 350 0
	.cfi_startproc
	@ args = 0, pretend = 0, frame = 8
	@ frame_needed = 0, uses_anonymous_args = 0
	@ link register save eliminated.
	sub	sp, sp, #8
.LCFI48:
	.cfi_def_cfa_offset 8
	str	r0, [sp, #4]
	.loc 8 350 0
	ldr	r3, [sp, #4]
	mov	r0, r3
	add	sp, sp, #8
	@ sp needed
	bx	lr
	.cfi_endproc
.LFE3066:
	.size	_ZN4_STL9allocatorIN7IwTween6CTween9ValueTypeEED2Ev, .-_ZN4_STL9allocatorIN7IwTween6CTween9ValueTypeEED2Ev
	.weak	_ZN4_STL9allocatorIN7IwTween6CTween9ValueTypeEED1Ev
	.hidden	_ZN4_STL9allocatorIN7IwTween6CTween9ValueTypeEED1Ev
	.set	_ZN4_STL9allocatorIN7IwTween6CTween9ValueTypeEED1Ev,_ZN4_STL9allocatorIN7IwTween6CTween9ValueTypeEED2Ev
	.section	.text._ZN4_STL6vectorIN7IwTween6CTween9ValueTypeENS_9allocatorIS3_EEED2Ev,"axG",%progbits,_ZN4_STL6vectorIN7IwTween6CTween9ValueTypeENS_9allocatorIS3_EEED5Ev,comdat
	.align	2
	.weak	_ZN4_STL6vectorIN7IwTween6CTween9ValueTypeENS_9allocatorIS3_EEED2Ev
	.hidden	_ZN4_STL6vectorIN7IwTween6CTween9ValueTypeENS_9allocatorIS3_EEED2Ev
	.type	_ZN4_STL6vectorIN7IwTween6CTween9ValueTypeENS_9allocatorIS3_EEED2Ev, %function
_ZN4_STL6vectorIN7IwTween6CTween9ValueTypeENS_9allocatorIS3_EEED2Ev:
.LFB3072:
	.file 9 "c:/marmalade/7.5/s3e/h/std/c++/stl/_vector.h"
	.loc 9 258 0
	.cfi_startproc
	@ args = 0, pretend = 0, frame = 8
	@ frame_needed = 0, uses_anonymous_args = 0
	str	lr, [sp, #-4]!
.LCFI49:
	.cfi_def_cfa_offset 4
	.cfi_offset 14, -4
	sub	sp, sp, #12
.LCFI50:
	.cfi_def_cfa_offset 16
	str	r0, [sp, #4]
.LBB18:
	.loc 9 258 0
	ldr	r3, [sp, #4]
	ldr	r2, [r3]
	ldr	r3, [sp, #4]
	ldr	r3, [r3, #4]
	mov	r0, r2
	mov	r1, r3
	bl	_ZN4_STL8_DestroyIPN7IwTween6CTween9ValueTypeEEEvT_S5_(PLT)
	ldr	r3, [sp, #4]
	mov	r0, r3
	bl	_ZN4_STL12_Vector_baseIN7IwTween6CTween9ValueTypeENS_9allocatorIS3_EEED2Ev(PLT)
.LBE18:
	ldr	r3, [sp, #4]
	mov	r0, r3
	add	sp, sp, #12
	@ sp needed
	ldr	pc, [sp], #4
	.cfi_endproc
.LFE3072:
	.size	_ZN4_STL6vectorIN7IwTween6CTween9ValueTypeENS_9allocatorIS3_EEED2Ev, .-_ZN4_STL6vectorIN7IwTween6CTween9ValueTypeENS_9allocatorIS3_EEED2Ev
	.weak	_ZN4_STL6vectorIN7IwTween6CTween9ValueTypeENS_9allocatorIS3_EEED1Ev
	.hidden	_ZN4_STL6vectorIN7IwTween6CTween9ValueTypeENS_9allocatorIS3_EEED1Ev
	.set	_ZN4_STL6vectorIN7IwTween6CTween9ValueTypeENS_9allocatorIS3_EEED1Ev,_ZN4_STL6vectorIN7IwTween6CTween9ValueTypeENS_9allocatorIS3_EEED2Ev
	.section	.text._ZN4_STL9allocatorIN7IwTween6CTweenEEC2Ev,"axG",%progbits,_ZN4_STL9allocatorIN7IwTween6CTweenEEC5Ev,comdat
	.align	2
	.weak	_ZN4_STL9allocatorIN7IwTween6CTweenEEC2Ev
	.hidden	_ZN4_STL9allocatorIN7IwTween6CTweenEEC2Ev
	.type	_ZN4_STL9allocatorIN7IwTween6CTweenEEC2Ev, %function
_ZN4_STL9allocatorIN7IwTween6CTweenEEC2Ev:
.LFB3075:
	.loc 8 345 0
	.cfi_startproc
	@ args = 0, pretend = 0, frame = 8
	@ frame_needed = 0, uses_anonymous_args = 0
	@ link register save eliminated.
	sub	sp, sp, #8
.LCFI51:
	.cfi_def_cfa_offset 8
	str	r0, [sp, #4]
	.loc 8 345 0
	ldr	r3, [sp, #4]
	mov	r0, r3
	add	sp, sp, #8
	@ sp needed
	bx	lr
	.cfi_endproc
.LFE3075:
	.size	_ZN4_STL9allocatorIN7IwTween6CTweenEEC2Ev, .-_ZN4_STL9allocatorIN7IwTween6CTweenEEC2Ev
	.weak	_ZN4_STL9allocatorIN7IwTween6CTweenEEC1Ev
	.hidden	_ZN4_STL9allocatorIN7IwTween6CTweenEEC1Ev
	.set	_ZN4_STL9allocatorIN7IwTween6CTweenEEC1Ev,_ZN4_STL9allocatorIN7IwTween6CTweenEEC2Ev
	.section	.text._ZN4_STL9allocatorIN7IwTween6CTweenEED2Ev,"axG",%progbits,_ZN4_STL9allocatorIN7IwTween6CTweenEED5Ev,comdat
	.align	2
	.weak	_ZN4_STL9allocatorIN7IwTween6CTweenEED2Ev
	.hidden	_ZN4_STL9allocatorIN7IwTween6CTweenEED2Ev
	.type	_ZN4_STL9allocatorIN7IwTween6CTweenEED2Ev, %function
_ZN4_STL9allocatorIN7IwTween6CTweenEED2Ev:
.LFB3078:
	.loc 8 350 0
	.cfi_startproc
	@ args = 0, pretend = 0, frame = 8
	@ frame_needed = 0, uses_anonymous_args = 0
	@ link register save eliminated.
	sub	sp, sp, #8
.LCFI52:
	.cfi_def_cfa_offset 8
	str	r0, [sp, #4]
	.loc 8 350 0
	ldr	r3, [sp, #4]
	mov	r0, r3
	add	sp, sp, #8
	@ sp needed
	bx	lr
	.cfi_endproc
.LFE3078:
	.size	_ZN4_STL9allocatorIN7IwTween6CTweenEED2Ev, .-_ZN4_STL9allocatorIN7IwTween6CTweenEED2Ev
	.weak	_ZN4_STL9allocatorIN7IwTween6CTweenEED1Ev
	.hidden	_ZN4_STL9allocatorIN7IwTween6CTweenEED1Ev
	.set	_ZN4_STL9allocatorIN7IwTween6CTweenEED1Ev,_ZN4_STL9allocatorIN7IwTween6CTweenEED2Ev
	.section	.text._ZN4_STL6vectorIN7IwTween6CTweenENS_9allocatorIS2_EEEC2ERKS4_,"axG",%progbits,_ZN4_STL6vectorIN7IwTween6CTweenENS_9allocatorIS2_EEEC5ERKS4_,comdat
	.align	2
	.weak	_ZN4_STL6vectorIN7IwTween6CTweenENS_9allocatorIS2_EEEC2ERKS4_
	.hidden	_ZN4_STL6vectorIN7IwTween6CTweenENS_9allocatorIS2_EEEC2ERKS4_
	.type	_ZN4_STL6vectorIN7IwTween6CTweenENS_9allocatorIS2_EEEC2ERKS4_, %function
_ZN4_STL6vectorIN7IwTween6CTweenENS_9allocatorIS2_EEEC2ERKS4_:
.LFB3081:
	.loc 9 198 0
	.cfi_startproc
	@ args = 0, pretend = 0, frame = 8
	@ frame_needed = 0, uses_anonymous_args = 0
	str	lr, [sp, #-4]!
.LCFI53:
	.cfi_def_cfa_offset 4
	.cfi_offset 14, -4
	sub	sp, sp, #12
.LCFI54:
	.cfi_def_cfa_offset 16
	str	r0, [sp, #4]
	str	r1, [sp]
.LBB19:
	.loc 9 199 0
	ldr	r3, [sp, #4]
	mov	r0, r3
	ldr	r1, [sp]
	bl	_ZN4_STL12_Vector_baseIN7IwTween6CTweenENS_9allocatorIS2_EEEC2ERKS4_(PLT)
.LBE19:
	ldr	r3, [sp, #4]
	mov	r0, r3
	add	sp, sp, #12
	@ sp needed
	ldr	pc, [sp], #4
	.cfi_endproc
.LFE3081:
	.size	_ZN4_STL6vectorIN7IwTween6CTweenENS_9allocatorIS2_EEEC2ERKS4_, .-_ZN4_STL6vectorIN7IwTween6CTweenENS_9allocatorIS2_EEEC2ERKS4_
	.weak	_ZN4_STL6vectorIN7IwTween6CTweenENS_9allocatorIS2_EEEC1ERKS4_
	.hidden	_ZN4_STL6vectorIN7IwTween6CTweenENS_9allocatorIS2_EEEC1ERKS4_
	.set	_ZN4_STL6vectorIN7IwTween6CTweenENS_9allocatorIS2_EEEC1ERKS4_,_ZN4_STL6vectorIN7IwTween6CTweenENS_9allocatorIS2_EEEC2ERKS4_
	.section	.text._ZN4_STL6vectorIN7IwTween6CTweenENS_9allocatorIS2_EEED2Ev,"axG",%progbits,_ZN4_STL6vectorIN7IwTween6CTweenENS_9allocatorIS2_EEED5Ev,comdat
	.align	2
	.weak	_ZN4_STL6vectorIN7IwTween6CTweenENS_9allocatorIS2_EEED2Ev
	.hidden	_ZN4_STL6vectorIN7IwTween6CTweenENS_9allocatorIS2_EEED2Ev
	.type	_ZN4_STL6vectorIN7IwTween6CTweenENS_9allocatorIS2_EEED2Ev, %function
_ZN4_STL6vectorIN7IwTween6CTweenENS_9allocatorIS2_EEED2Ev:
.LFB3084:
	.loc 9 258 0
	.cfi_startproc
	@ args = 0, pretend = 0, frame = 8
	@ frame_needed = 0, uses_anonymous_args = 0
	str	lr, [sp, #-4]!
.LCFI55:
	.cfi_def_cfa_offset 4
	.cfi_offset 14, -4
	sub	sp, sp, #12
.LCFI56:
	.cfi_def_cfa_offset 16
	str	r0, [sp, #4]
.LBB20:
	.loc 9 258 0
	ldr	r3, [sp, #4]
	ldr	r2, [r3]
	ldr	r3, [sp, #4]
	ldr	r3, [r3, #4]
	mov	r0, r2
	mov	r1, r3
	bl	_ZN4_STL8_DestroyIPN7IwTween6CTweenEEEvT_S4_(PLT)
	ldr	r3, [sp, #4]
	mov	r0, r3
	bl	_ZN4_STL12_Vector_baseIN7IwTween6CTweenENS_9allocatorIS2_EEED2Ev(PLT)
.LBE20:
	ldr	r3, [sp, #4]
	mov	r0, r3
	add	sp, sp, #12
	@ sp needed
	ldr	pc, [sp], #4
	.cfi_endproc
.LFE3084:
	.size	_ZN4_STL6vectorIN7IwTween6CTweenENS_9allocatorIS2_EEED2Ev, .-_ZN4_STL6vectorIN7IwTween6CTweenENS_9allocatorIS2_EEED2Ev
	.weak	_ZN4_STL6vectorIN7IwTween6CTweenENS_9allocatorIS2_EEED1Ev
	.hidden	_ZN4_STL6vectorIN7IwTween6CTweenENS_9allocatorIS2_EEED1Ev
	.set	_ZN4_STL6vectorIN7IwTween6CTweenENS_9allocatorIS2_EEED1Ev,_ZN4_STL6vectorIN7IwTween6CTweenENS_9allocatorIS2_EEED2Ev
	.section	.text._ZN4_STL9allocatorIP5SceneEC2Ev,"axG",%progbits,_ZN4_STL9allocatorIP5SceneEC5Ev,comdat
	.align	2
	.weak	_ZN4_STL9allocatorIP5SceneEC2Ev
	.hidden	_ZN4_STL9allocatorIP5SceneEC2Ev
	.type	_ZN4_STL9allocatorIP5SceneEC2Ev, %function
_ZN4_STL9allocatorIP5SceneEC2Ev:
.LFB3105:
	.loc 8 345 0
	.cfi_startproc
	@ args = 0, pretend = 0, frame = 8
	@ frame_needed = 0, uses_anonymous_args = 0
	@ link register save eliminated.
	sub	sp, sp, #8
.LCFI57:
	.cfi_def_cfa_offset 8
	str	r0, [sp, #4]
	.loc 8 345 0
	ldr	r3, [sp, #4]
	mov	r0, r3
	add	sp, sp, #8
	@ sp needed
	bx	lr
	.cfi_endproc
.LFE3105:
	.size	_ZN4_STL9allocatorIP5SceneEC2Ev, .-_ZN4_STL9allocatorIP5SceneEC2Ev
	.weak	_ZN4_STL9allocatorIP5SceneEC1Ev
	.hidden	_ZN4_STL9allocatorIP5SceneEC1Ev
	.set	_ZN4_STL9allocatorIP5SceneEC1Ev,_ZN4_STL9allocatorIP5SceneEC2Ev
	.section	.text._ZN4_STL9allocatorIP5SceneED2Ev,"axG",%progbits,_ZN4_STL9allocatorIP5SceneED5Ev,comdat
	.align	2
	.weak	_ZN4_STL9allocatorIP5SceneED2Ev
	.hidden	_ZN4_STL9allocatorIP5SceneED2Ev
	.type	_ZN4_STL9allocatorIP5SceneED2Ev, %function
_ZN4_STL9allocatorIP5SceneED2Ev:
.LFB3108:
	.loc 8 350 0
	.cfi_startproc
	@ args = 0, pretend = 0, frame = 8
	@ frame_needed = 0, uses_anonymous_args = 0
	@ link register save eliminated.
	sub	sp, sp, #8
.LCFI58:
	.cfi_def_cfa_offset 8
	str	r0, [sp, #4]
	.loc 8 350 0
	ldr	r3, [sp, #4]
	mov	r0, r3
	add	sp, sp, #8
	@ sp needed
	bx	lr
	.cfi_endproc
.LFE3108:
	.size	_ZN4_STL9allocatorIP5SceneED2Ev, .-_ZN4_STL9allocatorIP5SceneED2Ev
	.weak	_ZN4_STL9allocatorIP5SceneED1Ev
	.hidden	_ZN4_STL9allocatorIP5SceneED1Ev
	.set	_ZN4_STL9allocatorIP5SceneED1Ev,_ZN4_STL9allocatorIP5SceneED2Ev
	.section	.text._ZN4_STL4listIP5SceneNS_9allocatorIS2_EEEC2ERKS4_,"axG",%progbits,_ZN4_STL4listIP5SceneNS_9allocatorIS2_EEEC5ERKS4_,comdat
	.align	2
	.weak	_ZN4_STL4listIP5SceneNS_9allocatorIS2_EEEC2ERKS4_
	.hidden	_ZN4_STL4listIP5SceneNS_9allocatorIS2_EEEC2ERKS4_
	.type	_ZN4_STL4listIP5SceneNS_9allocatorIS2_EEEC2ERKS4_, %function
_ZN4_STL4listIP5SceneNS_9allocatorIS2_EEEC2ERKS4_:
.LFB3111:
	.loc 2 263 0
	.cfi_startproc
	@ args = 0, pretend = 0, frame = 8
	@ frame_needed = 0, uses_anonymous_args = 0
	str	lr, [sp, #-4]!
.LCFI59:
	.cfi_def_cfa_offset 4
	.cfi_offset 14, -4
	sub	sp, sp, #12
.LCFI60:
	.cfi_def_cfa_offset 16
	str	r0, [sp, #4]
	str	r1, [sp]
.LBB21:
	.loc 2 264 0
	ldr	r3, [sp, #4]
	mov	r0, r3
	ldr	r1, [sp]
	bl	_ZN4_STL10_List_baseIP5SceneNS_9allocatorIS2_EEEC2ERKS4_(PLT)
.LBE21:
	ldr	r3, [sp, #4]
	mov	r0, r3
	add	sp, sp, #12
	@ sp needed
	ldr	pc, [sp], #4
	.cfi_endproc
.LFE3111:
	.size	_ZN4_STL4listIP5SceneNS_9allocatorIS2_EEEC2ERKS4_, .-_ZN4_STL4listIP5SceneNS_9allocatorIS2_EEEC2ERKS4_
	.weak	_ZN4_STL4listIP5SceneNS_9allocatorIS2_EEEC1ERKS4_
	.hidden	_ZN4_STL4listIP5SceneNS_9allocatorIS2_EEEC1ERKS4_
	.set	_ZN4_STL4listIP5SceneNS_9allocatorIS2_EEEC1ERKS4_,_ZN4_STL4listIP5SceneNS_9allocatorIS2_EEEC2ERKS4_
	.section	.text._ZN4_STL4listIP5SceneNS_9allocatorIS2_EEED2Ev,"axG",%progbits,_ZN4_STL4listIP5SceneNS_9allocatorIS2_EEED5Ev,comdat
	.align	2
	.weak	_ZN4_STL4listIP5SceneNS_9allocatorIS2_EEED2Ev
	.hidden	_ZN4_STL4listIP5SceneNS_9allocatorIS2_EEED2Ev
	.type	_ZN4_STL4listIP5SceneNS_9allocatorIS2_EEED2Ev, %function
_ZN4_STL4listIP5SceneNS_9allocatorIS2_EEED2Ev:
.LFB3114:
	.loc 2 416 0
	.cfi_startproc
	@ args = 0, pretend = 0, frame = 8
	@ frame_needed = 0, uses_anonymous_args = 0
	str	lr, [sp, #-4]!
.LCFI61:
	.cfi_def_cfa_offset 4
	.cfi_offset 14, -4
	sub	sp, sp, #12
.LCFI62:
	.cfi_def_cfa_offset 16
	str	r0, [sp, #4]
.LBB22:
	.loc 2 416 0
	ldr	r3, [sp, #4]
	mov	r0, r3
	bl	_ZN4_STL10_List_baseIP5SceneNS_9allocatorIS2_EEED2Ev(PLT)
.LBE22:
	ldr	r3, [sp, #4]
	mov	r0, r3
	add	sp, sp, #12
	@ sp needed
	ldr	pc, [sp], #4
	.cfi_endproc
.LFE3114:
	.size	_ZN4_STL4listIP5SceneNS_9allocatorIS2_EEED2Ev, .-_ZN4_STL4listIP5SceneNS_9allocatorIS2_EEED2Ev
	.weak	_ZN4_STL4listIP5SceneNS_9allocatorIS2_EEED1Ev
	.hidden	_ZN4_STL4listIP5SceneNS_9allocatorIS2_EEED1Ev
	.set	_ZN4_STL4listIP5SceneNS_9allocatorIS2_EEED1Ev,_ZN4_STL4listIP5SceneNS_9allocatorIS2_EEED2Ev
	.section	.text._ZN4_STL4listIP5SceneNS_9allocatorIS2_EEE5beginEv,"axG",%progbits,_ZN4_STL4listIP5SceneNS_9allocatorIS2_EEE5beginEv,comdat
	.align	2
	.weak	_ZN4_STL4listIP5SceneNS_9allocatorIS2_EEE5beginEv
	.hidden	_ZN4_STL4listIP5SceneNS_9allocatorIS2_EEE5beginEv
	.type	_ZN4_STL4listIP5SceneNS_9allocatorIS2_EEE5beginEv, %function
_ZN4_STL4listIP5SceneNS_9allocatorIS2_EEE5beginEv:
.LFB3116:
	.loc 2 266 0
	.cfi_startproc
	@ args = 0, pretend = 0, frame = 8
	@ frame_needed = 0, uses_anonymous_args = 0
	str	lr, [sp, #-4]!
.LCFI63:
	.cfi_def_cfa_offset 4
	.cfi_offset 14, -4
	sub	sp, sp, #12
.LCFI64:
	.cfi_def_cfa_offset 16
	str	r0, [sp, #4]
	str	r1, [sp]
	.loc 2 266 0
	ldr	r3, [sp]
	ldr	r3, [r3]
	ldr	r3, [r3]
	ldr	r0, [sp, #4]
	mov	r1, r3
	bl	_ZN4_STL14_List_iteratorIP5SceneNS_16_Nonconst_traitsIS2_EEEC1EPNS_10_List_nodeIS2_EE(PLT)
	ldr	r0, [sp, #4]
	add	sp, sp, #12
	@ sp needed
	ldr	pc, [sp], #4
	.cfi_endproc
.LFE3116:
	.size	_ZN4_STL4listIP5SceneNS_9allocatorIS2_EEE5beginEv, .-_ZN4_STL4listIP5SceneNS_9allocatorIS2_EEE5beginEv
	.section	.text._ZN4_STL14_List_iteratorIP5SceneNS_16_Nonconst_traitsIS2_EEEC2ERKS5_,"axG",%progbits,_ZN4_STL14_List_iteratorIP5SceneNS_16_Nonconst_traitsIS2_EEEC5ERKS5_,comdat
	.align	2
	.weak	_ZN4_STL14_List_iteratorIP5SceneNS_16_Nonconst_traitsIS2_EEEC2ERKS5_
	.hidden	_ZN4_STL14_List_iteratorIP5SceneNS_16_Nonconst_traitsIS2_EEEC2ERKS5_
	.type	_ZN4_STL14_List_iteratorIP5SceneNS_16_Nonconst_traitsIS2_EEEC2ERKS5_, %function
_ZN4_STL14_List_iteratorIP5SceneNS_16_Nonconst_traitsIS2_EEEC2ERKS5_:
.LFB3118:
	.loc 2 128 0
	.cfi_startproc
	@ args = 0, pretend = 0, frame = 8
	@ frame_needed = 0, uses_anonymous_args = 0
	str	lr, [sp, #-4]!
.LCFI65:
	.cfi_def_cfa_offset 4
	.cfi_offset 14, -4
	sub	sp, sp, #12
.LCFI66:
	.cfi_def_cfa_offset 16
	str	r0, [sp, #4]
	str	r1, [sp]
.LBB23:
	.loc 2 128 0
	ldr	r2, [sp, #4]
	ldr	r3, [sp]
	ldr	r3, [r3]
	mov	r0, r2
	mov	r1, r3
	bl	_ZN4_STL19_List_iterator_baseC2EPNS_15_List_node_baseE(PLT)
.LBE23:
	ldr	r3, [sp, #4]
	mov	r0, r3
	add	sp, sp, #12
	@ sp needed
	ldr	pc, [sp], #4
	.cfi_endproc
.LFE3118:
	.size	_ZN4_STL14_List_iteratorIP5SceneNS_16_Nonconst_traitsIS2_EEEC2ERKS5_, .-_ZN4_STL14_List_iteratorIP5SceneNS_16_Nonconst_traitsIS2_EEEC2ERKS5_
	.weak	_ZN4_STL14_List_iteratorIP5SceneNS_16_Nonconst_traitsIS2_EEEC1ERKS5_
	.hidden	_ZN4_STL14_List_iteratorIP5SceneNS_16_Nonconst_traitsIS2_EEEC1ERKS5_
	.set	_ZN4_STL14_List_iteratorIP5SceneNS_16_Nonconst_traitsIS2_EEEC1ERKS5_,_ZN4_STL14_List_iteratorIP5SceneNS_16_Nonconst_traitsIS2_EEEC2ERKS5_
	.section	.text._ZN4_STL4listIP5SceneNS_9allocatorIS2_EEE3endEv,"axG",%progbits,_ZN4_STL4listIP5SceneNS_9allocatorIS2_EEE3endEv,comdat
	.align	2
	.weak	_ZN4_STL4listIP5SceneNS_9allocatorIS2_EEE3endEv
	.hidden	_ZN4_STL4listIP5SceneNS_9allocatorIS2_EEE3endEv
	.type	_ZN4_STL4listIP5SceneNS_9allocatorIS2_EEE3endEv, %function
_ZN4_STL4listIP5SceneNS_9allocatorIS2_EEE3endEv:
.LFB3120:
	.loc 2 269 0
	.cfi_startproc
	@ args = 0, pretend = 0, frame = 8
	@ frame_needed = 0, uses_anonymous_args = 0
	str	lr, [sp, #-4]!
.LCFI67:
	.cfi_def_cfa_offset 4
	.cfi_offset 14, -4
	sub	sp, sp, #12
.LCFI68:
	.cfi_def_cfa_offset 16
	str	r0, [sp, #4]
	str	r1, [sp]
	.loc 2 269 0
	ldr	r3, [sp]
	ldr	r3, [r3]
	ldr	r0, [sp, #4]
	mov	r1, r3
	bl	_ZN4_STL14_List_iteratorIP5SceneNS_16_Nonconst_traitsIS2_EEEC1EPNS_10_List_nodeIS2_EE(PLT)
	ldr	r0, [sp, #4]
	add	sp, sp, #12
	@ sp needed
	ldr	pc, [sp], #4
	.cfi_endproc
.LFE3120:
	.size	_ZN4_STL4listIP5SceneNS_9allocatorIS2_EEE3endEv, .-_ZN4_STL4listIP5SceneNS_9allocatorIS2_EEE3endEv
	.section	.text._ZN4_STL14_List_iteratorIP5SceneNS_16_Nonconst_traitsIS2_EEEppEv,"axG",%progbits,_ZN4_STL14_List_iteratorIP5SceneNS_16_Nonconst_traitsIS2_EEEppEv,comdat
	.align	2
	.weak	_ZN4_STL14_List_iteratorIP5SceneNS_16_Nonconst_traitsIS2_EEEppEv
	.hidden	_ZN4_STL14_List_iteratorIP5SceneNS_16_Nonconst_traitsIS2_EEEppEv
	.type	_ZN4_STL14_List_iteratorIP5SceneNS_16_Nonconst_traitsIS2_EEEppEv, %function
_ZN4_STL14_List_iteratorIP5SceneNS_16_Nonconst_traitsIS2_EEEppEv:
.LFB3121:
	.loc 2 134 0
	.cfi_startproc
	@ args = 0, pretend = 0, frame = 8
	@ frame_needed = 0, uses_anonymous_args = 0
	str	lr, [sp, #-4]!
.LCFI69:
	.cfi_def_cfa_offset 4
	.cfi_offset 14, -4
	sub	sp, sp, #12
.LCFI70:
	.cfi_def_cfa_offset 16
	str	r0, [sp, #4]
	.loc 2 135 0
	ldr	r3, [sp, #4]
	mov	r0, r3
	bl	_ZN4_STL19_List_iterator_base7_M_incrEv(PLT)
	.loc 2 136 0
	ldr	r3, [sp, #4]
	.loc 2 137 0
	mov	r0, r3
	add	sp, sp, #12
	@ sp needed
	ldr	pc, [sp], #4
	.cfi_endproc
.LFE3121:
	.size	_ZN4_STL14_List_iteratorIP5SceneNS_16_Nonconst_traitsIS2_EEEppEv, .-_ZN4_STL14_List_iteratorIP5SceneNS_16_Nonconst_traitsIS2_EEEppEv
	.section	.text._ZNK4_STL14_List_iteratorIP5SceneNS_16_Nonconst_traitsIS2_EEEdeEv,"axG",%progbits,_ZNK4_STL14_List_iteratorIP5SceneNS_16_Nonconst_traitsIS2_EEEdeEv,comdat
	.align	2
	.weak	_ZNK4_STL14_List_iteratorIP5SceneNS_16_Nonconst_traitsIS2_EEEdeEv
	.hidden	_ZNK4_STL14_List_iteratorIP5SceneNS_16_Nonconst_traitsIS2_EEEdeEv
	.type	_ZNK4_STL14_List_iteratorIP5SceneNS_16_Nonconst_traitsIS2_EEEdeEv, %function
_ZNK4_STL14_List_iteratorIP5SceneNS_16_Nonconst_traitsIS2_EEEdeEv:
.LFB3122:
	.loc 2 130 0
	.cfi_startproc
	@ args = 0, pretend = 0, frame = 8
	@ frame_needed = 0, uses_anonymous_args = 0
	@ link register save eliminated.
	sub	sp, sp, #8
.LCFI71:
	.cfi_def_cfa_offset 8
	str	r0, [sp, #4]
	.loc 2 130 0
	ldr	r3, [sp, #4]
	ldr	r3, [r3]
	add	r3, r3, #8
	mov	r0, r3
	add	sp, sp, #8
	@ sp needed
	bx	lr
	.cfi_endproc
.LFE3122:
	.size	_ZNK4_STL14_List_iteratorIP5SceneNS_16_Nonconst_traitsIS2_EEEdeEv, .-_ZNK4_STL14_List_iteratorIP5SceneNS_16_Nonconst_traitsIS2_EEEdeEv
	.section	.text._ZN4_STL4listIP5SceneNS_9allocatorIS2_EEE9push_backERKS2_,"axG",%progbits,_ZN4_STL4listIP5SceneNS_9allocatorIS2_EEE9push_backERKS2_,comdat
	.align	2
	.weak	_ZN4_STL4listIP5SceneNS_9allocatorIS2_EEE9push_backERKS2_
	.hidden	_ZN4_STL4listIP5SceneNS_9allocatorIS2_EEE9push_backERKS2_
	.type	_ZN4_STL4listIP5SceneNS_9allocatorIS2_EEE9push_backERKS2_, %function
_ZN4_STL4listIP5SceneNS_9allocatorIS2_EEE9push_backERKS2_:
.LFB3123:
	.loc 2 345 0
	.cfi_startproc
	@ args = 0, pretend = 0, frame = 24
	@ frame_needed = 0, uses_anonymous_args = 0
	str	lr, [sp, #-4]!
.LCFI72:
	.cfi_def_cfa_offset 4
	.cfi_offset 14, -4
	sub	sp, sp, #28
.LCFI73:
	.cfi_def_cfa_offset 32
	str	r0, [sp, #12]
	str	r1, [sp, #8]
	.loc 2 345 0
	add	r3, sp, #20
	mov	r0, r3
	ldr	r1, [sp, #12]
	bl	_ZN4_STL4listIP5SceneNS_9allocatorIS2_EEE3endEv(PLT)
	mov	r2, sp
	add	r3, sp, #20
	mov	r0, r2
	ldr	r1, [sp, #12]
	mov	r2, r3
	ldr	r3, [sp, #8]
	bl	_ZN4_STL4listIP5SceneNS_9allocatorIS2_EEE6insertENS_14_List_iteratorIS2_NS_16_Nonconst_traitsIS2_EEEERKS2_(PLT)
	add	sp, sp, #28
	@ sp needed
	ldr	pc, [sp], #4
	.cfi_endproc
.LFE3123:
	.size	_ZN4_STL4listIP5SceneNS_9allocatorIS2_EEE9push_backERKS2_, .-_ZN4_STL4listIP5SceneNS_9allocatorIS2_EEE9push_backERKS2_
	.section	.text._ZN4_STL4listIP5SceneNS_9allocatorIS2_EEE6removeERKS2_,"axG",%progbits,_ZN4_STL4listIP5SceneNS_9allocatorIS2_EEE6removeERKS2_,comdat
	.align	2
	.weak	_ZN4_STL4listIP5SceneNS_9allocatorIS2_EEE6removeERKS2_
	.hidden	_ZN4_STL4listIP5SceneNS_9allocatorIS2_EEE6removeERKS2_
	.type	_ZN4_STL4listIP5SceneNS_9allocatorIS2_EEE6removeERKS2_, %function
_ZN4_STL4listIP5SceneNS_9allocatorIS2_EEE6removeERKS2_:
.LFB3124:
	.loc 2 473 0
	.cfi_startproc
	@ args = 0, pretend = 0, frame = 32
	@ frame_needed = 0, uses_anonymous_args = 0
	stmfd	sp!, {r4, lr}
.LCFI74:
	.cfi_def_cfa_offset 8
	.cfi_offset 4, -8
	.cfi_offset 14, -4
	sub	sp, sp, #32
.LCFI75:
	.cfi_def_cfa_offset 40
	str	r0, [sp, #12]
	str	r1, [sp, #8]
.LBB24:
	.loc 2 474 0
	add	r3, sp, #24
	mov	r0, r3
	ldr	r1, [sp, #12]
	bl	_ZN4_STL4listIP5SceneNS_9allocatorIS2_EEE5beginEv(PLT)
	.loc 2 475 0
	add	r3, sp, #20
	mov	r0, r3
	ldr	r1, [sp, #12]
	bl	_ZN4_STL4listIP5SceneNS_9allocatorIS2_EEE3endEv(PLT)
	.loc 2 476 0
	b	.L123
.L125:
.LBB25:
	.loc 2 477 0
	add	r2, sp, #16
	add	r3, sp, #24
	mov	r0, r2
	mov	r1, r3
	bl	_ZN4_STL14_List_iteratorIP5SceneNS_16_Nonconst_traitsIS2_EEEC1ERKS5_(PLT)
	.loc 2 478 0
	add	r3, sp, #16
	mov	r0, r3
	bl	_ZN4_STL14_List_iteratorIP5SceneNS_16_Nonconst_traitsIS2_EEEppEv(PLT)
	.loc 2 479 0
	ldr	r3, [sp, #8]
	ldr	r4, [r3]
	add	r3, sp, #24
	mov	r0, r3
	bl	_ZNK4_STL14_List_iteratorIP5SceneNS_16_Nonconst_traitsIS2_EEEdeEv(PLT)
	mov	r3, r0
	ldr	r3, [r3]
	cmp	r4, r3
	movne	r3, #0
	moveq	r3, #1
	uxtb	r3, r3
	cmp	r3, #0
	beq	.L124
	.loc 2 479 0 is_stmt 0 discriminator 1
	add	r2, sp, #28
	add	r3, sp, #24
	mov	r0, r2
	mov	r1, r3
	bl	_ZN4_STL14_List_iteratorIP5SceneNS_16_Nonconst_traitsIS2_EEEC1ERKS5_(PLT)
	mov	r2, sp
	add	r3, sp, #28
	mov	r0, r2
	ldr	r1, [sp, #12]
	mov	r2, r3
	bl	_ZN4_STL4listIP5SceneNS_9allocatorIS2_EEE5eraseENS_14_List_iteratorIS2_NS_16_Nonconst_traitsIS2_EEEE(PLT)
.L124:
	.loc 2 480 0 is_stmt 1 discriminator 1
	ldr	r3, [sp, #16]
	str	r3, [sp, #24]
.L123:
.LBE25:
	.loc 2 476 0 discriminator 1
	add	r2, sp, #24
	add	r3, sp, #20
	mov	r0, r2
	mov	r1, r3
	bl	_ZNK4_STL19_List_iterator_baseneERKS0_(PLT)
	mov	r3, r0
	cmp	r3, #0
	bne	.L125
.LBE24:
	.loc 2 482 0
	add	sp, sp, #32
	@ sp needed
	ldmfd	sp!, {r4, pc}
	.cfi_endproc
.LFE3124:
	.size	_ZN4_STL4listIP5SceneNS_9allocatorIS2_EEE6removeERKS2_, .-_ZN4_STL4listIP5SceneNS_9allocatorIS2_EEE6removeERKS2_
	.section	.text._ZN4_STL17_STLP_alloc_proxyIPN7IwTween6CTween9ValueTypeES3_NS_9allocatorIS3_EEED2Ev,"axG",%progbits,_ZN4_STL17_STLP_alloc_proxyIPN7IwTween6CTween9ValueTypeES3_NS_9allocatorIS3_EEED5Ev,comdat
	.align	2
	.weak	_ZN4_STL17_STLP_alloc_proxyIPN7IwTween6CTween9ValueTypeES3_NS_9allocatorIS3_EEED2Ev
	.hidden	_ZN4_STL17_STLP_alloc_proxyIPN7IwTween6CTween9ValueTypeES3_NS_9allocatorIS3_EEED2Ev
	.type	_ZN4_STL17_STLP_alloc_proxyIPN7IwTween6CTween9ValueTypeES3_NS_9allocatorIS3_EEED2Ev, %function
_ZN4_STL17_STLP_alloc_proxyIPN7IwTween6CTween9ValueTypeES3_NS_9allocatorIS3_EEED2Ev:
.LFB3158:
	.loc 8 481 0
	.cfi_startproc
	@ args = 0, pretend = 0, frame = 8
	@ frame_needed = 0, uses_anonymous_args = 0
	str	lr, [sp, #-4]!
.LCFI76:
	.cfi_def_cfa_offset 4
	.cfi_offset 14, -4
	sub	sp, sp, #12
.LCFI77:
	.cfi_def_cfa_offset 16
	str	r0, [sp, #4]
.LBB26:
	.loc 8 481 0
	ldr	r0, [sp, #4]
	bl	_ZN4_STL9allocatorIN7IwTween6CTween9ValueTypeEED2Ev(PLT)
.LBE26:
	ldr	r3, [sp, #4]
	mov	r0, r3
	add	sp, sp, #12
	@ sp needed
	ldr	pc, [sp], #4
	.cfi_endproc
.LFE3158:
	.size	_ZN4_STL17_STLP_alloc_proxyIPN7IwTween6CTween9ValueTypeES3_NS_9allocatorIS3_EEED2Ev, .-_ZN4_STL17_STLP_alloc_proxyIPN7IwTween6CTween9ValueTypeES3_NS_9allocatorIS3_EEED2Ev
	.weak	_ZN4_STL17_STLP_alloc_proxyIPN7IwTween6CTween9ValueTypeES3_NS_9allocatorIS3_EEED1Ev
	.hidden	_ZN4_STL17_STLP_alloc_proxyIPN7IwTween6CTween9ValueTypeES3_NS_9allocatorIS3_EEED1Ev
	.set	_ZN4_STL17_STLP_alloc_proxyIPN7IwTween6CTween9ValueTypeES3_NS_9allocatorIS3_EEED1Ev,_ZN4_STL17_STLP_alloc_proxyIPN7IwTween6CTween9ValueTypeES3_NS_9allocatorIS3_EEED2Ev
	.section	.text._ZN4_STL12_Vector_baseIN7IwTween6CTween9ValueTypeENS_9allocatorIS3_EEED2Ev,"axG",%progbits,_ZN4_STL12_Vector_baseIN7IwTween6CTween9ValueTypeENS_9allocatorIS3_EEED5Ev,comdat
	.align	2
	.weak	_ZN4_STL12_Vector_baseIN7IwTween6CTween9ValueTypeENS_9allocatorIS3_EEED2Ev
	.hidden	_ZN4_STL12_Vector_baseIN7IwTween6CTween9ValueTypeENS_9allocatorIS3_EEED2Ev
	.type	_ZN4_STL12_Vector_baseIN7IwTween6CTween9ValueTypeENS_9allocatorIS3_EEED2Ev, %function
_ZN4_STL12_Vector_baseIN7IwTween6CTween9ValueTypeENS_9allocatorIS3_EEED2Ev:
.LFB3163:
	.loc 9 83 0
	.cfi_startproc
	@ args = 0, pretend = 0, frame = 8
	@ frame_needed = 0, uses_anonymous_args = 0
	str	lr, [sp, #-4]!
.LCFI78:
	.cfi_def_cfa_offset 4
	.cfi_offset 14, -4
	sub	sp, sp, #12
.LCFI79:
	.cfi_def_cfa_offset 16
	str	r0, [sp, #4]
.LBB27:
	.loc 9 84 0
	ldr	r3, [sp, #4]
	ldr	r3, [r3]
	cmp	r3, #0
	beq	.L130
	.loc 9 85 0
	ldr	r3, [sp, #4]
	add	r1, r3, #8
	ldr	r3, [sp, #4]
	ldr	r2, [r3]
	ldr	r3, [sp, #4]
	ldr	r3, [r3, #8]
	mov	r0, r3
	ldr	r3, [sp, #4]
	ldr	r3, [r3]
	rsb	r3, r3, r0
	mov	r3, r3, asr #4
	mov	r0, r1
	mov	r1, r2
	mov	r2, r3
	bl	_ZN4_STL9allocatorIN7IwTween6CTween9ValueTypeEE10deallocateEPS3_j(PLT)
.L130:
	.loc 9 86 0
	ldr	r3, [sp, #4]
	add	r3, r3, #8
	mov	r0, r3
	bl	_ZN4_STL17_STLP_alloc_proxyIPN7IwTween6CTween9ValueTypeES3_NS_9allocatorIS3_EEED1Ev(PLT)
.LBE27:
	ldr	r3, [sp, #4]
	mov	r0, r3
	add	sp, sp, #12
	@ sp needed
	ldr	pc, [sp], #4
	.cfi_endproc
.LFE3163:
	.size	_ZN4_STL12_Vector_baseIN7IwTween6CTween9ValueTypeENS_9allocatorIS3_EEED2Ev, .-_ZN4_STL12_Vector_baseIN7IwTween6CTween9ValueTypeENS_9allocatorIS3_EEED2Ev
	.weak	_ZN4_STL12_Vector_baseIN7IwTween6CTween9ValueTypeENS_9allocatorIS3_EEED1Ev
	.hidden	_ZN4_STL12_Vector_baseIN7IwTween6CTween9ValueTypeENS_9allocatorIS3_EEED1Ev
	.set	_ZN4_STL12_Vector_baseIN7IwTween6CTween9ValueTypeENS_9allocatorIS3_EEED1Ev,_ZN4_STL12_Vector_baseIN7IwTween6CTween9ValueTypeENS_9allocatorIS3_EEED2Ev
	.section	.text._ZN4_STL8_DestroyIPN7IwTween6CTween9ValueTypeEEEvT_S5_,"axG",%progbits,_ZN4_STL8_DestroyIPN7IwTween6CTween9ValueTypeEEEvT_S5_,comdat
	.align	2
	.weak	_ZN4_STL8_DestroyIPN7IwTween6CTween9ValueTypeEEEvT_S5_
	.hidden	_ZN4_STL8_DestroyIPN7IwTween6CTween9ValueTypeEEEvT_S5_
	.type	_ZN4_STL8_DestroyIPN7IwTween6CTween9ValueTypeEEEvT_S5_, %function
_ZN4_STL8_DestroyIPN7IwTween6CTween9ValueTypeEEEvT_S5_:
.LFB3165:
	.file 10 "c:/marmalade/7.5/s3e/h/std/c++/stl/_construct.h"
	.loc 10 138 0
	.cfi_startproc
	@ args = 0, pretend = 0, frame = 8
	@ frame_needed = 0, uses_anonymous_args = 0
	str	lr, [sp, #-4]!
.LCFI80:
	.cfi_def_cfa_offset 4
	.cfi_offset 14, -4
	sub	sp, sp, #12
.LCFI81:
	.cfi_def_cfa_offset 16
	str	r0, [sp, #4]
	str	r1, [sp]
	.loc 10 139 0
	ldr	r0, [sp, #4]
	ldr	r1, [sp]
	mov	r2, #0
	bl	_ZN4_STL9__destroyIPN7IwTween6CTween9ValueTypeES3_EEvT_S5_PT0_(PLT)
	.loc 10 140 0
	add	sp, sp, #12
	@ sp needed
	ldr	pc, [sp], #4
	.cfi_endproc
.LFE3165:
	.size	_ZN4_STL8_DestroyIPN7IwTween6CTween9ValueTypeEEEvT_S5_, .-_ZN4_STL8_DestroyIPN7IwTween6CTween9ValueTypeEEEvT_S5_
	.section	.text._ZN4_STL17_STLP_alloc_proxyIPN7IwTween6CTweenES2_NS_9allocatorIS2_EEED2Ev,"axG",%progbits,_ZN4_STL17_STLP_alloc_proxyIPN7IwTween6CTweenES2_NS_9allocatorIS2_EEED5Ev,comdat
	.align	2
	.weak	_ZN4_STL17_STLP_alloc_proxyIPN7IwTween6CTweenES2_NS_9allocatorIS2_EEED2Ev
	.hidden	_ZN4_STL17_STLP_alloc_proxyIPN7IwTween6CTweenES2_NS_9allocatorIS2_EEED2Ev
	.type	_ZN4_STL17_STLP_alloc_proxyIPN7IwTween6CTweenES2_NS_9allocatorIS2_EEED2Ev, %function
_ZN4_STL17_STLP_alloc_proxyIPN7IwTween6CTweenES2_NS_9allocatorIS2_EEED2Ev:
.LFB3168:
	.loc 8 481 0
	.cfi_startproc
	@ args = 0, pretend = 0, frame = 8
	@ frame_needed = 0, uses_anonymous_args = 0
	str	lr, [sp, #-4]!
.LCFI82:
	.cfi_def_cfa_offset 4
	.cfi_offset 14, -4
	sub	sp, sp, #12
.LCFI83:
	.cfi_def_cfa_offset 16
	str	r0, [sp, #4]
.LBB28:
	.loc 8 481 0
	ldr	r0, [sp, #4]
	bl	_ZN4_STL9allocatorIN7IwTween6CTweenEED2Ev(PLT)
.LBE28:
	ldr	r3, [sp, #4]
	mov	r0, r3
	add	sp, sp, #12
	@ sp needed
	ldr	pc, [sp], #4
	.cfi_endproc
.LFE3168:
	.size	_ZN4_STL17_STLP_alloc_proxyIPN7IwTween6CTweenES2_NS_9allocatorIS2_EEED2Ev, .-_ZN4_STL17_STLP_alloc_proxyIPN7IwTween6CTweenES2_NS_9allocatorIS2_EEED2Ev
	.weak	_ZN4_STL17_STLP_alloc_proxyIPN7IwTween6CTweenES2_NS_9allocatorIS2_EEED1Ev
	.hidden	_ZN4_STL17_STLP_alloc_proxyIPN7IwTween6CTweenES2_NS_9allocatorIS2_EEED1Ev
	.set	_ZN4_STL17_STLP_alloc_proxyIPN7IwTween6CTweenES2_NS_9allocatorIS2_EEED1Ev,_ZN4_STL17_STLP_alloc_proxyIPN7IwTween6CTweenES2_NS_9allocatorIS2_EEED2Ev
	.section	.text._ZN4_STL12_Vector_baseIN7IwTween6CTweenENS_9allocatorIS2_EEEC2ERKS4_,"axG",%progbits,_ZN4_STL12_Vector_baseIN7IwTween6CTweenENS_9allocatorIS2_EEEC5ERKS4_,comdat
	.align	2
	.weak	_ZN4_STL12_Vector_baseIN7IwTween6CTweenENS_9allocatorIS2_EEEC2ERKS4_
	.hidden	_ZN4_STL12_Vector_baseIN7IwTween6CTweenENS_9allocatorIS2_EEEC2ERKS4_
	.type	_ZN4_STL12_Vector_baseIN7IwTween6CTweenENS_9allocatorIS2_EEEC2ERKS4_, %function
_ZN4_STL12_Vector_baseIN7IwTween6CTweenENS_9allocatorIS2_EEEC2ERKS4_:
.LFB3170:
	.loc 9 71 0
	.cfi_startproc
	@ args = 0, pretend = 0, frame = 8
	@ frame_needed = 0, uses_anonymous_args = 0
	str	lr, [sp, #-4]!
.LCFI84:
	.cfi_def_cfa_offset 4
	.cfi_offset 14, -4
	sub	sp, sp, #12
.LCFI85:
	.cfi_def_cfa_offset 16
	str	r0, [sp, #4]
	str	r1, [sp]
.LBB29:
	.loc 9 72 0
	ldr	r3, [sp, #4]
	mov	r2, #0
	str	r2, [r3]
	ldr	r3, [sp, #4]
	mov	r2, #0
	str	r2, [r3, #4]
	ldr	r3, [sp, #4]
	add	r3, r3, #8
	mov	r0, r3
	ldr	r1, [sp]
	mov	r2, #0
	bl	_ZN4_STL17_STLP_alloc_proxyIPN7IwTween6CTweenES2_NS_9allocatorIS2_EEEC1ERKS5_S3_(PLT)
.LBE29:
	.loc 9 73 0
	ldr	r3, [sp, #4]
	mov	r0, r3
	add	sp, sp, #12
	@ sp needed
	ldr	pc, [sp], #4
	.cfi_endproc
.LFE3170:
	.size	_ZN4_STL12_Vector_baseIN7IwTween6CTweenENS_9allocatorIS2_EEEC2ERKS4_, .-_ZN4_STL12_Vector_baseIN7IwTween6CTweenENS_9allocatorIS2_EEEC2ERKS4_
	.weak	_ZN4_STL12_Vector_baseIN7IwTween6CTweenENS_9allocatorIS2_EEEC1ERKS4_
	.hidden	_ZN4_STL12_Vector_baseIN7IwTween6CTweenENS_9allocatorIS2_EEEC1ERKS4_
	.set	_ZN4_STL12_Vector_baseIN7IwTween6CTweenENS_9allocatorIS2_EEEC1ERKS4_,_ZN4_STL12_Vector_baseIN7IwTween6CTweenENS_9allocatorIS2_EEEC2ERKS4_
	.section	.text._ZN4_STL12_Vector_baseIN7IwTween6CTweenENS_9allocatorIS2_EEED2Ev,"axG",%progbits,_ZN4_STL12_Vector_baseIN7IwTween6CTweenENS_9allocatorIS2_EEED5Ev,comdat
	.align	2
	.weak	_ZN4_STL12_Vector_baseIN7IwTween6CTweenENS_9allocatorIS2_EEED2Ev
	.hidden	_ZN4_STL12_Vector_baseIN7IwTween6CTweenENS_9allocatorIS2_EEED2Ev
	.type	_ZN4_STL12_Vector_baseIN7IwTween6CTweenENS_9allocatorIS2_EEED2Ev, %function
_ZN4_STL12_Vector_baseIN7IwTween6CTweenENS_9allocatorIS2_EEED2Ev:
.LFB3173:
	.loc 9 83 0
	.cfi_startproc
	@ args = 0, pretend = 0, frame = 8
	@ frame_needed = 0, uses_anonymous_args = 0
	str	lr, [sp, #-4]!
.LCFI86:
	.cfi_def_cfa_offset 4
	.cfi_offset 14, -4
	sub	sp, sp, #12
.LCFI87:
	.cfi_def_cfa_offset 16
	str	r0, [sp, #4]
.LBB30:
	.loc 9 84 0
	ldr	r3, [sp, #4]
	ldr	r3, [r3]
	cmp	r3, #0
	beq	.L141
	.loc 9 85 0
	ldr	r3, [sp, #4]
	add	r0, r3, #8
	ldr	r3, [sp, #4]
	ldr	r1, [r3]
	ldr	r3, [sp, #4]
	ldr	r3, [r3, #8]
	mov	r2, r3
	ldr	r3, [sp, #4]
	ldr	r3, [r3]
	rsb	r3, r3, r2
	mov	r2, r3, asr #2
	mov	r3, r2
	mov	r3, r3, asl #4
	add	r3, r3, r2
	mov	r2, r3, asl #8
	add	r3, r3, r2
	mov	r2, r3, asl #16
	add	r3, r3, r2
	rsb	r3, r3, #0
	mov	r2, r3
	bl	_ZN4_STL9allocatorIN7IwTween6CTweenEE10deallocateEPS2_j(PLT)
.L141:
	.loc 9 86 0
	ldr	r3, [sp, #4]
	add	r3, r3, #8
	mov	r0, r3
	bl	_ZN4_STL17_STLP_alloc_proxyIPN7IwTween6CTweenES2_NS_9allocatorIS2_EEED1Ev(PLT)
.LBE30:
	ldr	r3, [sp, #4]
	mov	r0, r3
	add	sp, sp, #12
	@ sp needed
	ldr	pc, [sp], #4
	.cfi_endproc
.LFE3173:
	.size	_ZN4_STL12_Vector_baseIN7IwTween6CTweenENS_9allocatorIS2_EEED2Ev, .-_ZN4_STL12_Vector_baseIN7IwTween6CTweenENS_9allocatorIS2_EEED2Ev
	.weak	_ZN4_STL12_Vector_baseIN7IwTween6CTweenENS_9allocatorIS2_EEED1Ev
	.hidden	_ZN4_STL12_Vector_baseIN7IwTween6CTweenENS_9allocatorIS2_EEED1Ev
	.set	_ZN4_STL12_Vector_baseIN7IwTween6CTweenENS_9allocatorIS2_EEED1Ev,_ZN4_STL12_Vector_baseIN7IwTween6CTweenENS_9allocatorIS2_EEED2Ev
	.section	.text._ZN4_STL8_DestroyIPN7IwTween6CTweenEEEvT_S4_,"axG",%progbits,_ZN4_STL8_DestroyIPN7IwTween6CTweenEEEvT_S4_,comdat
	.align	2
	.weak	_ZN4_STL8_DestroyIPN7IwTween6CTweenEEEvT_S4_
	.hidden	_ZN4_STL8_DestroyIPN7IwTween6CTweenEEEvT_S4_
	.type	_ZN4_STL8_DestroyIPN7IwTween6CTweenEEEvT_S4_, %function
_ZN4_STL8_DestroyIPN7IwTween6CTweenEEEvT_S4_:
.LFB3175:
	.loc 10 138 0
	.cfi_startproc
	@ args = 0, pretend = 0, frame = 8
	@ frame_needed = 0, uses_anonymous_args = 0
	str	lr, [sp, #-4]!
.LCFI88:
	.cfi_def_cfa_offset 4
	.cfi_offset 14, -4
	sub	sp, sp, #12
.LCFI89:
	.cfi_def_cfa_offset 16
	str	r0, [sp, #4]
	str	r1, [sp]
	.loc 10 139 0
	ldr	r0, [sp, #4]
	ldr	r1, [sp]
	mov	r2, #0
	bl	_ZN4_STL9__destroyIPN7IwTween6CTweenES2_EEvT_S4_PT0_(PLT)
	.loc 10 140 0
	add	sp, sp, #12
	@ sp needed
	ldr	pc, [sp], #4
	.cfi_endproc
.LFE3175:
	.size	_ZN4_STL8_DestroyIPN7IwTween6CTweenEEEvT_S4_, .-_ZN4_STL8_DestroyIPN7IwTween6CTweenEEEvT_S4_
	.section	.text._ZN4_STL17_STLP_alloc_proxyIPNS_10_List_nodeIP5SceneEES4_NS_9allocatorIS4_EEED2Ev,"axG",%progbits,_ZN4_STL17_STLP_alloc_proxyIPNS_10_List_nodeIP5SceneEES4_NS_9allocatorIS4_EEED5Ev,comdat
	.align	2
	.weak	_ZN4_STL17_STLP_alloc_proxyIPNS_10_List_nodeIP5SceneEES4_NS_9allocatorIS4_EEED2Ev
	.hidden	_ZN4_STL17_STLP_alloc_proxyIPNS_10_List_nodeIP5SceneEES4_NS_9allocatorIS4_EEED2Ev
	.type	_ZN4_STL17_STLP_alloc_proxyIPNS_10_List_nodeIP5SceneEES4_NS_9allocatorIS4_EEED2Ev, %function
_ZN4_STL17_STLP_alloc_proxyIPNS_10_List_nodeIP5SceneEES4_NS_9allocatorIS4_EEED2Ev:
.LFB3188:
	.loc 8 481 0
	.cfi_startproc
	@ args = 0, pretend = 0, frame = 8
	@ frame_needed = 0, uses_anonymous_args = 0
	str	lr, [sp, #-4]!
.LCFI90:
	.cfi_def_cfa_offset 4
	.cfi_offset 14, -4
	sub	sp, sp, #12
.LCFI91:
	.cfi_def_cfa_offset 16
	str	r0, [sp, #4]
.LBB31:
	.loc 8 481 0
	ldr	r0, [sp, #4]
	bl	_ZN4_STL9allocatorINS_10_List_nodeIP5SceneEEED2Ev(PLT)
.LBE31:
	ldr	r3, [sp, #4]
	mov	r0, r3
	add	sp, sp, #12
	@ sp needed
	ldr	pc, [sp], #4
	.cfi_endproc
.LFE3188:
	.size	_ZN4_STL17_STLP_alloc_proxyIPNS_10_List_nodeIP5SceneEES4_NS_9allocatorIS4_EEED2Ev, .-_ZN4_STL17_STLP_alloc_proxyIPNS_10_List_nodeIP5SceneEES4_NS_9allocatorIS4_EEED2Ev
	.weak	_ZN4_STL17_STLP_alloc_proxyIPNS_10_List_nodeIP5SceneEES4_NS_9allocatorIS4_EEED1Ev
	.hidden	_ZN4_STL17_STLP_alloc_proxyIPNS_10_List_nodeIP5SceneEES4_NS_9allocatorIS4_EEED1Ev
	.set	_ZN4_STL17_STLP_alloc_proxyIPNS_10_List_nodeIP5SceneEES4_NS_9allocatorIS4_EEED1Ev,_ZN4_STL17_STLP_alloc_proxyIPNS_10_List_nodeIP5SceneEES4_NS_9allocatorIS4_EEED2Ev
	.section	.text._ZN4_STL10_List_baseIP5SceneNS_9allocatorIS2_EEEC2ERKS4_,"axG",%progbits,_ZN4_STL10_List_baseIP5SceneNS_9allocatorIS2_EEEC5ERKS4_,comdat
	.align	2
	.weak	_ZN4_STL10_List_baseIP5SceneNS_9allocatorIS2_EEEC2ERKS4_
	.hidden	_ZN4_STL10_List_baseIP5SceneNS_9allocatorIS2_EEEC2ERKS4_
	.type	_ZN4_STL10_List_baseIP5SceneNS_9allocatorIS2_EEEC2ERKS4_, %function
_ZN4_STL10_List_baseIP5SceneNS_9allocatorIS2_EEEC2ERKS4_:
.LFB3190:
	.loc 2 182 0
	.cfi_startproc
	@ args = 0, pretend = 0, frame = 16
	@ frame_needed = 0, uses_anonymous_args = 0
	stmfd	sp!, {r4, lr}
.LCFI92:
	.cfi_def_cfa_offset 8
	.cfi_offset 4, -8
	.cfi_offset 14, -4
	sub	sp, sp, #16
.LCFI93:
	.cfi_def_cfa_offset 24
	str	r0, [sp, #4]
	str	r1, [sp]
.LBB32:
	.loc 2 182 0
	ldr	r4, [sp, #4]
	add	r3, sp, #8
	mov	r0, r3
	ldr	r1, [sp]
	bl	_ZN4_STL9allocatorINS_10_List_nodeIP5SceneEEEC1IS3_EERKNS0_IT_EE(PLT)
	add	r3, sp, #8
	mov	r0, r4
	mov	r1, r3
	mov	r2, #0
	bl	_ZN4_STL17_STLP_alloc_proxyIPNS_10_List_nodeIP5SceneEES4_NS_9allocatorIS4_EEEC1ERKS7_S5_(PLT)
	add	r3, sp, #8
	mov	r0, r3
	bl	_ZN4_STL9allocatorINS_10_List_nodeIP5SceneEEED1Ev(PLT)
.LBB33:
	.loc 2 183 0
	ldr	r3, [sp, #4]
	mov	r0, r3
	mov	r1, #1
	mov	r2, #0
	bl	_ZN4_STL9allocatorINS_10_List_nodeIP5SceneEEE8allocateEjPKv(PLT)
	str	r0, [sp, #12]
	.loc 2 184 0
	ldr	r3, [sp, #12]
	ldr	r2, [sp, #12]
	str	r2, [r3]
	.loc 2 185 0
	ldr	r3, [sp, #12]
	ldr	r2, [sp, #12]
	str	r2, [r3, #4]
	.loc 2 186 0
	ldr	r3, [sp, #4]
	ldr	r2, [sp, #12]
	str	r2, [r3]
.LBE33:
.LBE32:
	.loc 2 187 0
	ldr	r3, [sp, #4]
	mov	r0, r3
	add	sp, sp, #16
	@ sp needed
	ldmfd	sp!, {r4, pc}
	.cfi_endproc
.LFE3190:
	.size	_ZN4_STL10_List_baseIP5SceneNS_9allocatorIS2_EEEC2ERKS4_, .-_ZN4_STL10_List_baseIP5SceneNS_9allocatorIS2_EEEC2ERKS4_
	.weak	_ZN4_STL10_List_baseIP5SceneNS_9allocatorIS2_EEEC1ERKS4_
	.hidden	_ZN4_STL10_List_baseIP5SceneNS_9allocatorIS2_EEEC1ERKS4_
	.set	_ZN4_STL10_List_baseIP5SceneNS_9allocatorIS2_EEEC1ERKS4_,_ZN4_STL10_List_baseIP5SceneNS_9allocatorIS2_EEEC2ERKS4_
	.section	.text._ZN4_STL10_List_baseIP5SceneNS_9allocatorIS2_EEED2Ev,"axG",%progbits,_ZN4_STL10_List_baseIP5SceneNS_9allocatorIS2_EEED5Ev,comdat
	.align	2
	.weak	_ZN4_STL10_List_baseIP5SceneNS_9allocatorIS2_EEED2Ev
	.hidden	_ZN4_STL10_List_baseIP5SceneNS_9allocatorIS2_EEED2Ev
	.type	_ZN4_STL10_List_baseIP5SceneNS_9allocatorIS2_EEED2Ev, %function
_ZN4_STL10_List_baseIP5SceneNS_9allocatorIS2_EEED2Ev:
.LFB3193:
	.loc 2 188 0
	.cfi_startproc
	@ args = 0, pretend = 0, frame = 8
	@ frame_needed = 0, uses_anonymous_args = 0
	str	lr, [sp, #-4]!
.LCFI94:
	.cfi_def_cfa_offset 4
	.cfi_offset 14, -4
	sub	sp, sp, #12
.LCFI95:
	.cfi_def_cfa_offset 16
	str	r0, [sp, #4]
.LBB34:
	.loc 2 189 0
	ldr	r0, [sp, #4]
	bl	_ZN4_STL10_List_baseIP5SceneNS_9allocatorIS2_EEE5clearEv(PLT)
	.loc 2 190 0
	ldr	r2, [sp, #4]
	ldr	r3, [sp, #4]
	ldr	r3, [r3]
	mov	r0, r2
	mov	r1, r3
	mov	r2, #1
	bl	_ZN4_STL9allocatorINS_10_List_nodeIP5SceneEEE10deallocateEPS4_j(PLT)
	.loc 2 191 0
	ldr	r3, [sp, #4]
	mov	r0, r3
	bl	_ZN4_STL17_STLP_alloc_proxyIPNS_10_List_nodeIP5SceneEES4_NS_9allocatorIS4_EEED1Ev(PLT)
.LBE34:
	ldr	r3, [sp, #4]
	mov	r0, r3
	add	sp, sp, #12
	@ sp needed
	ldr	pc, [sp], #4
	.cfi_endproc
.LFE3193:
	.size	_ZN4_STL10_List_baseIP5SceneNS_9allocatorIS2_EEED2Ev, .-_ZN4_STL10_List_baseIP5SceneNS_9allocatorIS2_EEED2Ev
	.weak	_ZN4_STL10_List_baseIP5SceneNS_9allocatorIS2_EEED1Ev
	.hidden	_ZN4_STL10_List_baseIP5SceneNS_9allocatorIS2_EEED1Ev
	.set	_ZN4_STL10_List_baseIP5SceneNS_9allocatorIS2_EEED1Ev,_ZN4_STL10_List_baseIP5SceneNS_9allocatorIS2_EEED2Ev
	.section	.text._ZN4_STL14_List_iteratorIP5SceneNS_16_Nonconst_traitsIS2_EEEC2EPNS_10_List_nodeIS2_EE,"axG",%progbits,_ZN4_STL14_List_iteratorIP5SceneNS_16_Nonconst_traitsIS2_EEEC5EPNS_10_List_nodeIS2_EE,comdat
	.align	2
	.weak	_ZN4_STL14_List_iteratorIP5SceneNS_16_Nonconst_traitsIS2_EEEC2EPNS_10_List_nodeIS2_EE
	.hidden	_ZN4_STL14_List_iteratorIP5SceneNS_16_Nonconst_traitsIS2_EEEC2EPNS_10_List_nodeIS2_EE
	.type	_ZN4_STL14_List_iteratorIP5SceneNS_16_Nonconst_traitsIS2_EEEC2EPNS_10_List_nodeIS2_EE, %function
_ZN4_STL14_List_iteratorIP5SceneNS_16_Nonconst_traitsIS2_EEEC2EPNS_10_List_nodeIS2_EE:
.LFB3196:
	.loc 2 126 0
	.cfi_startproc
	@ args = 0, pretend = 0, frame = 8
	@ frame_needed = 0, uses_anonymous_args = 0
	str	lr, [sp, #-4]!
.LCFI96:
	.cfi_def_cfa_offset 4
	.cfi_offset 14, -4
	sub	sp, sp, #12
.LCFI97:
	.cfi_def_cfa_offset 16
	str	r0, [sp, #4]
	str	r1, [sp]
.LBB35:
	.loc 2 126 0
	ldr	r3, [sp, #4]
	mov	r0, r3
	ldr	r1, [sp]
	bl	_ZN4_STL19_List_iterator_baseC2EPNS_15_List_node_baseE(PLT)
.LBE35:
	ldr	r3, [sp, #4]
	mov	r0, r3
	add	sp, sp, #12
	@ sp needed
	ldr	pc, [sp], #4
	.cfi_endproc
.LFE3196:
	.size	_ZN4_STL14_List_iteratorIP5SceneNS_16_Nonconst_traitsIS2_EEEC2EPNS_10_List_nodeIS2_EE, .-_ZN4_STL14_List_iteratorIP5SceneNS_16_Nonconst_traitsIS2_EEEC2EPNS_10_List_nodeIS2_EE
	.weak	_ZN4_STL14_List_iteratorIP5SceneNS_16_Nonconst_traitsIS2_EEEC1EPNS_10_List_nodeIS2_EE
	.hidden	_ZN4_STL14_List_iteratorIP5SceneNS_16_Nonconst_traitsIS2_EEEC1EPNS_10_List_nodeIS2_EE
	.set	_ZN4_STL14_List_iteratorIP5SceneNS_16_Nonconst_traitsIS2_EEEC1EPNS_10_List_nodeIS2_EE,_ZN4_STL14_List_iteratorIP5SceneNS_16_Nonconst_traitsIS2_EEEC2EPNS_10_List_nodeIS2_EE
	.section	.text._ZN4_STL4listIP5SceneNS_9allocatorIS2_EEE6insertENS_14_List_iteratorIS2_NS_16_Nonconst_traitsIS2_EEEERKS2_,"axG",%progbits,_ZN4_STL4listIP5SceneNS_9allocatorIS2_EEE6insertENS_14_List_iteratorIS2_NS_16_Nonconst_traitsIS2_EEEERKS2_,comdat
	.align	2
	.weak	_ZN4_STL4listIP5SceneNS_9allocatorIS2_EEE6insertENS_14_List_iteratorIS2_NS_16_Nonconst_traitsIS2_EEEERKS2_
	.hidden	_ZN4_STL4listIP5SceneNS_9allocatorIS2_EEE6insertENS_14_List_iteratorIS2_NS_16_Nonconst_traitsIS2_EEEERKS2_
	.type	_ZN4_STL4listIP5SceneNS_9allocatorIS2_EEE6insertENS_14_List_iteratorIS2_NS_16_Nonconst_traitsIS2_EEEERKS2_, %function
_ZN4_STL4listIP5SceneNS_9allocatorIS2_EEE6insertENS_14_List_iteratorIS2_NS_16_Nonconst_traitsIS2_EEEERKS2_:
.LFB3198:
	.loc 2 298 0
	.cfi_startproc
	@ args = 0, pretend = 0, frame = 32
	@ frame_needed = 0, uses_anonymous_args = 0
	str	lr, [sp, #-4]!
.LCFI98:
	.cfi_def_cfa_offset 4
	.cfi_offset 14, -4
	sub	sp, sp, #36
.LCFI99:
	.cfi_def_cfa_offset 40
	str	r0, [sp, #12]
	str	r1, [sp, #8]
	str	r2, [sp, #4]
	str	r3, [sp]
.LBB36:
	.loc 2 300 0
	ldr	r0, [sp, #8]
	ldr	r1, [sp]
	bl	_ZN4_STL4listIP5SceneNS_9allocatorIS2_EEE14_M_create_nodeERKS2_(PLT)
	str	r0, [sp, #28]
	.loc 2 301 0
	ldr	r3, [sp, #4]
	ldr	r3, [r3]
	str	r3, [sp, #24]
	.loc 2 302 0
	ldr	r3, [sp, #24]
	ldr	r3, [r3, #4]
	str	r3, [sp, #20]
	.loc 2 303 0
	ldr	r3, [sp, #28]
	ldr	r2, [sp, #24]
	str	r2, [r3]
	.loc 2 304 0
	ldr	r3, [sp, #28]
	ldr	r2, [sp, #20]
	str	r2, [r3, #4]
	.loc 2 305 0
	ldr	r3, [sp, #20]
	ldr	r2, [sp, #28]
	str	r2, [r3]
	.loc 2 306 0
	ldr	r3, [sp, #24]
	ldr	r2, [sp, #28]
	str	r2, [r3, #4]
	.loc 2 307 0
	ldr	r0, [sp, #12]
	ldr	r1, [sp, #28]
	bl	_ZN4_STL14_List_iteratorIP5SceneNS_16_Nonconst_traitsIS2_EEEC1EPNS_10_List_nodeIS2_EE(PLT)
.LBE36:
	.loc 2 308 0
	ldr	r0, [sp, #12]
	add	sp, sp, #36
	@ sp needed
	ldr	pc, [sp], #4
	.cfi_endproc
.LFE3198:
	.size	_ZN4_STL4listIP5SceneNS_9allocatorIS2_EEE6insertENS_14_List_iteratorIS2_NS_16_Nonconst_traitsIS2_EEEERKS2_, .-_ZN4_STL4listIP5SceneNS_9allocatorIS2_EEE6insertENS_14_List_iteratorIS2_NS_16_Nonconst_traitsIS2_EEEERKS2_
	.section	.text._ZN4_STL4listIP5SceneNS_9allocatorIS2_EEE5eraseENS_14_List_iteratorIS2_NS_16_Nonconst_traitsIS2_EEEE,"axG",%progbits,_ZN4_STL4listIP5SceneNS_9allocatorIS2_EEE5eraseENS_14_List_iteratorIS2_NS_16_Nonconst_traitsIS2_EEEE,comdat
	.align	2
	.weak	_ZN4_STL4listIP5SceneNS_9allocatorIS2_EEE5eraseENS_14_List_iteratorIS2_NS_16_Nonconst_traitsIS2_EEEE
	.hidden	_ZN4_STL4listIP5SceneNS_9allocatorIS2_EEE5eraseENS_14_List_iteratorIS2_NS_16_Nonconst_traitsIS2_EEEE
	.type	_ZN4_STL4listIP5SceneNS_9allocatorIS2_EEE5eraseENS_14_List_iteratorIS2_NS_16_Nonconst_traitsIS2_EEEE, %function
_ZN4_STL4listIP5SceneNS_9allocatorIS2_EEE5eraseENS_14_List_iteratorIS2_NS_16_Nonconst_traitsIS2_EEEE:
.LFB3199:
	.loc 2 353 0
	.cfi_startproc
	@ args = 0, pretend = 0, frame = 32
	@ frame_needed = 0, uses_anonymous_args = 0
	str	lr, [sp, #-4]!
.LCFI100:
	.cfi_def_cfa_offset 4
	.cfi_offset 14, -4
	sub	sp, sp, #36
.LCFI101:
	.cfi_def_cfa_offset 40
	str	r0, [sp, #12]
	str	r1, [sp, #8]
	str	r2, [sp, #4]
.LBB37:
	.loc 2 354 0
	ldr	r3, [sp, #4]
	ldr	r3, [r3]
	ldr	r3, [r3]
	str	r3, [sp, #28]
	.loc 2 355 0
	ldr	r3, [sp, #4]
	ldr	r3, [r3]
	ldr	r3, [r3, #4]
	str	r3, [sp, #24]
	.loc 2 356 0
	ldr	r3, [sp, #4]
	ldr	r3, [r3]
	str	r3, [sp, #20]
	.loc 2 357 0
	ldr	r3, [sp, #24]
	ldr	r2, [sp, #28]
	str	r2, [r3]
	.loc 2 358 0
	ldr	r3, [sp, #28]
	ldr	r2, [sp, #24]
	str	r2, [r3, #4]
	.loc 2 359 0
	ldr	r3, [sp, #20]
	add	r3, r3, #8
	mov	r0, r3
	bl	_ZN4_STL8_DestroyIP5SceneEEvPT_(PLT)
	.loc 2 360 0
	ldr	r3, [sp, #8]
	mov	r0, r3
	ldr	r1, [sp, #20]
	mov	r2, #1
	bl	_ZN4_STL9allocatorINS_10_List_nodeIP5SceneEEE10deallocateEPS4_j(PLT)
	.loc 2 361 0
	ldr	r0, [sp, #12]
	ldr	r1, [sp, #28]
	bl	_ZN4_STL14_List_iteratorIP5SceneNS_16_Nonconst_traitsIS2_EEEC1EPNS_10_List_nodeIS2_EE(PLT)
.LBE37:
	.loc 2 362 0
	ldr	r0, [sp, #12]
	add	sp, sp, #36
	@ sp needed
	ldr	pc, [sp], #4
	.cfi_endproc
.LFE3199:
	.size	_ZN4_STL4listIP5SceneNS_9allocatorIS2_EEE5eraseENS_14_List_iteratorIS2_NS_16_Nonconst_traitsIS2_EEEE, .-_ZN4_STL4listIP5SceneNS_9allocatorIS2_EEE5eraseENS_14_List_iteratorIS2_NS_16_Nonconst_traitsIS2_EEEE
	.section	.text._ZN4_STL9allocatorIN7IwTween6CTween9ValueTypeEE10deallocateEPS3_j,"axG",%progbits,_ZN4_STL9allocatorIN7IwTween6CTween9ValueTypeEE10deallocateEPS3_j,comdat
	.align	2
	.weak	_ZN4_STL9allocatorIN7IwTween6CTween9ValueTypeEE10deallocateEPS3_j
	.hidden	_ZN4_STL9allocatorIN7IwTween6CTween9ValueTypeEE10deallocateEPS3_j
	.type	_ZN4_STL9allocatorIN7IwTween6CTween9ValueTypeEE10deallocateEPS3_j, %function
_ZN4_STL9allocatorIN7IwTween6CTween9ValueTypeEE10deallocateEPS3_j:
.LFB3222:
	.loc 8 358 0
	.cfi_startproc
	@ args = 0, pretend = 0, frame = 16
	@ frame_needed = 0, uses_anonymous_args = 0
	str	lr, [sp, #-4]!
.LCFI102:
	.cfi_def_cfa_offset 4
	.cfi_offset 14, -4
	sub	sp, sp, #20
.LCFI103:
	.cfi_def_cfa_offset 24
	str	r0, [sp, #12]
	str	r1, [sp, #8]
	str	r2, [sp, #4]
	.loc 8 360 0
	ldr	r3, [sp, #8]
	cmp	r3, #0
	beq	.L161
	.loc 8 360 0 is_stmt 0 discriminator 1
	ldr	r3, [sp, #4]
	mov	r3, r3, asl #4
	ldr	r0, [sp, #8]
	mov	r1, r3
	bl	_ZN4_STL14__malloc_allocILi0EE10deallocateEPvj(PLT)
.L161:
	.loc 8 361 0 is_stmt 1
	add	sp, sp, #20
	@ sp needed
	ldr	pc, [sp], #4
	.cfi_endproc
.LFE3222:
	.size	_ZN4_STL9allocatorIN7IwTween6CTween9ValueTypeEE10deallocateEPS3_j, .-_ZN4_STL9allocatorIN7IwTween6CTween9ValueTypeEE10deallocateEPS3_j
	.section	.text._ZN4_STL9__destroyIPN7IwTween6CTween9ValueTypeES3_EEvT_S5_PT0_,"axG",%progbits,_ZN4_STL9__destroyIPN7IwTween6CTween9ValueTypeES3_EEvT_S5_PT0_,comdat
	.align	2
	.weak	_ZN4_STL9__destroyIPN7IwTween6CTween9ValueTypeES3_EEvT_S5_PT0_
	.hidden	_ZN4_STL9__destroyIPN7IwTween6CTween9ValueTypeES3_EEvT_S5_PT0_
	.type	_ZN4_STL9__destroyIPN7IwTween6CTween9ValueTypeES3_EEvT_S5_PT0_, %function
_ZN4_STL9__destroyIPN7IwTween6CTween9ValueTypeES3_EEvT_S5_PT0_:
.LFB3223:
	.loc 10 132 0
	.cfi_startproc
	@ args = 0, pretend = 0, frame = 24
	@ frame_needed = 0, uses_anonymous_args = 0
	str	lr, [sp, #-4]!
.LCFI104:
	.cfi_def_cfa_offset 4
	.cfi_offset 14, -4
	sub	sp, sp, #28
.LCFI105:
	.cfi_def_cfa_offset 32
	str	r0, [sp, #12]
	str	r1, [sp, #8]
	str	r2, [sp, #4]
.LBB38:
	.loc 10 134 0
	add	r3, sp, #20
	ldr	r0, [sp, #12]
	ldr	r1, [sp, #8]
	mov	r2, r3
	bl	_ZN4_STL13__destroy_auxIPN7IwTween6CTween9ValueTypeEEEvT_S5_RKNS_12__false_typeE(PLT)
.LBE38:
	.loc 10 135 0
	add	sp, sp, #28
	@ sp needed
	ldr	pc, [sp], #4
	.cfi_endproc
.LFE3223:
	.size	_ZN4_STL9__destroyIPN7IwTween6CTween9ValueTypeES3_EEvT_S5_PT0_, .-_ZN4_STL9__destroyIPN7IwTween6CTween9ValueTypeES3_EEvT_S5_PT0_
	.section	.text._ZN4_STL17_STLP_alloc_proxyIPN7IwTween6CTweenES2_NS_9allocatorIS2_EEEC2ERKS5_S3_,"axG",%progbits,_ZN4_STL17_STLP_alloc_proxyIPN7IwTween6CTweenES2_NS_9allocatorIS2_EEEC5ERKS5_S3_,comdat
	.align	2
	.weak	_ZN4_STL17_STLP_alloc_proxyIPN7IwTween6CTweenES2_NS_9allocatorIS2_EEEC2ERKS5_S3_
	.hidden	_ZN4_STL17_STLP_alloc_proxyIPN7IwTween6CTweenES2_NS_9allocatorIS2_EEEC2ERKS5_S3_
	.type	_ZN4_STL17_STLP_alloc_proxyIPN7IwTween6CTweenES2_NS_9allocatorIS2_EEEC2ERKS5_S3_, %function
_ZN4_STL17_STLP_alloc_proxyIPN7IwTween6CTweenES2_NS_9allocatorIS2_EEEC2ERKS5_S3_:
.LFB3225:
	.loc 8 487 0
	.cfi_startproc
	@ args = 0, pretend = 0, frame = 16
	@ frame_needed = 0, uses_anonymous_args = 0
	str	lr, [sp, #-4]!
.LCFI106:
	.cfi_def_cfa_offset 4
	.cfi_offset 14, -4
	sub	sp, sp, #20
.LCFI107:
	.cfi_def_cfa_offset 24
	str	r0, [sp, #12]
	str	r1, [sp, #8]
	str	r2, [sp, #4]
.LBB39:
	.loc 8 487 0
	ldr	r0, [sp, #12]
	ldr	r1, [sp, #8]
	bl	_ZN4_STL9allocatorIN7IwTween6CTweenEEC2ERKS3_(PLT)
	ldr	r3, [sp, #12]
	ldr	r2, [sp, #4]
	str	r2, [r3]
.LBE39:
	ldr	r3, [sp, #12]
	mov	r0, r3
	add	sp, sp, #20
	@ sp needed
	ldr	pc, [sp], #4
	.cfi_endproc
.LFE3225:
	.size	_ZN4_STL17_STLP_alloc_proxyIPN7IwTween6CTweenES2_NS_9allocatorIS2_EEEC2ERKS5_S3_, .-_ZN4_STL17_STLP_alloc_proxyIPN7IwTween6CTweenES2_NS_9allocatorIS2_EEEC2ERKS5_S3_
	.weak	_ZN4_STL17_STLP_alloc_proxyIPN7IwTween6CTweenES2_NS_9allocatorIS2_EEEC1ERKS5_S3_
	.hidden	_ZN4_STL17_STLP_alloc_proxyIPN7IwTween6CTweenES2_NS_9allocatorIS2_EEEC1ERKS5_S3_
	.set	_ZN4_STL17_STLP_alloc_proxyIPN7IwTween6CTweenES2_NS_9allocatorIS2_EEEC1ERKS5_S3_,_ZN4_STL17_STLP_alloc_proxyIPN7IwTween6CTweenES2_NS_9allocatorIS2_EEEC2ERKS5_S3_
	.section	.text._ZN4_STL9allocatorIN7IwTween6CTweenEE10deallocateEPS2_j,"axG",%progbits,_ZN4_STL9allocatorIN7IwTween6CTweenEE10deallocateEPS2_j,comdat
	.align	2
	.weak	_ZN4_STL9allocatorIN7IwTween6CTweenEE10deallocateEPS2_j
	.hidden	_ZN4_STL9allocatorIN7IwTween6CTweenEE10deallocateEPS2_j
	.type	_ZN4_STL9allocatorIN7IwTween6CTweenEE10deallocateEPS2_j, %function
_ZN4_STL9allocatorIN7IwTween6CTweenEE10deallocateEPS2_j:
.LFB3227:
	.loc 8 358 0
	.cfi_startproc
	@ args = 0, pretend = 0, frame = 16
	@ frame_needed = 0, uses_anonymous_args = 0
	str	lr, [sp, #-4]!
.LCFI108:
	.cfi_def_cfa_offset 4
	.cfi_offset 14, -4
	sub	sp, sp, #20
.LCFI109:
	.cfi_def_cfa_offset 24
	str	r0, [sp, #12]
	str	r1, [sp, #8]
	str	r2, [sp, #4]
	.loc 8 360 0
	ldr	r3, [sp, #8]
	cmp	r3, #0
	beq	.L167
	.loc 8 360 0 is_stmt 0 discriminator 1
	ldr	r2, [sp, #4]
	mov	r3, r2
	mov	r3, r3, asl #4
	rsb	r3, r2, r3
	mov	r3, r3, asl #2
	ldr	r0, [sp, #8]
	mov	r1, r3
	bl	_ZN4_STL14__malloc_allocILi0EE10deallocateEPvj(PLT)
.L167:
	.loc 8 361 0 is_stmt 1
	add	sp, sp, #20
	@ sp needed
	ldr	pc, [sp], #4
	.cfi_endproc
.LFE3227:
	.size	_ZN4_STL9allocatorIN7IwTween6CTweenEE10deallocateEPS2_j, .-_ZN4_STL9allocatorIN7IwTween6CTweenEE10deallocateEPS2_j
	.section	.text._ZN4_STL9__destroyIPN7IwTween6CTweenES2_EEvT_S4_PT0_,"axG",%progbits,_ZN4_STL9__destroyIPN7IwTween6CTweenES2_EEvT_S4_PT0_,comdat
	.align	2
	.weak	_ZN4_STL9__destroyIPN7IwTween6CTweenES2_EEvT_S4_PT0_
	.hidden	_ZN4_STL9__destroyIPN7IwTween6CTweenES2_EEvT_S4_PT0_
	.type	_ZN4_STL9__destroyIPN7IwTween6CTweenES2_EEvT_S4_PT0_, %function
_ZN4_STL9__destroyIPN7IwTween6CTweenES2_EEvT_S4_PT0_:
.LFB3228:
	.loc 10 132 0
	.cfi_startproc
	@ args = 0, pretend = 0, frame = 24
	@ frame_needed = 0, uses_anonymous_args = 0
	str	lr, [sp, #-4]!
.LCFI110:
	.cfi_def_cfa_offset 4
	.cfi_offset 14, -4
	sub	sp, sp, #28
.LCFI111:
	.cfi_def_cfa_offset 32
	str	r0, [sp, #12]
	str	r1, [sp, #8]
	str	r2, [sp, #4]
.LBB40:
	.loc 10 134 0
	add	r3, sp, #20
	ldr	r0, [sp, #12]
	ldr	r1, [sp, #8]
	mov	r2, r3
	bl	_ZN4_STL13__destroy_auxIPN7IwTween6CTweenEEEvT_S4_RKNS_12__false_typeE(PLT)
.LBE40:
	.loc 10 135 0
	add	sp, sp, #28
	@ sp needed
	ldr	pc, [sp], #4
	.cfi_endproc
.LFE3228:
	.size	_ZN4_STL9__destroyIPN7IwTween6CTweenES2_EEvT_S4_PT0_, .-_ZN4_STL9__destroyIPN7IwTween6CTweenES2_EEvT_S4_PT0_
	.section	.text._ZN4_STL9allocatorINS_10_List_nodeIP5SceneEEEC2IS3_EERKNS0_IT_EE,"axG",%progbits,_ZN4_STL9allocatorINS_10_List_nodeIP5SceneEEEC5IS3_EERKNS0_IT_EE,comdat
	.align	2
	.weak	_ZN4_STL9allocatorINS_10_List_nodeIP5SceneEEEC2IS3_EERKNS0_IT_EE
	.hidden	_ZN4_STL9allocatorINS_10_List_nodeIP5SceneEEEC2IS3_EERKNS0_IT_EE
	.type	_ZN4_STL9allocatorINS_10_List_nodeIP5SceneEEEC2IS3_EERKNS0_IT_EE, %function
_ZN4_STL9allocatorINS_10_List_nodeIP5SceneEEEC2IS3_EERKNS0_IT_EE:
.LFB3237:
	.loc 8 347 0
	.cfi_startproc
	@ args = 0, pretend = 0, frame = 8
	@ frame_needed = 0, uses_anonymous_args = 0
	@ link register save eliminated.
	sub	sp, sp, #8
.LCFI112:
	.cfi_def_cfa_offset 8
	str	r0, [sp, #4]
	str	r1, [sp]
	.loc 8 347 0
	ldr	r3, [sp, #4]
	mov	r0, r3
	add	sp, sp, #8
	@ sp needed
	bx	lr
	.cfi_endproc
.LFE3237:
	.size	_ZN4_STL9allocatorINS_10_List_nodeIP5SceneEEEC2IS3_EERKNS0_IT_EE, .-_ZN4_STL9allocatorINS_10_List_nodeIP5SceneEEEC2IS3_EERKNS0_IT_EE
	.weak	_ZN4_STL9allocatorINS_10_List_nodeIP5SceneEEEC1IS3_EERKNS0_IT_EE
	.hidden	_ZN4_STL9allocatorINS_10_List_nodeIP5SceneEEEC1IS3_EERKNS0_IT_EE
	.set	_ZN4_STL9allocatorINS_10_List_nodeIP5SceneEEEC1IS3_EERKNS0_IT_EE,_ZN4_STL9allocatorINS_10_List_nodeIP5SceneEEEC2IS3_EERKNS0_IT_EE
	.section	.text._ZN4_STL9allocatorINS_10_List_nodeIP5SceneEEED2Ev,"axG",%progbits,_ZN4_STL9allocatorINS_10_List_nodeIP5SceneEEED5Ev,comdat
	.align	2
	.weak	_ZN4_STL9allocatorINS_10_List_nodeIP5SceneEEED2Ev
	.hidden	_ZN4_STL9allocatorINS_10_List_nodeIP5SceneEEED2Ev
	.type	_ZN4_STL9allocatorINS_10_List_nodeIP5SceneEEED2Ev, %function
_ZN4_STL9allocatorINS_10_List_nodeIP5SceneEEED2Ev:
.LFB3240:
	.loc 8 350 0
	.cfi_startproc
	@ args = 0, pretend = 0, frame = 8
	@ frame_needed = 0, uses_anonymous_args = 0
	@ link register save eliminated.
	sub	sp, sp, #8
.LCFI113:
	.cfi_def_cfa_offset 8
	str	r0, [sp, #4]
	.loc 8 350 0
	ldr	r3, [sp, #4]
	mov	r0, r3
	add	sp, sp, #8
	@ sp needed
	bx	lr
	.cfi_endproc
.LFE3240:
	.size	_ZN4_STL9allocatorINS_10_List_nodeIP5SceneEEED2Ev, .-_ZN4_STL9allocatorINS_10_List_nodeIP5SceneEEED2Ev
	.weak	_ZN4_STL9allocatorINS_10_List_nodeIP5SceneEEED1Ev
	.hidden	_ZN4_STL9allocatorINS_10_List_nodeIP5SceneEEED1Ev
	.set	_ZN4_STL9allocatorINS_10_List_nodeIP5SceneEEED1Ev,_ZN4_STL9allocatorINS_10_List_nodeIP5SceneEEED2Ev
	.section	.text._ZN4_STL17_STLP_alloc_proxyIPNS_10_List_nodeIP5SceneEES4_NS_9allocatorIS4_EEEC2ERKS7_S5_,"axG",%progbits,_ZN4_STL17_STLP_alloc_proxyIPNS_10_List_nodeIP5SceneEES4_NS_9allocatorIS4_EEEC5ERKS7_S5_,comdat
	.align	2
	.weak	_ZN4_STL17_STLP_alloc_proxyIPNS_10_List_nodeIP5SceneEES4_NS_9allocatorIS4_EEEC2ERKS7_S5_
	.hidden	_ZN4_STL17_STLP_alloc_proxyIPNS_10_List_nodeIP5SceneEES4_NS_9allocatorIS4_EEEC2ERKS7_S5_
	.type	_ZN4_STL17_STLP_alloc_proxyIPNS_10_List_nodeIP5SceneEES4_NS_9allocatorIS4_EEEC2ERKS7_S5_, %function
_ZN4_STL17_STLP_alloc_proxyIPNS_10_List_nodeIP5SceneEES4_NS_9allocatorIS4_EEEC2ERKS7_S5_:
.LFB3243:
	.loc 8 487 0
	.cfi_startproc
	@ args = 0, pretend = 0, frame = 16
	@ frame_needed = 0, uses_anonymous_args = 0
	str	lr, [sp, #-4]!
.LCFI114:
	.cfi_def_cfa_offset 4
	.cfi_offset 14, -4
	sub	sp, sp, #20
.LCFI115:
	.cfi_def_cfa_offset 24
	str	r0, [sp, #12]
	str	r1, [sp, #8]
	str	r2, [sp, #4]
.LBB41:
	.loc 8 487 0
	ldr	r0, [sp, #12]
	ldr	r1, [sp, #8]
	bl	_ZN4_STL9allocatorINS_10_List_nodeIP5SceneEEEC2ERKS5_(PLT)
	ldr	r3, [sp, #12]
	ldr	r2, [sp, #4]
	str	r2, [r3]
.LBE41:
	ldr	r3, [sp, #12]
	mov	r0, r3
	add	sp, sp, #20
	@ sp needed
	ldr	pc, [sp], #4
	.cfi_endproc
.LFE3243:
	.size	_ZN4_STL17_STLP_alloc_proxyIPNS_10_List_nodeIP5SceneEES4_NS_9allocatorIS4_EEEC2ERKS7_S5_, .-_ZN4_STL17_STLP_alloc_proxyIPNS_10_List_nodeIP5SceneEES4_NS_9allocatorIS4_EEEC2ERKS7_S5_
	.weak	_ZN4_STL17_STLP_alloc_proxyIPNS_10_List_nodeIP5SceneEES4_NS_9allocatorIS4_EEEC1ERKS7_S5_
	.hidden	_ZN4_STL17_STLP_alloc_proxyIPNS_10_List_nodeIP5SceneEES4_NS_9allocatorIS4_EEEC1ERKS7_S5_
	.set	_ZN4_STL17_STLP_alloc_proxyIPNS_10_List_nodeIP5SceneEES4_NS_9allocatorIS4_EEEC1ERKS7_S5_,_ZN4_STL17_STLP_alloc_proxyIPNS_10_List_nodeIP5SceneEES4_NS_9allocatorIS4_EEEC2ERKS7_S5_
	.section	.text._ZN4_STL9allocatorINS_10_List_nodeIP5SceneEEE8allocateEjPKv,"axG",%progbits,_ZN4_STL9allocatorINS_10_List_nodeIP5SceneEEE8allocateEjPKv,comdat
	.align	2
	.weak	_ZN4_STL9allocatorINS_10_List_nodeIP5SceneEEE8allocateEjPKv
	.hidden	_ZN4_STL9allocatorINS_10_List_nodeIP5SceneEEE8allocateEjPKv
	.type	_ZN4_STL9allocatorINS_10_List_nodeIP5SceneEEE8allocateEjPKv, %function
_ZN4_STL9allocatorINS_10_List_nodeIP5SceneEEE8allocateEjPKv:
.LFB3245:
	.loc 8 354 0
	.cfi_startproc
	@ args = 0, pretend = 0, frame = 16
	@ frame_needed = 0, uses_anonymous_args = 0
	str	lr, [sp, #-4]!
.LCFI116:
	.cfi_def_cfa_offset 4
	.cfi_offset 14, -4
	sub	sp, sp, #20
.LCFI117:
	.cfi_def_cfa_offset 24
	str	r0, [sp, #12]
	str	r1, [sp, #8]
	str	r2, [sp, #4]
	.loc 8 355 0
	ldr	r3, [sp, #8]
	cmp	r3, #0
	beq	.L180
	.loc 8 355 0 is_stmt 0 discriminator 1
	ldr	r2, [sp, #8]
	mov	r3, r2
	mov	r3, r3, asl #1
	add	r3, r3, r2
	mov	r3, r3, asl #2
	mov	r0, r3
	bl	_ZN4_STL14__malloc_allocILi0EE8allocateEj(PLT)
	mov	r3, r0
	b	.L181
.L180:
	.loc 8 355 0 discriminator 2
	mov	r3, #0
.L181:
	.loc 8 356 0 is_stmt 1 discriminator 3
	mov	r0, r3
	add	sp, sp, #20
	@ sp needed
	ldr	pc, [sp], #4
	.cfi_endproc
.LFE3245:
	.size	_ZN4_STL9allocatorINS_10_List_nodeIP5SceneEEE8allocateEjPKv, .-_ZN4_STL9allocatorINS_10_List_nodeIP5SceneEEE8allocateEjPKv
	.section	.text._ZN4_STL10_List_baseIP5SceneNS_9allocatorIS2_EEE5clearEv,"axG",%progbits,_ZN4_STL10_List_baseIP5SceneNS_9allocatorIS2_EEE5clearEv,comdat
	.align	2
	.weak	_ZN4_STL10_List_baseIP5SceneNS_9allocatorIS2_EEE5clearEv
	.hidden	_ZN4_STL10_List_baseIP5SceneNS_9allocatorIS2_EEE5clearEv
	.type	_ZN4_STL10_List_baseIP5SceneNS_9allocatorIS2_EEE5clearEv, %function
_ZN4_STL10_List_baseIP5SceneNS_9allocatorIS2_EEE5clearEv:
.LFB3246:
	.file 11 "c:/marmalade/7.5/s3e/h/std/c++/stl/_list.c"
	.loc 11 67 0
	.cfi_startproc
	@ args = 0, pretend = 0, frame = 16
	@ frame_needed = 0, uses_anonymous_args = 0
	str	lr, [sp, #-4]!
.LCFI118:
	.cfi_def_cfa_offset 4
	.cfi_offset 14, -4
	sub	sp, sp, #20
.LCFI119:
	.cfi_def_cfa_offset 24
	str	r0, [sp, #4]
.LBB42:
	.loc 11 69 0
	ldr	r3, [sp, #4]
	ldr	r3, [r3]
	ldr	r3, [r3]
	str	r3, [sp, #12]
	.loc 11 70 0
	b	.L184
.L185:
.LBB43:
	.loc 11 71 0
	ldr	r3, [sp, #12]
	str	r3, [sp, #8]
	.loc 11 72 0
	ldr	r3, [sp, #12]
	ldr	r3, [r3]
	str	r3, [sp, #12]
	.loc 11 73 0
	ldr	r3, [sp, #8]
	add	r3, r3, #8
	mov	r0, r3
	bl	_ZN4_STL8_DestroyIP5SceneEEvPT_(PLT)
	.loc 11 74 0
	ldr	r3, [sp, #4]
	mov	r0, r3
	ldr	r1, [sp, #8]
	mov	r2, #1
	bl	_ZN4_STL9allocatorINS_10_List_nodeIP5SceneEEE10deallocateEPS4_j(PLT)
.L184:
.LBE43:
	.loc 11 70 0 discriminator 1
	ldr	r3, [sp, #4]
	ldr	r2, [r3]
	ldr	r3, [sp, #12]
	cmp	r2, r3
	bne	.L185
	.loc 11 76 0
	ldr	r3, [sp, #4]
	ldr	r3, [r3]
	ldr	r2, [sp, #4]
	ldr	r2, [r2]
	str	r2, [r3]
	.loc 11 77 0
	ldr	r3, [sp, #4]
	ldr	r3, [r3]
	ldr	r2, [sp, #4]
	ldr	r2, [r2]
	str	r2, [r3, #4]
.LBE42:
	.loc 11 78 0
	add	sp, sp, #20
	@ sp needed
	ldr	pc, [sp], #4
	.cfi_endproc
.LFE3246:
	.size	_ZN4_STL10_List_baseIP5SceneNS_9allocatorIS2_EEE5clearEv, .-_ZN4_STL10_List_baseIP5SceneNS_9allocatorIS2_EEE5clearEv
	.section	.text._ZN4_STL9allocatorINS_10_List_nodeIP5SceneEEE10deallocateEPS4_j,"axG",%progbits,_ZN4_STL9allocatorINS_10_List_nodeIP5SceneEEE10deallocateEPS4_j,comdat
	.align	2
	.weak	_ZN4_STL9allocatorINS_10_List_nodeIP5SceneEEE10deallocateEPS4_j
	.hidden	_ZN4_STL9allocatorINS_10_List_nodeIP5SceneEEE10deallocateEPS4_j
	.type	_ZN4_STL9allocatorINS_10_List_nodeIP5SceneEEE10deallocateEPS4_j, %function
_ZN4_STL9allocatorINS_10_List_nodeIP5SceneEEE10deallocateEPS4_j:
.LFB3247:
	.loc 8 358 0
	.cfi_startproc
	@ args = 0, pretend = 0, frame = 16
	@ frame_needed = 0, uses_anonymous_args = 0
	str	lr, [sp, #-4]!
.LCFI120:
	.cfi_def_cfa_offset 4
	.cfi_offset 14, -4
	sub	sp, sp, #20
.LCFI121:
	.cfi_def_cfa_offset 24
	str	r0, [sp, #12]
	str	r1, [sp, #8]
	str	r2, [sp, #4]
	.loc 8 360 0
	ldr	r3, [sp, #8]
	cmp	r3, #0
	beq	.L186
	.loc 8 360 0 is_stmt 0 discriminator 1
	ldr	r2, [sp, #4]
	mov	r3, r2
	mov	r3, r3, asl #1
	add	r3, r3, r2
	mov	r3, r3, asl #2
	ldr	r0, [sp, #8]
	mov	r1, r3
	bl	_ZN4_STL14__malloc_allocILi0EE10deallocateEPvj(PLT)
.L186:
	.loc 8 361 0 is_stmt 1
	add	sp, sp, #20
	@ sp needed
	ldr	pc, [sp], #4
	.cfi_endproc
.LFE3247:
	.size	_ZN4_STL9allocatorINS_10_List_nodeIP5SceneEEE10deallocateEPS4_j, .-_ZN4_STL9allocatorINS_10_List_nodeIP5SceneEEE10deallocateEPS4_j
	.section	.text._ZN4_STL4listIP5SceneNS_9allocatorIS2_EEE14_M_create_nodeERKS2_,"axG",%progbits,_ZN4_STL4listIP5SceneNS_9allocatorIS2_EEE14_M_create_nodeERKS2_,comdat
	.align	2
	.weak	_ZN4_STL4listIP5SceneNS_9allocatorIS2_EEE14_M_create_nodeERKS2_
	.hidden	_ZN4_STL4listIP5SceneNS_9allocatorIS2_EEE14_M_create_nodeERKS2_
	.type	_ZN4_STL4listIP5SceneNS_9allocatorIS2_EEE14_M_create_nodeERKS2_, %function
_ZN4_STL4listIP5SceneNS_9allocatorIS2_EEE14_M_create_nodeERKS2_:
.LFB3248:
	.loc 2 239 0
	.cfi_startproc
	@ args = 0, pretend = 0, frame = 16
	@ frame_needed = 0, uses_anonymous_args = 0
	str	lr, [sp, #-4]!
.LCFI122:
	.cfi_def_cfa_offset 4
	.cfi_offset 14, -4
	sub	sp, sp, #20
.LCFI123:
	.cfi_def_cfa_offset 24
	str	r0, [sp, #4]
	str	r1, [sp]
.LBB44:
	.loc 2 241 0
	ldr	r3, [sp, #4]
	mov	r0, r3
	mov	r1, #1
	mov	r2, #0
	bl	_ZN4_STL9allocatorINS_10_List_nodeIP5SceneEEE8allocateEjPKv(PLT)
	str	r0, [sp, #12]
	.loc 2 243 0
	ldr	r3, [sp, #12]
	add	r3, r3, #8
	mov	r0, r3
	ldr	r1, [sp]
	bl	_ZN4_STL10_ConstructIP5SceneS2_EEvPT_RKT0_(PLT)
	.loc 2 246 0
	ldr	r3, [sp, #12]
.LBE44:
	.loc 2 247 0
	mov	r0, r3
	add	sp, sp, #20
	@ sp needed
	ldr	pc, [sp], #4
	.cfi_endproc
.LFE3248:
	.size	_ZN4_STL4listIP5SceneNS_9allocatorIS2_EEE14_M_create_nodeERKS2_, .-_ZN4_STL4listIP5SceneNS_9allocatorIS2_EEE14_M_create_nodeERKS2_
	.section	.text._ZN4_STL8_DestroyIP5SceneEEvPT_,"axG",%progbits,_ZN4_STL8_DestroyIP5SceneEEvPT_,comdat
	.align	2
	.weak	_ZN4_STL8_DestroyIP5SceneEEvPT_
	.hidden	_ZN4_STL8_DestroyIP5SceneEEvPT_
	.type	_ZN4_STL8_DestroyIP5SceneEEvPT_, %function
_ZN4_STL8_DestroyIP5SceneEEvPT_:
.LFB3249:
	.loc 10 56 0
	.cfi_startproc
	@ args = 0, pretend = 0, frame = 8
	@ frame_needed = 0, uses_anonymous_args = 0
	@ link register save eliminated.
	sub	sp, sp, #8
.LCFI124:
	.cfi_def_cfa_offset 8
	str	r0, [sp, #4]
	.loc 10 73 0
	add	sp, sp, #8
	@ sp needed
	bx	lr
	.cfi_endproc
.LFE3249:
	.size	_ZN4_STL8_DestroyIP5SceneEEvPT_, .-_ZN4_STL8_DestroyIP5SceneEEvPT_
	.section	.text._ZN4_STL14__malloc_allocILi0EE10deallocateEPvj,"axG",%progbits,_ZN4_STL14__malloc_allocILi0EE10deallocateEPvj,comdat
	.align	2
	.weak	_ZN4_STL14__malloc_allocILi0EE10deallocateEPvj
	.hidden	_ZN4_STL14__malloc_allocILi0EE10deallocateEPvj
	.type	_ZN4_STL14__malloc_allocILi0EE10deallocateEPvj, %function
_ZN4_STL14__malloc_allocILi0EE10deallocateEPvj:
.LFB3261:
	.loc 8 114 0
	.cfi_startproc
	@ args = 0, pretend = 0, frame = 8
	@ frame_needed = 0, uses_anonymous_args = 0
	str	lr, [sp, #-4]!
.LCFI125:
	.cfi_def_cfa_offset 4
	.cfi_offset 14, -4
	sub	sp, sp, #12
.LCFI126:
	.cfi_def_cfa_offset 16
	str	r0, [sp, #4]
	str	r1, [sp]
	.loc 8 114 0
	ldr	r0, [sp, #4]
	bl	free(PLT)
	add	sp, sp, #12
	@ sp needed
	ldr	pc, [sp], #4
	.cfi_endproc
.LFE3261:
	.size	_ZN4_STL14__malloc_allocILi0EE10deallocateEPvj, .-_ZN4_STL14__malloc_allocILi0EE10deallocateEPvj
	.section	.text._ZN4_STL13__destroy_auxIPN7IwTween6CTween9ValueTypeEEEvT_S5_RKNS_12__false_typeE,"axG",%progbits,_ZN4_STL13__destroy_auxIPN7IwTween6CTween9ValueTypeEEEvT_S5_RKNS_12__false_typeE,comdat
	.align	2
	.weak	_ZN4_STL13__destroy_auxIPN7IwTween6CTween9ValueTypeEEEvT_S5_RKNS_12__false_typeE
	.hidden	_ZN4_STL13__destroy_auxIPN7IwTween6CTween9ValueTypeEEEvT_S5_RKNS_12__false_typeE
	.type	_ZN4_STL13__destroy_auxIPN7IwTween6CTween9ValueTypeEEEvT_S5_RKNS_12__false_typeE, %function
_ZN4_STL13__destroy_auxIPN7IwTween6CTween9ValueTypeEEEvT_S5_RKNS_12__false_typeE:
.LFB3262:
	.loc 10 122 0
	.cfi_startproc
	@ args = 0, pretend = 0, frame = 16
	@ frame_needed = 0, uses_anonymous_args = 0
	str	lr, [sp, #-4]!
.LCFI127:
	.cfi_def_cfa_offset 4
	.cfi_offset 14, -4
	sub	sp, sp, #20
.LCFI128:
	.cfi_def_cfa_offset 24
	str	r0, [sp, #12]
	str	r1, [sp, #8]
	str	r2, [sp, #4]
	.loc 10 123 0
	b	.L193
.L194:
	.loc 10 124 0 discriminator 2
	ldr	r0, [sp, #12]
	bl	_ZN4_STL8_DestroyIN7IwTween6CTween9ValueTypeEEEvPT_(PLT)
	.loc 10 123 0 discriminator 2
	ldr	r3, [sp, #12]
	add	r3, r3, #16
	str	r3, [sp, #12]
.L193:
	.loc 10 123 0 is_stmt 0 discriminator 1
	ldr	r2, [sp, #12]
	ldr	r3, [sp, #8]
	cmp	r2, r3
	bne	.L194
	.loc 10 125 0 is_stmt 1
	add	sp, sp, #20
	@ sp needed
	ldr	pc, [sp], #4
	.cfi_endproc
.LFE3262:
	.size	_ZN4_STL13__destroy_auxIPN7IwTween6CTween9ValueTypeEEEvT_S5_RKNS_12__false_typeE, .-_ZN4_STL13__destroy_auxIPN7IwTween6CTween9ValueTypeEEEvT_S5_RKNS_12__false_typeE
	.section	.text._ZN4_STL9allocatorIN7IwTween6CTweenEEC2ERKS3_,"axG",%progbits,_ZN4_STL9allocatorIN7IwTween6CTweenEEC5ERKS3_,comdat
	.align	2
	.weak	_ZN4_STL9allocatorIN7IwTween6CTweenEEC2ERKS3_
	.hidden	_ZN4_STL9allocatorIN7IwTween6CTweenEEC2ERKS3_
	.type	_ZN4_STL9allocatorIN7IwTween6CTweenEEC2ERKS3_, %function
_ZN4_STL9allocatorIN7IwTween6CTweenEEC2ERKS3_:
.LFB3264:
	.loc 8 349 0
	.cfi_startproc
	@ args = 0, pretend = 0, frame = 8
	@ frame_needed = 0, uses_anonymous_args = 0
	@ link register save eliminated.
	sub	sp, sp, #8
.LCFI129:
	.cfi_def_cfa_offset 8
	str	r0, [sp, #4]
	str	r1, [sp]
	.loc 8 349 0
	ldr	r3, [sp, #4]
	mov	r0, r3
	add	sp, sp, #8
	@ sp needed
	bx	lr
	.cfi_endproc
.LFE3264:
	.size	_ZN4_STL9allocatorIN7IwTween6CTweenEEC2ERKS3_, .-_ZN4_STL9allocatorIN7IwTween6CTweenEEC2ERKS3_
	.weak	_ZN4_STL9allocatorIN7IwTween6CTweenEEC1ERKS3_
	.hidden	_ZN4_STL9allocatorIN7IwTween6CTweenEEC1ERKS3_
	.set	_ZN4_STL9allocatorIN7IwTween6CTweenEEC1ERKS3_,_ZN4_STL9allocatorIN7IwTween6CTweenEEC2ERKS3_
	.section	.text._ZN4_STL13__destroy_auxIPN7IwTween6CTweenEEEvT_S4_RKNS_12__false_typeE,"axG",%progbits,_ZN4_STL13__destroy_auxIPN7IwTween6CTweenEEEvT_S4_RKNS_12__false_typeE,comdat
	.align	2
	.weak	_ZN4_STL13__destroy_auxIPN7IwTween6CTweenEEEvT_S4_RKNS_12__false_typeE
	.hidden	_ZN4_STL13__destroy_auxIPN7IwTween6CTweenEEEvT_S4_RKNS_12__false_typeE
	.type	_ZN4_STL13__destroy_auxIPN7IwTween6CTweenEEEvT_S4_RKNS_12__false_typeE, %function
_ZN4_STL13__destroy_auxIPN7IwTween6CTweenEEEvT_S4_RKNS_12__false_typeE:
.LFB3266:
	.loc 10 122 0
	.cfi_startproc
	@ args = 0, pretend = 0, frame = 16
	@ frame_needed = 0, uses_anonymous_args = 0
	str	lr, [sp, #-4]!
.LCFI130:
	.cfi_def_cfa_offset 4
	.cfi_offset 14, -4
	sub	sp, sp, #20
.LCFI131:
	.cfi_def_cfa_offset 24
	str	r0, [sp, #12]
	str	r1, [sp, #8]
	str	r2, [sp, #4]
	.loc 10 123 0
	b	.L199
.L200:
	.loc 10 124 0 discriminator 2
	ldr	r0, [sp, #12]
	bl	_ZN4_STL8_DestroyIN7IwTween6CTweenEEEvPT_(PLT)
	.loc 10 123 0 discriminator 2
	ldr	r3, [sp, #12]
	add	r3, r3, #60
	str	r3, [sp, #12]
.L199:
	.loc 10 123 0 is_stmt 0 discriminator 1
	ldr	r2, [sp, #12]
	ldr	r3, [sp, #8]
	cmp	r2, r3
	bne	.L200
	.loc 10 125 0 is_stmt 1
	add	sp, sp, #20
	@ sp needed
	ldr	pc, [sp], #4
	.cfi_endproc
.LFE3266:
	.size	_ZN4_STL13__destroy_auxIPN7IwTween6CTweenEEEvT_S4_RKNS_12__false_typeE, .-_ZN4_STL13__destroy_auxIPN7IwTween6CTweenEEEvT_S4_RKNS_12__false_typeE
	.section	.text._ZN4_STL9allocatorINS_10_List_nodeIP5SceneEEEC2ERKS5_,"axG",%progbits,_ZN4_STL9allocatorINS_10_List_nodeIP5SceneEEEC5ERKS5_,comdat
	.align	2
	.weak	_ZN4_STL9allocatorINS_10_List_nodeIP5SceneEEEC2ERKS5_
	.hidden	_ZN4_STL9allocatorINS_10_List_nodeIP5SceneEEEC2ERKS5_
	.type	_ZN4_STL9allocatorINS_10_List_nodeIP5SceneEEEC2ERKS5_, %function
_ZN4_STL9allocatorINS_10_List_nodeIP5SceneEEEC2ERKS5_:
.LFB3272:
	.loc 8 349 0
	.cfi_startproc
	@ args = 0, pretend = 0, frame = 8
	@ frame_needed = 0, uses_anonymous_args = 0
	@ link register save eliminated.
	sub	sp, sp, #8
.LCFI132:
	.cfi_def_cfa_offset 8
	str	r0, [sp, #4]
	str	r1, [sp]
	.loc 8 349 0
	ldr	r3, [sp, #4]
	mov	r0, r3
	add	sp, sp, #8
	@ sp needed
	bx	lr
	.cfi_endproc
.LFE3272:
	.size	_ZN4_STL9allocatorINS_10_List_nodeIP5SceneEEEC2ERKS5_, .-_ZN4_STL9allocatorINS_10_List_nodeIP5SceneEEEC2ERKS5_
	.weak	_ZN4_STL9allocatorINS_10_List_nodeIP5SceneEEEC1ERKS5_
	.hidden	_ZN4_STL9allocatorINS_10_List_nodeIP5SceneEEEC1ERKS5_
	.set	_ZN4_STL9allocatorINS_10_List_nodeIP5SceneEEEC1ERKS5_,_ZN4_STL9allocatorINS_10_List_nodeIP5SceneEEEC2ERKS5_
	.section	.text._ZN4_STL14__malloc_allocILi0EE8allocateEj,"axG",%progbits,_ZN4_STL14__malloc_allocILi0EE8allocateEj,comdat
	.align	2
	.weak	_ZN4_STL14__malloc_allocILi0EE8allocateEj
	.hidden	_ZN4_STL14__malloc_allocILi0EE8allocateEj
	.type	_ZN4_STL14__malloc_allocILi0EE8allocateEj, %function
_ZN4_STL14__malloc_allocILi0EE8allocateEj:
.LFB3274:
	.loc 8 109 0
	.cfi_startproc
	@ args = 0, pretend = 0, frame = 16
	@ frame_needed = 0, uses_anonymous_args = 0
	str	lr, [sp, #-4]!
.LCFI133:
	.cfi_def_cfa_offset 4
	.cfi_offset 14, -4
	sub	sp, sp, #20
.LCFI134:
	.cfi_def_cfa_offset 24
	str	r0, [sp, #4]
.LBB45:
	.loc 8 110 0
	ldr	r0, [sp, #4]
	bl	malloc(PLT)
	mov	r3, r0
	str	r3, [sp, #12]
	.loc 8 111 0
	ldr	r3, [sp, #12]
	cmp	r3, #0
	bne	.L205
	.loc 8 111 0 is_stmt 0 discriminator 1
	ldr	r0, [sp, #4]
	bl	_ZN4_STL14__malloc_allocILi0EE13_S_oom_mallocEj(PLT)
	str	r0, [sp, #12]
.L205:
	.loc 8 112 0 is_stmt 1
	ldr	r3, [sp, #12]
.LBE45:
	.loc 8 113 0
	mov	r0, r3
	add	sp, sp, #20
	@ sp needed
	ldr	pc, [sp], #4
	.cfi_endproc
.LFE3274:
	.size	_ZN4_STL14__malloc_allocILi0EE8allocateEj, .-_ZN4_STL14__malloc_allocILi0EE8allocateEj
	.section	.text._ZN4_STL10_ConstructIP5SceneS2_EEvPT_RKT0_,"axG",%progbits,_ZN4_STL10_ConstructIP5SceneS2_EEvPT_RKT0_,comdat
	.align	2
	.weak	_ZN4_STL10_ConstructIP5SceneS2_EEvPT_RKT0_
	.hidden	_ZN4_STL10_ConstructIP5SceneS2_EEvPT_RKT0_
	.type	_ZN4_STL10_ConstructIP5SceneS2_EEvPT_RKT0_, %function
_ZN4_STL10_ConstructIP5SceneS2_EEvPT_RKT0_:
.LFB3275:
	.loc 10 93 0
	.cfi_startproc
	@ args = 0, pretend = 0, frame = 8
	@ frame_needed = 0, uses_anonymous_args = 0
	str	lr, [sp, #-4]!
.LCFI135:
	.cfi_def_cfa_offset 4
	.cfi_offset 14, -4
	sub	sp, sp, #12
.LCFI136:
	.cfi_def_cfa_offset 16
	str	r0, [sp, #4]
	str	r1, [sp]
	.loc 10 97 0
	ldr	r3, [sp, #4]
	mov	r0, #4
	mov	r1, r3
	bl	_ZnwjPv(PLT)
	mov	r3, r0
	ldr	r2, [sp]
	ldr	r2, [r2]
	str	r2, [r3]
	.loc 10 98 0
	add	sp, sp, #12
	@ sp needed
	ldr	pc, [sp], #4
	.cfi_endproc
.LFE3275:
	.size	_ZN4_STL10_ConstructIP5SceneS2_EEvPT_RKT0_, .-_ZN4_STL10_ConstructIP5SceneS2_EEvPT_RKT0_
	.section	.text._ZN4_STL8_DestroyIN7IwTween6CTween9ValueTypeEEEvPT_,"axG",%progbits,_ZN4_STL8_DestroyIN7IwTween6CTween9ValueTypeEEEvPT_,comdat
	.align	2
	.weak	_ZN4_STL8_DestroyIN7IwTween6CTween9ValueTypeEEEvPT_
	.hidden	_ZN4_STL8_DestroyIN7IwTween6CTween9ValueTypeEEEvPT_
	.type	_ZN4_STL8_DestroyIN7IwTween6CTween9ValueTypeEEEvPT_, %function
_ZN4_STL8_DestroyIN7IwTween6CTween9ValueTypeEEEvPT_:
.LFB3282:
	.loc 10 56 0
	.cfi_startproc
	@ args = 0, pretend = 0, frame = 8
	@ frame_needed = 0, uses_anonymous_args = 0
	@ link register save eliminated.
	sub	sp, sp, #8
.LCFI137:
	.cfi_def_cfa_offset 8
	str	r0, [sp, #4]
	.loc 10 73 0
	add	sp, sp, #8
	@ sp needed
	bx	lr
	.cfi_endproc
.LFE3282:
	.size	_ZN4_STL8_DestroyIN7IwTween6CTween9ValueTypeEEEvPT_, .-_ZN4_STL8_DestroyIN7IwTween6CTween9ValueTypeEEEvPT_
	.section	.text._ZN4_STL8_DestroyIN7IwTween6CTweenEEEvPT_,"axG",%progbits,_ZN4_STL8_DestroyIN7IwTween6CTweenEEEvPT_,comdat
	.align	2
	.weak	_ZN4_STL8_DestroyIN7IwTween6CTweenEEEvPT_
	.hidden	_ZN4_STL8_DestroyIN7IwTween6CTweenEEEvPT_
	.type	_ZN4_STL8_DestroyIN7IwTween6CTweenEEEvPT_, %function
_ZN4_STL8_DestroyIN7IwTween6CTweenEEEvPT_:
.LFB3283:
	.loc 10 56 0
	.cfi_startproc
	@ args = 0, pretend = 0, frame = 8
	@ frame_needed = 0, uses_anonymous_args = 0
	str	lr, [sp, #-4]!
.LCFI138:
	.cfi_def_cfa_offset 4
	.cfi_offset 14, -4
	sub	sp, sp, #12
.LCFI139:
	.cfi_def_cfa_offset 16
	str	r0, [sp, #4]
	.loc 10 67 0
	ldr	r0, [sp, #4]
	bl	_ZN7IwTween6CTweenD1Ev(PLT)
	.loc 10 73 0
	add	sp, sp, #12
	@ sp needed
	ldr	pc, [sp], #4
	.cfi_endproc
.LFE3283:
	.size	_ZN4_STL8_DestroyIN7IwTween6CTweenEEEvPT_, .-_ZN4_STL8_DestroyIN7IwTween6CTweenEEEvPT_
	.hidden	_ZTV5Scene
	.global	_ZTV5Scene
	.section	.data.rel.ro,"aw",%progbits
	.align	3
	.type	_ZTV5Scene, %object
	.size	_ZTV5Scene, 28
_ZTV5Scene:
	.word	0
	.word	_ZTI5Scene
	.word	_ZN5SceneD1Ev
	.word	_ZN5SceneD0Ev
	.word	_ZN5Scene6UpdateEff
	.word	_ZN5Scene6RenderEv
	.word	_ZN5Scene4InitEv
	.hidden	_ZTI5Scene
	.global	_ZTI5Scene
	.align	2
	.type	_ZTI5Scene, %object
	.size	_ZTI5Scene, 12
_ZTI5Scene:
	.word	_ZTVN10__cxxabiv120__si_class_type_infoE+8
	.word	_ZTS5Scene
	.word	_ZTIN18Iw2DSceneGraphCore5CNodeE
	.hidden	_ZTS5Scene
	.global	_ZTS5Scene
	.section	.rodata
	.align	2
	.type	_ZTS5Scene, %object
	.size	_ZTS5Scene, 7
_ZTS5Scene:
	.ascii	"5Scene\000"
	.text
.Letext0:
	.file 12 "c:/marmalade/7.5/s3e/h/std/c++/typeinfo.h"
	.file 13 "c:/marmalade/7.5/s3e/h/std/c++/cstddef"
	.file 14 "c:/marmalade/7.5/s3e/h/std/c++/using/cstring"
	.file 15 "c:/marmalade/7.5/s3e/h/std/c++/cstdlib"
	.file 16 "c:/marmalade/7.5/s3e/h/std/c++/stl/type_traits.h"
	.file 17 "c:/marmalade/7.5/s3e/h/std/c++/cstdio"
	.file 18 "c:/marmalade/7.5/s3e/h/std/c++/exception"
	.file 19 "c:/marmalade/7.5/s3e/h/std/c++/typeinfo"
	.file 20 "c:/marmalade/7.5/s3e/h/std/c++/cwchar"
	.file 21 "c:/marmalade/7.5/s3e/h/std/c++/stl/_vector.c"
	.file 22 "c:/marmalade/7.5/s3e/h/std/c++/stl/_iterator_base.h"
	.file 23 "c:/marmalade/7.5/s3e/h/std/c++/stl/_config.h"
	.file 24 "c:/marmalade/7.5/s3e/h/ext/../std/stddef.h"
	.file 25 "c:/marmalade/7.5/s3e/h/s3eTypes.h"
	.file 26 "c:/marmalade/7.5/s3e/h/ext/../std/string.h"
	.file 27 "c:/marmalade/7.5/s3e/h/ext/../std/stdlib.h"
	.file 28 "c:/marmalade/7.5/s3e/h/ext/../std/stdio.h"
	.file 29 "c:/marmalade/7.5/s3e/h/std/stdarg.h"
	.file 30 "<built-in>"
	.file 31 "c:/marmalade/7.5/modules/iwgeom/h/IwGeomCore.h"
	.file 32 "c:/marmalade/7.5/s3e/h/s3eFile.h"
	.file 33 "c:/marmalade/7.5/modules/iwutil/h/IwSerialise.h"
	.file 34 "c:/marmalade/7.5/modules/iwgeom/h/IwGeomSVec2.h"
	.file 35 "c:/marmalade/7.5/modules/iwgeom/h/IwGeomVec2.h"
	.file 36 "c:/marmalade/7.5/modules/iwgeom/h/IwGeomFVec2.h"
	.file 37 "c:/marmalade/7.5/modules/iwgeom/h/IwGeomSVec3.h"
	.file 38 "c:/marmalade/7.5/modules/iwgeom/h/IwGeomVec3.h"
	.file 39 "c:/marmalade/7.5/modules/iwgeom/h/IwGeomFVec3.h"
	.file 40 "c:/marmalade/7.5/modules/iwgeom/h/IwGeomMat.h"
	.file 41 "c:/marmalade/7.5/modules/iwgeom/h/IwGeomFMat.h"
	.file 42 "c:/marmalade/7.5/modules/iw2dscenegraphcore/h/Iw2DSceneGraphCore.h"
	.file 43 "c:/marmalade/7.5/s3e/h/s3eDebug.h"
	.file 44 "c:/marmalade/7.5/s3e/h/s3eSurface.h"
	.file 45 "c:/marmalade/7.5/modules/iwgx/h/IwColour.h"
	.file 46 "c:/marmalade/7.5/modules/iwutil/h/IwString.h"
	.file 47 "c:/marmalade/7.5/modules/iwutil/h/IwAllocator.h"
	.file 48 "c:/marmalade/7.5/modules/iwutil/h/IwManaged.h"
	.file 49 "c:/marmalade/7.5/modules/iwutil/h/IwArray.h"
	.file 50 "c:/marmalade/7.5/modules/iwutil/h/IwManagedList.h"
	.file 51 "c:/marmalade/7.5/modules/iwutil/h/IwEvent.h"
	.file 52 "c:/marmalade/7.5/modules/iwutil/h/IwImage.h"
	.file 53 "c:/marmalade/7.5/modules/iwutil/h/IwMemBucket.h"
	.file 54 "c:/marmalade/7.5/modules/iwutil/h/IwMemBucketHelpers.h"
	.file 55 "c:/marmalade/7.5/modules/iwutil/h/IwList.h"
	.file 56 "c:/marmalade/7.5/modules/iwgx/h/IwGxTypes.h"
	.file 57 "c:/marmalade/7.5/s3e/h/std/time.h"
	.file 58 "c:/marmalade/7.5/s3e/h/ext/../std/wchar.h"
	.file 59 "c:/marmalade/7.5/s3e/h/GLES/gl.h"
	.file 60 "c:/marmalade/7.5/modules/iwgx/h/IwGxStream.h"
	.file 61 "c:/marmalade/7.5/modules/iwgx/h/IwGxMetrics.h"
	.file 62 "c:/marmalade/7.5/modules/iwgx/h/IwMaterial.h"
	.file 63 "c:/marmalade/7.5/modules/iwgx/h/IwTexture.h"
	.file 64 "c:/marmalade/7.5/modules/iwgx/h/IwGxSurface.h"
	.file 65 "c:/marmalade/7.5/s3e/h/EGL/egl.h"
	.file 66 "c:/marmalade/7.5/modules/iwgx/h/IwTPage.h"
	.file 67 "c:/marmalade/7.5/modules/iwresmanager/h/IwResGroup.h"
	.file 68 "c:/marmalade/7.5/modules/iwresmanager/h/IwResManagerClass.h"
	.file 69 "c:/Stage4/source/main.h"
	.file 70 "c:/marmalade/7.5/modules/iwgeom/h/IwGeomSqrt.h"
	.file 71 "c:/marmalade/7.5/modules/iwutil/h/IwMenu.h"
	.file 72 "c:/marmalade/7.5/modules/iwutil/h/IwTextParserITX.h"
	.file 73 "c:/marmalade/7.5/modules/iwgx/h/IwGxFuncTable.h"
	.file 74 "c:/marmalade/7.5/modules/iwutil/h/IwTypes.h"
	.file 75 "c:/marmalade/7.5/modules/iw2dscenegraph/h/Iw2DSceneGraph.h"