((dp0
S'arm_dbg_args'
p1
S'-via:"c:\\Marmalade\\7.5\\examples\\GameTutorial\\CPP\\Stage4\\build_stage4_vc12\\Stage4_vc12_arm_debug.via" -qemu'
p2
sS'game-icf'
p3
S''
p4
sS'dist'
p5
NsS'csproj'
p6
g4
sS'module_path_append'
p7
NsS'global_path'
p8
S'c:\\marmalade\\7.5\\examples\\gametutorial\\cpp'
p9
sS'system_path'
p10
S'c:\\marmalade\\7.5\\s3e\\makefile_builder'
p11
sS'android_x86_dbg_args'
p12
S'../../tools/DeployTool/DeployTool.exe --dir "c:\\Marmalade\\7.5\\examples\\GameTutorial\\CPP\\Stage4\\build_stage4_vc12"'
p13
sS'aarch64-arch-mod'
p14
g4
sS'no-emit'
p15
NsS'arm-float-abi'
p16
g4
sS'arm_rel_rtsm_args'
p17
S'-via:"c:\\Marmalade\\7.5\\examples\\GameTutorial\\CPP\\Stage4\\build_stage4_vc12\\Stage4_vc12_arm_release.via" -qemu'
p18
sS'amd64'
p19
NsS'line-width'
p20
I80
sS'gcc_dbg_args'
p21
S'-via:"c:\\Marmalade\\7.5\\examples\\GameTutorial\\CPP\\Stage4\\build_stage4_vc12\\Stage4_vc12_gcc_debug.via" -qemu'
p22
sS'android-x86'
p23
NsS'x86_dbg_exe'
p24
S'c:/marmalade/7.5/s3e\\win32\\s3e_simulator_debug.exe'
p25
sS'disable-runtime-checks'
p26
NsS'release'
p27
NsS'no-make'
p28
NsS'xcode-x86-build-settings'
p29
g4
sS'optimise-size'
p30
NsS'fat'
p31
NsS'output-name-debug'
p32
g4
sS'arm-fpu'
p33
g4
sS'proj_name'
p34
S'Stage4_vc12'
p35
sS'rvct-version'
p36
S'none'
p37
sS'compiler'
p38
g4
sS'execute'
p39
I01
sS'compile-static'
p40
NsS'msvc-project'
p41
NsS'buildenv'
p42
S'VC12'
p43
sS'quick'
p44
NsS'module_path'
p45
NsS'mkf_default'
p46
S's3e-default.mkf'
p47
sS'use-release-std-libs'
p48
NsS'using_perforce'
p49
I00
sS'tizen-x86'
p50
NsS'mips-s3e'
p51
NsS's3e-api-lib-name'
p52
S's3e_api_iwgl'
p53
sS'ios-no-pic'
p54
NsS'shared-arm-lib'
p55
NsS'arm-cpu'
p56
g4
sS'compile-thumb'
p57
NsS'no-ide'
p58
I01
sS'msvc-version'
p59
S'6.0'
p60
sS'arm'
p61
NsS'builddir'
p62
g4
sS'compile-debug-as-release'
p63
I0
sS'arm-arch'
p64
g4
sS'brief'
p65
NsS'dll'
p66
NsS'buildenv-toolset'
p67
g4
sS'version'
p68
NsS'aarch64-arch'
p69
g4
sS'ccache'
p70
I0
sS'offline'
p71
NsS'ios-version'
p72
g4
sS'hub_data'
p73
g4
sS'fake_vc_call'
p74
NsS'jobs'
p75
I0
sS'linkflags'
p76
NsS'gcc_aarch64_dbg_args'
p77
g13
sS'debug'
p78
I01
sS'xcode-build-order'
p79
g4
sS'gcc_aarch64_rel_rtsm_args'
p80
S'-via:"c:\\Marmalade\\7.5\\examples\\GameTutorial\\CPP\\Stage4\\build_stage4_vc12\\Stage4_vc12_gcc_aarch64_release.via" -qemu'
p81
sS'gcc_rel_rtsm_args'
p82
S'-via:"c:\\Marmalade\\7.5\\examples\\GameTutorial\\CPP\\Stage4\\build_stage4_vc12\\Stage4_vc12_gcc_release.via" -qemu'
p83
sS'done_defaults'
p84
I1
sS'path'
p85
NsS's3e-data-dir'
p86
S'c:/Marmalade/7.5/examples/GameTutorial/CPP/Stage4\\data'
p87
sS'enable-exceptions'
p88
NsS'osx-dll'
p89
NsS'extension'
p90
g4
sS'no-vc6'
p91
NsS'aarch64'
p92
NsS'win32-console'
p93
NsS'dist-format'
p94
g4
sS's3e-force-arch'
p95
NsS'dump_defines'
p96
NsS'use-shared-std-libs'
p97
NsS'gcc-version'
p98
g4
sS'x86_dbg_args'
p99
S'-via:"c:\\Marmalade\\7.5\\examples\\GameTutorial\\CPP\\Stage4\\build_stage4_vc12\\Stage4_vc12_debug.via"'
p100
sS'tizen_x86_dbg_args'
p101
g13
sS'arm-debugger'
p102
g4
sS'use_temp_extension'
p103
NsS'verbose'
p104
I0
sS'log'
p105
NsS'no-strip'
p106
NsS'rebuild'
p107
NsS'mips_dbg_args'
p108
g13
sS'win32-simulator-dll'
p109
NsS'strict'
p110
NsS'xcode-aarch64-build-settings'
p111
g4
sS'enable-global-path'
p112
NsS'gcc_aarch64_rel_args'
p113
g13
sS'cflags'
p114
NsS'dist-dir'
p115
g4
sS'xcode-arm-build-settings'
p116
g4
sS'jflags'
p117
NsS'csprojSDKRefs'
p118
g4
sS'tizen_x86_rel_exe'
p119
S'c:\\marmalade\\7.5\\s3e\\makefile_builder\\tool_launcher.exe'
p120
sS'test-assets'
p121
g4
sS'distcc'
p122
NsS'external-compiler'
p123
NsS'no-distcc'
p124
NsS'preinclude'
p125
NsS'using_sdk'
p126
I01
sS'nologo'
p127
NsS'warn-level'
p128
I2
sS'mips_dbg_exe'
p129
g120
sS'mkb_in'
p130
S'c:/Marmalade/7.5/examples/GameTutorial/CPP/Stage4/Stage4.mkb'
p131
sS'tizen_x86_dbg_exe'
p132
g120
sS'arm_dbg_exe'
p133
S'c:/marmalade/7.5/s3e\\bin\\armdebug.exe'
p134
sS'csprojDLLRef'
p135
NsS'tizen_x86_rel_args'
p136
g13
sS'android_x86_dbg_exe'
p137
g120
sS'test-config'
p138
g4
sS'list-targets'
p139
NsS'arm_rel_exe'
p140
g120
sS'arm_rel_args'
p141
g13
sS'makedeps'
p142
NsS'android_x86_rel_exe'
p143
g120
sS'default-buildenv'
p144
S'VC12'
p145
sS'x86_rel_exe'
p146
g25
sS'preprocess-java'
p147
NsS'mips_rel_args'
p148
g13
sS'defines'
p149
NsS'lib'
p150
NsS'non-interactive'
p151
NsS'global_argv'
p152
(lp153
S'C:\\Marmalade\\7.5\\s3e\\makefile_builder\\mkb.py'
p154
aS'C:/Marmalade/7.5/examples\\GameTutorial\\CPP\\Stage4\\Stage4.mkb'
p155
aS'--buildenv=VC12'
p156
aS'--debug'
p157
aS'--x86'
p158
aS'--no-ide'
p159
aS'--execute'
p160
asS'make'
p161
NsS'optimise-speed'
p162
NsS'internal'
p163
NsS'enable-stdinc'
p164
NsS'deploy-only'
p165
NsS'x86'
p166
I01
sS'deploy'
p167
g4
sS'x86_run_exe'
p168
S'c:/marmalade/7.5/s3e\\win32\\s3e_console.exe'
p169
sS'cxxflags'
p170
NsS'x86_rel_args'
p171
S'-via:"c:\\Marmalade\\7.5\\examples\\GameTutorial\\CPP\\Stage4\\build_stage4_vc12\\Stage4_vc12_release.via"'
p172
sS'gcc_rel_args'
p173
g13
sS'mips'
p174
NsS'xcode-build-settings'
p175
g4
sS'incredibuild'
p176
NsS'strict-compile'
p177
NsS'use-auto-subdirs'
p178
NsS'mips_rel_exe'
p179
g120
sS'android_x86_rel_args'
p180
g13
sS'app-icf'
p181
g4
sS'deployargs'
p182
NsS'iosnativedebug'
p183
NsS'use_prebuilt'
p184
NsS'mkf_in'
p185
(lp186
S'c:\\marmalade\\7.5\\s3e\\s3e-default.mkf'
p187
aS'c:\\marmalade\\7.5\\modules\\iw2d\\iw2d.mkf'
p188
aS'c:\\marmalade\\7.5\\modules\\iwgx\\iwgx.mkf'
p189
aS'c:\\marmalade\\7.5\\modules\\iwgl\\iwgl.mkf'
p190
aS'c:\\marmalade\\7.5\\modules\\iwutil\\iwutil.mkf'
p191
aS'c:\\marmalade\\7.5\\modules\\third_party\\libjpeg\\libjpeg.mkf'
p192
aS'c:\\marmalade\\7.5\\modules\\third_party\\libpng\\libpng.mkf'
p193
aS'c:\\marmalade\\7.5\\modules\\third_party\\zlib\\zlib.mkf'
p194
aS'c:\\marmalade\\7.5\\modules\\iwgeom\\iwgeom.mkf'
p195
aS'c:\\marmalade\\7.5\\modules\\iwresmanager\\iwresmanager.mkf'
p196
aS'c:\\marmalade\\7.5\\extensions\\pvrtextool\\pvrtextool.mkf'
p197
aS'c:\\marmalade\\7.5\\modules\\iwgxfont\\iwgxfont.mkf'
p198
aS'c:\\marmalade\\7.5\\modules\\third_party\\tiniconv\\tiniconv.mkf'
p199
aS'c:\\marmalade\\7.5\\modules\\iw2dscenegraph\\iw2dscenegraph.mkf'
p200
aS'c:\\marmalade\\7.5\\modules\\iw2dscenegraphcore\\iw2dscenegraphcore.mkf'
p201
aS'c:\\marmalade\\7.5\\modules\\iwtween\\iwtween.mkf'
p202
aS'c:\\marmalade\\7.5\\examples\\gametutorial\\cpp\\modules\\soundengine\\soundengine.mkf'
p203
asS'strict-mkb'
p204
NsS'executeargs'
p205
NsS'clean'
p206
NsS'no-asm'
p207
NsS'output-name'
p208
g4
sS'no-modules'
p209
NsS'find_define'
p210
g4
s(dp211
S'c:\\marmalade\\7.5\\s3e\\makefile_builder\\templates\\vc7_suo.pyc'
p212
F1422012890.0
sS'c:\\marmalade\\7.5\\s3e\\makefile_builder\\templates\\ws81_vcxproj.pyc'
p213
F1422012892.0
sS'c:\\marmalade\\7.5\\s3e\\makefile_builder\\plugins\\s3e_ws8.pyc'
p214
F1422012890.0
sS'c:\\marmalade\\7.5\\s3e\\makefile_builder\\templates'
p215
F1422040519.7924168
sS'c:\\marmalade\\7.5\\s3e\\makefile_builder\\templates\\qmake.py'
p216
F1422011718.0
sS'c:\\marmalade\\7.5\\s3e\\makefile_builder\\templates\\vc10_user.pyc'
p217
F1422012890.0
sS'c:\\marmalade\\7.5\\s3e\\makefile_builder\\plugins'
p218
F1422049226.122113
sS'c:\\marmalade\\7.5\\s3e\\makefile_builder\\mkb_main.pyc'
p219
F1422012890.0
sS'c:\\marmalade\\7.5\\s3e\\makefile_builder\\templates\\mips_linker_script'
p220
F1422011718.0
sS'c:\\marmalade\\7.5\\s3e\\makefile_builder\\plugins\\XcodeEmitter.py'
p221
F1422011718.0
sS'c:\\marmalade\\7.5\\s3e\\makefile_builder\\mkb.py'
p222
F1422011718.0
sS'c:\\marmalade\\7.5\\s3e\\makefile_builder\\templates\\ws81_ext_sln.pyc'
p223
F1422012892.0
sS'c:\\marmalade\\7.5\\s3e\\makefile_builder\\templates\\win32_dsp.pyc'
p224
F1422012890.0
sS'c:\\marmalade\\7.5\\s3e\\makefile_builder\\templates\\ws8_csproj.pyc'
p225
F1422012892.0
sS'c:\\marmalade\\7.5\\s3e\\makefile_builder\\deployment.pyc'
p226
F1422012890.0
sS'c:\\marmalade\\7.5\\s3e\\makefile_builder\\plugins\\win32_vc6.pyc'
p227
F1422012890.0
sS'c:\\marmalade\\7.5\\s3e\\makefile_builder\\plugins\\osx_xcode.pyc'
p228
F1422012890.0
sS'c:\\marmalade\\7.5\\s3e\\makefile_builder\\plugins\\null.pyc'
p229
F1422012890.0
sS'c:\\marmalade\\7.5\\s3e\\makefile_builder\\templates\\wp81_csproj.pyc'
p230
F1422012892.0
sS'c:\\marmalade\\7.5\\s3e\\makefile_builder\\templates\\qmake_user.py'
p231
F1422011718.0
sS'c:\\marmalade\\7.5\\s3e\\makefile_builder\\templates\\vc6_opt.pyc'
p232
F1422012890.0
sS'c:\\marmalade\\7.5\\s3e\\makefile_builder\\plugins\\vc7_utils.pyc'
p233
F1422012890.0
sS'c:\\marmalade\\7.5\\s3e\\makefile_builder\\templates\\wp81_vcxproj.pyc'
p234
F1422012892.0
sS'c:\\marmalade\\7.5\\s3e\\makefile_builder\\templates\\win32_vcxproj.pyc'
p235
F1422012890.0
sS'c:\\marmalade\\7.5\\s3e\\makefile_builder\\templates\\ws8_ext_sln.pyc'
p236
F1422012892.0
sS'c:\\marmalade\\7.5\\s3e\\makefile_builder\\templates\\ws8_ext_csproj.pyc'
p237
F1422012892.0
sS'c:\\marmalade\\7.5\\s3e\\makefile_builder\\templates\\wp8_ext_csproj.pyc'
p238
F1422012892.0
sS'c:\\marmalade\\7.5\\s3e\\makefile_builder\\plugins\\s3e_wp8.pyc'
p239
F1422012890.0
sS'c:\\marmalade\\7.5\\s3e\\makefile_builder\\templates\\ws81_csproj.pyc'
p240
F1422012892.0
sS'c:\\marmalade\\7.5\\s3e\\makefile_builder\\docs\\deprecated.options.txt'
p241
F1422011718.0
sS'c:\\marmalade\\7.5\\s3e\\makefile_builder\\plugins\\s3e_make.pyc'
p242
F1422012890.0
sS'c:\\marmalade\\7.5\\s3e\\makefile_builder\\templates\\win8_ext_csproj.pyc'
p243
F1422012892.0
sS'c:\\marmalade\\7.5\\s3e\\makefile_builder\\mkb_parser.pyc'
p244
F1422012890.0
sS'c:\\marmalade\\7.5\\s3e\\makefile_builder\\plugins\\s3e_web.pyc'
p245
F1422012890.0
sS'c:\\marmalade\\7.5\\s3e\\makefile_builder\\docs\\mkb.defines.txt'
p246
F1422011718.0
sS'c:\\marmalade\\7.5\\s3e\\makefile_builder\\plugins\\osx_scons.pyc'
p247
F1422012890.0
sS'c:\\marmalade\\7.5\\s3e\\makefile_builder\\plugins\\ws81_ws81.pyc'
p248
F1422012890.0
sS'c:\\marmalade\\7.5\\s3e\\makefile_builder\\plugins\\s3e_qmake.py'
p249
F1422011718.0
sS'c:\\marmalade\\7.5\\s3e\\makefile_builder\\templates\\win8_csproj.pyc'
p250
F1422012892.0
sS'c:\\marmalade\\7.5\\s3e\\makefile_builder\\plugins\\s3e_vc6.pyc'
p251
F1422012890.0
sS'c:\\marmalade\\7.5\\s3e\\makefile_builder\\plugins\\wp81_wp81.pyc'
p252
F1422012890.0
sS'c:\\marmalade\\7.5\\s3e\\makefile_builder\\templates\\wp81_csproj_user.pyc'
p253
F1422012892.0
sS'c:\\marmalade\\7.5\\s3e\\makefile_builder\\templates\\win32_dsw.pyc'
p254
F1422012890.0
sS'c:\\marmalade\\7.5\\s3e\\makefile_builder\\templates\\xcode4.xcscheme'
p255
F1422011718.0
sS'c:\\marmalade\\7.5\\s3e\\makefile_builder\\templates\\template.opt'
p256
F1422011718.0
sS'c:\\marmalade\\7.5\\s3e\\makefile_builder\\templates\\template.suo'
p257
F1422011718.0
sS'c:\\marmalade\\7.5\\s3e\\makefile_builder\\templates\\linker_script'
p258
F1422011718.0
sS'c:\\marmalade\\7.5\\s3e\\makefile_builder\\templates\\gdb_start.txt'
p259
F1422011718.0
sS'c:\\marmalade\\7.5\\s3e\\makefile_builder\\mkb_launcher.exe'
p260
F1422012030.0
sS'c:\\marmalade\\7.5\\s3e\\makefile_builder\\templates\\scons.pyc'
p261
F1422012890.0
sS'c:\\marmalade\\7.5\\s3e\\makefile_builder\\docs\\parse_options.pyc'
p262
F1422012892.0
sS'c:\\marmalade\\7.5\\s3e\\makefile_builder\\templates\\xcode4_arm.xcscheme'
p263
F1422011718.0
sS'c:\\marmalade\\7.5\\s3e\\makefile_builder\\plugins\\VisualStudioEmitter.pyc'
p264
F1422012890.0
sS'c:\\marmalade\\7.5\\s3e\\makefile_builder\\plugins\\s3e_xcode.pyc'
p265
F1422049226.1261024
sS'c:\\marmalade\\7.5\\s3e\\makefile_builder\\plugins\\Emitter.pyc'
p266
F1422012890.0
sS'c:\\marmalade\\7.5\\s3e\\makefile_builder\\templates\\ws8_sln.pyc'
p267
F1422012892.0
sS'c:\\marmalade\\7.5\\s3e\\makefile_builder\\tool_launcher.exe'
p268
F1422012030.0
sS'c:\\marmalade\\7.5\\s3e\\makefile_builder\\templates\\wp8_sln.pyc'
p269
F1422012892.0
sS'c:\\marmalade\\7.5\\s3e\\makefile_builder\\mkb_upstream.pyc'
p270
F1422012890.0
sS'c:\\marmalade\\7.5\\s3e\\makefile_builder\\templates\\ws81_csproj_user.pyc'
p271
F1422012892.0
sS'c:\\marmalade\\7.5\\s3e\\makefile_builder\\templates\\win32_sln.pyc'
p272
F1422012890.0
sS'c:\\marmalade\\7.5\\s3e\\makefile_builder\\templates\\xcode4_DeployTool.xcscheme'
p273
F1422011718.0
sS'c:\\marmalade\\7.5\\s3e\\makefile_builder\\plugins\\deploy.pyc'
p274
F1422012890.0
sS'c:\\marmalade\\7.5\\s3e\\makefile_builder\\plugins\\s3e_win8.pyc'
p275
F1422012890.0
sS'c:\\marmalade\\7.5\\s3e\\makefile_builder\\plugins\\iphone.pyc'
p276
F1422012890.0
sS'c:\\marmalade\\7.5\\s3e\\makefile_builder\\plugins\\Win8Emitter.pyc'
p277
F1422012890.0
sS'c:\\marmalade\\7.5\\s3e\\makefile_builder\\plugins\\s3e_qmake.pyc'
p278
F1422049225.7607005
sS'c:\\marmalade\\7.5\\s3e\\makefile_builder\\docs'
p279
F1422040519.867489
sS'c:\\marmalade\\7.5\\s3e\\makefile_builder\\mkb_globals.pyc'
p280
F1422012890.0
sS'c:\\marmalade\\7.5\\s3e\\makefile_builder\\plugins\\win8_utils.pyc'
p281
F1422012890.0
sS'c:\\marmalade\\7.5\\s3e\\makefile_builder\\plugins\\xcode4_schememanagement.py'
p282
F1422011718.0
sS'c:\\marmalade\\7.5\\s3e\\makefile_builder\\templates\\wp81_ext_sln.pyc'
p283
F1422012892.0
sS'c:\\marmalade\\7.5\\s3e\\makefile_builder\\templates\\make.py'
p284
F1422011718.0
sS'c:\\marmalade\\7.5\\s3e\\makefile_builder\\templates\\ws81_ext_csproj.pyc'
p285
F1422012892.0
sS'c:\\marmalade\\7.5\\s3e\\makefile_builder\\plugins\\s3e_xcode.py'
p286
F1422011718.0
sS'c:\\marmalade\\7.5\\s3e\\makefile_builder\\plugins\\XcodeEmitter.pyc'
p287
F1422049225.0825448
sS'c:\\marmalade\\7.5\\s3e\\makefile_builder\\docs\\deployment_options.txt'
p288
F1422011718.0
sS'c:\\marmalade\\7.5\\s3e\\makefile_builder\\templates\\win8_sln.pyc'
p289
F1422012892.0
sS'c:\\marmalade\\7.5\\s3e\\makefile_builder\\plugins\\java.pyc'
p290
F1422012890.0
sS'c:\\marmalade\\7.5\\s3e\\makefile_builder\\plugins\\xcode4_schememanagement.pyc'
p291
F1422049225.1608984
sS'c:\\marmalade\\7.5\\s3e\\makefile_builder\\plugins\\SConsEmitter.pyc'
p292
F1422012890.0
sS'c:\\marmalade\\7.5\\s3e\\makefile_builder\\templates\\win32_vcproj.pyc'
p293
F1422012890.0
sS'c:\\marmalade\\7.5\\s3e\\makefile_builder\\plugins\\wp8_wp8.pyc'
p294
F1422012890.0
sS'c:\\marmalade\\7.5\\s3e\\makefile_builder\\templates\\MainWindow.xib'
p295
F1422011718.0
sS'c:\\marmalade\\7.5\\s3e\\makefile_builder\\mkb_util.pyc'
p296
F1422012890.0
sS'c:\\marmalade\\7.5\\s3e\\makefile_builder\\templates\\vc8_user.pyc'
p297
F1422012890.0
sS'c:\\marmalade\\7.5\\s3e\\makefile_builder\\templates\\Info.plist'
p298
F1422011718.0
sS'c:\\marmalade\\7.5\\s3e\\makefile_builder\\templates\\wp8_csproj_user.pyc'
p299
F1422012892.0
sS'c:\\marmalade\\7.5\\s3e\\makefile_builder\\docs\\deprecated.defines.txt'
p300
F1422011718.0
sS'c:\\marmalade\\7.5\\s3e\\makefile_builder\\templates\\ws8_csproj_user.pyc'
p301
F1422012892.0
sS'c:\\marmalade\\7.5\\s3e\\makefile_builder\\plugins\\S3EEmitter.pyc'
p302
F1422012890.0
sS'c:\\marmalade\\7.5\\s3e\\makefile_builder\\templates\\rvct_linker_script'
p303
F1422011718.0
sS'c:\\marmalade\\7.5\\s3e\\makefile_builder\\templates\\xcode_pbxuser.py'
p304
F1422011718.0
sS'c:\\marmalade\\7.5\\s3e\\makefile_builder\\docs\\options.txt'
p305
F1422011718.0
sS'c:\\marmalade\\7.5\\s3e\\makefile_builder\\templates\\wp81_sln.pyc'
p306
F1422012892.0
sS'c:\\marmalade\\7.5\\s3e\\makefile_builder\\templates\\ws81_sln.pyc'
p307
F1422012892.0
sS'c:\\marmalade\\7.5\\s3e\\makefile_builder\\plugins\\vc6_utils.pyc'
p308
F1422012890.0
sS'c:\\marmalade\\7.5\\s3e\\makefile_builder\\templates\\wp81_ext_csproj.pyc'
p309
F1422012892.0
sS'c:\\marmalade\\7.5\\s3e\\makefile_builder\\plugins\\s3e_wp81.pyc'
p310
F1422012890.0
sS'c:\\marmalade\\7.5\\s3e\\makefile_builder\\templates\\aarch64_linker_script'
p311
F1422011718.0
sS'c:\\marmalade\\7.5\\s3e\\makefile_builder\\templates\\ws8_vcxproj.pyc'
p312
F1422012892.0
sS'c:\\marmalade\\7.5\\s3e\\makefile_builder\\plugins\\MakeEmitter.pyc'
p313
F1422012890.0
sS'c:\\marmalade\\7.5\\s3e\\makefile_builder\\templates\\win32_vcxproj_filters.pyc'
p314
F1422012890.0
sS'c:\\marmalade\\7.5\\s3e\\makefile_builder\\templates\\xcode.py'
p315
F1422011718.0
sS'c:\\marmalade\\7.5\\s3e\\makefile_builder\\plugins\\s3e_ws81.pyc'
p316
F1422012890.0
sS'c:\\marmalade\\7.5\\s3e\\makefile_builder\\plugins\\linux_scons.pyc'
p317
F1422012890.0
sS'c:\\marmalade\\7.5\\s3e\\makefile_builder\\templates\\win8_vcxproj.pyc'
p318
F1422012892.0
sS'c:\\marmalade\\7.5\\s3e\\makefile_builder\\plugins\\s3e_scons.pyc'
p319
F1422012890.0
sS'c:\\marmalade\\7.5\\s3e\\makefile_builder\\templates\\wp8_csproj.pyc'
p320
F1422012892.0
sS'c:\\marmalade\\7.5\\s3e\\makefile_builder\\templates\\win8_csproj_user.pyc'
p321
F1422012892.0
sS'c:\\marmalade\\7.5\\s3e\\makefile_builder\\plugins\\ws8_ws8.pyc'
p322
F1422012890.0
sS'c:\\marmalade\\7.5\\s3e\\makefile_builder\\templates\\wp8_vcxproj.pyc'
p323
F1422012892.0
sS'c:\\marmalade\\7.5\\s3e\\makefile_builder\\mkb_option.pyc'
p324
F1422012890.0
sccopy_reg
_reconstructor
p325
(cmkb_main
MkbFile
p326
c__builtin__
object
p327
Ntp328
Rp329
(dp330
g5
(lp331
sS'target_name'
p332
S'Stage4'
p333
sS'current_file'
p334
g131
sS'package_path'
p335
(lp336
sS'post_build'
p337
(lp338
(lp339
S'c:/marmalade/7.5/s3e/tools'
p340
aS'C:\\Marmalade\\7.5\\s3e\\python\\python.exe .\\process_map.py "$(TargetPath)"'
p341
aa(S'c:\\marmalade\\7.5\\s3e\\bin'
p342
S'"s3e_plink" -l "$(TargetPath)" '
p343
g166
tp344
asS'librarys'
p345
(lp346
g325
(cmkb_main
Library
p347
g327
Ntp348
Rp349
(dp350
S'name'
p351
S'vc6_compat.lib'
p352
sS'expand_name'
p353
I00
sS'include_spec_rvct_objs'
p354
(lp355
sS'include_all_objs'
p356
I00
sS'share_arm'
p357
I00
sS'arch'
p358
S'x86'
p359
sS'nodebug'
p360
I00
sg38
Nsbag325
(g347
g327
Ntp361
Rp362
(dp363
g351
S'iw2d'
p364
sg353
I01
sg354
(lp365
sg356
Nsg357
Nsg358
Nsg360
I00
sg38
Nsbag325
(g347
g327
Ntp366
Rp367
(dp368
g351
S'ATI_Compress_MT_VC7.lib'
p369
sg353
I00
sg354
g365
sg356
Nsg357
Nsg358
S'x86'
p370
sg360
I00
sg38
Nsbag325
(g347
g327
Ntp371
Rp372
(dp373
g351
S'iwgx'
p374
sg353
I01
sg354
g365
sg356
Nsg357
Nsg358
Nsg360
I00
sg38
Nsbag325
(g347
g327
Ntp375
Rp376
(dp377
g351
S'iwgl'
p378
sg353
I01
sg354
g365
sg356
Nsg357
Nsg358
Nsg360
I00
sg38
Nsbag325
(g347
g327
Ntp379
Rp380
(dp381
g351
S'iwutil'
p382
sg353
I01
sg354
g365
sg356
Nsg357
Nsg358
Nsg360
I00
sg38
Nsbag325
(g347
g327
Ntp383
Rp384
(dp385
g351
S'jpeg'
p386
sg353
I01
sg354
g365
sg356
Nsg357
Nsg358
Nsg360
I00
sg38
Nsbag325
(g347
g327
Ntp387
Rp388
(dp389
g351
S'z'
p390
sg353
I01
sg354
g365
sg356
Nsg357
Nsg358
Nsg360
I00
sg38
Nsbag325
(g347
g327
Ntp391
Rp392
(dp393
g351
S'png'
p394
sg353
I01
sg354
g365
sg356
Nsg357
Nsg358
Nsg360
I00
sg38
Nsbag325
(g347
g327
Ntp395
Rp396
(dp397
g351
S'iwgeom'
p398
sg353
I01
sg354
g365
sg356
Nsg357
Nsg358
Nsg360
I00
sg38
Nsbag325
(g347
g327
Ntp399
Rp400
(dp401
g351
S'iwresmanager'
p402
sg353
I01
sg354
g365
sg356
Nsg357
Nsg358
Nsg360
I00
sg38
Nsbag325
(g347
g327
Ntp403
Rp404
(dp405
g351
S'iwgxfont'
p406
sg353
I01
sg354
g365
sg356
Nsg357
Nsg358
Nsg360
I00
sg38
Nsbag325
(g347
g327
Ntp407
Rp408
(dp409
g351
S'tiniconv'
p410
sg353
I01
sg354
g365
sg356
Nsg357
Nsg358
Nsg360
I00
sg38
Nsbag325
(g347
g327
Ntp411
Rp412
(dp413
g351
S's3e_cpp'
p414
sg353
I01
sg354
g355
sg356
I00
sg357
I00
sg358
Nsg360
I00
sg38
Nsbag325
(g347
g327
Ntp415
Rp416
(dp417
g351
S's3e'
p418
sg353
I01
sg354
(lp419
S'iwcrt.o'
p420
asg356
I00
sg357
I00
sg358
Nsg360
I00
sg38
Nsbag325
(g347
g327
Ntp421
Rp422
(dp423
g351
g53
sg353
I01
sg354
g355
sg356
I00
sg357
I00
sg358
S'x86'
p424
sg360
I01
sg38
Nsbag325
(g347
g327
Ntp425
Rp426
(dp427
g351
g53
sg353
I01
sg354
g355
sg356
I00
sg357
I00
sg358
S'!x86'
p428
sg360
I01
sg38
Nsbag325
(g347
g327
Ntp429
Rp430
(dp431
g351
S'stdc++'
p432
sg353
I00
sg354
g355
sg356
I00
sg357
I00
sg358
S'mips'
p433
sg360
I00
sg38
Nsbag325
(g347
g327
Ntp434
Rp435
(dp436
g351
S'c'
p437
sg353
I00
sg354
g355
sg356
I00
sg357
I00
sg358
S'mips'
p438
sg360
I00
sg38
Nsbag325
(g347
g327
Ntp439
Rp440
(dp441
g351
S'm'
p442
sg353
I00
sg354
g355
sg356
I00
sg357
I00
sg358
S'mips'
p443
sg360
I00
sg38
Nsbag325
(g347
g327
Ntp444
Rp445
(dp446
g351
S'gcc'
p447
sg353
I00
sg354
g355
sg356
I00
sg357
I00
sg358
S'mips'
p448
sg360
I00
sg38
Nsbag325
(g347
g327
Ntp449
Rp450
(dp451
g351
S'stdc++'
p452
sg353
I00
sg354
g355
sg356
I00
sg357
I00
sg358
S'gcc_x86_android'
p453
sg360
I00
sg38
Nsbag325
(g347
g327
Ntp454
Rp455
(dp456
g351
g437
sg353
I00
sg354
g355
sg356
I00
sg357
I00
sg358
S'gcc_x86_android'
p457
sg360
I00
sg38
Nsbag325
(g347
g327
Ntp458
Rp459
(dp460
g351
g442
sg353
I00
sg354
g355
sg356
I00
sg357
I00
sg358
S'gcc_x86_android'
p461
sg360
I00
sg38
Nsbag325
(g347
g327
Ntp462
Rp463
(dp464
g351
g447
sg353
I00
sg354
g355
sg356
I00
sg357
I00
sg358
S'gcc_x86_android'
p465
sg360
I00
sg38
NsbasS'library_paths'
p466
(lp467
g325
(cmkb_main
LibraryPath
p468
g327
Ntp469
Rp470
(dp471
S'expand_path'
p472
I01
sg351
S'c:/marmalade/7.5/modules/iw2d'
p473
sbag325
(g468
g327
Ntp474
Rp475
(dp476
g472
I00
sg351
S'c:/marmalade/7.5/modules/iwgx/atitools'
p477
sbag325
(g468
g327
Ntp478
Rp479
(dp480
g472
I01
sg351
S'c:/marmalade/7.5/modules/iwgx'
p481
sbag325
(g468
g327
Ntp482
Rp483
(dp484
g472
I01
sg351
S'c:/marmalade/7.5/modules/iwgl'
p485
sbag325
(g468
g327
Ntp486
Rp487
(dp488
g472
I01
sg351
S'c:/marmalade/7.5/modules/iwutil'
p489
sbag325
(g468
g327
Ntp490
Rp491
(dp492
g472
I01
sg351
S'c:/marmalade/7.5/modules/third_party/libjpeg'
p493
sbag325
(g468
g327
Ntp494
Rp495
(dp496
g472
I01
sg351
S'c:/marmalade/7.5/modules/third_party/zlib'
p497
sbag325
(g468
g327
Ntp498
Rp499
(dp500
g472
I01
sg351
S'c:/marmalade/7.5/modules/third_party/libpng'
p501
sbag325
(g468
g327
Ntp502
Rp503
(dp504
g472
I01
sg351
S'c:/marmalade/7.5/modules/iwgeom'
p505
sbag325
(g468
g327
Ntp506
Rp507
(dp508
g472
I01
sg351
S'c:/marmalade/7.5/modules/iwresmanager'
p509
sbag325
(g468
g327
Ntp510
Rp511
(dp512
g472
I01
sg351
S'c:/marmalade/7.5/modules/iwgxfont'
p513
sbag325
(g468
g327
Ntp514
Rp515
(dp516
g472
I01
sg351
S'c:/marmalade/7.5/modules/third_party/tiniconv'
p517
sbag325
(g468
g327
Ntp518
Rp519
(dp520
g472
I01
sg351
S'c:/marmalade/7.5/s3e'
p521
sbasS'macros'
p522
(dp523
S'IW_USE_CALLSTACK'
p524
NsS'IW_MKF_IWGEOM'
p525
NsS'I3D_PLATFORM_S3E'
p526
NsS'IW_TRACE_CHANNEL_PVRTEXTOOL_VERBOSE'
p527
S'2'
p528
sS'IW_MKF_LIBJPEG'
p529
NsS'I3D_OS_S3E'
p530
NsS'IW_MKF_PVRTEXTOOL'
p531
NsS'IW_MKF_TINICONV'
p532
NsS'IW_APP_VERSION'
p533
S'"1.0"'
p534
sS'__S3E__'
p535
NsS'IW_MKF_IWRESMANAGER'
p536
NsS'IW_MKF_IWUTIL'
p537
NsS'IW_PLATFORM_S3E'
p538
NsS'IW_ASSERTION_CHANNEL_2D'
p539
S'1'
p540
sS'IW_APP_NAME'
p541
S'"Stage4"'
p542
sS'IW_MKF_S3E_DEFAULT'
p543
NsS'IW_MKF_IWGXFONT'
p544
NsS'IW_MKF_IWTWEEN'
p545
NsS'IW_MKF_ZLIB'
p546
NsS'IW_MKF_IWGX'
p547
NsS'IW_MKF_IW2DSCENEGRAPH'
p548
NsS'IW_MKF_SOUNDENGINE'
p549
NsS'IW_USE_ASSERTIONS'
p550
NsS'_CRT_SECURE_NO_DEPRECATE'
p551
NsS'IW_MKF_IWGL'
p552
NsS'IW_MKF_LIBPNG'
p553
NsS'IW_TRACE_CHANNEL_IW_2DSCENEGRAPH'
p554
g540
sS'IW_DEBUG'
p555
NsS'IW_USE_TRACING'
p556
NsS'IW_ASSERTION_CHANNEL_IW_2DSCENEGRAPH'
p557
g540
sS'IW_TRACE_CHANNEL_PVRTEXTOOL'
p558
g540
sS'IW_SDK'
p559
NsS'S3E_INCLUDE_LEGACY'
p560
NsS'IW_MKF_IW2DSCENEGRAPHCORE'
p561
NsS'IW_MKF_IW2D'
p562
NsS'IW_ASSERTION_CHANNEL_PVRTEXTOOL'
p563
g540
ssS'done_warnings'
p564
(dp565
sS'subprojects'
p566
(dp567
g189
S'iwgx'
p568
sg198
S'iwgxfont'
p569
sg187
S's3e-default.mkf'
p570
sg201
S'../iw2dscenegraphcore'
p571
sg194
S'zlib'
p572
sg196
S'iwresmanager'
p573
sg199
S'tiniconv'
p574
sg192
S'libjpeg'
p575
sg188
S'iw2d'
p576
sg191
S'iwutil'
p577
sg202
S'iwtween'
p578
sg193
S'libpng'
p579
sg200
S'iw2dscenegraph'
p580
sg203
S'modules/SoundEngine'
p581
sg190
S'iwgl'
p582
sg195
S'iwgeom'
p583
sg197
S'PVRTexTool'
p584
ssS'deployments'
p585
(dp586
S'Default'
p587
g325
(cdeployment
Deployment
p588
g327
Ntp589
Rp590
(dp591
S'got_version'
p592
I0
sS'assets'
p593
g587
sS'mkb'
p594
g329
sS'target'
p595
Nsg358
(lp596
sS'options'
p597
(dp598
S'iphone-link-lib'
p599
(lp600
sS'game-icf'
p601
NsS'android-tm'
p602
NsS'winmobile-icon32'
p603
NsS'ws8-logo-image150x150'
p604
NsS'wp81-logo-image150x150'
p605
NsS'ws81-product-version'
p606
NsS'osx-ext-dll'
p607
(lp608
S'c:/marmalade/7.5/extensions/pvrtextool/lib/osx/libPVRTexTool.dylib'
p609
asS'iphone-provisioning-profile'
p610
NsS'win32-icon'
p611
NsS'ws8-splash-screen-image620x300'
p612
NsS'wp81-extra-pri'
p613
(lp614
sS'ws8-ext-capabilities'
p615
(lp616
sS'android-icon-hdpi'
p617
NsS'iphone-ipad-only'
p618
NsS'iphone-splash-full-orient'
p619
NsS'wp8-tile-fliptemplate-supports-large'
p620
NsS'iphone-show-status-bar'
p621
NsS'roku-requires-mkv'
p622
NsS'long-caption'
p623
NsS'android-pkgname'
p624
NsS'wp81-publisher-display-name'
p625
NsS'blackberry-permissions-read-device-identifying-information'
p626
NsS'ws81-certificate-end-date'
p627
NsS'psp-dlgcontentid'
p628
NsS'iphone-minimum-ios-version'
p629
NsS'target-folder'
p630
NsS'tizen-dist1-CA-path'
p631
NsS'symbian-icon2-format'
p632
NsS'tizen-author-key'
p633
NsS'firefoxos-icon-128X128'
p634
NsS'iphone-region'
p635
NsS'uiq3-icon3-mask'
p636
NsS'brew-encoding'
p637
NsS'android-x86'
p638
NsS'nds-initialcode'
p639
NsS'iphone-persistent-wifi'
p640
NsS'psp-snd0'
p641
NsS'roku-icon-focus-hd'
p642
NsS'osx-appid'
p643
NsS'winmobile-install-folder'
p644
NsS'android-external-res'
p645
(lp646
sS'ws8-product-version'
p647
NsS'brew-priviledges'
p648
NsS'iphone-info-plist-override'
p649
NsS'iphone-icon-ipad'
p650
NsS'iphone-skip-icon-generation'
p651
NsS'roku-hidden'
p652
NsS'psp-titlename'
p653
NsS'wp81-product-version'
p654
NsS'symbian-icon1-mask'
p655
NsS'psp-parentallevel'
p656
NsS'iphone-launch-storyboard'
p657
NsS'splashscreen-use-all'
p658
NsS'wp8-author'
p659
NsS'symbian-disable-ecompxl'
p660
NsS'splashscreen-auto-onblack'
p661
NsS'iphone-icon-dir'
p662
NsS'iphone-icon-extra'
p663
NsS'win32-ext-dll'
p664
(lp665
S'c:/marmalade/7.5/extensions/pvrtextool/lib/win32/PVRTexTool.dll'
p666
asS'iphone-development-key'
p667
NsS'winmobile-icon48'
p668
NsS'android-unsigned'
p669
NsS'osx-appstore-category'
p670
NsS'version-revision'
p671
NsS'roku-icon-focus-sd'
p672
NsS'android-keystore'
p673
NsS'winmobile-png90'
p674
NsS'iphone-icon-ipad-high-res'
p675
NsS'iphone-disable-ipad'
p676
NsS'ws81-splash-screen-background'
p677
NsS'wp8-ext-capabilities'
p678
(lp679
sS'brew-icon-large'
p680
NsS'symbian-icon1-mask-black'
p681
NsS'ws8-extra-res'
p682
(lp683
sS'iphone-bundle-localisations'
p684
NsS'winmobile-png60'
p685
NsS'blackberry-permissions-access-shared'
p686
NsS'blackberry-author'
p687
NsS'android-icon-xxxhdpi'
p688
NsS'olddeploytoolstyle'
p689
NsS'android_icon_gallery'
p690
NsS'wp81-splash-screen-background'
p691
NsS'winmobile-cab-compress'
p692
NsS'iphone-info-plist'
p693
NsS'ws81-ext-managed-dll'
p694
(lp695
sS'playbook-cskpass'
p696
NsS'ws8-distribution-pfx-password'
p697
NsS'symbian-key'
p698
NsS'app-icf'
p699
NsS'blackberry-storepass'
p700
NsS'wp8-tile-fliptemplate-back-title'
p701
NsS'brew-compress-loader'
p702
NsS'win32-pref-windowposy'
p703
NsS'win32-pref-windowposx'
p704
NsS'roku-requires-audiometadata'
p705
NsS'wp8-exclude-low-mem'
p706
NsS'iphone-icon-ipad-search-high-res'
p707
NsS'iphone-link-libdir'
p708
(lp709
sS'wp81-ext-capabilities'
p710
(lp711
sS'blackberry-permissions-read-geolocation'
p712
NsS'ws81-ext-device-capabilities'
p713
(lp714
sS'tizen-signed'
p715
NsS'android-extra-application-manifest'
p716
(lp717
sS'ws8-ext-native-dll'
p718
(lp719
sS'symbian-icon2-mask'
p720
NsS'iphone-launch-extra'
p721
NsS'webos-memory'
p722
NsS'android-keypass'
p723
NsS'name'
p724
NsS'uiq3-icon2-format'
p725
NsS'roku-splash-screen-sd'
p726
NsS'auto-derbh'
p727
NsS'roku-icon-side-sd'
p728
NsS'android-external-assets'
p729
(lp730
sS'nds-publicsavedatasize'
p731
NsS'splashscreen'
p732
NsS'brew-mif'
p733
NsS'iphone-icon-settings-high-res'
p734
NsS'android-manifest'
p735
NsS'ws81-splash-screen-image620x300'
p736
NsS'wp81-product-name'
p737
NsS's3e-compression'
p738
NsS'tizen-author-password'
p739
NsS'wp8-tile-fliptemplate-back-content'
p740
NsS'blackberry-extra-descriptor'
p741
(lp742
sS'symbian-icon1'
p743
NsS'symbian-icon2'
p744
NsS'nds-makercode'
p745
NsS'android-extra-styles-file'
p746
NsS'wp81-publisher-id'
p747
NsS'nds-bannertitle-jp'
p748
NsS'wp81-logo-image44x44'
p749
NsS'osx-sign-for-store'
p750
NsS'symbian7-uid'
p751
NsS'wp8-tile-fliptemplate-large-back-content'
p752
NsS'wp81-phone-publisher-id'
p753
NsS'nds-bannertitle-cn'
p754
NsS'iphone-distribution-key'
p755
NsS'android-icon-gallery'
p756
NsS'blackberry-keystore'
p757
NsS'iphone-nosign'
p758
NsS'caption'
p759
NsS'android-extra-manifest'
p760
(lp761
sS'wp81-ext-sdk-ref'
p762
(lp763
sS'android-icon-xxhdpi'
p764
NsS'version-minor'
p765
NsS'iphone-skip-launch-generation'
p766
NsS'iphone-link-libdirs'
p767
(lp768
sS'iphone-icon-large'
p769
NsS'symbian-keypwd'
p770
NsS'symbian8-uid'
p771
NsS'symbian-cert-key'
p772
NsS'winmobile-ampd-part-number'
p773
NsS'arch'
p774
NsS'nds-romheadertemplate'
p775
NsS'webos-icon'
p776
NsS'wp81-ext-device-capabilities'
p777
(lp778
sS'psp-dlgprotectdocument'
p779
NsS'ws8-splash-screen-background'
p780
NsS'android-icon-mdpi'
p781
NsS'nds-icon'
p782
NsS'ws8-custom-manifest-fill'
p783
NsS'iphone-development-cert'
p784
NsS'and'
p785
NsS'symbian-icon2-mask-black'
p786
NsS'blackberry-phone-icon'
p787
NsS'iphone-enable-4inch-retina'
p788
NsS'ws8-custom-manifest'
p789
NsS'version-major'
p790
NsS'wp8-genre-isgame'
p791
NsS'uiq3-uid'
p792
NsS'iphone-splash-retina-generate'
p793
NsS'tizen-hw-acceleration'
p794
NsS'iphone_bundle_localisations'
p795
NsS'tizen-dist1-key'
p796
NsS'wp81-custom-manifest-fill'
p797
NsS'wp8-custom-manifest'
p798
NsS'nds-bannertitle-ge'
p799
NsS'iphone-sign-for-distribution'
p800
NsS'wp8-tile-fliptemplate-medium-back-image'
p801
NsS'wp8-publisher-id'
p802
NsS'icon'
p803
NsS'wp8-exclude-wxga'
p804
NsS'wp81-identity-name'
p805
NsS'uiq3-icon2-mask'
p806
NsS'iphone-splashscreen-portrait'
p807
NsS'iphone-icon-high-res'
p808
NsS'ws81-distribution-pfx-password'
p809
NsS'playbook-author'
p810
NsS'android-icon-xhdpi'
p811
NsS'linux-ext-lib'
p812
(lp813
sS'blackberry-permissions-access-internet'
p814
NsS'wp8-exclude-720p'
p815
NsS'lgtv-use-drm'
p816
NsS'symbian-platsecflags'
p817
NsS'ws8-description'
p818
NsS'blackberry-playbook-icon'
p819
NsS'copyright'
p820
NsS'win32-gles-directory'
p821
NsS'version'
p822
NsS'iphone-uiviewcontroller-based-status-bar'
p823
NsS'ws81-logo-image150x150'
p824
NsS'osx-signing-identity-app'
p825
NsS'tizen-project-url'
p826
NsS'symbian-icon-svg'
p827
NsS'android-aliasname'
p828
NsS'psp-dlgmanual'
p829
NsS'brew-uid'
p830
NsS'symbian-locationsupport'
p831
NsS'wp81-logo-image50x50'
p832
NsS'ws8-ext-managed-dll'
p833
(lp834
sS'nds-bannertitle-it'
p835
NsS'ws81-custom-manifest-fill'
p836
NsS'ws8-ext-sdk-manifest-part'
p837
(lp838
sS'uiq3-icon1-mask'
p839
NsS'winmobile-icon16'
p840
NsS'ws8-product-name'
p841
NsS'blackberry-cskpass'
p842
NsS'winmobile-start-menu-folder'
p843
NsS'brew-clsid'
p844
NsS'roku-requires-bluetooth'
p845
NsS'ws8-ext-device-capabilities'
p846
(lp847
sS'blackberry-permissions-use-camera'
p848
NsS'ws81-extra-pri'
p849
(lp850
sS'iphone-prerendered-icon'
p851
NsS'iphone-appid'
p852
NsS'ws8-identity-name'
p853
NsS'tizen-dist2-CA-path'
p854
NsS'android-external-jars'
p855
(lp856
sS'winmobile-icon64'
p857
NsS'blackberry-permissions-post-notification'
p858
NsS'winmobile-setup-dll'
p859
NsS'firefoxos-manifest'
p860
NsS'win8-winrt-extra-res'
p861
(lp862
sS'wp81-ext-sdk-manifest-part'
p863
(lp864
sS'symbian9-uid'
p865
NsS'iphone-icon-ipad-ios7'
p866
NsS'winmobile-trace-file'
p867
NsS'roku-splash-color'
p868
NsS'psp-appversion'
p869
NsS'ws8-publisher-id'
p870
NsS'android-supports-gl-texture'
p871
(lp872
sS'winmobile-png45'
p873
NsS'wp81-extra-res'
p874
(lp875
sS'android-storepass'
p876
NsS'osx-signing-identity-inst'
p877
NsS'android-custom-activity'
p878
NsS'psp-discversion'
p879
NsS'wp81-ext-managed-dll'
p880
(lp881
sS'psp-copyright'
p882
NsS'embed-icf'
p883
NsS'tizen-manifest'
p884
NsS'osx-icon'
p885
NsS'webos-appinfo'
p886
NsS'psp-dlghealthwarning'
p887
NsS'webos-appid'
p888
NsS'roku-icon-side-hd'
p889
NsS'iphone-icon-ipad-search-high-res-ios7'
p890
NsS'iphone-extra-plist'
p891
(lp892
sS'ws81-ext-sdk-manifest-part'
p893
(lp894
sS'loader_name_prefix'
p895
NsS'iphone-launch-dir'
p896
NsS'nds-titlename'
p897
NsS'ws81-logo-image50x50'
p898
NsS'wp81-custom-manifest'
p899
NsS'osx-entitlements-plist'
p900
NsS'psp-dlgicon0'
p901
NsS'winmobile-nouninstall'
p902
NsS'psp-discid'
p903
NsS'tizen-dist2-password'
p904
NsS'ws8-ext-sdk-ref'
p905
(lp906
sS'iphone-extra-string'
p907
(lp908
sS'version-string'
p909
NsS'iphone-icon-high-res-ios7'
p910
NsS'blackberry-permissions-record-audio'
p911
NsS'ws8-certificate-end-date'
p912
NsS'tizen-so'
p913
(lp914
sS'wp8-tile-fliptemplate-small-image'
p915
NsS'playbook-authorid'
p916
NsS'iphone-signing-identity'
p917
NsS'roku-persist-quota'
p918
NsS'nds-bannertitle-fr'
p919
NsS'ws8-distribution-pfx'
p920
NsS'ws8-publisher-display-name'
p921
NsS'brew-icon-small'
p922
NsS'psp-dlgpic2'
p923
NsS'psp-dlgpic0'
p924
NsS'psp-pic0'
p925
NsS'psp-pic1'
p926
NsS'win32-pref-windowtitle'
p927
NsS'psp-icon0'
p928
NsS'psp-icon1'
p929
NsS'ws81-identity-name'
p930
NsS'winmobile-icon'
p931
NsS'iphone-no-splash'
p932
NsS'iphone-splash'
p933
NsS'iphone-app-fonts'
p934
NsS'wp8-ext-native-dll'
p935
(lp936
sS'wp81-splash-screen-image480x800'
p937
NsS'ws81-distribution-cer'
p938
NsS'iphone-backgroundmode-audio'
p939
NsS'uiq3-icon2'
p940
NsS'uiq3-icon3'
p941
NsS'uiq3-icon1'
p942
NsS'uiq3-icon1-format'
p943
NsS'ws8-logo-image50x50'
p944
NsS'iphone-icon-ipad-search'
p945
NsS'symbian-run-on-install'
p946
NsS'wp81-description'
p947
NsS'ws81-publisher-display-name'
p948
NsS'firefoxos-xulrunner'
p949
NsS'symbian-soundrecordsupport'
p950
NsS'nds-bannertitle-sp'
p951
NsS'psp-producer'
p952
NsS'iphone-apple-wwdr-cert'
p953
NsS'android-icon-nonstandard'
p954
NsS'win32-pref-processtitle'
p955
NsS'nds-bannertitle-hn'
p956
NsS'tizen-dist2-key'
p957
NsS'brew-depends'
p958
NsS'ws81-custom-manifest'
p959
NsS'iphone-allow-launch-rotation'
p960
NsS'iphone-icon-ipad-search-ios7'
p961
NsS'brew-icon-medium'
p962
NsS'iphone-bundle-url-name'
p963
NsS'wp8-tile-fliptemplate-large-front-image'
p964
NsS'tizen-dist2-CA-root-path'
p965
NsS'ws81-description'
p966
NsS'uiq3-icon3-format'
p967
NsS'ws81-logo-image30x30'
p968
NsS'win8-phone-extra-res'
p969
(lp970
sS'iphone-signing-host'
p971
NsS'tizen-icon'
p972
NsS'osx-info-plist'
p973
NsS'symbian-icon1-format'
p974
NsS'ws81-distribution-pfx'
p975
NsS'blackberry-authorid'
p976
NsS'ws81-publisher-id'
p977
NsS'win8-store-extra-res'
p978
(lp979
sS'wp8-description'
p980
NsS'iphone-link-opts'
p981
(lp982
sS'ws81-ext-sdk-ref'
p983
(lp984
sS'roku-splash-min-time'
p985
NsS'wp8-tile-fliptemplate-medium-front-image'
p986
NsS'iphone-disable-launch-images'
p987
NsS'provider'
p988
NsS'playbook-keystore'
p989
NsS'tizen-appid'
p990
NsS'wp8-extra-res'
p991
(lp992
sS'symbian-osexecsupport'
p993
NsS'android-install-location'
p994
NsS'nds-privatesavedatasize'
p995
NsS'iphone-disable-testflight'
p996
NsS'playbook-storepass'
p997
NsS'android-icon-ldpi'
p998
NsS'manufacturer'
p999
NsS'itunes-artwork'
p1000
NsS'iphone-extra-sections'
p1001
NsS'ws81-product-name'
p1002
NsS'ws81-ext-native-dll'
p1003
(lp1004
sS'ws8-extra-pri'
p1005
(lp1006
sS'wp8-product-id'
p1007
NsS'ws8-logo-image30x30'
p1008
NsS'wp8-ext-managed-dll'
p1009
(lp1010
sS'iphone-splashscreen-landscape'
p1011
NsS'symbian-maxheapsize'
p1012
NsS'android-extra-packages'
p1013
(lp1014
sS'priv-sign-key'
p1015
NsS'networking'
p1016
NsS'android-icon'
p1017
NsS'iphone-icon-settings'
p1018
NsS'wp81-phone-product-id'
p1019
NsS'firefoxos-icon-60X60'
p1020
NsS'iphone-distribution-cert'
p1021
NsS'android_extra_strings'
p1022
NsS'nds-bannertitle-en'
p1023
NsS'wp8-tile-fliptemplate-title'
p1024
NsS'android-so'
p1025
(lp1026
sS'wp8-higher-mem'
p1027
NsS'wp8-ext-sdk-ref'
p1028
(lp1029
sS'wp8-fast-resume-mode'
p1030
NsS'roku-splash-screen-hd'
p1031
NsS'iphone-bundle-url-schemes'
p1032
NsS'roku-screensaver-private'
p1033
NsS'osx-extra-res'
p1034
(lp1035
sS'ws81-extra-res'
p1036
(lp1037
sS'playbook-icon'
p1038
NsS'uid'
p1039
NsS'pkguid-as-uid'
p1040
NsS'wp81-ext-native-dll'
p1041
(lp1042
sS'tizen-dist1-password'
p1043
NsS'roku-screensaver-title'
p1044
NsS'osx-minimum-osx-version'
p1045
NsS'symbian-cert'
p1046
NsS'iphone-icon'
p1047
NsS'ws81-ext-capabilities'
p1048
(lp1049
sS'ws8-distribution-cer'
p1050
NsS'playbook-access-shared'
p1051
NsS'iphone-icon-ipad-high-res-ios7'
p1052
NsS'iphone-link-libs'
p1053
(lp1054
sS'wp8-exclude-wvga'
p1055
NsS'assets'
p1056
NsS'wp8-tile-fliptemplate-large-back-image'
p1057
NsS'wp8-custom-manifest-fill'
p1058
NsS'pub-sign-key'
p1059
NsS'android-extra-strings'
p1060
NsS'tizen-author-CA-path'
p1061
Nssg351
g587
sbssS'platform'
p1062
S'S3E'
p1063
sg68
S'1.0'
p1064
sS'arcade_platform'
p1065
g4
sS'extensions'
p1066
(dp1067
sS'source_groups_tree'
p1068
(dp1069
S'(libpng)'
p1070
(dp1071
S'h'
p1072
(dp1073
S'c:/marmalade/7.5/modules/third_party/libpng/h/png.h'
p1074
(lp1075
I1
a(dp1076
asS'c:/marmalade/7.5/modules/third_party/libpng/h/pngconf.h'
p1077
(lp1078
I1
ag1076
assS'c:/marmalade/7.5/modules/third_party/libpng/libpng.mkf'
p1079
(lp1080
I1
a(dp1081
assS'(libjpeg)'
p1082
(dp1083
S'c:/marmalade/7.5/modules/third_party/libjpeg/libjpeg.mkf'
p1084
(lp1085
I1
a(dp1086
asg1072
(dp1087
S'c:/marmalade/7.5/modules/third_party/libjpeg/h/jerror.h'
p1088
(lp1089
I1
a(dp1090
asS'c:/marmalade/7.5/modules/third_party/libjpeg/h/jdhuff.h'
p1091
(lp1092
I1
ag1090
asS'c:/marmalade/7.5/modules/third_party/libjpeg/h/cderror.h'
p1093
(lp1094
I1
ag1090
asS'c:/marmalade/7.5/modules/third_party/libjpeg/h/transupp.h'
p1095
(lp1096
I1
ag1090
asS'c:/marmalade/7.5/modules/third_party/libjpeg/h/jinclude.h'
p1097
(lp1098
I1
ag1090
asS'c:/marmalade/7.5/modules/third_party/libjpeg/h/jmorecfg.h'
p1099
(lp1100
I1
ag1090
asS'c:/marmalade/7.5/modules/third_party/libjpeg/h/jdct.h'
p1101
(lp1102
I1
ag1090
asS'c:/marmalade/7.5/modules/third_party/libjpeg/h/jmemsys.h'
p1103
(lp1104
I1
ag1090
asS'c:/marmalade/7.5/modules/third_party/libjpeg/h/jpegint.h'
p1105
(lp1106
I1
ag1090
asS'c:/marmalade/7.5/modules/third_party/libjpeg/h/jchuff.h'
p1107
(lp1108
I1
ag1090
asS'c:/marmalade/7.5/modules/third_party/libjpeg/h/cdjpeg.h'
p1109
(lp1110
I1
ag1090
asS'c:/marmalade/7.5/modules/third_party/libjpeg/h/jversion.h'
p1111
(lp1112
I1
ag1090
asS'c:/marmalade/7.5/modules/third_party/libjpeg/h/jconfig.h'
p1113
(lp1114
I1
ag1090
asS'c:/marmalade/7.5/modules/third_party/libjpeg/h/jpeglib.h'
p1115
(lp1116
I1
ag1090
asssS'(tiniconv)'
p1117
(dp1118
S'c:/marmalade/7.5/modules/third_party/tiniconv/tiniconv.mkf'
p1119
(lp1120
I1
a(dp1121
asS'c:/marmalade/7.5/modules/third_party/tiniconv/source/tiniconv_int.h'
p1122
(lp1123
I1
a(dp1124
asS'c:/marmalade/7.5/modules/third_party/tiniconv/source/tiniconv.h'
p1125
(lp1126
I1
ag1124
assS'(SoundEngine)'
p1127
(dp1128
S'c:/marmalade/7.5/examples/gametutorial/cpp/modules/soundengine/source/IwSoundGroup.cpp'
p1129
(lp1130
I1
a(dp1131
asS'c:/marmalade/7.5/examples/gametutorial/cpp/modules/soundengine/h/IwSoundADPCM.h'
p1132
(lp1133
I1
ag1131
asS'c:/marmalade/7.5/examples/gametutorial/cpp/modules/soundengine/source/IwResHandlerWAV.cpp'
p1134
(lp1135
I1
ag1131
asS'c:/marmalade/7.5/examples/gametutorial/cpp/modules/soundengine/h/IwResHandlerWAV.h'
p1136
(lp1137
I1
ag1131
asS'Docs'
p1138
(dp1139
S'c:/marmalade/7.5/examples/gametutorial/cpp/modules/soundengine/docs/iwsound.config.txt'
p1140
(lp1141
I1
ag1131
assS'c:/marmalade/7.5/examples/gametutorial/cpp/modules/soundengine/h/IwSoundInst.h'
p1142
(lp1143
I1
ag1131
asS'c:/marmalade/7.5/examples/gametutorial/cpp/modules/soundengine/source/IwSoundManager.cpp'
p1144
(lp1145
I1
ag1131
asS'c:/marmalade/7.5/examples/gametutorial/cpp/modules/soundengine/h/IwSoundSpec.h'
p1146
(lp1147
I1
ag1131
asS'c:/marmalade/7.5/examples/gametutorial/cpp/modules/soundengine/source/IwSoundParams.cpp'
p1148
(lp1149
I1
ag1131
asS'c:/marmalade/7.5/examples/gametutorial/cpp/modules/soundengine/h/IwSoundManager.h'
p1150
(lp1151
I1
ag1131
asS'c:/marmalade/7.5/examples/gametutorial/cpp/modules/soundengine/source/IwSoundPCM.cpp'
p1152
(lp1153
I1
ag1131
asS'c:/marmalade/7.5/examples/gametutorial/cpp/modules/soundengine/source/IwSoundWAV.cpp'
p1154
(lp1155
I1
ag1131
asS'c:/marmalade/7.5/examples/gametutorial/cpp/modules/soundengine/source/IwSoundInst.cpp'
p1156
(lp1157
I1
ag1131
asS'c:/marmalade/7.5/examples/gametutorial/cpp/modules/soundengine/h/IwSoundWAV.h'
p1158
(lp1159
I1
ag1131
asS'c:/marmalade/7.5/examples/gametutorial/cpp/modules/soundengine/source/IwSoundSpec.cpp'
p1160
(lp1161
I1
ag1131
asS'c:/marmalade/7.5/examples/gametutorial/cpp/modules/soundengine/h/IwSoundParams.h'
p1162
(lp1163
I1
ag1131
asS'c:/marmalade/7.5/examples/gametutorial/cpp/modules/soundengine/source/IwSoundADPCM.cpp'
p1164
(lp1165
I1
ag1131
asS'c:/marmalade/7.5/examples/gametutorial/cpp/modules/soundengine/h/IwSound.h'
p1166
(lp1167
I1
ag1131
asS'c:/marmalade/7.5/examples/gametutorial/cpp/modules/soundengine/source/IwSoundData.cpp'
p1168
(lp1169
I1
ag1131
asS'c:/marmalade/7.5/examples/gametutorial/cpp/modules/soundengine/h/IwSoundData.h'
p1170
(lp1171
I1
ag1131
asS'c:/marmalade/7.5/examples/gametutorial/cpp/modules/soundengine/h/IwSoundPCM.h'
p1172
(lp1173
I1
ag1131
asS'c:/marmalade/7.5/examples/gametutorial/cpp/modules/soundengine/soundengine.mkf'
p1174
(lp1175
I1
a(dp1176
asS'c:/marmalade/7.5/examples/gametutorial/cpp/modules/soundengine/h/IwSoundGroup.h'
p1177
(lp1178
I1
ag1131
assS'source'
p1179
(dp1180
S'c:/Marmalade/7.5/examples/GameTutorial/CPP/Stage4/source/scene.cpp'
p1181
(lp1182
I1
a(dp1183
asS'c:/Marmalade/7.5/examples/GameTutorial/CPP/Stage4/source/pauseMenu.cpp'
p1184
(lp1185
I1
ag1183
asS'c:/Marmalade/7.5/examples/GameTutorial/CPP/Stage4/source/timer.h'
p1186
(lp1187
I1
ag1183
asS'c:/Marmalade/7.5/examples/GameTutorial/CPP/Stage4/source/input.h'
p1188
(lp1189
I1
ag1183
asS'c:/Marmalade/7.5/examples/GameTutorial/CPP/Stage4/source/mainMenu.cpp'
p1190
(lp1191
I1
ag1183
asS'c:/Marmalade/7.5/examples/GameTutorial/CPP/Stage4/source/main.cpp'
p1192
(lp1193
I1
ag1183
asS'c:/Marmalade/7.5/examples/GameTutorial/CPP/Stage4/source/resources.h'
p1194
(lp1195
I1
ag1183
asS'c:/Marmalade/7.5/examples/GameTutorial/CPP/Stage4/source/main.h'
p1196
(lp1197
I1
ag1183
asS'c:/Marmalade/7.5/examples/GameTutorial/CPP/Stage4/source/pauseMenu.h'
p1198
(lp1199
I1
ag1183
asS'c:/Marmalade/7.5/examples/GameTutorial/CPP/Stage4/source/game.h'
p1200
(lp1201
I1
ag1183
asS'c:/Marmalade/7.5/examples/GameTutorial/CPP/Stage4/source/resources.cpp'
p1202
(lp1203
I1
ag1183
asS'c:/Marmalade/7.5/examples/GameTutorial/CPP/Stage4/source/audio.cpp'
p1204
(lp1205
I1
ag1183
asS'c:/Marmalade/7.5/examples/GameTutorial/CPP/Stage4/source/input.cpp'
p1206
(lp1207
I1
ag1183
asS'c:/Marmalade/7.5/examples/GameTutorial/CPP/Stage4/source/audio.h'
p1208
(lp1209
I1
ag1183
asS'c:/Marmalade/7.5/examples/GameTutorial/CPP/Stage4/source/timer.cpp'
p1210
(lp1211
I1
ag1183
asS'c:/Marmalade/7.5/examples/GameTutorial/CPP/Stage4/source/scene.h'
p1212
(lp1213
I1
ag1183
asS'c:/Marmalade/7.5/examples/GameTutorial/CPP/Stage4/source/game.cpp'
p1214
(lp1215
I1
ag1183
asS'c:/Marmalade/7.5/examples/GameTutorial/CPP/Stage4/source/mainMenu.h'
p1216
(lp1217
I1
ag1183
assS'Extensions'
p1218
(dp1219
S'PVRTexTool'
p1220
(dp1221
S'interface'
p1222
(dp1223
S'c:/marmalade/7.5/extensions/pvrtextool/interface/PVRTexTool.defines.txt'
p1224
(lp1225
I1
a(dp1226
asS'c:/marmalade/7.5/extensions/pvrtextool/interface/PVRTexTool_interface.cpp'
p1227
(lp1228
I1
ag1226
assS'c:/marmalade/7.5/extensions/pvrtextool/h/PVRTexTool.h'
p1229
(lp1230
I1
ag1226
asS'c:/marmalade/7.5/extensions/pvrtextool/pvrtextool.mkf'
p1231
(lp1232
I1
a(dp1233
asssS"'Marmalade Studio'"
p1234
(dp1235
S'iw2dscenegraph'
p1236
(dp1237
S'c:/marmalade/7.5/modules/iw2dscenegraph/source/Iw2DSceneGraph.cpp'
p1238
(lp1239
I1
a(dp1240
asS'c:/marmalade/7.5/modules/iw2dscenegraph/docs/iw2dscenegraph.defines.txt'
p1241
(lp1242
I1
ag1240
asS'c:/marmalade/7.5/modules/iw2dscenegraph/h/Iw2DSceneGraph.h'
p1243
(lp1244
I1
ag1240
asS'c:/marmalade/7.5/modules/iw2dscenegraph/iw2dscenegraph.mkf'
p1245
(lp1246
I1
a(dp1247
assS'iwgl'
p1248
(dp1249
S'c:/marmalade/7.5/modules/iwgl/iwgl.mkf'
p1250
(lp1251
I1
a(dp1252
asS'c:/marmalade/7.5/modules/iwgl/h/IwGL.h'
p1253
(lp1254
I1
a(dp1255
asS'c:/marmalade/7.5/modules/iwgl/docs/iwgl.config.txt'
p1256
(lp1257
I1
ag1255
asS'c:/marmalade/7.5/modules/iwgl/h/IwGLExt.h'
p1258
(lp1259
I1
ag1255
assS'iw2d'
p1260
(dp1261
S'c:/marmalade/7.5/modules/iw2d/docs/iw2d_public.defines.txt'
p1262
(lp1263
I1
a(dp1264
asS'c:/marmalade/7.5/modules/iw2d/docs/iw2d.config.txt'
p1265
(lp1266
I1
ag1264
asS'c:/marmalade/7.5/modules/iw2d/h/Iw2D.h'
p1267
(lp1268
I1
ag1264
asS'c:/marmalade/7.5/modules/iw2d/iw2d.mkf'
p1269
(lp1270
I1
a(dp1271
assS'iwgxfont'
p1272
(dp1273
S'c:/marmalade/7.5/modules/iwgxfont/h/IwGxFontGlyph.h'
p1274
(lp1275
I1
a(dp1276
asS'c:/marmalade/7.5/modules/iwgxfont/h/IwGxFontTypes.h'
p1277
(lp1278
I1
ag1276
asS'c:/marmalade/7.5/modules/iwgxfont/docs/iwgxfont.config.txt'
p1279
(lp1280
I1
ag1276
asS'c:/marmalade/7.5/modules/iwgxfont/h/IwGxFontState.h'
p1281
(lp1282
I1
ag1276
asS'c:/marmalade/7.5/modules/iwgxfont/h/IwGxFontContainer.h'
p1283
(lp1284
I1
ag1276
asS'c:/marmalade/7.5/modules/iwgxfont/iwgxfont.mkf'
p1285
(lp1286
I1
a(dp1287
asS'c:/marmalade/7.5/modules/iwgxfont/h/IwGxFontPreparedData.h'
p1288
(lp1289
I1
ag1276
asS'c:/marmalade/7.5/modules/iwgxfont/h/IwGxFont.h'
p1290
(lp1291
I1
ag1276
asS'c:/marmalade/7.5/modules/iwgxfont/docs/iwgxfont_public.defines.txt'
p1292
(lp1293
I1
ag1276
assS'iwgeom'
p1294
(dp1295
S'c:/marmalade/7.5/modules/iwgeom/h/IwGeomSVec2.h'
p1296
(lp1297
I1
a(dp1298
asS'c:/marmalade/7.5/modules/iwgeom/h/IwGeomSphere.h'
p1299
(lp1300
I1
ag1298
asS'c:/marmalade/7.5/modules/iwgeom/h/IwGeomSVec3.h'
p1301
(lp1302
I1
ag1298
asS'c:/marmalade/7.5/modules/iwgeom/iwgeom.mkf'
p1303
(lp1304
I1
a(dp1305
asS'c:/marmalade/7.5/modules/iwgeom/h/IwGeomSqrt.h'
p1306
(lp1307
I1
ag1298
asS'c:/marmalade/7.5/modules/iwgeom/h/IwGeomFQuat.h'
p1308
(lp1309
I1
ag1298
asS'c:/marmalade/7.5/modules/iwgeom/h/IwGeomQuat.h.tpl'
p1310
(lp1311
I1
ag1298
asS'c:/marmalade/7.5/modules/iwgeom/h/IwGeomVec2.h'
p1312
(lp1313
I1
ag1298
asS'c:/marmalade/7.5/modules/iwgeom/h/IwGeomMat.h'
p1314
(lp1315
I1
ag1298
asS'c:/marmalade/7.5/modules/iwgeom/h/IwGeomVec3.h'
p1316
(lp1317
I1
ag1298
asS'c:/marmalade/7.5/modules/iwgeom/h/IwGeomLegacy.h'
p1318
(lp1319
I1
ag1298
asS'c:/marmalade/7.5/modules/iwgeom/h/IwGeom.h'
p1320
(lp1321
I1
ag1298
asS'c:/marmalade/7.5/modules/iwgeom/h/IwGeomSQuat.h'
p1322
(lp1323
I1
ag1298
asS'c:/marmalade/7.5/modules/iwgeom/h/IwGeomFBBox.h'
p1324
(lp1325
I1
ag1298
asS'c:/marmalade/7.5/modules/iwgeom/h/IwGeomFMat.h'
p1326
(lp1327
I1
ag1298
asS'c:/marmalade/7.5/modules/iwgeom/h/IwGeomPlane.h'
p1328
(lp1329
I1
ag1298
asS'c:/marmalade/7.5/modules/iwgeom/h/IwGeomMat2D.h'
p1330
(lp1331
I1
ag1298
asS'c:/marmalade/7.5/modules/iwgeom/h/IwGeomFVec2.h'
p1332
(lp1333
I1
ag1298
asS'c:/marmalade/7.5/modules/iwgeom/h/IwGeomSVec4.h'
p1334
(lp1335
I1
ag1298
asS'c:/marmalade/7.5/modules/iwgeom/h/IwGeomVec4.h'
p1336
(lp1337
I1
ag1298
asS'c:/marmalade/7.5/modules/iwgeom/h/IwGeomCore.h'
p1338
(lp1339
I1
ag1298
asS'c:/marmalade/7.5/modules/iwgeom/h/IwGeomVec.h.tpl'
p1340
(lp1341
I1
ag1298
asS'c:/marmalade/7.5/modules/iwgeom/h/IwGeomVec.h'
p1342
(lp1343
I1
ag1298
asS'c:/marmalade/7.5/modules/iwgeom/h/IwGeomIntersect.h'
p1344
(lp1345
I1
ag1298
asS'c:/marmalade/7.5/modules/iwgeom/h/IwGeomFVec4.h'
p1346
(lp1347
I1
ag1298
asS'c:/marmalade/7.5/modules/iwgeom/h/IwGeomMat.h.tpl'
p1348
(lp1349
I1
ag1298
asS'c:/marmalade/7.5/modules/iwgeom/h/IwGeomMat2D.h.tpl'
p1350
(lp1351
I1
ag1298
asS'c:/marmalade/7.5/modules/iwgeom/h/IwGeomFMat2D.h'
p1352
(lp1353
I1
ag1298
asS'c:/marmalade/7.5/modules/iwgeom/h/IwGeomMenu.h'
p1354
(lp1355
I1
ag1298
asS'c:/marmalade/7.5/modules/iwgeom/h/IwGeomBBox.h'
p1356
(lp1357
I1
ag1298
asS'c:/marmalade/7.5/modules/iwgeom/h/IwGeomFSphere.h'
p1358
(lp1359
I1
ag1298
asS'c:/marmalade/7.5/modules/iwgeom/h/IwGeomFVec3.h'
p1360
(lp1361
I1
ag1298
asS'c:/marmalade/7.5/modules/iwgeom/h/IwGeomFPlane.h'
p1362
(lp1363
I1
ag1298
asS'c:/marmalade/7.5/modules/iwgeom/docs/iwgeom.config.txt'
p1364
(lp1365
I1
ag1298
asS'c:/marmalade/7.5/modules/iwgeom/h/IwGeomQuat.h'
p1366
(lp1367
I1
ag1298
asS'c:/marmalade/7.5/modules/iwgeom/h/IwGeomFIntersect.h'
p1368
(lp1369
I1
ag1298
assS'iwresmanager'
p1370
(dp1371
S'c:/marmalade/7.5/modules/iwresmanager/h/IwResHandlerITX.h'
p1372
(lp1373
I1
a(dp1374
asS'c:/marmalade/7.5/modules/iwresmanager/h/IwResSerialise.h'
p1375
(lp1376
I1
ag1374
asS'c:/marmalade/7.5/modules/iwresmanager/h/IwResManagerClass.h'
p1377
(lp1378
I1
ag1374
asS'c:/marmalade/7.5/modules/iwresmanager/h/IwResHandlerGROUP.h'
p1379
(lp1380
I1
ag1374
asS'c:/marmalade/7.5/modules/iwresmanager/h/IwResManager.h'
p1381
(lp1382
I1
ag1374
asS'c:/marmalade/7.5/modules/iwresmanager/iwresmanager.mkf'
p1383
(lp1384
I1
a(dp1385
asS'c:/marmalade/7.5/modules/iwresmanager/docs/iwresmanager.config.txt'
p1386
(lp1387
I1
ag1374
asS'c:/marmalade/7.5/modules/iwresmanager/h/IwResGroup.h'
p1388
(lp1389
I1
ag1374
asS'c:/marmalade/7.5/modules/iwresmanager/h/IwResHandler.h'
p1390
(lp1391
I1
ag1374
asS'c:/marmalade/7.5/modules/iwresmanager/h/IwResHandlerImage.h'
p1392
(lp1393
I1
ag1374
assS'iwgx'
p1394
(dp1395
S'c:/marmalade/7.5/modules/iwgx/h/IwDebugPrim.h'
p1396
(lp1397
I1
a(dp1398
asS'c:/marmalade/7.5/modules/iwgx/h/IwMatAnim.h'
p1399
(lp1400
I1
ag1398
asS'c:/marmalade/7.5/modules/iwgx/h/IwTexture.h'
p1401
(lp1402
I1
ag1398
asS'c:/marmalade/7.5/modules/iwgx/h/IwGxFuncTable.h'
p1403
(lp1404
I1
ag1398
asS'c:/marmalade/7.5/modules/iwgx/h/IwResHandlerMTL.h'
p1405
(lp1406
I1
ag1398
asS'c:/marmalade/7.5/modules/iwgx/h/IwGxPrint.h'
p1407
(lp1408
I1
ag1398
asS'c:/marmalade/7.5/modules/iwgx/h/IwGxStream.h'
p1409
(lp1410
I1
ag1398
asS'c:/marmalade/7.5/modules/iwgx/h/IwClip.h'
p1411
(lp1412
I1
ag1398
asS'c:/marmalade/7.5/modules/iwgx/h/IwGxSurface.h'
p1413
(lp1414
I1
ag1398
asS'c:/marmalade/7.5/modules/iwgx/h/IwGxError.h'
p1415
(lp1416
I1
ag1398
asS'c:/marmalade/7.5/modules/iwgx/h/IwGx.h'
p1417
(lp1418
I1
ag1398
asS'c:/marmalade/7.5/modules/iwgx/docs/iwgx_public.defines.txt'
p1419
(lp1420
I1
ag1398
asS'c:/marmalade/7.5/modules/iwgx/h/IwGxDebug.h'
p1421
(lp1422
I1
ag1398
asS'c:/marmalade/7.5/modules/iwgx/h/IwGxShaderTechnique.h'
p1423
(lp1424
I1
ag1398
asS'c:/marmalade/7.5/modules/iwgx/h/IwGxTransformSW.h'
p1425
(lp1426
I1
ag1398
asS'c:/marmalade/7.5/modules/iwgx/h/IwMaterial.h'
p1427
(lp1428
I1
ag1398
asS'c:/marmalade/7.5/modules/iwgx/h/IwGxMetrics.h'
p1429
(lp1430
I1
ag1398
asS'c:/marmalade/7.5/modules/iwgx/h/IwClip.inl'
p1431
(lp1432
I1
ag1398
asS'c:/marmalade/7.5/modules/iwgx/h/IwFColour.h'
p1433
(lp1434
I1
ag1398
asS'c:/marmalade/7.5/modules/iwgx/h/IwGxTypes.h'
p1435
(lp1436
I1
ag1398
asS'c:/marmalade/7.5/modules/iwgx/iwgx.mkf'
p1437
(lp1438
I1
a(dp1439
asS'c:/marmalade/7.5/modules/iwgx/docs/iwgx.config.txt'
p1440
(lp1441
I1
ag1398
asS'c:/marmalade/7.5/modules/iwgx/h/IwColour.h'
p1442
(lp1443
I1
ag1398
asS'c:/marmalade/7.5/modules/iwgx/h/IwGxState.h'
p1444
(lp1445
I1
ag1398
asS'c:/marmalade/7.5/modules/iwgx/h/IwTPage.h'
p1446
(lp1447
I1
ag1398
assS'iw2dscenegraphcore'
p1448
(dp1449
S'c:/marmalade/7.5/modules/iw2dscenegraphcore/iw2dscenegraphcore.mkf'
p1450
(lp1451
I1
a(dp1452
asS'c:/marmalade/7.5/modules/iw2dscenegraphcore/h/Iw2DSceneGraphCore.h'
p1453
(lp1454
I1
a(dp1455
asS'c:/marmalade/7.5/modules/iw2dscenegraphcore/source/Iw2DSceneGraphCore.cpp'
p1456
(lp1457
I1
ag1455
assS'iwutil'
p1458
(dp1459
S'c:/marmalade/7.5/modules/iwutil/h/IwSingleton.h'
p1460
(lp1461
I1
a(dp1462
asS'c:/marmalade/7.5/modules/iwutil/h/IwMath.h'
p1463
(lp1464
I1
ag1462
asS'c:/marmalade/7.5/modules/iwutil/h/IwBuffer.h'
p1465
(lp1466
I1
ag1462
asS'c:/marmalade/7.5/modules/iwutil/h/IwCore.h'
p1467
(lp1468
I1
ag1462
asS'c:/marmalade/7.5/modules/iwutil/h/IwDivide.h'
p1469
(lp1470
I1
ag1462
asS'c:/marmalade/7.5/modules/iwutil/h/IwMemory.h'
p1471
(lp1472
I1
ag1462
asS'c:/marmalade/7.5/modules/iwutil/h/IwImageHelper.h'
p1473
(lp1474
I1
ag1462
asS'c:/marmalade/7.5/modules/iwutil/h/IwManagedList.h'
p1475
(lp1476
I1
ag1462
asS'c:/marmalade/7.5/modules/iwutil/h/IwProfileMenu.h'
p1477
(lp1478
I1
ag1462
asS'c:/marmalade/7.5/modules/iwutil/h/IwClassFactory.h'
p1479
(lp1480
I1
ag1462
asS'c:/marmalade/7.5/modules/iwutil/h/IwDivTable.h'
p1481
(lp1482
I1
ag1462
asS'c:/marmalade/7.5/modules/iwutil/h/IwManaged.h'
p1483
(lp1484
I1
ag1462
asS'c:/marmalade/7.5/modules/iwutil/h/IwTextParseable.h'
p1485
(lp1486
I1
ag1462
asS'c:/marmalade/7.5/modules/iwutil/h/IwChar.h'
p1487
(lp1488
I1
ag1462
asS'c:/marmalade/7.5/modules/iwutil/h/IwRandom.h'
p1489
(lp1490
I1
ag1462
asS'c:/marmalade/7.5/modules/iwutil/h/IwDebug.h'
p1491
(lp1492
I1
ag1462
asS'c:/marmalade/7.5/modules/iwutil/h/IwUTF8.h'
p1493
(lp1494
I1
ag1462
asS'c:/marmalade/7.5/modules/iwutil/docs/iwutil.config.txt'
p1495
(lp1496
I1
ag1462
asS'c:/marmalade/7.5/modules/iwutil/h/IwAllocator.h'
p1497
(lp1498
I1
ag1462
asS'c:/marmalade/7.5/modules/iwutil/h/IwMemBucketHelpers.h'
p1499
(lp1500
I1
ag1462
asS'c:/marmalade/7.5/modules/iwutil/h/IwTextParserITX.h'
p1501
(lp1502
I1
ag1462
asS'c:/marmalade/7.5/modules/iwutil/h/IwKeymap.h'
p1503
(lp1504
I1
ag1462
asS'c:/marmalade/7.5/modules/iwutil/h/IwImage.h'
p1505
(lp1506
I1
ag1462
asS'c:/marmalade/7.5/modules/iwutil/h/IwOptimiseARM.h'
p1507
(lp1508
I1
ag1462
asS'c:/marmalade/7.5/modules/iwutil/h/IwMemBucket.h'
p1509
(lp1510
I1
ag1462
asS'c:/marmalade/7.5/modules/iwutil/h/IwOptimiseSize.h'
p1511
(lp1512
I1
ag1462
asS'c:/marmalade/7.5/modules/iwutil/h/IwRuntime.h'
p1513
(lp1514
I1
ag1462
asS'c:/marmalade/7.5/modules/iwutil/h/IwMemManagerDL.h'
p1515
(lp1516
I1
ag1462
asS'c:/marmalade/7.5/modules/iwutil/h/IwPath.h'
p1517
(lp1518
I1
ag1462
asS'c:/marmalade/7.5/modules/iwutil/h/IwOptimiseSpeed.h'
p1519
(lp1520
I1
ag1462
asS'c:/marmalade/7.5/modules/iwutil/h/IwList.h'
p1521
(lp1522
I1
ag1462
asS'c:/marmalade/7.5/modules/iwutil/h/IwAutoFile.h'
p1523
(lp1524
I1
ag1462
asS'c:/marmalade/7.5/modules/iwutil/h/IwVariableBitField.h'
p1525
(lp1526
I1
ag1462
asS'c:/marmalade/7.5/modules/iwutil/h/IwHashString.h'
p1527
(lp1528
I1
ag1462
asS'c:/marmalade/7.5/modules/iwutil/h/IwOptimiseThumb.h'
p1529
(lp1530
I1
ag1462
asS'c:/marmalade/7.5/modules/iwutil/iwutil.mkf'
p1531
(lp1532
I1
a(dp1533
asS'c:/marmalade/7.5/modules/iwutil/h/IwUtil.h'
p1534
(lp1535
I1
ag1462
asS'c:/marmalade/7.5/modules/iwutil/h/IwString.h'
p1536
(lp1537
I1
ag1462
asS'c:/marmalade/7.5/modules/iwutil/h/IwFile.h'
p1538
(lp1539
I1
ag1462
asS'c:/marmalade/7.5/modules/iwutil/h/IwUncopyable.h'
p1540
(lp1541
I1
ag1462
asS'c:/marmalade/7.5/modules/iwutil/h/IwTextParser.h'
p1542
(lp1543
I1
ag1462
asS'c:/marmalade/7.5/modules/iwutil/h/IwCopyingPtr.h'
p1544
(lp1545
I1
ag1462
asS'c:/marmalade/7.5/modules/iwutil/h/IwEvent.h'
p1546
(lp1547
I1
ag1462
asS'c:/marmalade/7.5/modules/iwutil/h/IwFibre.h'
p1548
(lp1549
I1
ag1462
asS'c:/marmalade/7.5/modules/iwutil/h/IwArray.h'
p1550
(lp1551
I1
ag1462
asS'c:/marmalade/7.5/modules/iwutil/h/IwMenu.h'
p1552
(lp1553
I1
ag1462
asS'c:/marmalade/7.5/modules/iwutil/h/IwTypes.h'
p1554
(lp1555
I1
ag1462
asS'c:/marmalade/7.5/modules/iwutil/h/IwUtilInitTerm.h'
p1556
(lp1557
I1
ag1462
asS'c:/marmalade/7.5/modules/iwutil/h/IwResource.h'
p1558
(lp1559
I1
ag1462
asS'c:/marmalade/7.5/modules/iwutil/h/IwSerialise.h'
p1560
(lp1561
I1
ag1462
asssS'(zlib)'
p1562
(dp1563
g1072
(dp1564
S'c:/marmalade/7.5/modules/third_party/zlib/h/zconf.h'
p1565
(lp1566
I1
a(dp1567
asS'c:/marmalade/7.5/modules/third_party/zlib/h/zlib.h'
p1568
(lp1569
I1
ag1567
assS'c:/marmalade/7.5/modules/third_party/zlib/zlib.mkf'
p1570
(lp1571
I1
a(dp1572
assS'(iwtween)'
p1573
(dp1574
S'c:/marmalade/7.5/modules/iwtween/h/IwTween.h'
p1575
(lp1576
I1
a(dp1577
asS'c:/marmalade/7.5/modules/iwtween/source/IwTween.cpp'
p1578
(lp1579
I1
ag1577
asS'c:/marmalade/7.5/modules/iwtween/iwtween.mkf'
p1580
(lp1581
I1
a(dp1582
assS'(s3e-default)'
p1583
(dp1584
S'c:/marmalade/7.5/s3e/s3e-default.mkf'
p1585
(lp1586
I1
a(dp1587
asssS'files'
p1588
(dp1589
S'IwGxFontPreparedData.h'
p1590
g325
(cmkb_main
File
p1591
g327
Ntp1592
Rp1593
(dp1594
S'flags'
p1595
g1276
sS'group'
p1596
(lp1597
S"'Marmalade Studio'"
p1598
ag1272
asg351
g1288
sbsS'iterator'
p1599
g325
(g1591
g327
Ntp1600
Rp1601
(dp1602
g1595
(dp1603
sg1596
(lp1604
S"'Marmalade System (S3E)'"
p1605
aS'stdc headers'
p1606
aS'c++'
p1607
asg351
S'c:/marmalade/7.5/s3e/h/std/c++/iterator'
p1608
sbsS'IwGL.h'
p1609
g325
(g1591
g327
Ntp1610
Rp1611
(dp1612
g1595
g1255
sg1596
(lp1613
S"'Marmalade Studio'"
p1614
ag1248
asg351
g1253
sbsS's3e.h'
p1615
g325
(g1591
g327
Ntp1616
Rp1617
(dp1618
g1595
g1603
sg1596
(lp1619
g1605
asg351
S'c:/marmalade/7.5/s3e/h/s3e.h'
p1620
sbsS'errno.h'
p1621
g325
(g1591
g327
Ntp1622
Rp1623
(dp1624
g1595
g1603
sg1596
(lp1625
g1605
aS'stdc headers'
p1626
asg351
S'c:/marmalade/7.5/s3e/h/std/errno.h'
p1627
sbsS'IwSingleton.h'
p1628
g325
(g1591
g327
Ntp1629
Rp1630
(dp1631
g1595
g1462
sg1596
(lp1632
S"'Marmalade Studio'"
p1633
ag1458
asg351
g1460
sbsS'dlfcn.h'
p1634
g325
(g1591
g327
Ntp1635
Rp1636
(dp1637
g1595
g1603
sg1596
g1625
sg351
S'c:/marmalade/7.5/s3e/h/std/dlfcn.h'
p1638
sbsS'IwSoundWAV.cpp'
p1639
g325
(g1591
g327
Ntp1640
Rp1641
(dp1642
g1595
g1131
sg1596
(lp1643
g1127
asg351
g1154
sbsS'sched.h'
p1644
g325
(g1591
g327
Ntp1645
Rp1646
(dp1647
g1595
g1603
sg1596
g1625
sg351
S'c:/marmalade/7.5/s3e/h/std/sched.h'
p1648
sbsS'IwSoundPCM.h'
p1649
g325
(g1591
g327
Ntp1650
Rp1651
(dp1652
g1595
g1131
sg1596
g1643
sg351
g1172
sbsS'IwGeomFMat2D.h'
p1653
g325
(g1591
g327
Ntp1654
Rp1655
(dp1656
g1595
g1298
sg1596
(lp1657
S"'Marmalade Studio'"
p1658
ag1294
asg351
g1352
sbsS'cassert'
p1659
g325
(g1591
g327
Ntp1660
Rp1661
(dp1662
g1595
g1603
sg1596
g1604
sg351
S'c:/marmalade/7.5/s3e/h/std/c++/cassert'
p1663
sbsS'grp.h'
p1664
g325
(g1591
g327
Ntp1665
Rp1666
(dp1667
g1595
g1603
sg1596
g1625
sg351
S'c:/marmalade/7.5/s3e/h/std/grp.h'
p1668
sbsS'list'
p1669
g325
(g1591
g327
Ntp1670
Rp1671
(dp1672
g1595
g1603
sg1596
g1604
sg351
S'c:/marmalade/7.5/s3e/h/std/c++/list'
p1673
sbsS'IwSoundSpec.cpp'
p1674
g325
(g1591
g327
Ntp1675
Rp1676
(dp1677
g1595
g1131
sg1596
g1643
sg351
g1160
sbsS'IwGeomMat.h.tpl'
p1678
g325
(g1591
g327
Ntp1679
Rp1680
(dp1681
g1595
g1298
sg1596
g1657
sg351
g1348
sbsS'istream'
p1682
g325
(g1591
g327
Ntp1683
Rp1684
(dp1685
g1595
g1603
sg1596
g1604
sg351
S'c:/marmalade/7.5/s3e/h/std/c++/istream'
p1686
sbsS'jpeglib.h'
p1687
g325
(g1591
g327
Ntp1688
Rp1689
(dp1690
g1595
g1090
sg1596
(lp1691
g1082
ag1072
asg351
g1115
sbsS'iw2d_public.defines.txt'
p1692
g325
(g1591
g327
Ntp1693
Rp1694
(dp1695
g1595
g1264
sg1596
(lp1696
S"'Marmalade Studio'"
p1697
ag1260
asg351
g1262
sbsS'iostream.h'
p1698
g325
(g1591
g327
Ntp1699
Rp1700
(dp1701
g1595
g1603
sg1596
g1604
sg351
S'c:/marmalade/7.5/s3e/h/std/c++/iostream.h'
p1702
sbsS'IwSoundADPCM.h'
p1703
g325
(g1591
g327
Ntp1704
Rp1705
(dp1706
g1595
g1131
sg1596
g1643
sg351
g1132
sbsS'string'
p1707
g325
(g1591
g327
Ntp1708
Rp1709
(dp1710
g1595
g1603
sg1596
g1604
sg351
S'c:/marmalade/7.5/s3e/h/std/c++/string'
p1711
sbsS'IwMemory.h'
p1712
g325
(g1591
g327
Ntp1713
Rp1714
(dp1715
g1595
g1462
sg1596
g1632
sg351
g1471
sbsS'IwGeomPlane.h'
p1716
g325
(g1591
g327
Ntp1717
Rp1718
(dp1719
g1595
g1298
sg1596
g1657
sg351
g1328
sbsS'iw2d.config.txt'
p1720
g325
(g1591
g327
Ntp1721
Rp1722
(dp1723
g1595
g1264
sg1596
g1696
sg351
g1265
sbsS'iomanip'
p1724
g325
(g1591
g327
Ntp1725
Rp1726
(dp1727
g1595
g1603
sg1596
g1604
sg351
S'c:/marmalade/7.5/s3e/h/std/c++/iomanip'
p1728
sbsS'iwgeom.mkf'
p1729
g325
(g1591
g327
Ntp1730
Rp1731
(dp1732
g1595
g1305
sg1596
g1657
sg351
g1303
sbsS'IwGxError.h'
p1733
g325
(g1591
g327
Ntp1734
Rp1735
(dp1736
g1595
g1398
sg1596
(lp1737
S"'Marmalade Studio'"
p1738
ag1394
asg351
g1415
sbsS'IwGeom.h'
p1739
g325
(g1591
g327
Ntp1740
Rp1741
(dp1742
g1595
g1298
sg1596
g1657
sg351
g1320
sbsS'scene.cpp'
p1743
g325
(g1591
g327
Ntp1744
Rp1745
(dp1746
g1595
g1183
sg1596
(lp1747
g1179
asg351
g1181
sbsS'IwGeomVec4.h'
p1748
g325
(g1591
g327
Ntp1749
Rp1750
(dp1751
g1595
g1298
sg1596
g1657
sg351
g1336
sbsS'dir.h'
p1752
g325
(g1591
g327
Ntp1753
Rp1754
(dp1755
g1595
g1603
sg1596
(lp1756
g1605
aS'stdc headers'
p1757
aS'sys'
p1758
asg351
S'c:/marmalade/7.5/s3e/h/std/sys/dir.h'
p1759
sbsS'locale.h'
p1760
g325
(g1591
g327
Ntp1761
Rp1762
(dp1763
g1595
g1603
sg1596
g1625
sg351
S'c:/marmalade/7.5/s3e/h/std/locale.h'
p1764
sbsS'vector'
p1765
g325
(g1591
g327
Ntp1766
Rp1767
(dp1768
g1595
g1603
sg1596
g1604
sg351
S'c:/marmalade/7.5/s3e/h/std/c++/vector'
p1769
sbsS'IwManaged.h'
p1770
g325
(g1591
g327
Ntp1771
Rp1772
(dp1773
g1595
g1462
sg1596
g1632
sg351
g1483
sbsS's3eCompass.h'
p1774
g325
(g1591
g327
Ntp1775
Rp1776
(dp1777
g1595
g1603
sg1596
g1619
sg351
S'c:/marmalade/7.5/s3e/h/s3eCompass.h'
p1778
sbsS'cderror.h'
p1779
g325
(g1591
g327
Ntp1780
Rp1781
(dp1782
g1595
g1090
sg1596
g1691
sg351
g1093
sbsS'climits'
p1783
g325
(g1591
g327
Ntp1784
Rp1785
(dp1786
g1595
g1603
sg1596
g1604
sg351
S'c:/marmalade/7.5/s3e/h/std/c++/climits'
p1787
sbsS'ipc.h'
p1788
g325
(g1591
g327
Ntp1789
Rp1790
(dp1791
g1595
g1603
sg1596
g1756
sg351
S'c:/marmalade/7.5/s3e/h/std/sys/ipc.h'
p1792
sbsS'jversion.h'
p1793
g325
(g1591
g327
Ntp1794
Rp1795
(dp1796
g1595
g1090
sg1596
g1691
sg351
g1111
sbsS'fnmatch.h'
p1797
g325
(g1591
g327
Ntp1798
Rp1799
(dp1800
g1595
g1603
sg1596
g1625
sg351
S'c:/marmalade/7.5/s3e/h/std/fnmatch.h'
p1801
sbsS'IwGxState.h'
p1802
g325
(g1591
g327
Ntp1803
Rp1804
(dp1805
g1595
g1398
sg1596
g1737
sg351
g1444
sbsS'rope'
p1806
g325
(g1591
g327
Ntp1807
Rp1808
(dp1809
g1595
g1603
sg1596
g1604
sg351
S'c:/marmalade/7.5/s3e/h/std/c++/rope'
p1810
sbsS's3eAudio.h'
p1811
g325
(g1591
g327
Ntp1812
Rp1813
(dp1814
g1595
g1603
sg1596
g1619
sg351
S'c:/marmalade/7.5/s3e/h/s3eAudio.h'
p1815
sbsS's3eSurface.h'
p1816
g325
(g1591
g327
Ntp1817
Rp1818
(dp1819
g1595
g1603
sg1596
g1619
sg351
S'c:/marmalade/7.5/s3e/h/s3eSurface.h'
p1820
sbsS'new'
p1821
g325
(g1591
g327
Ntp1822
Rp1823
(dp1824
g1595
g1603
sg1596
g1604
sg351
S'c:/marmalade/7.5/s3e/h/std/c++/new'
p1825
sbsS's3eWindow.h'
p1826
g325
(g1591
g327
Ntp1827
Rp1828
(dp1829
g1595
g1603
sg1596
(lp1830
g1605
aS'Extensions'
p1831
asg351
S'c:/marmalade/7.5/s3e/h/ext/s3eWindow.h'
p1832
sbsS'IwBuffer.h'
p1833
g325
(g1591
g327
Ntp1834
Rp1835
(dp1836
g1595
g1462
sg1596
g1632
sg351
g1465
sbsS'stdio_streambuf'
p1837
g325
(g1591
g327
Ntp1838
Rp1839
(dp1840
g1595
g1603
sg1596
g1604
sg351
S'c:/marmalade/7.5/s3e/h/std/c++/stdio_streambuf'
p1841
sbsS'IwGeomQuat.h.tpl'
p1842
g325
(g1591
g327
Ntp1843
Rp1844
(dp1845
g1595
g1298
sg1596
g1657
sg351
g1310
sbsS's3eOSExec.h'
p1846
g325
(g1591
g327
Ntp1847
Rp1848
(dp1849
g1595
g1603
sg1596
g1830
sg351
S'c:/marmalade/7.5/s3e/h/ext/s3eOSExec.h'
p1850
sbsS'IwGxTransformSW.h'
p1851
g325
(g1591
g327
Ntp1852
Rp1853
(dp1854
g1595
g1398
sg1596
g1737
sg351
g1425
sbsS'IwGxMetrics.h'
p1855
g325
(g1591
g327
Ntp1856
Rp1857
(dp1858
g1595
g1398
sg1596
g1737
sg351
g1429
sbsS'iwgxfont.config.txt'
p1859
g325
(g1591
g327
Ntp1860
Rp1861
(dp1862
g1595
g1276
sg1596
g1597
sg351
g1279
sbsS'gl2platform.h'
p1863
g325
(g1591
g327
Ntp1864
Rp1865
(dp1866
g1595
g1603
sg1596
(lp1867
g1605
aS'GL'
p1868
aS'GLES 2.0'
p1869
asg351
S'c:/marmalade/7.5/s3e/h/GLES2/gl2platform.h'
p1870
sbsS'IwResManagerClass.h'
p1871
g325
(g1591
g327
Ntp1872
Rp1873
(dp1874
g1595
g1374
sg1596
(lp1875
g1234
ag1370
asg351
g1377
sbsS'queue'
p1876
g325
(g1591
g327
Ntp1877
Rp1878
(dp1879
g1595
g1603
sg1596
g1604
sg351
S'c:/marmalade/7.5/s3e/h/std/c++/queue'
p1880
sbsS'time_1.h'
p1881
g325
(g1591
g327
Ntp1882
Rp1883
(dp1884
g1595
g1603
sg1596
g1756
sg351
S'c:/marmalade/7.5/s3e/h/std/sys/time.h'
p1885
sbsS'Iw2D.h'
p1886
g325
(g1591
g327
Ntp1887
Rp1888
(dp1889
g1595
g1264
sg1596
g1696
sg351
g1267
sbsS'IwGeomVec2.h'
p1890
g325
(g1591
g327
Ntp1891
Rp1892
(dp1893
g1595
g1298
sg1596
g1657
sg351
g1312
sbsS'sendfile.h'
p1894
g325
(g1591
g327
Ntp1895
Rp1896
(dp1897
g1595
g1603
sg1596
g1756
sg351
S'c:/marmalade/7.5/s3e/h/std/sys/sendfile.h'
p1898
sbsS'malloc.h'
p1899
g325
(g1591
g327
Ntp1900
Rp1901
(dp1902
g1595
g1603
sg1596
g1625
sg351
S'c:/marmalade/7.5/s3e/h/std/malloc.h'
p1903
sbsS'stdarg.h'
p1904
g325
(g1591
g327
Ntp1905
Rp1906
(dp1907
g1595
g1603
sg1596
g1625
sg351
S'c:/marmalade/7.5/s3e/h/std/stdarg.h'
p1908
sbsS'IwGeomCore.h'
p1909
g325
(g1591
g327
Ntp1910
Rp1911
(dp1912
g1595
g1298
sg1596
g1657
sg351
g1338
sbsS'Iw2DSceneGraph.h'
p1913
g325
(g1591
g327
Ntp1914
Rp1915
(dp1916
g1595
g1240
sg1596
(lp1917
S"'Marmalade Studio'"
p1918
ag1236
asg351
g1243
sbsS'endian.h'
p1919
g325
(g1591
g327
Ntp1920
Rp1921
(dp1922
g1595
g1603
sg1596
g1625
sg351
S'c:/marmalade/7.5/s3e/h/std/endian.h'
p1923
sbsS'gl3ext.h'
p1924
g325
(g1591
g327
Ntp1925
Rp1926
(dp1927
g1595
g1603
sg1596
(lp1928
g1605
aS'GL'
p1929
aS'GLES 3.0'
p1930
asg351
S'c:/marmalade/7.5/s3e/h/GLES3/gl3ext.h'
p1931
sbsS'glob.h'
p1932
g325
(g1591
g327
Ntp1933
Rp1934
(dp1935
g1595
g1603
sg1596
g1625
sg351
S'c:/marmalade/7.5/s3e/h/std/glob.h'
p1936
sbsS'fstream'
p1937
g325
(g1591
g327
Ntp1938
Rp1939
(dp1940
g1595
g1603
sg1596
g1604
sg351
S'c:/marmalade/7.5/s3e/h/std/c++/fstream'
p1941
sbsS's3eCamera.h'
p1942
g325
(g1591
g327
Ntp1943
Rp1944
(dp1945
g1595
g1603
sg1596
g1619
sg351
S'c:/marmalade/7.5/s3e/h/s3eCamera.h'
p1946
sbsS'jconfig.h'
p1947
g325
(g1591
g327
Ntp1948
Rp1949
(dp1950
g1595
g1090
sg1596
g1691
sg351
g1113
sbsS'memory'
p1951
g325
(g1591
g327
Ntp1952
Rp1953
(dp1954
g1595
g1603
sg1596
g1604
sg351
S'c:/marmalade/7.5/s3e/h/std/c++/memory'
p1955
sbsS'egl.h'
p1956
g325
(g1591
g327
Ntp1957
Rp1958
(dp1959
g1595
g1603
sg1596
(lp1960
g1605
aS'GL'
p1961
aS'EGL'
p1962
asg351
S'c:/marmalade/7.5/s3e/h/EGL/egl.h'
p1963
sbsS'egl_1.h'
p1964
g325
(g1591
g327
Ntp1965
Rp1966
(dp1967
g1595
g1603
sg1596
(lp1968
g1605
aS'GL'
p1969
aS'GLES 1.x'
p1970
asg351
S'c:/marmalade/7.5/s3e/h/GLES/egl.h'
p1971
sbsS'IwMemManagerDL.h'
p1972
g325
(g1591
g327
Ntp1973
Rp1974
(dp1975
g1595
g1462
sg1596
g1632
sg351
g1515
sbsS'deque'
p1976
g325
(g1591
g327
Ntp1977
Rp1978
(dp1979
g1595
g1603
sg1596
g1604
sg351
S'c:/marmalade/7.5/s3e/h/std/c++/deque'
p1980
sbsS'IwString.h'
p1981
g325
(g1591
g327
Ntp1982
Rp1983
(dp1984
g1595
g1462
sg1596
g1632
sg351
g1536
sbsS'cwchar'
p1985
g325
(g1591
g327
Ntp1986
Rp1987
(dp1988
g1595
g1603
sg1596
g1604
sg351
S'c:/marmalade/7.5/s3e/h/std/c++/cwchar'
p1989
sbsS'iwutil.mkf'
p1990
g325
(g1591
g327
Ntp1991
Rp1992
(dp1993
g1595
g1533
sg1596
g1632
sg351
g1531
sbsS'csignal'
p1994
g325
(g1591
g327
Ntp1995
Rp1996
(dp1997
g1595
g1603
sg1596
g1604
sg351
S'c:/marmalade/7.5/s3e/h/std/c++/csignal'
p1998
sbsS'pthread_types.h'
p1999
g325
(g1591
g327
Ntp2000
Rp2001
(dp2002
g1595
g1603
sg1596
g1625
sg351
S'c:/marmalade/7.5/s3e/h/std/pthread_types.h'
p2003
sbsS'pthread_alloc'
p2004
g325
(g1591
g327
Ntp2005
Rp2006
(dp2007
g1595
g1603
sg1596
g1604
sg351
S'c:/marmalade/7.5/s3e/h/std/c++/pthread_alloc'
p2008
sbsS'getopt.h'
p2009
g325
(g1591
g327
Ntp2010
Rp2011
(dp2012
g1595
g1603
sg1596
g1625
sg351
S'c:/marmalade/7.5/s3e/h/std/getopt.h'
p2013
sbsS'IwOptimiseARM.h'
p2014
g325
(g1591
g327
Ntp2015
Rp2016
(dp2017
g1595
g1462
sg1596
g1632
sg351
g1507
sbsS'times.h'
p2018
g325
(g1591
g327
Ntp2019
Rp2020
(dp2021
g1595
g1603
sg1596
g1756
sg351
S'c:/marmalade/7.5/s3e/h/std/sys/times.h'
p2022
sbsS'IwGeomFSphere.h'
p2023
g325
(g1591
g327
Ntp2024
Rp2025
(dp2026
g1595
g1298
sg1596
g1657
sg351
g1358
sbsS'game.h'
p2027
g325
(g1591
g327
Ntp2028
Rp2029
(dp2030
g1595
g1183
sg1596
g1747
sg351
g1200
sbsS'functional'
p2031
g325
(g1591
g327
Ntp2032
Rp2033
(dp2034
g1595
g1603
sg1596
g1604
sg351
S'c:/marmalade/7.5/s3e/h/std/c++/functional'
p2035
sbsS'IwTypes.h'
p2036
g325
(g1591
g327
Ntp2037
Rp2038
(dp2039
g1595
g1462
sg1596
g1632
sg351
g1554
sbsS'unistd.h'
p2040
g325
(g1591
g327
Ntp2041
Rp2042
(dp2043
g1595
g1603
sg1596
g1625
sg351
S'c:/marmalade/7.5/s3e/h/std/unistd.h'
p2044
sbsS'audio.cpp'
p2045
g325
(g1591
g327
Ntp2046
Rp2047
(dp2048
g1595
g1183
sg1596
g1747
sg351
g1204
sbsS's3eCompression.h'
p2049
g325
(g1591
g327
Ntp2050
Rp2051
(dp2052
g1595
g1603
sg1596
g1619
sg351
S'c:/marmalade/7.5/s3e/h/s3eCompression.h'
p2053
sbsS'langinfo.h'
p2054
g325
(g1591
g327
Ntp2055
Rp2056
(dp2057
g1595
g1603
sg1596
g1625
sg351
S'c:/marmalade/7.5/s3e/h/std/langinfo.h'
p2058
sbsS's3edebugHeap.h'
p2059
g325
(g1591
g327
Ntp2060
Rp2061
(dp2062
g1595
g1603
sg1596
g1830
sg351
S'c:/marmalade/7.5/s3e/h/ext/s3edebugHeap.h'
p2063
sbsS'AirplayVersion.h'
p2064
g325
(g1591
g327
Ntp2065
Rp2066
(dp2067
g1595
g1603
sg1596
g1619
sg351
S'c:/marmalade/7.5/s3e/h/AirplayVersion.h'
p2068
sbsS'gl2extimg.h'
p2069
g325
(g1591
g327
Ntp2070
Rp2071
(dp2072
g1595
g1603
sg1596
g1867
sg351
S'c:/marmalade/7.5/s3e/h/GLES2/gl2extimg.h'
p2073
sbsS'IwGeomSqrt.h'
p2074
g325
(g1591
g327
Ntp2075
Rp2076
(dp2077
g1595
g1298
sg1596
g1657
sg351
g1306
sbsS'tiniconv_int.h'
p2078
g325
(g1591
g327
Ntp2079
Rp2080
(dp2081
g1595
g1124
sg1596
(lp2082
g1117
asg351
g1122
sbsS'syslog.h'
p2083
g325
(g1591
g327
Ntp2084
Rp2085
(dp2086
g1595
g1603
sg1596
g1625
sg351
S'c:/marmalade/7.5/s3e/h/std/syslog.h'
p2087
sbsS'IwGxFontTypes.h'
p2088
g325
(g1591
g327
Ntp2089
Rp2090
(dp2091
g1595
g1276
sg1596
g1597
sg351
g1277
sbsS'IwGeomFIntersect.h'
p2092
g325
(g1591
g327
Ntp2093
Rp2094
(dp2095
g1595
g1298
sg1596
g1657
sg351
g1368
sbsS'hash_map'
p2096
g325
(g1591
g327
Ntp2097
Rp2098
(dp2099
g1595
g1603
sg1596
g1604
sg351
S'c:/marmalade/7.5/s3e/h/std/c++/hash_map'
p2100
sbsS's3e.mkf'
p2101
g325
(g1591
g327
Ntp2102
Rp2103
(dp2104
g1595
(dp2105
sg1596
g1619
sg351
S'c:/marmalade/7.5/s3e/s3e.mkf'
p2106
sbsS'IwGeomMat2D.h.tpl'
p2107
g325
(g1591
g327
Ntp2108
Rp2109
(dp2110
g1595
g1298
sg1596
g1657
sg351
g1350
sbsS's3eOSReadString.h'
p2111
g325
(g1591
g327
Ntp2112
Rp2113
(dp2114
g1595
g1603
sg1596
g1830
sg351
S'c:/marmalade/7.5/s3e/h/ext/s3eOSReadString.h'
p2115
sbsS'IwSound.h'
p2116
g325
(g1591
g327
Ntp2117
Rp2118
(dp2119
g1595
g1131
sg1596
g1643
sg351
g1166
sbsS'map'
p2120
g325
(g1591
g327
Ntp2121
Rp2122
(dp2123
g1595
g1603
sg1596
g1604
sg351
S'c:/marmalade/7.5/s3e/h/std/c++/map'
p2124
sbsS'iwtween.mkf'
p2125
g325
(g1591
g327
Ntp2126
Rp2127
(dp2128
g1595
g1582
sg1596
(lp2129
g1573
asg351
g1580
sbsS'IwOptimiseSpeed.h'
p2130
g325
(g1591
g327
Ntp2131
Rp2132
(dp2133
g1595
g1462
sg1596
g1632
sg351
g1519
sbsS'ostream'
p2134
g325
(g1591
g327
Ntp2135
Rp2136
(dp2137
g1595
g1603
sg1596
g1604
sg351
S'c:/marmalade/7.5/s3e/h/std/c++/ostream'
p2138
sbsS'msl_string.h'
p2139
g325
(g1591
g327
Ntp2140
Rp2141
(dp2142
g1595
g1603
sg1596
g1604
sg351
S'c:/marmalade/7.5/s3e/h/std/c++/msl_string.h'
p2143
sbsS'select.h'
p2144
g325
(g1591
g327
Ntp2145
Rp2146
(dp2147
g1595
g1603
sg1596
g1756
sg351
S'c:/marmalade/7.5/s3e/h/std/sys/select.h'
p2148
sbsS'zlib.mkf'
p2149
g325
(g1591
g327
Ntp2150
Rp2151
(dp2152
g1595
g1572
sg1596
(lp2153
g1562
asg351
g1570
sbsS'signal.h'
p2154
g325
(g1591
g327
Ntp2155
Rp2156
(dp2157
g1595
g1603
sg1596
g1625
sg351
S'c:/marmalade/7.5/s3e/h/std/signal.h'
p2158
sbsS'sigcontext.h'
p2159
g325
(g1591
g327
Ntp2160
Rp2161
(dp2162
g1595
g1603
sg1596
g1625
sg351
S'c:/marmalade/7.5/s3e/h/std/sigcontext.h'
p2163
sbsS'libpng.mkf'
p2164
g325
(g1591
g327
Ntp2165
Rp2166
(dp2167
g1595
g1081
sg1596
(lp2168
g1070
asg351
g1079
sbsS's3eClipboard.h'
p2169
g325
(g1591
g327
Ntp2170
Rp2171
(dp2172
g1595
g1603
sg1596
g1619
sg351
S'c:/marmalade/7.5/s3e/h/s3eClipboard.h'
p2173
sbsS'IwGxFuncTable.h'
p2174
g325
(g1591
g327
Ntp2175
Rp2176
(dp2177
g1595
g1398
sg1596
g1737
sg351
g1403
sbsS'IwResHandlerGROUP.h'
p2178
g325
(g1591
g327
Ntp2179
Rp2180
(dp2181
g1595
g1374
sg1596
g1875
sg351
g1379
sbsS's3eDebug.h'
p2182
g325
(g1591
g327
Ntp2183
Rp2184
(dp2185
g1595
g1603
sg1596
g1619
sg351
S'c:/marmalade/7.5/s3e/h/s3eDebug.h'
p2186
sbsS'socket.h'
p2187
g325
(g1591
g327
Ntp2188
Rp2189
(dp2190
g1595
g1603
sg1596
g1756
sg351
S'c:/marmalade/7.5/s3e/h/std/sys/socket.h'
p2191
sbsS'glext.h'
p2192
g325
(g1591
g327
Ntp2193
Rp2194
(dp2195
g1595
g1603
sg1596
g1968
sg351
S'c:/marmalade/7.5/s3e/h/GLES/glext.h'
p2196
sbsS'typeinfo.h'
p2197
g325
(g1591
g327
Ntp2198
Rp2199
(dp2200
g1595
g1603
sg1596
g1604
sg351
S'c:/marmalade/7.5/s3e/h/std/c++/typeinfo.h'
p2201
sbsS'typeinfo'
p2202
g325
(g1591
g327
Ntp2203
Rp2204
(dp2205
g1595
g1603
sg1596
g1604
sg351
S'c:/marmalade/7.5/s3e/h/std/c++/typeinfo'
p2206
sbsS'iwsound.config.txt'
p2207
g325
(g1591
g327
Ntp2208
Rp2209
(dp2210
g1595
g1131
sg1596
(lp2211
g1127
ag1138
asg351
g1140
sbsS'fstream.h'
p2212
g325
(g1591
g327
Ntp2213
Rp2214
(dp2215
g1595
g1603
sg1596
g1604
sg351
S'c:/marmalade/7.5/s3e/h/std/c++/fstream.h'
p2216
sbsS'IwGeomMat.h'
p2217
g325
(g1591
g327
Ntp2218
Rp2219
(dp2220
g1595
g1298
sg1596
g1657
sg351
g1314
sbsS's3ePointer.h'
p2221
g325
(g1591
g327
Ntp2222
Rp2223
(dp2224
g1595
g1603
sg1596
g1619
sg351
S'c:/marmalade/7.5/s3e/h/s3ePointer.h'
p2225
sbsS'IwMemBucket.h'
p2226
g325
(g1591
g327
Ntp2227
Rp2228
(dp2229
g1595
g1462
sg1596
g1632
sg351
g1509
sbsS'PVRTexTool.h'
p2230
g325
(g1591
g327
Ntp2231
Rp2232
(dp2233
g1595
g1226
sg1596
(lp2234
g1218
ag1220
asg351
g1229
sbsS's3eGL.h'
p2235
g325
(g1591
g327
Ntp2236
Rp2237
(dp2238
g1595
g1603
sg1596
g1619
sg351
S'c:/marmalade/7.5/s3e/h/s3eGL.h'
p2239
sbsS'IwGeomFVec2.h'
p2240
g325
(g1591
g327
Ntp2241
Rp2242
(dp2243
g1595
g1298
sg1596
g1657
sg351
g1332
sbsS'IwGeomSVec4.h'
p2244
g325
(g1591
g327
Ntp2245
Rp2246
(dp2247
g1595
g1298
sg1596
g1657
sg351
g1334
sbsS'poll.h'
p2248
g325
(g1591
g327
Ntp2249
Rp2250
(dp2251
g1595
g1603
sg1596
g1625
sg351
S'c:/marmalade/7.5/s3e/h/std/poll.h'
p2252
sbsS'IwMatAnim.h'
p2253
g325
(g1591
g327
Ntp2254
Rp2255
(dp2256
g1595
g1398
sg1596
g1737
sg351
g1399
sbsS'IwGeomFVec4.h'
p2257
g325
(g1591
g327
Ntp2258
Rp2259
(dp2260
g1595
g1298
sg1596
g1657
sg351
g1346
sbsS'IwGx.h'
p2261
g325
(g1591
g327
Ntp2262
Rp2263
(dp2264
g1595
g1398
sg1596
g1737
sg351
g1417
sbsS'valarray'
p2265
g325
(g1591
g327
Ntp2266
Rp2267
(dp2268
g1595
g1603
sg1596
g1604
sg351
S'c:/marmalade/7.5/s3e/h/std/c++/valarray'
p2269
sbsS'iosfwd'
p2270
g325
(g1591
g327
Ntp2271
Rp2272
(dp2273
g1595
g1603
sg1596
g1604
sg351
S'c:/marmalade/7.5/s3e/h/std/c++/iosfwd'
p2274
sbsS'gl2.h'
p2275
g325
(g1591
g327
Ntp2276
Rp2277
(dp2278
g1595
g1603
sg1596
g1867
sg351
S'c:/marmalade/7.5/s3e/h/GLES2/gl2.h'
p2279
sbsS'jpegint.h'
p2280
g325
(g1591
g327
Ntp2281
Rp2282
(dp2283
g1595
g1090
sg1596
g1691
sg351
g1105
sbsS'stdiostream.h'
p2284
g325
(g1591
g327
Ntp2285
Rp2286
(dp2287
g1595
g1603
sg1596
g1604
sg351
S'c:/marmalade/7.5/s3e/h/std/c++/stdiostream.h'
p2288
sbsS'mem.h'
p2289
g325
(g1591
g327
Ntp2290
Rp2291
(dp2292
g1595
g1603
sg1596
g1604
sg351
S'c:/marmalade/7.5/s3e/h/std/c++/mem.h'
p2293
sbsS'jerror.h'
p2294
g325
(g1591
g327
Ntp2295
Rp2296
(dp2297
g1595
g1090
sg1596
g1691
sg351
g1088
sbsS'zconf.h'
p2298
g325
(g1591
g327
Ntp2299
Rp2300
(dp2301
g1595
g1567
sg1596
(lp2302
g1562
ag1072
asg351
g1565
sbsS's3e.config.txt'
p2303
g325
(g1591
g327
Ntp2304
Rp2305
(dp2306
g1595
g1603
sg1596
g1619
sg351
S'c:/marmalade/7.5/s3e/s3e.config.txt'
p2307
sbsS'numeric'
p2308
g325
(g1591
g327
Ntp2309
Rp2310
(dp2311
g1595
g1603
sg1596
g1604
sg351
S'c:/marmalade/7.5/s3e/h/std/c++/numeric'
p2312
sbsS'utime.h'
p2313
g325
(g1591
g327
Ntp2314
Rp2315
(dp2316
g1595
g1603
sg1596
g1625
sg351
S'c:/marmalade/7.5/s3e/h/std/utime.h'
p2317
sbsS'jdhuff.h'
p2318
g325
(g1591
g327
Ntp2319
Rp2320
(dp2321
g1595
g1090
sg1596
g1691
sg351
g1091
sbsS'IwResHandlerWAV.cpp'
p2322
g325
(g1591
g327
Ntp2323
Rp2324
(dp2325
g1595
g1131
sg1596
g1643
sg351
g1134
sbsS'un.h'
p2326
g325
(g1591
g327
Ntp2327
Rp2328
(dp2329
g1595
g1603
sg1596
g1756
sg351
S'c:/marmalade/7.5/s3e/h/std/sys/un.h'
p2330
sbsS'IwImage.h'
p2331
g325
(g1591
g327
Ntp2332
Rp2333
(dp2334
g1595
g1462
sg1596
g1632
sg351
g1505
sbsS's3eImagePicker.h'
p2335
g325
(g1591
g327
Ntp2336
Rp2337
(dp2338
g1595
g1603
sg1596
g1830
sg351
S'c:/marmalade/7.5/s3e/h/ext/s3eImagePicker.h'
p2339
sbsS'stdlib.h'
p2340
g325
(g1591
g327
Ntp2341
Rp2342
(dp2343
g1595
g1603
sg1596
g1625
sg351
S'c:/marmalade/7.5/s3e/h/std/stdlib.h'
p2344
sbsS'IwCopyingPtr.h'
p2345
g325
(g1591
g327
Ntp2346
Rp2347
(dp2348
g1595
g1462
sg1596
g1632
sg351
g1544
sbsS'iostream'
p2349
g325
(g1591
g327
Ntp2350
Rp2351
(dp2352
g1595
g1603
sg1596
g1604
sg351
S'c:/marmalade/7.5/s3e/h/std/c++/iostream'
p2353
sbsS'png.h'
p2354
g325
(g1591
g327
Ntp2355
Rp2356
(dp2357
g1595
g1076
sg1596
(lp2358
g1070
ag1072
asg351
g1074
sbsS'stddef.h'
p2359
g325
(g1591
g327
Ntp2360
Rp2361
(dp2362
g1595
g1603
sg1596
g1625
sg351
S'c:/marmalade/7.5/s3e/h/std/stddef.h'
p2363
sbsS'setjmp_win32.h'
p2364
g325
(g1591
g327
Ntp2365
Rp2366
(dp2367
g1595
g1603
sg1596
g1625
sg351
S'c:/marmalade/7.5/s3e/h/std/setjmp_win32.h'
p2368
sbsS'pauseMenu.h'
p2369
g325
(g1591
g327
Ntp2370
Rp2371
(dp2372
g1595
g1183
sg1596
g1747
sg351
g1198
sbsS'IwGxPrint.h'
p2373
g325
(g1591
g327
Ntp2374
Rp2375
(dp2376
g1595
g1398
sg1596
g1737
sg351
g1407
sbsS'iwgx_public.defines.txt'
p2377
g325
(g1591
g327
Ntp2378
Rp2379
(dp2380
g1595
g1398
sg1596
g1737
sg351
g1419
sbsS'streambuf.h'
p2381
g325
(g1591
g327
Ntp2382
Rp2383
(dp2384
g1595
g1603
sg1596
g1604
sg351
S'c:/marmalade/7.5/s3e/h/std/c++/streambuf.h'
p2385
sbsS'resources.cpp'
p2386
g325
(g1591
g327
Ntp2387
Rp2388
(dp2389
g1595
g1183
sg1596
g1747
sg351
g1202
sbsS'IwGeomFPlane.h'
p2390
g325
(g1591
g327
Ntp2391
Rp2392
(dp2393
g1595
g1298
sg1596
g1657
sg351
g1362
sbsS'wchar.h'
p2394
g325
(g1591
g327
Ntp2395
Rp2396
(dp2397
g1595
g1603
sg1596
g1625
sg351
S'c:/marmalade/7.5/s3e/h/std/wchar.h'
p2398
sbsS's3eCameraCapture.h'
p2399
g325
(g1591
g327
Ntp2400
Rp2401
(dp2402
g1595
g1603
sg1596
g1830
sg351
S'c:/marmalade/7.5/s3e/h/ext/s3eCameraCapture.h'
p2403
sbsS'eglext.h'
p2404
g325
(g1591
g327
Ntp2405
Rp2406
(dp2407
g1595
g1603
sg1596
g1960
sg351
S'c:/marmalade/7.5/s3e/h/EGL/eglext.h'
p2408
sbsS'IwResHandlerImage.h'
p2409
g325
(g1591
g327
Ntp2410
Rp2411
(dp2412
g1595
g1374
sg1596
g1875
sg351
g1392
sbsS'strstream.h'
p2413
g325
(g1591
g327
Ntp2414
Rp2415
(dp2416
g1595
g1603
sg1596
g1604
sg351
S'c:/marmalade/7.5/s3e/h/std/c++/strstream.h'
p2417
sbsS'tiniconv.h'
p2418
g325
(g1591
g327
Ntp2419
Rp2420
(dp2421
g1595
g1124
sg1596
g2082
sg351
g1125
sbsS'IwGLExt.h'
p2422
g325
(g1591
g327
Ntp2423
Rp2424
(dp2425
g1595
g1255
sg1596
g1613
sg351
g1258
sbsS'app.icf'
p2426
g325
(g1591
g327
Ntp2427
Rp2428
(dp2429
g1595
(dp2430
sg1596
g4
sg351
S'c:/Marmalade/7.5/examples/GameTutorial/CPP/Stage4/data/app.icf'
p2431
sbsS'IwClassFactory.h'
p2432
g325
(g1591
g327
Ntp2433
Rp2434
(dp2435
g1595
g1462
sg1596
g1632
sg351
g1479
sbsS'file.h'
p2436
g325
(g1591
g327
Ntp2437
Rp2438
(dp2439
g1595
g1603
sg1596
g1756
sg351
S'c:/marmalade/7.5/s3e/h/std/sys/file.h'
p2440
sbsS'cstring'
p2441
g325
(g1591
g327
Ntp2442
Rp2443
(dp2444
g1595
g1603
sg1596
g1604
sg351
S'c:/marmalade/7.5/s3e/h/std/c++/cstring'
p2445
sbsS'IwSoundInst.cpp'
p2446
g325
(g1591
g327
Ntp2447
Rp2448
(dp2449
g1595
g1131
sg1596
g1643
sg351
g1156
sbsS'iwutil.config.txt'
p2450
g325
(g1591
g327
Ntp2451
Rp2452
(dp2453
g1595
g1462
sg1596
g1632
sg351
g1495
sbsS's3eSMS.h'
p2454
g325
(g1591
g327
Ntp2455
Rp2456
(dp2457
g1595
g1603
sg1596
g1830
sg351
S'c:/marmalade/7.5/s3e/h/ext/s3eSMS.h'
p2458
sbsS'limits.h'
p2459
g325
(g1591
g327
Ntp2460
Rp2461
(dp2462
g1595
g1603
sg1596
g1625
sg351
S'c:/marmalade/7.5/s3e/h/std/limits.h'
p2463
sbsS'scene.h'
p2464
g325
(g1591
g327
Ntp2465
Rp2466
(dp2467
g1595
g1183
sg1596
g1747
sg351
g1212
sbsS'IwMaterial.h'
p2468
g325
(g1591
g327
Ntp2469
Rp2470
(dp2471
g1595
g1398
sg1596
g1737
sg351
g1427
sbsS'PVRTexTool_interface.cpp'
p2472
g325
(g1591
g327
Ntp2473
Rp2474
(dp2475
g1595
g1226
sg1596
(lp2476
g1218
ag1220
ag1222
asg351
g1227
sbsS'IwGxSurface.h'
p2477
g325
(g1591
g327
Ntp2478
Rp2479
(dp2480
g1595
g1398
sg1596
g1737
sg351
g1413
sbsS's3eSocket.h'
p2481
g325
(g1591
g327
Ntp2482
Rp2483
(dp2484
g1595
g1603
sg1596
g1619
sg351
S'c:/marmalade/7.5/s3e/h/s3eSocket.h'
p2485
sbsS'IwAutoFile.h'
p2486
g325
(g1591
g327
Ntp2487
Rp2488
(dp2489
g1595
g1462
sg1596
g1632
sg351
g1523
sbsS's3eVibra.h'
p2490
g325
(g1591
g327
Ntp2491
Rp2492
(dp2493
g1595
g1603
sg1596
g1619
sg351
S'c:/marmalade/7.5/s3e/h/s3eVibra.h'
p2494
sbsS'poll_1.h'
p2495
g325
(g1591
g327
Ntp2496
Rp2497
(dp2498
g1595
g1603
sg1596
g1756
sg351
S'c:/marmalade/7.5/s3e/h/std/sys/poll.h'
p2499
sbsS's3eThread.h'
p2500
g325
(g1591
g327
Ntp2501
Rp2502
(dp2503
g1595
g1603
sg1596
g1619
sg351
S'c:/marmalade/7.5/s3e/h/s3eThread.h'
p2504
sbsS'ucontext.h'
p2505
g325
(g1591
g327
Ntp2506
Rp2507
(dp2508
g1595
g1603
sg1596
g1625
sg351
S'c:/marmalade/7.5/s3e/h/std/ucontext.h'
p2509
sbsS'time.h'
p2510
g325
(g1591
g327
Ntp2511
Rp2512
(dp2513
g1595
g1603
sg1596
g1625
sg351
S'c:/marmalade/7.5/s3e/h/std/time.h'
p2514
sbsS'jchuff.h'
p2515
g325
(g1591
g327
Ntp2516
Rp2517
(dp2518
g1595
g1090
sg1596
g1691
sg351
g1107
sbsS'IwSoundPCM.cpp'
p2519
g325
(g1591
g327
Ntp2520
Rp2521
(dp2522
g1595
g1131
sg1596
g1643
sg351
g1152
sbsS's3eSoundRecord.h'
p2523
g325
(g1591
g327
Ntp2524
Rp2525
(dp2526
g1595
g1603
sg1596
g1619
sg351
S'c:/marmalade/7.5/s3e/h/s3eSoundRecord.h'
p2527
sbsS'IwFibre.h'
p2528
g325
(g1591
g327
Ntp2529
Rp2530
(dp2531
g1595
g1462
sg1596
g1632
sg351
g1548
sbsS's3eVersion.h'
p2532
g325
(g1591
g327
Ntp2533
Rp2534
(dp2535
g1595
g1603
sg1596
g1619
sg351
S'c:/marmalade/7.5/s3e/h/s3eVersion.h'
p2536
sbsS'input.cpp'
p2537
g325
(g1591
g327
Ntp2538
Rp2539
(dp2540
g1595
g1183
sg1596
g1747
sg351
g1206
sbsS'IwSoundGroup.h'
p2541
g325
(g1591
g327
Ntp2542
Rp2543
(dp2544
g1595
g1131
sg1596
g1643
sg351
g1177
sbsS'IwSoundWAV.h'
p2545
g325
(g1591
g327
Ntp2546
Rp2547
(dp2548
g1595
g1131
sg1596
g1643
sg351
g1158
sbsS'IwGxFontGlyph.h'
p2549
g325
(g1591
g327
Ntp2550
Rp2551
(dp2552
g1595
g1276
sg1596
g1597
sg351
g1274
sbsS's3eTypes.h'
p2553
g325
(g1591
g327
Ntp2554
Rp2555
(dp2556
g1595
g1603
sg1596
g1619
sg351
S'c:/marmalade/7.5/s3e/h/s3eTypes.h'
p2557
sbsS'IwSoundSpec.h'
p2558
g325
(g1591
g327
Ntp2559
Rp2560
(dp2561
g1595
g1131
sg1596
g1643
sg351
g1146
sbsS'signal_2.h'
p2562
g325
(g1591
g327
Ntp2563
Rp2564
(dp2565
g1595
g1603
sg1596
g1604
sg351
S'c:/marmalade/7.5/s3e/h/std/c++/signal.h'
p2566
sbsS'termios.h'
p2567
g325
(g1591
g327
Ntp2568
Rp2569
(dp2570
g1595
g1603
sg1596
g1625
sg351
S'c:/marmalade/7.5/s3e/h/std/termios.h'
p2571
sbsS'iw2dscenegraph.mkf'
p2572
g325
(g1591
g327
Ntp2573
Rp2574
(dp2575
g1595
g1247
sg1596
g1917
sg351
g1245
sbsS'slist'
p2576
g325
(g1591
g327
Ntp2577
Rp2578
(dp2579
g1595
g1603
sg1596
g1604
sg351
S'c:/marmalade/7.5/s3e/h/std/c++/slist'
p2580
sbsS'cstdlib'
p2581
g325
(g1591
g327
Ntp2582
Rp2583
(dp2584
g1595
g1603
sg1596
g1604
sg351
S'c:/marmalade/7.5/s3e/h/std/c++/cstdlib'
p2585
sbsS's3eLocation.h'
p2586
g325
(g1591
g327
Ntp2587
Rp2588
(dp2589
g1595
g1603
sg1596
g1619
sg351
S'c:/marmalade/7.5/s3e/h/s3eLocation.h'
p2590
sbsS'IwMemBucketHelpers.h'
p2591
g325
(g1591
g327
Ntp2592
Rp2593
(dp2594
g1595
g1462
sg1596
g1632
sg351
g1499
sbsS's3eHash.h'
p2595
g325
(g1591
g327
Ntp2596
Rp2597
(dp2598
g1595
g1603
sg1596
g1619
sg351
S'c:/marmalade/7.5/s3e/h/s3eHash.h'
p2599
sbsS'IwSoundGroup.cpp'
p2600
g325
(g1591
g327
Ntp2601
Rp2602
(dp2603
g1595
g1131
sg1596
g1643
sg351
g1129
sbsS'IwGeomFMat.h'
p2604
g325
(g1591
g327
Ntp2605
Rp2606
(dp2607
g1595
g1298
sg1596
g1657
sg351
g1326
sbsS'type_traits.h'
p2608
g325
(g1591
g327
Ntp2609
Rp2610
(dp2611
g1595
g1603
sg1596
g1604
sg351
S'c:/marmalade/7.5/s3e/h/std/c++/type_traits.h'
p2612
sbsS's3eAtomic.h'
p2613
g325
(g1591
g327
Ntp2614
Rp2615
(dp2616
g1595
g1603
sg1596
g1619
sg351
S'c:/marmalade/7.5/s3e/h/s3eAtomic.h'
p2617
sbsS'IwMenu.h'
p2618
g325
(g1591
g327
Ntp2619
Rp2620
(dp2621
g1595
g1462
sg1596
g1632
sg351
g1552
sbsS'IwResHandlerITX.h'
p2622
g325
(g1591
g327
Ntp2623
Rp2624
(dp2625
g1595
g1374
sg1596
g1875
sg351
g1372
sbsS'IwSoundData.h'
p2626
g325
(g1591
g327
Ntp2627
Rp2628
(dp2629
g1595
g1131
sg1596
g1643
sg351
g1170
sbsS'IwArray.h'
p2630
g325
(g1591
g327
Ntp2631
Rp2632
(dp2633
g1595
g1462
sg1596
g1632
sg351
g1550
sbsS'IwUTF8.h'
p2634
g325
(g1591
g327
Ntp2635
Rp2636
(dp2637
g1595
g1462
sg1596
g1632
sg351
g1493
sbsS'math_rvct.h'
p2638
g325
(g1591
g327
Ntp2639
Rp2640
(dp2641
g1595
g1603
sg1596
g1625
sg351
S'c:/marmalade/7.5/s3e/h/std/math_rvct.h'
p2642
sbsS'IwUtil.h'
p2643
g325
(g1591
g327
Ntp2644
Rp2645
(dp2646
g1595
g1462
sg1596
g1632
sg351
g1534
sbsS'IwFColour.h'
p2647
g325
(g1591
g327
Ntp2648
Rp2649
(dp2650
g1595
g1398
sg1596
g1737
sg351
g1433
sbsS'wctype.h'
p2651
g325
(g1591
g327
Ntp2652
Rp2653
(dp2654
g1595
g1603
sg1596
g1625
sg351
S'c:/marmalade/7.5/s3e/h/std/wctype.h'
p2655
sbsS'mainMenu.h'
p2656
g325
(g1591
g327
Ntp2657
Rp2658
(dp2659
g1595
g1183
sg1596
g1747
sg351
g1216
sbsS'cstddef'
p2660
g325
(g1591
g327
Ntp2661
Rp2662
(dp2663
g1595
g1603
sg1596
g1604
sg351
S'c:/marmalade/7.5/s3e/h/std/c++/cstddef'
p2664
sbsS'assert.h'
p2665
g325
(g1591
g327
Ntp2666
Rp2667
(dp2668
g1595
g1603
sg1596
g1625
sg351
S'c:/marmalade/7.5/s3e/h/std/assert.h'
p2669
sbsS'mman.h'
p2670
g325
(g1591
g327
Ntp2671
Rp2672
(dp2673
g1595
g1603
sg1596
g1756
sg351
S'c:/marmalade/7.5/s3e/h/std/sys/mman.h'
p2674
sbsS'IwRandom.h'
p2675
g325
(g1591
g327
Ntp2676
Rp2677
(dp2678
g1595
g1462
sg1596
g1632
sg351
g1489
sbsS'libgen.h'
p2679
g325
(g1591
g327
Ntp2680
Rp2681
(dp2682
g1595
g1603
sg1596
g1625
sg351
S'c:/marmalade/7.5/s3e/h/std/libgen.h'
p2683
sbsS'utsname.h'
p2684
g325
(g1591
g327
Ntp2685
Rp2686
(dp2687
g1595
g1603
sg1596
g1756
sg351
S'c:/marmalade/7.5/s3e/h/std/sys/utsname.h'
p2688
sbsS'wait.h'
p2689
g325
(g1591
g327
Ntp2690
Rp2691
(dp2692
g1595
g1603
sg1596
g1756
sg351
S'c:/marmalade/7.5/s3e/h/std/sys/wait.h'
p2693
sbsS'param.h'
p2694
g325
(g1591
g327
Ntp2695
Rp2696
(dp2697
g1595
g1603
sg1596
g1756
sg351
S'c:/marmalade/7.5/s3e/h/std/sys/param.h'
p2698
sbsS'IwDivide.h'
p2699
g325
(g1591
g327
Ntp2700
Rp2701
(dp2702
g1595
g1462
sg1596
g1632
sg351
g1469
sbsS'Iw2DSceneGraphCore.cpp'
p2703
g325
(g1591
g327
Ntp2704
Rp2705
(dp2706
g1595
g1455
sg1596
(lp2707
S"'Marmalade Studio'"
p2708
ag1448
asg351
g1456
sbsS'IwResManager.h'
p2709
g325
(g1591
g327
Ntp2710
Rp2711
(dp2712
g1595
g1374
sg1596
g1875
sg351
g1381
sbsS'IwSoundManager.h'
p2713
g325
(g1591
g327
Ntp2714
Rp2715
(dp2716
g1595
g1131
sg1596
g1643
sg351
g1150
sbsS'cwctype'
p2717
g325
(g1591
g327
Ntp2718
Rp2719
(dp2720
g1595
g1603
sg1596
g1604
sg351
S'c:/marmalade/7.5/s3e/h/std/c++/cwctype'
p2721
sbsS'set'
p2722
g325
(g1591
g327
Ntp2723
Rp2724
(dp2725
g1595
g1603
sg1596
g1604
sg351
S'c:/marmalade/7.5/s3e/h/std/c++/set'
p2726
sbsS'IwGeomSQuat.h'
p2727
g325
(g1591
g327
Ntp2728
Rp2729
(dp2730
g1595
g1298
sg1596
g1657
sg351
g1322
sbsS'locale'
p2731
g325
(g1591
g327
Ntp2732
Rp2733
(dp2734
g1595
g1603
sg1596
g1604
sg351
S'c:/marmalade/7.5/s3e/h/std/c++/locale'
p2735
sbsS'timer.cpp'
p2736
g325
(g1591
g327
Ntp2737
Rp2738
(dp2739
g1595
g1183
sg1596
g1747
sg351
g1210
sbsS'cstdio'
p2740
g325
(g1591
g327
Ntp2741
Rp2742
(dp2743
g1595
g1603
sg1596
g1604
sg351
S'c:/marmalade/7.5/s3e/h/std/c++/cstdio'
p2744
sbsS'cdjpeg.h'
p2745
g325
(g1591
g327
Ntp2746
Rp2747
(dp2748
g1595
g1090
sg1596
g1691
sg351
g1109
sbsS'audio.h'
p2749
g325
(g1591
g327
Ntp2750
Rp2751
(dp2752
g1595
g1183
sg1596
g1747
sg351
g1208
sbsS'IwList.h'
p2753
g325
(g1591
g327
Ntp2754
Rp2755
(dp2756
g1595
g1462
sg1596
g1632
sg351
g1521
sbsS'pauseMenu.cpp'
p2757
g325
(g1591
g327
Ntp2758
Rp2759
(dp2760
g1595
g1183
sg1596
g1747
sg351
g1184
sbsS'inttypes.h'
p2761
g325
(g1591
g327
Ntp2762
Rp2763
(dp2764
g1595
g1603
sg1596
g1625
sg351
S'c:/marmalade/7.5/s3e/h/std/inttypes.h'
p2765
sbsS'dirent.h'
p2766
g325
(g1591
g327
Ntp2767
Rp2768
(dp2769
g1595
g1603
sg1596
g1625
sg351
S'c:/marmalade/7.5/s3e/h/std/dirent.h'
p2770
sbsS'IwGeomVec3.h'
p2771
g325
(g1591
g327
Ntp2772
Rp2773
(dp2774
g1595
g1298
sg1596
g1657
sg351
g1316
sbsS'transupp.h'
p2775
g325
(g1591
g327
Ntp2776
Rp2777
(dp2778
g1595
g1090
sg1596
g1691
sg351
g1095
sbsS'IwMath.h'
p2779
g325
(g1591
g327
Ntp2780
Rp2781
(dp2782
g1595
g1462
sg1596
g1632
sg351
g1463
sbsS'IwGeomQuat.h'
p2783
g325
(g1591
g327
Ntp2784
Rp2785
(dp2786
g1595
g1298
sg1596
g1657
sg351
g1366
sbsS'glplatform.h'
p2787
g325
(g1591
g327
Ntp2788
Rp2789
(dp2790
g1595
g1603
sg1596
g1968
sg351
S'c:/marmalade/7.5/s3e/h/GLES/glplatform.h'
p2791
sbsS's3e-default.mkf'
p2792
g325
(g1591
g327
Ntp2793
Rp2794
(dp2795
g1595
g1587
sg1596
(lp2796
g1583
asg351
g1585
sbsS'iwgl.config.txt'
p2797
g325
(g1591
g327
Ntp2798
Rp2799
(dp2800
g1595
g1255
sg1596
g1613
sg351
g1256
sbsS'bitset'
p2801
g325
(g1591
g327
Ntp2802
Rp2803
(dp2804
g1595
g1603
sg1596
g1604
sg351
S'c:/marmalade/7.5/s3e/h/std/c++/bitset'
p2805
sbsS'alloca.h'
p2806
g325
(g1591
g327
Ntp2807
Rp2808
(dp2809
g1595
g1603
sg1596
g1625
sg351
S'c:/marmalade/7.5/s3e/h/std/alloca.h'
p2810
sbsS'IwResHandler.h'
p2811
g325
(g1591
g327
Ntp2812
Rp2813
(dp2814
g1595
g1374
sg1596
g1875
sg351
g1390
sbsS'IwResHandlerMTL.h'
p2815
g325
(g1591
g327
Ntp2816
Rp2817
(dp2818
g1595
g1398
sg1596
g1737
sg351
g1405
sbsS'IwRuntime.h'
p2819
g325
(g1591
g327
Ntp2820
Rp2821
(dp2822
g1595
g1462
sg1596
g1632
sg351
g1513
sbsS'limits'
p2823
g325
(g1591
g327
Ntp2824
Rp2825
(dp2826
g1595
g1603
sg1596
g1604
sg351
S'c:/marmalade/7.5/s3e/h/std/c++/limits'
p2827
sbsS'IwGeomBBox.h'
p2828
g325
(g1591
g327
Ntp2829
Rp2830
(dp2831
g1595
g1298
sg1596
g1657
sg351
g1356
sbsS's3eContacts.h'
p2832
g325
(g1591
g327
Ntp2833
Rp2834
(dp2835
g1595
g1603
sg1596
g1619
sg351
S'c:/marmalade/7.5/s3e/h/s3eContacts.h'
p2836
sbsS's3eLicense.h'
p2837
g325
(g1591
g327
Ntp2838
Rp2839
(dp2840
g1595
g1603
sg1596
g1619
sg351
S'c:/marmalade/7.5/s3e/h/s3eLicense.h'
p2841
sbsS'iwgx.config.txt'
p2842
g325
(g1591
g327
Ntp2843
Rp2844
(dp2845
g1595
g1398
sg1596
g1737
sg351
g1440
sbsS'IwTextParser.h'
p2846
g325
(g1591
g327
Ntp2847
Rp2848
(dp2849
g1595
g1462
sg1596
g1632
sg351
g1542
sbsS's3eTimer.h'
p2850
g325
(g1591
g327
Ntp2851
Rp2852
(dp2853
g1595
g1603
sg1596
g1619
sg351
S'c:/marmalade/7.5/s3e/h/s3eTimer.h'
p2854
sbsS'IwGeomVec.h'
p2855
g325
(g1591
g327
Ntp2856
Rp2857
(dp2858
g1595
g1298
sg1596
g1657
sg351
g1342
sbsS'IwSerialise.h'
p2859
g325
(g1591
g327
Ntp2860
Rp2861
(dp2862
g1595
g1462
sg1596
g1632
sg351
g1560
sbsS'cstdarg'
p2863
g325
(g1591
g327
Ntp2864
Rp2865
(dp2866
g1595
g1603
sg1596
g1604
sg351
S'c:/marmalade/7.5/s3e/h/std/c++/cstdarg'
p2867
sbsS'gl2ext.h'
p2868
g325
(g1591
g327
Ntp2869
Rp2870
(dp2871
g1595
g1603
sg1596
g1867
sg351
S'c:/marmalade/7.5/s3e/h/GLES2/gl2ext.h'
p2872
sbsS'IwChar.h'
p2873
g325
(g1591
g327
Ntp2874
Rp2875
(dp2876
g1595
g1462
sg1596
g1632
sg351
g1487
sbsS's3eSound.h'
p2877
g325
(g1591
g327
Ntp2878
Rp2879
(dp2880
g1595
g1603
sg1596
g1619
sg351
S'c:/marmalade/7.5/s3e/h/s3eSound.h'
p2881
sbsS'IwVariableBitField.h'
p2882
g325
(g1591
g327
Ntp2883
Rp2884
(dp2885
g1595
g1462
sg1596
g1632
sg351
g1525
sbsS'exception.h'
p2886
g325
(g1591
g327
Ntp2887
Rp2888
(dp2889
g1595
g1603
sg1596
g1604
sg351
S'c:/marmalade/7.5/s3e/h/std/c++/exception.h'
p2890
sbsS'iwgeom.config.txt'
p2891
g325
(g1591
g327
Ntp2892
Rp2893
(dp2894
g1595
g1298
sg1596
g1657
sg351
g1364
sbsS'iwgx.mkf'
p2895
g325
(g1591
g327
Ntp2896
Rp2897
(dp2898
g1595
g1439
sg1596
g1737
sg351
g1437
sbsS'gl.h'
p2899
g325
(g1591
g327
Ntp2900
Rp2901
(dp2902
g1595
g1603
sg1596
g1968
sg351
S'c:/marmalade/7.5/s3e/h/GLES/gl.h'
p2903
sbsS'zlib.h'
p2904
g325
(g1591
g327
Ntp2905
Rp2906
(dp2907
g1595
g1567
sg1596
g2302
sg351
g1568
sbsS'temp_defines_release.h'
p2908
g325
(g1591
g327
Ntp2909
Rp2910
(dp2911
g1595
(lp2912
sg1596
(lp2913
S"'generated files'"
p2914
asg351
S'c:/Marmalade/7.5/examples/GameTutorial/CPP/Stage4/build_stage4_vc12/temp_defines_release.h'
p2915
sbsS'iwgl.mkf'
p2916
g325
(g1591
g327
Ntp2917
Rp2918
(dp2919
g1595
g1252
sg1596
g1613
sg351
g1250
sbsS'IwColour.h'
p2920
g325
(g1591
g327
Ntp2921
Rp2922
(dp2923
g1595
g1398
sg1596
g1737
sg351
g1442
sbsS's3eLibrary.h'
p2924
g325
(g1591
g327
Ntp2925
Rp2926
(dp2927
g1595
g1603
sg1596
g1830
sg351
S'c:/marmalade/7.5/s3e/h/ext/s3eLibrary.h'
p2928
sbsS'types.h'
p2929
g325
(g1591
g327
Ntp2930
Rp2931
(dp2932
g1595
g1603
sg1596
g1756
sg351
S'c:/marmalade/7.5/s3e/h/std/sys/types.h'
p2933
sbsS'ifaddrs.h'
p2934
g325
(g1591
g327
Ntp2935
Rp2936
(dp2937
g1595
g1603
sg1596
g1625
sg351
S'c:/marmalade/7.5/s3e/h/std/ifaddrs.h'
p2938
sbsS'strstream'
p2939
g325
(g1591
g327
Ntp2940
Rp2941
(dp2942
g1595
g1603
sg1596
g1604
sg351
S'c:/marmalade/7.5/s3e/h/std/c++/strstream'
p2943
sbsS'IwTween.cpp'
p2944
g325
(g1591
g327
Ntp2945
Rp2946
(dp2947
g1595
g1577
sg1596
g2129
sg351
g1578
sbsS'exception'
p2948
g325
(g1591
g327
Ntp2949
Rp2950
(dp2951
g1595
g1603
sg1596
g1604
sg351
S'c:/marmalade/7.5/s3e/h/std/c++/exception'
p2952
sbsS'rlocks.h'
p2953
g325
(g1591
g327
Ntp2954
Rp2955
(dp2956
g1595
g1603
sg1596
g1604
sg351
S'c:/marmalade/7.5/s3e/h/std/c++/rlocks.h'
p2957
sbsS'ioctl.h'
p2958
g325
(g1591
g327
Ntp2959
Rp2960
(dp2961
g1595
g1603
sg1596
g1756
sg351
S'c:/marmalade/7.5/s3e/h/std/sys/ioctl.h'
p2962
sbsS'sem.h'
p2963
g325
(g1591
g327
Ntp2964
Rp2965
(dp2966
g1595
g1603
sg1596
g1756
sg351
S'c:/marmalade/7.5/s3e/h/std/sys/sem.h'
p2967
sbsS'jinclude.h'
p2968
g325
(g1591
g327
Ntp2969
Rp2970
(dp2971
g1595
g1090
sg1596
g1691
sg351
g1097
sbsS'IwEvent.h'
p2972
g325
(g1591
g327
Ntp2973
Rp2974
(dp2975
g1595
g1462
sg1596
g1632
sg351
g1546
sbsS'IwOptimiseSize.h'
p2976
g325
(g1591
g327
Ntp2977
Rp2978
(dp2979
g1595
g1462
sg1596
g1632
sg351
g1511
sbsS'iwgxfont_public.defines.txt'
p2980
g325
(g1591
g327
Ntp2981
Rp2982
(dp2983
g1595
g1276
sg1596
g1597
sg351
g1292
sbsS'iconv.h'
p2984
g325
(g1591
g327
Ntp2985
Rp2986
(dp2987
g1595
g1603
sg1596
g1625
sg351
S'c:/marmalade/7.5/s3e/h/std/iconv.h'
p2988
sbsS's3eDevice.h'
p2989
g325
(g1591
g327
Ntp2990
Rp2991
(dp2992
g1595
g1603
sg1596
g1619
sg351
S'c:/marmalade/7.5/s3e/h/s3eDevice.h'
p2993
sbsS'IwGeomSphere.h'
p2994
g325
(g1591
g327
Ntp2995
Rp2996
(dp2997
g1595
g1298
sg1596
g1657
sg351
g1299
sbsS'tiniconv.mkf'
p2998
g325
(g1591
g327
Ntp2999
Rp3000
(dp3001
g1595
g1121
sg1596
g2082
sg351
g1119
sbsS'iw2dscenegraph.defines.txt'
p3002
g325
(g1591
g327
Ntp3003
Rp3004
(dp3005
g1595
g1240
sg1596
g1917
sg351
g1241
sbsS'jdct.h'
p3006
g325
(g1591
g327
Ntp3007
Rp3008
(dp3009
g1595
g1090
sg1596
g1691
sg351
g1101
sbsS'cctype'
p3010
g325
(g1591
g327
Ntp3011
Rp3012
(dp3013
g1595
g1603
sg1596
g1604
sg351
S'c:/marmalade/7.5/s3e/h/std/c++/cctype'
p3014
sbsS'IwSoundADPCM.cpp'
p3015
g325
(g1591
g327
Ntp3016
Rp3017
(dp3018
g1595
g1131
sg1596
g1643
sg351
g1164
sbsS's3eConfig.h'
p3019
g325
(g1591
g327
Ntp3020
Rp3021
(dp3022
g1595
g1603
sg1596
g1619
sg351
S'c:/marmalade/7.5/s3e/h/s3eConfig.h'
p3023
sbsS'IwHashString.h'
p3024
g325
(g1591
g327
Ntp3025
Rp3026
(dp3027
g1595
g1462
sg1596
g1632
sg351
g1527
sbsS'stat.h'
p3028
g325
(g1591
g327
Ntp3029
Rp3030
(dp3031
g1595
g1603
sg1596
g1756
sg351
S'c:/marmalade/7.5/s3e/h/std/sys/stat.h'
p3032
sbsS'byteswap.h'
p3033
g325
(g1591
g327
Ntp3034
Rp3035
(dp3036
g1595
g1603
sg1596
g1625
sg351
S'c:/marmalade/7.5/s3e/h/std/byteswap.h'
p3037
sbsS'iwresmanager.mkf'
p3038
g325
(g1591
g327
Ntp3039
Rp3040
(dp3041
g1595
g1385
sg1596
g1875
sg351
g1383
sbsS'IwUtilInitTerm.h'
p3042
g325
(g1591
g327
Ntp3043
Rp3044
(dp3045
g1595
g1462
sg1596
g1632
sg351
g1556
sbsS'pthread_1.h'
p3046
g325
(g1591
g327
Ntp3047
Rp3048
(dp3049
g1595
g1603
sg1596
g1604
sg351
S'c:/marmalade/7.5/s3e/h/std/c++/pthread.h'
p3050
sbsS'iw2d.mkf'
p3051
g325
(g1591
g327
Ntp3052
Rp3053
(dp3054
g1595
g1271
sg1596
g1696
sg351
g1269
sbsS'complex'
p3055
g325
(g1591
g327
Ntp3056
Rp3057
(dp3058
g1595
g1603
sg1596
g1604
sg351
S'c:/marmalade/7.5/s3e/h/std/c++/complex'
p3059
sbsS'game.cpp'
p3060
g325
(g1591
g327
Ntp3061
Rp3062
(dp3063
g1595
g1183
sg1596
g1747
sg351
g1214
sbsS'algorithm'
p3064
g325
(g1591
g327
Ntp3065
Rp3066
(dp3067
g1595
g1603
sg1596
g1604
sg351
S'c:/marmalade/7.5/s3e/h/std/c++/algorithm'
p3068
sbsS's3e.icf'
p3069
g325
(g1591
g327
Ntp3070
Rp3071
(dp3072
g1595
g1603
sg1596
g1619
sg351
S'c:/marmalade/7.5/s3e/s3e.icf'
p3073
sbsS'resources.h'
p3074
g325
(g1591
g327
Ntp3075
Rp3076
(dp3077
g1595
g1183
sg1596
g1747
sg351
g1194
sbsS'IwGxFontState.h'
p3078
g325
(g1591
g327
Ntp3079
Rp3080
(dp3081
g1595
g1276
sg1596
g1597
sg351
g1281
sbsS'stdio.h'
p3082
g325
(g1591
g327
Ntp3083
Rp3084
(dp3085
g1595
g1603
sg1596
g1625
sg351
S'c:/marmalade/7.5/s3e/h/std/stdio.h'
p3086
sbsS'jmemsys.h'
p3087
g325
(g1591
g327
Ntp3088
Rp3089
(dp3090
g1595
g1090
sg1596
g1691
sg351
g1103
sbsS'ios'
p3091
g325
(g1591
g327
Ntp3092
Rp3093
(dp3094
g1595
g1603
sg1596
g1604
sg351
S'c:/marmalade/7.5/s3e/h/std/c++/ios'
p3095
sbsS'IwTween.h'
p3096
g325
(g1591
g327
Ntp3097
Rp3098
(dp3099
g1595
g1577
sg1596
g2129
sg351
g1575
sbsS'PVRTexTool.defines.txt'
p3100
g325
(g1591
g327
Ntp3101
Rp3102
(dp3103
g1595
g1226
sg1596
g2476
sg351
g1224
sbsS'stack'
p3104
g325
(g1591
g327
Ntp3105
Rp3106
(dp3107
g1595
g1603
sg1596
g1604
sg351
S'c:/marmalade/7.5/s3e/h/std/c++/stack'
p3108
sbsS'IwSoundParams.h'
p3109
g325
(g1591
g327
Ntp3110
Rp3111
(dp3112
g1595
g1131
sg1596
g1643
sg351
g1162
sbsS'new.h'
p3113
g325
(g1591
g327
Ntp3114
Rp3115
(dp3116
g1595
g1603
sg1596
g1604
sg351
S'c:/marmalade/7.5/s3e/h/std/c++/new.h'
p3117
sbsS's3eEMail.h'
p3118
g325
(g1591
g327
Ntp3119
Rp3120
(dp3121
g1595
g1603
sg1596
g1830
sg351
S'c:/marmalade/7.5/s3e/h/ext/s3eEMail.h'
p3122
sbsS's3eVideo.h'
p3123
g325
(g1591
g327
Ntp3124
Rp3125
(dp3126
g1595
g1603
sg1596
g1619
sg351
S'c:/marmalade/7.5/s3e/h/s3eVideo.h'
p3127
sbsS'pngconf.h'
p3128
g325
(g1591
g327
Ntp3129
Rp3130
(dp3131
g1595
g1076
sg1596
g2358
sg351
g1077
sbsS'pwd.h'
p3132
g325
(g1591
g327
Ntp3133
Rp3134
(dp3135
g1595
g1603
sg1596
g1625
sg351
S'c:/marmalade/7.5/s3e/h/std/pwd.h'
p3136
sbsS'IwOptimiseThumb.h'
p3137
g325
(g1591
g327
Ntp3138
Rp3139
(dp3140
g1595
g1462
sg1596
g1632
sg351
g1529
sbsS'gl3.h'
p3141
g325
(g1591
g327
Ntp3142
Rp3143
(dp3144
g1595
g1603
sg1596
g1928
sg351
S'c:/marmalade/7.5/s3e/h/GLES3/gl3.h'
p3145
sbsS'IwClip.h'
p3146
g325
(g1591
g327
Ntp3147
Rp3148
(dp3149
g1595
g1398
sg1596
g1737
sg351
g1411
sbsS'IwSoundInst.h'
p3150
g325
(g1591
g327
Ntp3151
Rp3152
(dp3153
g1595
g1131
sg1596
g1643
sg351
g1142
sbsS'iwresmanager.config.txt'
p3154
g325
(g1591
g327
Ntp3155
Rp3156
(dp3157
g1595
g1374
sg1596
g1875
sg351
g1386
sbsS'IwGxShaderTechnique.h'
p3158
g325
(g1591
g327
Ntp3159
Rp3160
(dp3161
g1595
g1398
sg1596
g1737
sg351
g1423
sbsS'IwCore.h'
p3162
g325
(g1591
g327
Ntp3163
Rp3164
(dp3165
g1595
g1462
sg1596
g1632
sg351
g1467
sbsS'cfloat'
p3166
g325
(g1591
g327
Ntp3167
Rp3168
(dp3169
g1595
g1603
sg1596
g1604
sg351
S'c:/marmalade/7.5/s3e/h/std/c++/cfloat'
p3170
sbsS'IwGeomMat2D.h'
p3171
g325
(g1591
g327
Ntp3172
Rp3173
(dp3174
g1595
g1298
sg1596
g1657
sg351
g1330
sbsS'IwAllocator.h'
p3175
g325
(g1591
g327
Ntp3176
Rp3177
(dp3178
g1595
g1462
sg1596
g1632
sg351
g1497
sbsS'IwPath.h'
p3179
g325
(g1591
g327
Ntp3180
Rp3181
(dp3182
g1595
g1462
sg1596
g1632
sg351
g1517
sbsS'iwgxfont.mkf'
p3183
g325
(g1591
g327
Ntp3184
Rp3185
(dp3186
g1595
g1287
sg1596
g1597
sg351
g1285
sbsS'IwTexture.h'
p3187
g325
(g1591
g327
Ntp3188
Rp3189
(dp3190
g1595
g1398
sg1596
g1737
sg351
g1401
sbsS'IwGeomVec.h.tpl'
p3191
g325
(g1591
g327
Ntp3192
Rp3193
(dp3194
g1595
g1298
sg1596
g1657
sg351
g1340
sbsS's3eAccelerometer.h'
p3195
g325
(g1591
g327
Ntp3196
Rp3197
(dp3198
g1595
g1603
sg1596
g1619
sg351
S'c:/marmalade/7.5/s3e/h/s3eAccelerometer.h'
p3199
sbsS'setjmp.h'
p3200
g325
(g1591
g327
Ntp3201
Rp3202
(dp3203
g1595
g1603
sg1596
g1625
sg351
S'c:/marmalade/7.5/s3e/h/std/setjmp.h'
p3204
sbsS'IwSoundParams.cpp'
p3205
g325
(g1591
g327
Ntp3206
Rp3207
(dp3208
g1595
g1131
sg1596
g1643
sg351
g1148
sbsS'IwFile.h'
p3209
g325
(g1591
g327
Ntp3210
Rp3211
(dp3212
g1595
g1462
sg1596
g1632
sg351
g1538
sbsS'IwTextParseable.h'
p3213
g325
(g1591
g327
Ntp3214
Rp3215
(dp3216
g1595
g1462
sg1596
g1632
sg351
g1485
sbsS'istream.h'
p3217
g325
(g1591
g327
Ntp3218
Rp3219
(dp3220
g1595
g1603
sg1596
g1604
sg351
S'c:/marmalade/7.5/s3e/h/std/c++/istream.h'
p3221
sbsS'stdint.h'
p3222
g325
(g1591
g327
Ntp3223
Rp3224
(dp3225
g1595
g1603
sg1596
g1625
sg351
S'c:/marmalade/7.5/s3e/h/std/stdint.h'
p3226
sbsS'semaphore.h'
p3227
g325
(g1591
g327
Ntp3228
Rp3229
(dp3230
g1595
g1603
sg1596
g1625
sg351
S'c:/marmalade/7.5/s3e/h/std/semaphore.h'
p3231
sbsS'ctime'
p3232
g325
(g1591
g327
Ntp3233
Rp3234
(dp3235
g1595
g1603
sg1596
g1604
sg351
S'c:/marmalade/7.5/s3e/h/std/c++/ctime'
p3236
sbsS'sstream'
p3237
g325
(g1591
g327
Ntp3238
Rp3239
(dp3240
g1595
g1603
sg1596
g1604
sg351
S'c:/marmalade/7.5/s3e/h/std/c++/sstream'
p3241
sbsS'IwGeomFBBox.h'
p3242
g325
(g1591
g327
Ntp3243
Rp3244
(dp3245
g1595
g1298
sg1596
g1657
sg351
g1324
sbsS'IwDebugPrim.h'
p3246
g325
(g1591
g327
Ntp3247
Rp3248
(dp3249
g1595
g1398
sg1596
g1737
sg351
g1396
sbsS'IwGxFontContainer.h'
p3250
g325
(g1591
g327
Ntp3251
Rp3252
(dp3253
g1595
g1276
sg1596
g1597
sg351
g1283
sbsS'IwGeomSVec3.h'
p3254
g325
(g1591
g327
Ntp3255
Rp3256
(dp3257
g1595
g1298
sg1596
g1657
sg351
g1301
sbsS'timer.h'
p3258
g325
(g1591
g327
Ntp3259
Rp3260
(dp3261
g1595
g1183
sg1596
g1747
sg351
g1186
sbsS'iw2dscenegraphcore.mkf'
p3262
g325
(g1591
g327
Ntp3263
Rp3264
(dp3265
g1595
g1452
sg1596
g2707
sg351
g1450
sbsS's3eExt.h'
p3266
g325
(g1591
g327
Ntp3267
Rp3268
(dp3269
g1595
g1603
sg1596
g1619
sg351
S'c:/marmalade/7.5/s3e/h/s3eExt.h'
p3270
sbsS'IwGeomFVec3.h'
p3271
g325
(g1591
g327
Ntp3272
Rp3273
(dp3274
g1595
g1298
sg1596
g1657
sg351
g1360
sbsS'streambuf'
p3275
g325
(g1591
g327
Ntp3276
Rp3277
(dp3278
g1595
g1603
sg1596
g1604
sg351
S'c:/marmalade/7.5/s3e/h/std/c++/streambuf'
p3279
sbsS's3eMetrics.h'
p3280
g325
(g1591
g327
Ntp3281
Rp3282
(dp3283
g1595
g1603
sg1596
g1830
sg351
S'c:/marmalade/7.5/s3e/h/ext/s3eMetrics.h'
p3284
sbsS'IwGxFont.h'
p3285
g325
(g1591
g327
Ntp3286
Rp3287
(dp3288
g1595
g1276
sg1596
g1597
sg351
g1290
sbsS's3eSecureStorage.h'
p3289
g325
(g1591
g327
Ntp3290
Rp3291
(dp3292
g1595
g1603
sg1596
g1619
sg351
S'c:/marmalade/7.5/s3e/h/s3eSecureStorage.h'
p3293
sbsS'string.h'
p3294
g325
(g1591
g327
Ntp3295
Rp3296
(dp3297
g1595
g1603
sg1596
g1625
sg351
S'c:/marmalade/7.5/s3e/h/std/string.h'
p3298
sbsS'IwResource.h'
p3299
g325
(g1591
g327
Ntp3300
Rp3301
(dp3302
g1595
g1462
sg1596
g1632
sg351
g1558
sbsS'IwGeomSVec2.h'
p3303
g325
(g1591
g327
Ntp3304
Rp3305
(dp3306
g1595
g1298
sg1596
g1657
sg351
g1296
sbsS'libjpeg.mkf'
p3307
g325
(g1591
g327
Ntp3308
Rp3309
(dp3310
g1595
g1086
sg1596
(lp3311
g1082
asg351
g1084
sbsS'IwGxDebug.h'
p3312
g325
(g1591
g327
Ntp3313
Rp3314
(dp3315
g1595
g1398
sg1596
g1737
sg351
g1421
sbsS'float.h'
p3316
g325
(g1591
g327
Ntp3317
Rp3318
(dp3319
g1595
g1603
sg1596
g1625
sg351
S'c:/marmalade/7.5/s3e/h/std/float.h'
p3320
sbsS'iomanip.h'
p3321
g325
(g1591
g327
Ntp3322
Rp3323
(dp3324
g1595
g1603
sg1596
g1604
sg351
S'c:/marmalade/7.5/s3e/h/std/c++/iomanip.h'
p3325
sbsS'IwKeymap.h'
p3326
g325
(g1591
g327
Ntp3327
Rp3328
(dp3329
g1595
g1462
sg1596
g1632
sg351
g1503
sbsS'IwDebug.h'
p3330
g325
(g1591
g327
Ntp3331
Rp3332
(dp3333
g1595
g1462
sg1596
g1632
sg351
g1491
sbsS's3eIOSBackgroundAudio.h'
p3334
g325
(g1591
g327
Ntp3335
Rp3336
(dp3337
g1595
g1603
sg1596
g1830
sg351
S'c:/marmalade/7.5/s3e/h/ext/s3eIOSBackgroundAudio.h'
p3338
sbsS'IwGeomMenu.h'
p3339
g325
(g1591
g327
Ntp3340
Rp3341
(dp3342
g1595
g1298
sg1596
g1657
sg351
g1354
sbsS'IwDivTable.h'
p3343
g325
(g1591
g327
Ntp3344
Rp3345
(dp3346
g1595
g1462
sg1596
g1632
sg351
g1481
sbsS'ctype.h'
p3347
g325
(g1591
g327
Ntp3348
Rp3349
(dp3350
g1595
g1603
sg1596
g1625
sg351
S'c:/marmalade/7.5/s3e/h/std/ctype.h'
p3351
sbsS'mainMenu.cpp'
p3352
g325
(g1591
g327
Ntp3353
Rp3354
(dp3355
g1595
g1183
sg1596
g1747
sg351
g1190
sbsS'IwResGroup.h'
p3356
g325
(g1591
g327
Ntp3357
Rp3358
(dp3359
g1595
g1374
sg1596
g1875
sg351
g1388
sbsS'signal_1.h'
p3360
g325
(g1591
g327
Ntp3361
Rp3362
(dp3363
g1595
g1603
sg1596
g1756
sg351
S'c:/marmalade/7.5/s3e/h/std/sys/signal.h'
p3364
sbsS'IwSoundData.cpp'
p3365
g325
(g1591
g327
Ntp3366
Rp3367
(dp3368
g1595
g1131
sg1596
g1643
sg351
g1168
sbsS'main.cpp'
p3369
g325
(g1591
g327
Ntp3370
Rp3371
(dp3372
g1595
g1183
sg1596
g1747
sg351
g1192
sbsS'shm.h'
p3373
g325
(g1591
g327
Ntp3374
Rp3375
(dp3376
g1595
g1603
sg1596
g1756
sg351
S'c:/marmalade/7.5/s3e/h/std/sys/shm.h'
p3377
sbsS'IwManagedList.h'
p3378
g325
(g1591
g327
Ntp3379
Rp3380
(dp3381
g1595
g1462
sg1596
g1632
sg351
g1475
sbsS'prctl.h'
p3382
g325
(g1591
g327
Ntp3383
Rp3384
(dp3385
g1595
g1603
sg1596
g1756
sg351
S'c:/marmalade/7.5/s3e/h/std/sys/prctl.h'
p3386
sbsS'IwGxStream.h'
p3387
g325
(g1591
g327
Ntp3388
Rp3389
(dp3390
g1595
g1398
sg1596
g1737
sg351
g1409
sbsS'temp_defines_debug.h'
p3391
g325
(g1591
g327
Ntp3392
Rp3393
(dp3394
g1595
(lp3395
sg1596
(lp3396
g2914
asg351
S'c:/Marmalade/7.5/examples/GameTutorial/CPP/Stage4/build_stage4_vc12/temp_defines_debug.h'
p3397
sbsS'utility'
p3398
g325
(g1591
g327
Ntp3399
Rp3400
(dp3401
g1595
g1603
sg1596
g1604
sg351
S'c:/marmalade/7.5/s3e/h/std/c++/utility'
p3402
sbsS'input.h'
p3403
g325
(g1591
g327
Ntp3404
Rp3405
(dp3406
g1595
g1183
sg1596
g1747
sg351
g1188
sbsS'IwGeomLegacy.h'
p3407
g325
(g1591
g327
Ntp3408
Rp3409
(dp3410
g1595
g1298
sg1596
g1657
sg351
g1318
sbsS'IwTPage.h'
p3411
g325
(g1591
g327
Ntp3412
Rp3413
(dp3414
g1595
g1398
sg1596
g1737
sg351
g1446
sbsS'IwResSerialise.h'
p3415
g325
(g1591
g327
Ntp3416
Rp3417
(dp3418
g1595
g1374
sg1596
g1875
sg351
g1375
sbsS's3eCrypto.h'
p3419
g325
(g1591
g327
Ntp3420
Rp3421
(dp3422
g1595
g1603
sg1596
g1619
sg351
S'c:/marmalade/7.5/s3e/h/s3eCrypto.h'
p3423
sbsS's3eKeyboard.h'
p3424
g325
(g1591
g327
Ntp3425
Rp3426
(dp3427
g1595
g1603
sg1596
g1619
sg351
S'c:/marmalade/7.5/s3e/h/s3eKeyboard.h'
p3428
sbsS'fcntl.h'
p3429
g325
(g1591
g327
Ntp3430
Rp3431
(dp3432
g1595
g1603
sg1596
g1625
sg351
S'c:/marmalade/7.5/s3e/h/std/fcntl.h'
p3433
sbsS'Iw2DSceneGraphCore.h'
p3434
g325
(g1591
g327
Ntp3435
Rp3436
(dp3437
g1595
g1455
sg1596
g2707
sg351
g1453
sbsS'memory.h'
p3438
g325
(g1591
g327
Ntp3439
Rp3440
(dp3441
g1595
g1603
sg1596
g1625
sg351
S'c:/marmalade/7.5/s3e/h/std/memory.h'
p3442
sbsS'pthread.h'
p3443
g325
(g1591
g327
Ntp3444
Rp3445
(dp3446
g1595
g1603
sg1596
g1625
sg351
S'c:/marmalade/7.5/s3e/h/std/pthread.h'
p3447
sbsS'IwGeomIntersect.h'
p3448
g325
(g1591
g327
Ntp3449
Rp3450
(dp3451
g1595
g1298
sg1596
g1657
sg351
g1344
sbsS'IwTextParserITX.h'
p3452
g325
(g1591
g327
Ntp3453
Rp3454
(dp3455
g1595
g1462
sg1596
g1632
sg351
g1501
sbsS'IwClip.inl'
p3456
g325
(g1591
g327
Ntp3457
Rp3458
(dp3459
g1595
g1398
sg1596
g1737
sg351
g1431
sbsS'Iw2DSceneGraph.cpp'
p3460
g325
(g1591
g327
Ntp3461
Rp3462
(dp3463
g1595
g1240
sg1596
g1917
sg351
g1238
sbsS'ostream.h'
p3464
g325
(g1591
g327
Ntp3465
Rp3466
(dp3467
g1595
g1603
sg1596
g1604
sg351
S'c:/marmalade/7.5/s3e/h/std/c++/ostream.h'
p3468
sbsS'stl_user_config.h'
p3469
g325
(g1591
g327
Ntp3470
Rp3471
(dp3472
g1595
g1603
sg1596
g1604
sg351
S'c:/marmalade/7.5/s3e/h/std/c++/stl_user_config.h'
p3473
sbsS'IwProfileMenu.h'
p3474
g325
(g1591
g327
Ntp3475
Rp3476
(dp3477
g1595
g1462
sg1596
g1632
sg351
g1477
sbsS'MarmaladeVersion.h'
p3478
g325
(g1591
g327
Ntp3479
Rp3480
(dp3481
g1595
g1603
sg1596
g1619
sg351
S'c:/marmalade/7.5/s3e/h/MarmaladeVersion.h'
p3482
sbsS'IwResHandlerWAV.h'
p3483
g325
(g1591
g327
Ntp3484
Rp3485
(dp3486
g1595
g1131
sg1596
g1643
sg351
g1136
sbsS'gl3platform.h'
p3487
g325
(g1591
g327
Ntp3488
Rp3489
(dp3490
g1595
g1603
sg1596
g1928
sg351
S'c:/marmalade/7.5/s3e/h/GLES3/gl3platform.h'
p3491
sbsS'ios.h'
p3492
g325
(g1591
g327
Ntp3493
Rp3494
(dp3495
g1595
g1603
sg1596
g1604
sg351
S'c:/marmalade/7.5/s3e/h/std/c++/ios.h'
p3496
sbsS'IwImageHelper.h'
p3497
g325
(g1591
g327
Ntp3498
Rp3499
(dp3500
g1595
g1462
sg1596
g1632
sg351
g1473
sbsS'hash_set'
p3501
g325
(g1591
g327
Ntp3502
Rp3503
(dp3504
g1595
g1603
sg1596
g1604
sg351
S'c:/marmalade/7.5/s3e/h/std/c++/hash_set'
p3505
sbsS'IwGeomFQuat.h'
p3506
g325
(g1591
g327
Ntp3507
Rp3508
(dp3509
g1595
g1298
sg1596
g1657
sg351
g1308
sbsS'jmorecfg.h'
p3510
g325
(g1591
g327
Ntp3511
Rp3512
(dp3513
g1595
g1090
sg1596
g1691
sg351
g1099
sbsS'eglplatform.h'
p3514
g325
(g1591
g327
Ntp3515
Rp3516
(dp3517
g1595
g1603
sg1596
g1960
sg351
S'c:/marmalade/7.5/s3e/h/EGL/eglplatform.h'
p3518
sbsS'cmath'
p3519
g325
(g1591
g327
Ntp3520
Rp3521
(dp3522
g1595
g1603
sg1596
g1604
sg351
S'c:/marmalade/7.5/s3e/h/std/c++/cmath'
p3523
sbsS'math_gcc.h'
p3524
g325
(g1591
g327
Ntp3525
Rp3526
(dp3527
g1595
g1603
sg1596
g1625
sg351
S'c:/marmalade/7.5/s3e/h/std/math_gcc.h'
p3528
sbsS's3eMemory.h'
p3529
g325
(g1591
g327
Ntp3530
Rp3531
(dp3532
g1595
g1603
sg1596
g1619
sg351
S'c:/marmalade/7.5/s3e/h/s3eMemory.h'
p3533
sbsS'strings.h'
p3534
g325
(g1591
g327
Ntp3535
Rp3536
(dp3537
g1595
g1603
sg1596
g1625
sg351
S'c:/marmalade/7.5/s3e/h/std/strings.h'
p3538
sbsS's3eFile.h'
p3539
g325
(g1591
g327
Ntp3540
Rp3541
(dp3542
g1595
g1603
sg1596
g1619
sg351
S'c:/marmalade/7.5/s3e/h/s3eFile.h'
p3543
sbsS'IwGxTypes.h'
p3544
g325
(g1591
g327
Ntp3545
Rp3546
(dp3547
g1595
g1398
sg1596
g1737
sg351
g1435
sbsS'cerrno'
p3548
g325
(g1591
g327
Ntp3549
Rp3550
(dp3551
g1595
g1603
sg1596
g1604
sg351
S'c:/marmalade/7.5/s3e/h/std/c++/cerrno'
p3552
sbsS'IwSoundManager.cpp'
p3553
g325
(g1591
g327
Ntp3554
Rp3555
(dp3556
g1595
g1131
sg1596
g1643
sg351
g1144
sbsS'main.h'
p3557
g325
(g1591
g327
Ntp3558
Rp3559
(dp3560
g1595
g1183
sg1596
g1747
sg351
g1196
sbsS'soundengine.mkf'
p3561
g325
(g1591
g327
Ntp3562
Rp3563
(dp3564
g1595
g1176
sg1596
g1643
sg351
g1174
sbsS'resource.h'
p3565
g325
(g1591
g327
Ntp3566
Rp3567
(dp3568
g1595
g1603
sg1596
g1756
sg351
S'c:/marmalade/7.5/s3e/h/std/sys/resource.h'
p3569
sbsS'clocale'
p3570
g325
(g1591
g327
Ntp3571
Rp3572
(dp3573
g1595
g1603
sg1596
g1604
sg351
S'c:/marmalade/7.5/s3e/h/std/c++/clocale'
p3574
sbsS'pvrtextool.mkf'
p3575
g325
(g1591
g327
Ntp3576
Rp3577
(dp3578
g1595
g1233
sg1596
g2234
sg351
g1231
sbsS'csetjmp'
p3579
g325
(g1591
g327
Ntp3580
Rp3581
(dp3582
g1595
g1603
sg1596
g1604
sg351
S'c:/marmalade/7.5/s3e/h/std/c++/csetjmp'
p3583
sbsS'netdb.h'
p3584
g325
(g1591
g327
Ntp3585
Rp3586
(dp3587
g1595
g1603
sg1596
g1625
sg351
S'c:/marmalade/7.5/s3e/h/std/netdb.h'
p3588
sbsS's3eAndroidJNI.h'
p3589
g325
(g1591
g327
Ntp3590
Rp3591
(dp3592
g1595
g1603
sg1596
g1830
sg351
S'c:/marmalade/7.5/s3e/h/ext/s3eAndroidJNI.h'
p3593
sbsS'stdexcept'
p3594
g325
(g1591
g327
Ntp3595
Rp3596
(dp3597
g1595
g1603
sg1596
g1604
sg351
S'c:/marmalade/7.5/s3e/h/std/c++/stdexcept'
p3598
sbsS'math.h'
p3599
g325
(g1591
g327
Ntp3600
Rp3601
(dp3602
g1595
g1603
sg1596
g1625
sg351
S'c:/marmalade/7.5/s3e/h/std/math.h'
p3603
sbsS'stdbool.h'
p3604
g325
(g1591
g327
Ntp3605
Rp3606
(dp3607
g1595
g1603
sg1596
g1625
sg351
S'c:/marmalade/7.5/s3e/h/std/stdbool.h'
p3608
sbsS'uio.h'
p3609
g325
(g1591
g327
Ntp3610
Rp3611
(dp3612
g1595
g1603
sg1596
g1756
sg351
S'c:/marmalade/7.5/s3e/h/std/sys/uio.h'
p3613
sbsS'IwUncopyable.h'
p3614
g325
(g1591
g327
Ntp3615
Rp3616
(dp3617
g1595
g1462
sg1596
g1632
sg351
g1540
sbssS'juice_build_type'
p3618
g4
sS'tests'
p3619
(lp3620
sS'project_name'
p3621
g333
sS'root_file'
p3622
g131
sS'current_root'
p3623
S'c:/Marmalade/7.5/examples/GameTutorial/CPP/Stage4'
p3624
sS'dependencies'
p3625
(lp3626
sS'include_paths'
p3627
(lp3628
S'c:/marmalade/7.5/modules/iw2d/h'
p3629
aS'c:/marmalade/7.5/modules/iwgx/h'
p3630
aS'c:/marmalade/7.5/modules/iwgl/h'
p3631
aS'c:/marmalade/7.5/modules/iwutil/h'
p3632
aS'c:/marmalade/7.5/modules/third_party/libjpeg/h'
p3633
aS'c:/marmalade/7.5/modules/third_party/zlib/h'
p3634
aS'c:/marmalade/7.5/modules/third_party/libpng/h'
p3635
aS'c:/marmalade/7.5/modules/iwgeom/h'
p3636
aS'c:/marmalade/7.5/modules/iwresmanager/h'
p3637
aS'c:/marmalade/7.5/extensions/pvrtextool/h'
p3638
aS'c:/marmalade/7.5/modules/iwgxfont/h'
p3639
aS'c:/marmalade/7.5/modules/third_party/tiniconv/source'
p3640
aS'c:/marmalade/7.5/modules/iw2dscenegraph/h'
p3641
aS'c:/marmalade/7.5/modules/iw2dscenegraphcore/h'
p3642
aS'c:/marmalade/7.5/modules/iwtween/h'
p3643
aS'c:/marmalade/7.5/examples/gametutorial/cpp/modules/soundengine/h'
p3644
aS'c:/marmalade/7.5/examples/gametutorial/cpp/modules/soundengine/source'
p3645
aS'c:/marmalade/7.5/s3e/h'
p3646
aS'c:/marmalade/7.5/s3e/h/ext'
p3647
aS'c:/marmalade/7.5/s3e/h/std'
p3648
aS'c:/marmalade/7.5/s3e/h/std/c++'
p3649
aS'c:/marmalade/7.5/s3e/h/ext_legacy'
p3650
aS'c:/marmalade/7.5/s3e/h/legacy'
p3651
asS'weak_frameworks'
p3652
(lp3653
sS'extprojects'
p3654
(dp3655
sg593
(dp3656
g587
(lp3657
(S'c:/Marmalade/7.5/examples/GameTutorial/CPP/Stage4/data/audio'
p3658
S'audio'
p3659
I0
tp3660
a(S'c:/Marmalade/7.5/examples/GameTutorial/CPP/Stage4/data/textures'
p3661
S'textures'
p3662
I0
tp3663
a(S'c:/Marmalade/7.5/examples/GameTutorial/CPP/Stage4/data-ram/data-gles1,c:/Marmalade/7.5/examples/GameTutorial/CPP/Stage4/data'
p3664
S'.'
p3665
I0
tp3666
assS'macro_types'
p3667
(dp3668
g524
I1
sg525
I0
sg526
I0
sg527
I0
sg529
I0
sg530
I0
sg531
I0
sg532
I0
sg533
I0
sg535
I0
sg536
I0
sg537
I0
sg538
I0
sg539
I0
sg541
I0
sg543
I0
sg544
I0
sg545
I0
sg546
I0
sg547
I0
sg548
I0
sg549
I0
sg550
I1
sg551
I0
sg552
I0
sg553
I0
sg554
I0
sg555
I01
sg556
I1
sg557
I0
sg558
I0
sg559
I0
sg560
I0
sg561
I0
sg562
I0
sg563
I0
ssS'commands'
p3669
(lp3670
sg595
(g1063
S'VC12'
p3671
S'X86ARMAARCH64'
p3672
tp3673
sS'build_libs'
p3674
(dp3675
sg597
g0
sS'frameworks'
p3676
(lp3677
sS'environ'
p3678
(dp3679
sS'target_name_debug'
p3680
g333
sS'builders'
p3681
(dp3682
g587
(dp3683
S'.S'
p3684
(dp3685
S'gcc_aarch64'
p3686
(lp3687
S'.obj'
p3688
aS'echo AARCH64 Assembling(GCC) ${SOURCE}...'
p3689
aS'c:/marmalade/7.5/s3e\\gcc\\win32\\aarch64\\bin\\aarch64-none-elf-gcc -c -o ${TARGET} ${SOURCE}'
p3690
asS'rvct'
p3691
(lp3692
g3688
aS'echo ARM Assembling(RVCT) ${SOURCE}...'
p3693
aS'c:/marmalade/7.5/s3e\\rvct\\bin\\armasm -o ${TARGET} ${SOURCE}'
p3694
asg447
(lp3695
g3688
aS'echo ARM Assembling(GCC) ${SOURCE}...'
p3696
aS'c:/marmalade/7.5/s3e\\gcc\\win32\\arm\\bin\\arm-none-eabi-gcc -c -o ${TARGET} ${SOURCE}'
p3697
asS'ppu'
p3698
(lp3699
S'.a'
p3700
aS'echo PPU Assembling(SNC) ${SOURCE}...'
p3701
aS'c:/marmalade/7.5/s3e\\rvct\\bin\\armasm -o ${TARGET} ${SOURCE}'
p3702
assS'.s'
p3703
g3685
sS'.vp'
p3704
(lp3705
NaS'"C:/Marmalade/7.5/s3e/python/python.exe" "c:/marmalade/7.5/modules/iwgx/tools/compile_shaders.py" ${SOURCE}'
p3706
asssS'extproject_names'
p3707
(lp3708
sbtp3709
.