((dp0
S'arm_dbg_args'
p1
S'-via:"c:\\Marmalade\\7.5\\examples\\GameTutorial\\CPP\\Stage4\\build_stage4_vc12\\Stage4_vc12_arm_debug.via" -qemu'
p2
sS'game-icf'
p3
S''
p4
sS'dist'
p5
NsS'csproj'
p6
g4
sS'module_path_append'
p7
NsS'global_path'
p8
S'c:\\marmalade\\7.5\\examples\\gametutorial\\cpp'
p9
sS'system_path'
p10
S'c:\\marmalade\\7.5\\s3e\\makefile_builder'
p11
sS'android_x86_dbg_args'
p12
S'../../tools/DeployTool/DeployTool.exe --dir "c:\\Marmalade\\7.5\\examples\\GameTutorial\\CPP\\Stage4\\build_stage4_vc12"'
p13
sS'aarch64-arch-mod'
p14
g4
sS'no-emit'
p15
NsS'arm-float-abi'
p16
g4
sS'arm_rel_rtsm_args'
p17
S'-via:"c:\\Marmalade\\7.5\\examples\\GameTutorial\\CPP\\Stage4\\build_stage4_vc12\\Stage4_vc12_arm_release.via" -qemu'
p18
sS'amd64'
p19
NsS'line-width'
p20
I80
sS'gcc_dbg_args'
p21
S'-via:"c:\\Marmalade\\7.5\\examples\\GameTutorial\\CPP\\Stage4\\build_stage4_vc12\\Stage4_vc12_gcc_debug.via" -qemu'
p22
sS'android-x86'
p23
NsS'x86_dbg_exe'
p24
S'c:/marmalade/7.5/s3e\\win32\\s3e_simulator_debug.exe'
p25
sS'disable-runtime-checks'
p26
NsS'release'
p27
NsS'no-make'
p28
NsS'xcode-x86-build-settings'
p29
g4
sS'optimise-size'
p30
NsS'fat'
p31
NsS'output-name-debug'
p32
g4
sS'arm-fpu'
p33
g4
sS'proj_name'
p34
S'Stage4_vc12'
p35
sS'rvct-version'
p36
S'none'
p37
sS'compiler'
p38
g4
sS'execute'
p39
NsS'compile-static'
p40
NsS'msvc-project'
p41
NsS'buildenv'
p42
S'VC12'
p43
sS'quick'
p44
NsS'module_path'
p45
(lp46
S'c:/Marmalade/7.5/examples/GameTutorial/CPP/modules'
p47
asS'mkf_default'
p48
S's3e-default.mkf'
p49
sS'use-release-std-libs'
p50
NsS'using_perforce'
p51
I00
sS'tizen-x86'
p52
NsS'mips-s3e'
p53
NsS's3e-api-lib-name'
p54
S's3e_api_iwgl'
p55
sS'ios-no-pic'
p56
NsS'shared-arm-lib'
p57
NsS'arm-cpu'
p58
g4
sS'compile-thumb'
p59
NsS'no-ide'
p60
NsS'msvc-version'
p61
S'6.0'
p62
sS'arm'
p63
NsS'builddir'
p64
g4
sS'compile-debug-as-release'
p65
I0
sS'arm-arch'
p66
g4
sS'brief'
p67
NsS'dll'
p68
NsS'buildenv-toolset'
p69
g4
sS'version'
p70
NsS'aarch64-arch'
p71
g4
sS'ccache'
p72
I0
sS'offline'
p73
NsS'ios-version'
p74
g4
sS'hub_data'
p75
g4
sS'fake_vc_call'
p76
I01
sS'jobs'
p77
I0
sS'linkflags'
p78
NsS'gcc_aarch64_dbg_args'
p79
g13
sS'debug'
p80
NsS'xcode-build-order'
p81
g4
sS'gcc_aarch64_rel_rtsm_args'
p82
S'-via:"c:\\Marmalade\\7.5\\examples\\GameTutorial\\CPP\\Stage4\\build_stage4_vc12\\Stage4_vc12_gcc_aarch64_release.via" -qemu'
p83
sS'gcc_rel_rtsm_args'
p84
S'-via:"c:\\Marmalade\\7.5\\examples\\GameTutorial\\CPP\\Stage4\\build_stage4_vc12\\Stage4_vc12_gcc_release.via" -qemu'
p85
sS'done_defaults'
p86
I1
sS'path'
p87
NsS's3e-data-dir'
p88
S'c:/Marmalade/7.5/examples/GameTutorial/CPP/Stage4\\data'
p89
sS'enable-exceptions'
p90
NsS'osx-dll'
p91
NsS'extension'
p92
g4
sS'no-vc6'
p93
NsS'aarch64'
p94
NsS'win32-console'
p95
NsS'dist-format'
p96
g4
sS's3e-force-arch'
p97
NsS'dump_defines'
p98
NsS'use-shared-std-libs'
p99
NsS'gcc-version'
p100
g4
sS'x86_dbg_args'
p101
S'-via:"c:\\Marmalade\\7.5\\examples\\GameTutorial\\CPP\\Stage4\\build_stage4_vc12\\Stage4_vc12_debug.via"'
p102
sS'tizen_x86_dbg_args'
p103
g13
sS'arm-debugger'
p104
g4
sS'use_temp_extension'
p105
NsS'verbose'
p106
I0
sS'log'
p107
NsS'no-strip'
p108
NsS'rebuild'
p109
NsS'mips_dbg_args'
p110
g13
sS'win32-simulator-dll'
p111
NsS'strict'
p112
NsS'xcode-aarch64-build-settings'
p113
g4
sS'enable-global-path'
p114
NsS'gcc_aarch64_rel_args'
p115
g13
sS'cflags'
p116
NsS'dist-dir'
p117
g4
sS'xcode-arm-build-settings'
p118
g4
sS'jflags'
p119
NsS'csprojSDKRefs'
p120
g4
sS'tizen_x86_rel_exe'
p121
S'c:\\marmalade\\7.5\\s3e\\makefile_builder\\tool_launcher.exe'
p122
sS'test-assets'
p123
g4
sS'distcc'
p124
NsS'external-compiler'
p125
NsS'no-distcc'
p126
NsS'preinclude'
p127
NsS'using_sdk'
p128
I01
sS'nologo'
p129
NsS'warn-level'
p130
I2
sS'mips_dbg_exe'
p131
g122
sS'mkb_in'
p132
S'c:/Marmalade/7.5/examples/GameTutorial/CPP/Stage4/Stage4.mkb'
p133
sS'tizen_x86_dbg_exe'
p134
g122
sS'arm_dbg_exe'
p135
S'c:/marmalade/7.5/s3e\\bin\\armdebug.exe'
p136
sS'csprojDLLRef'
p137
NsS'tizen_x86_rel_args'
p138
g13
sS'android_x86_dbg_exe'
p139
g122
sS'test-config'
p140
g4
sS'list-targets'
p141
NsS'arm_rel_exe'
p142
g122
sS'arm_rel_args'
p143
g13
sS'makedeps'
p144
NsS'android_x86_rel_exe'
p145
g122
sS'default-buildenv'
p146
S'VC12'
p147
sS'x86_rel_exe'
p148
g25
sS'preprocess-java'
p149
NsS'mips_rel_args'
p150
g13
sS'defines'
p151
NsS'lib'
p152
NsS'non-interactive'
p153
NsS'global_argv'
p154
(lp155
S'C:\\Marmalade\\7.5\\s3e\\makefile_builder\\mkb.py'
p156
aS'C:/Marmalade/7.5/examples\\GameTutorial\\CPP\\Stage4\\Stage4.mkb'
p157
aS'--buildenv=VC12'
p158
aS'--fake-vc-call'
p159
asS'make'
p160
NsS'optimise-speed'
p161
NsS'internal'
p162
NsS'enable-stdinc'
p163
NsS'deploy-only'
p164
NsS'x86'
p165
NsS'deploy'
p166
g4
sS'x86_run_exe'
p167
S'c:/marmalade/7.5/s3e\\win32\\s3e_console.exe'
p168
sS'cxxflags'
p169
NsS'x86_rel_args'
p170
S'-via:"c:\\Marmalade\\7.5\\examples\\GameTutorial\\CPP\\Stage4\\build_stage4_vc12\\Stage4_vc12_release.via"'
p171
sS'gcc_rel_args'
p172
g13
sS'mips'
p173
NsS'xcode-build-settings'
p174
g4
sS'incredibuild'
p175
NsS'strict-compile'
p176
NsS'use-auto-subdirs'
p177
NsS'mips_rel_exe'
p178
g122
sS'android_x86_rel_args'
p179
g13
sS'app-icf'
p180
g4
sS'deployargs'
p181
NsS'iosnativedebug'
p182
NsS'use_prebuilt'
p183
NsS'mkf_in'
p184
(lp185
S'c:\\marmalade\\7.5\\s3e\\s3e-default.mkf'
p186
aS'c:\\marmalade\\7.5\\modules\\iw2d\\iw2d.mkf'
p187
aS'c:\\marmalade\\7.5\\modules\\iwgx\\iwgx.mkf'
p188
aS'c:\\marmalade\\7.5\\modules\\iwgl\\iwgl.mkf'
p189
aS'c:\\marmalade\\7.5\\modules\\iwutil\\iwutil.mkf'
p190
aS'c:\\marmalade\\7.5\\modules\\third_party\\libjpeg\\libjpeg.mkf'
p191
aS'c:\\marmalade\\7.5\\modules\\third_party\\libpng\\libpng.mkf'
p192
aS'c:\\marmalade\\7.5\\modules\\third_party\\zlib\\zlib.mkf'
p193
aS'c:\\marmalade\\7.5\\modules\\iwgeom\\iwgeom.mkf'
p194
aS'c:\\marmalade\\7.5\\modules\\iwresmanager\\iwresmanager.mkf'
p195
aS'c:\\marmalade\\7.5\\extensions\\pvrtextool\\pvrtextool.mkf'
p196
aS'c:\\marmalade\\7.5\\modules\\iwgxfont\\iwgxfont.mkf'
p197
aS'c:\\marmalade\\7.5\\modules\\third_party\\tiniconv\\tiniconv.mkf'
p198
aS'c:\\marmalade\\7.5\\modules\\iw2dscenegraph\\iw2dscenegraph.mkf'
p199
aS'c:\\marmalade\\7.5\\modules\\iw2dscenegraphcore\\iw2dscenegraphcore.mkf'
p200
aS'c:\\marmalade\\7.5\\modules\\iwtween\\iwtween.mkf'
p201
aS'c:\\marmalade\\7.5\\examples\\gametutorial\\cpp\\modules\\soundengine\\soundengine.mkf'
p202
aS'c:\\marmalade\\7.5\\examples\\marmaladeexampleresources\\marmaladeexampleresources.mkf'
p203
asS'strict-mkb'
p204
NsS'executeargs'
p205
NsS'clean'
p206
NsS'no-asm'
p207
NsS'output-name'
p208
g4
sS'no-modules'
p209
NsS'find_define'
p210
g4
s(dp211
S'c:\\marmalade\\7.5\\s3e\\makefile_builder\\templates\\vc7_suo.pyc'
p212
F1422012890.0
sS'c:\\marmalade\\7.5\\s3e\\makefile_builder\\templates\\ws81_vcxproj.pyc'
p213
F1422012892.0
sS'c:\\marmalade\\7.5\\s3e\\makefile_builder\\plugins\\s3e_ws8.pyc'
p214
F1422012890.0
sS'c:\\marmalade\\7.5\\s3e\\makefile_builder\\templates'
p215
F1422040519.7924168
sS'c:\\marmalade\\7.5\\s3e\\makefile_builder\\templates\\qmake.py'
p216
F1422011718.0
sS'c:\\marmalade\\7.5\\s3e\\makefile_builder\\templates\\vc10_user.pyc'
p217
F1422012890.0
sS'c:\\marmalade\\7.5\\s3e\\makefile_builder\\plugins'
p218
F1422049226.122113
sS'c:\\marmalade\\7.5\\s3e\\makefile_builder\\mkb_main.pyc'
p219
F1422012890.0
sS'c:\\marmalade\\7.5\\s3e\\makefile_builder\\templates\\mips_linker_script'
p220
F1422011718.0
sS'c:\\marmalade\\7.5\\s3e\\makefile_builder\\plugins\\XcodeEmitter.py'
p221
F1422011718.0
sS'c:\\marmalade\\7.5\\s3e\\makefile_builder\\mkb.py'
p222
F1422011718.0
sS'c:\\marmalade\\7.5\\s3e\\makefile_builder\\templates\\ws81_ext_sln.pyc'
p223
F1422012892.0
sS'c:\\marmalade\\7.5\\s3e\\makefile_builder\\templates\\win32_dsp.pyc'
p224
F1422012890.0
sS'c:\\marmalade\\7.5\\s3e\\makefile_builder\\templates\\ws8_csproj.pyc'
p225
F1422012892.0
sS'c:\\marmalade\\7.5\\s3e\\makefile_builder\\deployment.pyc'
p226
F1422012890.0
sS'c:\\marmalade\\7.5\\s3e\\makefile_builder\\plugins\\win32_vc6.pyc'
p227
F1422012890.0
sS'c:\\marmalade\\7.5\\s3e\\makefile_builder\\plugins\\osx_xcode.pyc'
p228
F1422012890.0
sS'c:\\marmalade\\7.5\\s3e\\makefile_builder\\plugins\\null.pyc'
p229
F1422012890.0
sS'c:\\marmalade\\7.5\\s3e\\makefile_builder\\templates\\wp81_csproj.pyc'
p230
F1422012892.0
sS'c:\\marmalade\\7.5\\s3e\\makefile_builder\\templates\\qmake_user.py'
p231
F1422011718.0
sS'c:\\marmalade\\7.5\\s3e\\makefile_builder\\templates\\vc6_opt.pyc'
p232
F1422012890.0
sS'c:\\marmalade\\7.5\\s3e\\makefile_builder\\plugins\\vc7_utils.pyc'
p233
F1422012890.0
sS'c:\\marmalade\\7.5\\s3e\\makefile_builder\\templates\\wp81_vcxproj.pyc'
p234
F1422012892.0
sS'c:\\marmalade\\7.5\\s3e\\makefile_builder\\templates\\win32_vcxproj.pyc'
p235
F1422012890.0
sS'c:\\marmalade\\7.5\\s3e\\makefile_builder\\templates\\ws8_ext_sln.pyc'
p236
F1422012892.0
sS'c:\\marmalade\\7.5\\s3e\\makefile_builder\\templates\\ws8_ext_csproj.pyc'
p237
F1422012892.0
sS'c:\\marmalade\\7.5\\s3e\\makefile_builder\\templates\\wp8_ext_csproj.pyc'
p238
F1422012892.0
sS'c:\\marmalade\\7.5\\s3e\\makefile_builder\\plugins\\s3e_wp8.pyc'
p239
F1422012890.0
sS'c:\\marmalade\\7.5\\s3e\\makefile_builder\\templates\\ws81_csproj.pyc'
p240
F1422012892.0
sS'c:\\marmalade\\7.5\\s3e\\makefile_builder\\docs\\deprecated.options.txt'
p241
F1422011718.0
sS'c:\\marmalade\\7.5\\s3e\\makefile_builder\\plugins\\s3e_make.pyc'
p242
F1422012890.0
sS'c:\\marmalade\\7.5\\s3e\\makefile_builder\\templates\\win8_ext_csproj.pyc'
p243
F1422012892.0
sS'c:\\marmalade\\7.5\\s3e\\makefile_builder\\mkb_parser.pyc'
p244
F1422012890.0
sS'c:\\marmalade\\7.5\\s3e\\makefile_builder\\plugins\\s3e_web.pyc'
p245
F1422012890.0
sS'c:\\marmalade\\7.5\\s3e\\makefile_builder\\docs\\mkb.defines.txt'
p246
F1422011718.0
sS'c:\\marmalade\\7.5\\s3e\\makefile_builder\\plugins\\osx_scons.pyc'
p247
F1422012890.0
sS'c:\\marmalade\\7.5\\s3e\\makefile_builder\\plugins\\ws81_ws81.pyc'
p248
F1422012890.0
sS'c:\\marmalade\\7.5\\s3e\\makefile_builder\\plugins\\s3e_qmake.py'
p249
F1422011718.0
sS'c:\\marmalade\\7.5\\s3e\\makefile_builder\\templates\\win8_csproj.pyc'
p250
F1422012892.0
sS'c:\\marmalade\\7.5\\s3e\\makefile_builder\\plugins\\s3e_vc6.pyc'
p251
F1422012890.0
sS'c:\\marmalade\\7.5\\s3e\\makefile_builder\\plugins\\wp81_wp81.pyc'
p252
F1422012890.0
sS'c:\\marmalade\\7.5\\s3e\\makefile_builder\\templates\\wp81_csproj_user.pyc'
p253
F1422012892.0
sS'c:\\marmalade\\7.5\\s3e\\makefile_builder\\templates\\win32_dsw.pyc'
p254
F1422012890.0
sS'c:\\marmalade\\7.5\\s3e\\makefile_builder\\templates\\xcode4.xcscheme'
p255
F1422011718.0
sS'c:\\marmalade\\7.5\\s3e\\makefile_builder\\templates\\template.opt'
p256
F1422011718.0
sS'c:\\marmalade\\7.5\\s3e\\makefile_builder\\templates\\template.suo'
p257
F1422011718.0
sS'c:\\marmalade\\7.5\\s3e\\makefile_builder\\templates\\linker_script'
p258
F1422011718.0
sS'c:\\marmalade\\7.5\\s3e\\makefile_builder\\templates\\gdb_start.txt'
p259
F1422011718.0
sS'c:\\marmalade\\7.5\\s3e\\makefile_builder\\mkb_launcher.exe'
p260
F1422012030.0
sS'c:\\marmalade\\7.5\\s3e\\makefile_builder\\templates\\scons.pyc'
p261
F1422012890.0
sS'c:\\marmalade\\7.5\\s3e\\makefile_builder\\docs\\parse_options.pyc'
p262
F1422012892.0
sS'c:\\marmalade\\7.5\\s3e\\makefile_builder\\templates\\xcode4_arm.xcscheme'
p263
F1422011718.0
sS'c:\\marmalade\\7.5\\s3e\\makefile_builder\\plugins\\VisualStudioEmitter.pyc'
p264
F1422012890.0
sS'c:\\marmalade\\7.5\\s3e\\makefile_builder\\plugins\\s3e_xcode.pyc'
p265
F1422049226.1261024
sS'c:\\marmalade\\7.5\\s3e\\makefile_builder\\plugins\\Emitter.pyc'
p266
F1422012890.0
sS'c:\\marmalade\\7.5\\s3e\\makefile_builder\\templates\\ws8_sln.pyc'
p267
F1422012892.0
sS'c:\\marmalade\\7.5\\s3e\\makefile_builder\\tool_launcher.exe'
p268
F1422012030.0
sS'c:\\marmalade\\7.5\\s3e\\makefile_builder\\templates\\wp8_sln.pyc'
p269
F1422012892.0
sS'c:\\marmalade\\7.5\\s3e\\makefile_builder\\mkb_upstream.pyc'
p270
F1422012890.0
sS'c:\\marmalade\\7.5\\s3e\\makefile_builder\\templates\\ws81_csproj_user.pyc'
p271
F1422012892.0
sS'c:\\marmalade\\7.5\\s3e\\makefile_builder\\templates\\win32_sln.pyc'
p272
F1422012890.0
sS'c:\\marmalade\\7.5\\s3e\\makefile_builder\\templates\\xcode4_DeployTool.xcscheme'
p273
F1422011718.0
sS'c:\\marmalade\\7.5\\s3e\\makefile_builder\\plugins\\deploy.pyc'
p274
F1422012890.0
sS'c:\\marmalade\\7.5\\s3e\\makefile_builder\\plugins\\s3e_win8.pyc'
p275
F1422012890.0
sS'c:\\marmalade\\7.5\\s3e\\makefile_builder\\plugins\\iphone.pyc'
p276
F1422012890.0
sS'c:\\marmalade\\7.5\\s3e\\makefile_builder\\plugins\\Win8Emitter.pyc'
p277
F1422012890.0
sS'c:\\marmalade\\7.5\\s3e\\makefile_builder\\plugins\\s3e_qmake.pyc'
p278
F1422049225.7607005
sS'c:\\marmalade\\7.5\\s3e\\makefile_builder\\docs'
p279
F1422040519.867489
sS'c:\\marmalade\\7.5\\s3e\\makefile_builder\\mkb_globals.pyc'
p280
F1422012890.0
sS'c:\\marmalade\\7.5\\s3e\\makefile_builder\\plugins\\win8_utils.pyc'
p281
F1422012890.0
sS'c:\\marmalade\\7.5\\s3e\\makefile_builder\\plugins\\xcode4_schememanagement.py'
p282
F1422011718.0
sS'c:\\marmalade\\7.5\\s3e\\makefile_builder\\templates\\wp81_ext_sln.pyc'
p283
F1422012892.0
sS'c:\\marmalade\\7.5\\s3e\\makefile_builder\\templates\\make.py'
p284
F1422011718.0
sS'c:\\marmalade\\7.5\\s3e\\makefile_builder\\templates\\ws81_ext_csproj.pyc'
p285
F1422012892.0
sS'c:\\marmalade\\7.5\\s3e\\makefile_builder\\plugins\\s3e_xcode.py'
p286
F1422011718.0
sS'c:\\marmalade\\7.5\\s3e\\makefile_builder\\plugins\\XcodeEmitter.pyc'
p287
F1422049225.0825448
sS'c:\\marmalade\\7.5\\s3e\\makefile_builder\\docs\\deployment_options.txt'
p288
F1422011718.0
sS'c:\\marmalade\\7.5\\s3e\\makefile_builder\\templates\\win8_sln.pyc'
p289
F1422012892.0
sS'c:\\marmalade\\7.5\\s3e\\makefile_builder\\plugins\\java.pyc'
p290
F1422012890.0
sS'c:\\marmalade\\7.5\\s3e\\makefile_builder\\plugins\\xcode4_schememanagement.pyc'
p291
F1422049225.1608984
sS'c:\\marmalade\\7.5\\s3e\\makefile_builder\\plugins\\SConsEmitter.pyc'
p292
F1422012890.0
sS'c:\\marmalade\\7.5\\s3e\\makefile_builder\\templates\\win32_vcproj.pyc'
p293
F1422012890.0
sS'c:\\marmalade\\7.5\\s3e\\makefile_builder\\plugins\\wp8_wp8.pyc'
p294
F1422012890.0
sS'c:\\marmalade\\7.5\\s3e\\makefile_builder\\templates\\MainWindow.xib'
p295
F1422011718.0
sS'c:\\marmalade\\7.5\\s3e\\makefile_builder\\mkb_util.pyc'
p296
F1422012890.0
sS'c:\\marmalade\\7.5\\s3e\\makefile_builder\\templates\\vc8_user.pyc'
p297
F1422012890.0
sS'c:\\marmalade\\7.5\\s3e\\makefile_builder\\templates\\Info.plist'
p298
F1422011718.0
sS'c:\\marmalade\\7.5\\s3e\\makefile_builder\\templates\\wp8_csproj_user.pyc'
p299
F1422012892.0
sS'c:\\marmalade\\7.5\\s3e\\makefile_builder\\docs\\deprecated.defines.txt'
p300
F1422011718.0
sS'c:\\marmalade\\7.5\\s3e\\makefile_builder\\templates\\ws8_csproj_user.pyc'
p301
F1422012892.0
sS'c:\\marmalade\\7.5\\s3e\\makefile_builder\\plugins\\S3EEmitter.pyc'
p302
F1422012890.0
sS'c:\\marmalade\\7.5\\s3e\\makefile_builder\\templates\\rvct_linker_script'
p303
F1422011718.0
sS'c:\\marmalade\\7.5\\s3e\\makefile_builder\\templates\\xcode_pbxuser.py'
p304
F1422011718.0
sS'c:\\marmalade\\7.5\\s3e\\makefile_builder\\docs\\options.txt'
p305
F1422011718.0
sS'c:\\marmalade\\7.5\\s3e\\makefile_builder\\templates\\wp81_sln.pyc'
p306
F1422012892.0
sS'c:\\marmalade\\7.5\\s3e\\makefile_builder\\templates\\ws81_sln.pyc'
p307
F1422012892.0
sS'c:\\marmalade\\7.5\\s3e\\makefile_builder\\plugins\\vc6_utils.pyc'
p308
F1422012890.0
sS'c:\\marmalade\\7.5\\s3e\\makefile_builder\\templates\\wp81_ext_csproj.pyc'
p309
F1422012892.0
sS'c:\\marmalade\\7.5\\s3e\\makefile_builder\\plugins\\s3e_wp81.pyc'
p310
F1422012890.0
sS'c:\\marmalade\\7.5\\s3e\\makefile_builder\\templates\\aarch64_linker_script'
p311
F1422011718.0
sS'c:\\marmalade\\7.5\\s3e\\makefile_builder\\templates\\ws8_vcxproj.pyc'
p312
F1422012892.0
sS'c:\\marmalade\\7.5\\s3e\\makefile_builder\\plugins\\MakeEmitter.pyc'
p313
F1422012890.0
sS'c:\\marmalade\\7.5\\s3e\\makefile_builder\\templates\\win32_vcxproj_filters.pyc'
p314
F1422012890.0
sS'c:\\marmalade\\7.5\\s3e\\makefile_builder\\templates\\xcode.py'
p315
F1422011718.0
sS'c:\\marmalade\\7.5\\s3e\\makefile_builder\\plugins\\s3e_ws81.pyc'
p316
F1422012890.0
sS'c:\\marmalade\\7.5\\s3e\\makefile_builder\\plugins\\linux_scons.pyc'
p317
F1422012890.0
sS'c:\\marmalade\\7.5\\s3e\\makefile_builder\\templates\\win8_vcxproj.pyc'
p318
F1422012892.0
sS'c:\\marmalade\\7.5\\s3e\\makefile_builder\\plugins\\s3e_scons.pyc'
p319
F1422012890.0
sS'c:\\marmalade\\7.5\\s3e\\makefile_builder\\templates\\wp8_csproj.pyc'
p320
F1422012892.0
sS'c:\\marmalade\\7.5\\s3e\\makefile_builder\\templates\\win8_csproj_user.pyc'
p321
F1422012892.0
sS'c:\\marmalade\\7.5\\s3e\\makefile_builder\\plugins\\ws8_ws8.pyc'
p322
F1422012890.0
sS'c:\\marmalade\\7.5\\s3e\\makefile_builder\\templates\\wp8_vcxproj.pyc'
p323
F1422012892.0
sS'c:\\marmalade\\7.5\\s3e\\makefile_builder\\mkb_option.pyc'
p324
F1422012890.0
sccopy_reg
_reconstructor
p325
(cmkb_main
MkbFile
p326
c__builtin__
object
p327
Ntp328
Rp329
(dp330
g5
(lp331
sS'target_name'
p332
S'Stage4'
p333
sS'current_file'
p334
g133
sS'package_path'
p335
(lp336
sS'post_build'
p337
(lp338
(lp339
S'c:/marmalade/7.5/s3e/tools'
p340
aS'C:\\Marmalade\\7.5\\s3e\\python\\python.exe .\\process_map.py "$(TargetPath)"'
p341
aa(S'c:\\marmalade\\7.5\\s3e\\bin'
p342
S'"s3e_plink" -l "$(TargetPath)" '
p343
g165
tp344
asS'librarys'
p345
(lp346
g325
(cmkb_main
Library
p347
g327
Ntp348
Rp349
(dp350
S'name'
p351
S'vc6_compat.lib'
p352
sS'expand_name'
p353
I00
sS'include_spec_rvct_objs'
p354
(lp355
sS'include_all_objs'
p356
I00
sS'share_arm'
p357
I00
sS'arch'
p358
S'x86'
p359
sS'nodebug'
p360
I00
sg38
Nsbag325
(g347
g327
Ntp361
Rp362
(dp363
g351
S'iw2d'
p364
sg353
I01
sg354
(lp365
sg356
Nsg357
Nsg358
Nsg360
I00
sg38
Nsbag325
(g347
g327
Ntp366
Rp367
(dp368
g351
S'ATI_Compress_MT_VC7.lib'
p369
sg353
I00
sg354
g365
sg356
Nsg357
Nsg358
S'x86'
p370
sg360
I00
sg38
Nsbag325
(g347
g327
Ntp371
Rp372
(dp373
g351
S'iwgx'
p374
sg353
I01
sg354
g365
sg356
Nsg357
Nsg358
Nsg360
I00
sg38
Nsbag325
(g347
g327
Ntp375
Rp376
(dp377
g351
S'iwgl'
p378
sg353
I01
sg354
g365
sg356
Nsg357
Nsg358
Nsg360
I00
sg38
Nsbag325
(g347
g327
Ntp379
Rp380
(dp381
g351
S'iwutil'
p382
sg353
I01
sg354
g365
sg356
Nsg357
Nsg358
Nsg360
I00
sg38
Nsbag325
(g347
g327
Ntp383
Rp384
(dp385
g351
S'jpeg'
p386
sg353
I01
sg354
g365
sg356
Nsg357
Nsg358
Nsg360
I00
sg38
Nsbag325
(g347
g327
Ntp387
Rp388
(dp389
g351
S'z'
p390
sg353
I01
sg354
g365
sg356
Nsg357
Nsg358
Nsg360
I00
sg38
Nsbag325
(g347
g327
Ntp391
Rp392
(dp393
g351
S'png'
p394
sg353
I01
sg354
g365
sg356
Nsg357
Nsg358
Nsg360
I00
sg38
Nsbag325
(g347
g327
Ntp395
Rp396
(dp397
g351
S'iwgeom'
p398
sg353
I01
sg354
g365
sg356
Nsg357
Nsg358
Nsg360
I00
sg38
Nsbag325
(g347
g327
Ntp399
Rp400
(dp401
g351
S'iwresmanager'
p402
sg353
I01
sg354
g365
sg356
Nsg357
Nsg358
Nsg360
I00
sg38
Nsbag325
(g347
g327
Ntp403
Rp404
(dp405
g351
S'iwgxfont'
p406
sg353
I01
sg354
g365
sg356
Nsg357
Nsg358
Nsg360
I00
sg38
Nsbag325
(g347
g327
Ntp407
Rp408
(dp409
g351
S'tiniconv'
p410
sg353
I01
sg354
g365
sg356
Nsg357
Nsg358
Nsg360
I00
sg38
Nsbag325
(g347
g327
Ntp411
Rp412
(dp413
g351
S's3e_cpp'
p414
sg353
I01
sg354
g355
sg356
I00
sg357
I00
sg358
Nsg360
I00
sg38
Nsbag325
(g347
g327
Ntp415
Rp416
(dp417
g351
S's3e'
p418
sg353
I01
sg354
(lp419
S'iwcrt.o'
p420
asg356
I00
sg357
I00
sg358
Nsg360
I00
sg38
Nsbag325
(g347
g327
Ntp421
Rp422
(dp423
g351
g55
sg353
I01
sg354
g355
sg356
I00
sg357
I00
sg358
S'x86'
p424
sg360
I01
sg38
Nsbag325
(g347
g327
Ntp425
Rp426
(dp427
g351
g55
sg353
I01
sg354
g355
sg356
I00
sg357
I00
sg358
S'!x86'
p428
sg360
I01
sg38
Nsbag325
(g347
g327
Ntp429
Rp430
(dp431
g351
S'stdc++'
p432
sg353
I00
sg354
g355
sg356
I00
sg357
I00
sg358
S'mips'
p433
sg360
I00
sg38
Nsbag325
(g347
g327
Ntp434
Rp435
(dp436
g351
S'c'
p437
sg353
I00
sg354
g355
sg356
I00
sg357
I00
sg358
S'mips'
p438
sg360
I00
sg38
Nsbag325
(g347
g327
Ntp439
Rp440
(dp441
g351
S'm'
p442
sg353
I00
sg354
g355
sg356
I00
sg357
I00
sg358
S'mips'
p443
sg360
I00
sg38
Nsbag325
(g347
g327
Ntp444
Rp445
(dp446
g351
S'gcc'
p447
sg353
I00
sg354
g355
sg356
I00
sg357
I00
sg358
S'mips'
p448
sg360
I00
sg38
Nsbag325
(g347
g327
Ntp449
Rp450
(dp451
g351
S'stdc++'
p452
sg353
I00
sg354
g355
sg356
I00
sg357
I00
sg358
S'gcc_x86_android'
p453
sg360
I00
sg38
Nsbag325
(g347
g327
Ntp454
Rp455
(dp456
g351
g437
sg353
I00
sg354
g355
sg356
I00
sg357
I00
sg358
S'gcc_x86_android'
p457
sg360
I00
sg38
Nsbag325
(g347
g327
Ntp458
Rp459
(dp460
g351
g442
sg353
I00
sg354
g355
sg356
I00
sg357
I00
sg358
S'gcc_x86_android'
p461
sg360
I00
sg38
Nsbag325
(g347
g327
Ntp462
Rp463
(dp464
g351
g447
sg353
I00
sg354
g355
sg356
I00
sg357
I00
sg358
S'gcc_x86_android'
p465
sg360
I00
sg38
NsbasS'library_paths'
p466
(lp467
g325
(cmkb_main
LibraryPath
p468
g327
Ntp469
Rp470
(dp471
S'expand_path'
p472
I01
sg351
S'c:/marmalade/7.5/modules/iw2d'
p473
sbag325
(g468
g327
Ntp474
Rp475
(dp476
g472
I00
sg351
S'c:/marmalade/7.5/modules/iwgx/atitools'
p477
sbag325
(g468
g327
Ntp478
Rp479
(dp480
g472
I01
sg351
S'c:/marmalade/7.5/modules/iwgx'
p481
sbag325
(g468
g327
Ntp482
Rp483
(dp484
g472
I01
sg351
S'c:/marmalade/7.5/modules/iwgl'
p485
sbag325
(g468
g327
Ntp486
Rp487
(dp488
g472
I01
sg351
S'c:/marmalade/7.5/modules/iwutil'
p489
sbag325
(g468
g327
Ntp490
Rp491
(dp492
g472
I01
sg351
S'c:/marmalade/7.5/modules/third_party/libjpeg'
p493
sbag325
(g468
g327
Ntp494
Rp495
(dp496
g472
I01
sg351
S'c:/marmalade/7.5/modules/third_party/zlib'
p497
sbag325
(g468
g327
Ntp498
Rp499
(dp500
g472
I01
sg351
S'c:/marmalade/7.5/modules/third_party/libpng'
p501
sbag325
(g468
g327
Ntp502
Rp503
(dp504
g472
I01
sg351
S'c:/marmalade/7.5/modules/iwgeom'
p505
sbag325
(g468
g327
Ntp506
Rp507
(dp508
g472
I01
sg351
S'c:/marmalade/7.5/modules/iwresmanager'
p509
sbag325
(g468
g327
Ntp510
Rp511
(dp512
g472
I01
sg351
S'c:/marmalade/7.5/modules/iwgxfont'
p513
sbag325
(g468
g327
Ntp514
Rp515
(dp516
g472
I01
sg351
S'c:/marmalade/7.5/modules/third_party/tiniconv'
p517
sbag325
(g468
g327
Ntp518
Rp519
(dp520
g472
I01
sg351
S'c:/marmalade/7.5/s3e'
p521
sbasS'macros'
p522
(dp523
S'IW_USE_CALLSTACK'
p524
NsS'IW_MKF_IWGEOM'
p525
NsS'I3D_PLATFORM_S3E'
p526
NsS'IW_TRACE_CHANNEL_PVRTEXTOOL_VERBOSE'
p527
S'2'
p528
sS'IW_MKF_LIBJPEG'
p529
NsS'I3D_OS_S3E'
p530
NsS'IW_MKF_PVRTEXTOOL'
p531
NsS'IW_MKF_TINICONV'
p532
NsS'IW_APP_VERSION'
p533
S'"1.0"'
p534
sS'__S3E__'
p535
NsS'IW_MKF_IWRESMANAGER'
p536
NsS'IW_MKF_IWUTIL'
p537
NsS'IW_PLATFORM_S3E'
p538
NsS'IW_ASSERTION_CHANNEL_2D'
p539
S'1'
p540
sS'IW_APP_NAME'
p541
S'"Stage4"'
p542
sS'IW_MKF_MARMALADEEXAMPLERESOURCES'
p543
NsS'IW_MKF_IWGXFONT'
p544
NsS'IW_MKF_IWTWEEN'
p545
NsS'IW_MKF_ZLIB'
p546
NsS'IW_MKF_S3E_DEFAULT'
p547
NsS'IW_MKF_IWGX'
p548
NsS'IW_MKF_IW2DSCENEGRAPH'
p549
NsS'IW_MKF_SOUNDENGINE'
p550
NsS'IW_USE_ASSERTIONS'
p551
NsS'_CRT_SECURE_NO_DEPRECATE'
p552
NsS'IW_MKF_IWGL'
p553
NsS'IW_MKF_LIBPNG'
p554
NsS'IW_TRACE_CHANNEL_IW_2DSCENEGRAPH'
p555
g540
sS'IW_DEBUG'
p556
NsS'IW_USE_TRACING'
p557
NsS'IW_ASSERTION_CHANNEL_IW_2DSCENEGRAPH'
p558
g540
sS'IW_TRACE_CHANNEL_PVRTEXTOOL'
p559
g540
sS'IW_SDK'
p560
NsS'S3E_INCLUDE_LEGACY'
p561
NsS'IW_MKF_IW2DSCENEGRAPHCORE'
p562
NsS'IW_MKF_IW2D'
p563
NsS'IW_ASSERTION_CHANNEL_PVRTEXTOOL'
p564
g540
ssS'done_warnings'
p565
(dp566
sS'subprojects'
p567
(dp568
g188
S'iwgx'
p569
sg197
S'iwgxfont'
p570
sg186
S's3e-default.mkf'
p571
sg200
S'../iw2dscenegraphcore'
p572
sg193
S'zlib'
p573
sg195
S'iwresmanager'
p574
sg198
S'tiniconv'
p575
sg191
S'libjpeg'
p576
sg187
S'iw2d'
p577
sg203
S'../../../MarmaladeExampleResources'
p578
sg190
S'iwutil'
p579
sg201
S'iwtween'
p580
sg192
S'libpng'
p581
sg199
S'iw2dscenegraph'
p582
sg202
S'SoundEngine'
p583
sg189
S'iwgl'
p584
sg194
S'iwgeom'
p585
sg196
S'PVRTexTool'
p586
ssS'deployments'
p587
(dp588
S'Default'
p589
g325
(cdeployment
Deployment
p590
g327
Ntp591
Rp592
(dp593
S'got_version'
p594
I0
sS'assets'
p595
g589
sS'mkb'
p596
g329
sS'target'
p597
Nsg358
(lp598
sS'options'
p599
(dp600
S'iphone-link-lib'
p601
(lp602
sS'game-icf'
p603
NsS'android-tm'
p604
NsS'winmobile-icon32'
p605
NsS'ws8-logo-image150x150'
p606
NsS'wp81-logo-image150x150'
p607
NsS'ws81-product-version'
p608
NsS'osx-ext-dll'
p609
(lp610
S'c:/marmalade/7.5/extensions/pvrtextool/lib/osx/libPVRTexTool.dylib'
p611
asS'iphone-provisioning-profile'
p612
NsS'win32-icon'
p613
NsS'ws8-splash-screen-image620x300'
p614
NsS'wp81-extra-pri'
p615
(lp616
sS'ws8-ext-capabilities'
p617
(lp618
sS'android-icon-hdpi'
p619
NsS'iphone-ipad-only'
p620
NsS'iphone-splash-full-orient'
p621
NsS'wp8-tile-fliptemplate-supports-large'
p622
NsS'iphone-show-status-bar'
p623
NsS'roku-requires-mkv'
p624
NsS'long-caption'
p625
NsS'android-pkgname'
p626
NsS'wp81-publisher-display-name'
p627
NsS'blackberry-permissions-read-device-identifying-information'
p628
NsS'ws81-certificate-end-date'
p629
NsS'psp-dlgcontentid'
p630
NsS'iphone-minimum-ios-version'
p631
NsS'target-folder'
p632
NsS'tizen-dist1-CA-path'
p633
NsS'symbian-icon2-format'
p634
NsS'tizen-author-key'
p635
NsS'firefoxos-icon-128X128'
p636
NsS'iphone-region'
p637
NsS'uiq3-icon3-mask'
p638
NsS'brew-encoding'
p639
NsS'android-x86'
p640
NsS'nds-initialcode'
p641
NsS'iphone-persistent-wifi'
p642
NsS'psp-snd0'
p643
NsS'roku-icon-focus-hd'
p644
NsS'osx-appid'
p645
NsS'winmobile-install-folder'
p646
NsS'android-external-res'
p647
(lp648
sS'ws8-product-version'
p649
NsS'brew-priviledges'
p650
NsS'iphone-info-plist-override'
p651
NsS'iphone-icon-ipad'
p652
NsS'iphone-skip-icon-generation'
p653
NsS'roku-hidden'
p654
NsS'psp-titlename'
p655
NsS'wp81-product-version'
p656
NsS'symbian-icon1-mask'
p657
NsS'psp-parentallevel'
p658
NsS'iphone-launch-storyboard'
p659
NsS'splashscreen-use-all'
p660
NsS'wp8-author'
p661
NsS'symbian-disable-ecompxl'
p662
NsS'splashscreen-auto-onblack'
p663
NsS'iphone-icon-dir'
p664
NsS'iphone-icon-extra'
p665
NsS'win32-ext-dll'
p666
(lp667
S'c:/marmalade/7.5/extensions/pvrtextool/lib/win32/PVRTexTool.dll'
p668
asS'iphone-development-key'
p669
NsS'winmobile-icon48'
p670
NsS'android-unsigned'
p671
NsS'osx-appstore-category'
p672
NsS'version-revision'
p673
NsS'roku-icon-focus-sd'
p674
NsS'android-keystore'
p675
NsS'winmobile-png90'
p676
NsS'iphone-icon-ipad-high-res'
p677
NsS'iphone-disable-ipad'
p678
NsS'ws81-splash-screen-background'
p679
NsS'wp8-ext-capabilities'
p680
(lp681
sS'brew-icon-large'
p682
NsS'symbian-icon1-mask-black'
p683
NsS'ws8-extra-res'
p684
(lp685
sS'iphone-bundle-localisations'
p686
NsS'winmobile-png60'
p687
NsS'blackberry-permissions-access-shared'
p688
NsS'blackberry-author'
p689
NsS'android-icon-xxxhdpi'
p690
NsS'olddeploytoolstyle'
p691
NsS'android_icon_gallery'
p692
NsS'wp81-splash-screen-background'
p693
NsS'winmobile-cab-compress'
p694
NsS'iphone-info-plist'
p695
NsS'ws81-ext-managed-dll'
p696
(lp697
sS'playbook-cskpass'
p698
NsS'ws8-distribution-pfx-password'
p699
NsS'symbian-key'
p700
NsS'app-icf'
p701
NsS'blackberry-storepass'
p702
NsS'wp8-tile-fliptemplate-back-title'
p703
NsS'brew-compress-loader'
p704
NsS'win32-pref-windowposy'
p705
NsS'win32-pref-windowposx'
p706
NsS'roku-requires-audiometadata'
p707
NsS'wp8-exclude-low-mem'
p708
NsS'iphone-icon-ipad-search-high-res'
p709
NsS'iphone-link-libdir'
p710
(lp711
sS'wp81-ext-capabilities'
p712
(lp713
sS'blackberry-permissions-read-geolocation'
p714
NsS'ws81-ext-device-capabilities'
p715
(lp716
sS'tizen-signed'
p717
NsS'android-extra-application-manifest'
p718
(lp719
sS'ws8-ext-native-dll'
p720
(lp721
sS'symbian-icon2-mask'
p722
NsS'iphone-launch-extra'
p723
NsS'webos-memory'
p724
NsS'android-keypass'
p725
NsS'name'
p726
NsS'uiq3-icon2-format'
p727
NsS'roku-splash-screen-sd'
p728
NsS'auto-derbh'
p729
NsS'roku-icon-side-sd'
p730
NsS'android-external-assets'
p731
(lp732
sS'nds-publicsavedatasize'
p733
NsS'splashscreen'
p734
S'c:/marmalade/7.5/examples/marmaladeexampleresources/resources/splashscreens'
p735
sS'brew-mif'
p736
NsS'iphone-icon-settings-high-res'
p737
NsS'android-manifest'
p738
NsS'ws81-splash-screen-image620x300'
p739
NsS'wp81-product-name'
p740
NsS's3e-compression'
p741
NsS'tizen-author-password'
p742
NsS'wp8-tile-fliptemplate-back-content'
p743
NsS'blackberry-extra-descriptor'
p744
(lp745
sS'symbian-icon1'
p746
NsS'symbian-icon2'
p747
NsS'nds-makercode'
p748
NsS'android-extra-styles-file'
p749
NsS'wp81-publisher-id'
p750
NsS'nds-bannertitle-jp'
p751
NsS'wp81-logo-image44x44'
p752
NsS'osx-sign-for-store'
p753
NsS'symbian7-uid'
p754
NsS'wp8-tile-fliptemplate-large-back-content'
p755
NsS'wp81-phone-publisher-id'
p756
NsS'nds-bannertitle-cn'
p757
NsS'iphone-distribution-key'
p758
NsS'android-icon-gallery'
p759
NsS'blackberry-keystore'
p760
NsS'iphone-nosign'
p761
NsS'caption'
p762
NsS'android-extra-manifest'
p763
(lp764
sS'wp81-ext-sdk-ref'
p765
(lp766
sS'android-icon-xxhdpi'
p767
NsS'version-minor'
p768
NsS'iphone-skip-launch-generation'
p769
NsS'iphone-link-libdirs'
p770
(lp771
sS'iphone-icon-large'
p772
NsS'symbian-keypwd'
p773
NsS'symbian8-uid'
p774
NsS'symbian-cert-key'
p775
NsS'winmobile-ampd-part-number'
p776
NsS'arch'
p777
NsS'nds-romheadertemplate'
p778
NsS'webos-icon'
p779
NsS'wp81-ext-device-capabilities'
p780
(lp781
sS'psp-dlgprotectdocument'
p782
NsS'ws8-splash-screen-background'
p783
NsS'android-icon-mdpi'
p784
NsS'nds-icon'
p785
NsS'ws8-custom-manifest-fill'
p786
NsS'iphone-development-cert'
p787
NsS'and'
p788
NsS'symbian-icon2-mask-black'
p789
NsS'blackberry-phone-icon'
p790
NsS'iphone-enable-4inch-retina'
p791
NsS'ws8-custom-manifest'
p792
NsS'version-major'
p793
NsS'wp8-genre-isgame'
p794
NsS'uiq3-uid'
p795
NsS'iphone-splash-retina-generate'
p796
NsS'tizen-hw-acceleration'
p797
NsS'iphone_bundle_localisations'
p798
NsS'tizen-dist1-key'
p799
NsS'wp81-custom-manifest-fill'
p800
NsS'wp8-custom-manifest'
p801
NsS'nds-bannertitle-ge'
p802
NsS'iphone-sign-for-distribution'
p803
NsS'wp8-tile-fliptemplate-medium-back-image'
p804
NsS'wp8-publisher-id'
p805
NsS'icon'
p806
S'c:/marmalade/7.5/examples/marmaladeexampleresources/resources/icons'
p807
sS'wp8-exclude-wxga'
p808
NsS'wp81-identity-name'
p809
NsS'uiq3-icon2-mask'
p810
NsS'iphone-splashscreen-portrait'
p811
NsS'iphone-icon-high-res'
p812
NsS'ws81-distribution-pfx-password'
p813
NsS'playbook-author'
p814
NsS'android-icon-xhdpi'
p815
NsS'linux-ext-lib'
p816
(lp817
sS'blackberry-permissions-access-internet'
p818
NsS'wp8-exclude-720p'
p819
NsS'lgtv-use-drm'
p820
NsS'symbian-platsecflags'
p821
NsS'ws8-description'
p822
NsS'blackberry-playbook-icon'
p823
NsS'copyright'
p824
NsS'win32-gles-directory'
p825
NsS'version'
p826
NsS'iphone-uiviewcontroller-based-status-bar'
p827
NsS'ws81-logo-image150x150'
p828
NsS'osx-signing-identity-app'
p829
NsS'tizen-project-url'
p830
NsS'symbian-icon-svg'
p831
NsS'android-aliasname'
p832
NsS'psp-dlgmanual'
p833
NsS'brew-uid'
p834
NsS'symbian-locationsupport'
p835
NsS'wp81-logo-image50x50'
p836
NsS'ws8-ext-managed-dll'
p837
(lp838
sS'nds-bannertitle-it'
p839
NsS'ws81-custom-manifest-fill'
p840
NsS'ws8-ext-sdk-manifest-part'
p841
(lp842
sS'uiq3-icon1-mask'
p843
NsS'winmobile-icon16'
p844
NsS'ws8-product-name'
p845
NsS'blackberry-cskpass'
p846
NsS'winmobile-start-menu-folder'
p847
NsS'brew-clsid'
p848
NsS'roku-requires-bluetooth'
p849
NsS'ws8-ext-device-capabilities'
p850
(lp851
sS'blackberry-permissions-use-camera'
p852
NsS'ws81-extra-pri'
p853
(lp854
sS'iphone-prerendered-icon'
p855
NsS'iphone-appid'
p856
NsS'ws8-identity-name'
p857
NsS'tizen-dist2-CA-path'
p858
NsS'android-external-jars'
p859
(lp860
sS'winmobile-icon64'
p861
NsS'blackberry-permissions-post-notification'
p862
NsS'winmobile-setup-dll'
p863
NsS'firefoxos-manifest'
p864
NsS'win8-winrt-extra-res'
p865
(lp866
sS'wp81-ext-sdk-manifest-part'
p867
(lp868
sS'symbian9-uid'
p869
NsS'iphone-icon-ipad-ios7'
p870
NsS'winmobile-trace-file'
p871
NsS'roku-splash-color'
p872
NsS'psp-appversion'
p873
NsS'ws8-publisher-id'
p874
NsS'android-supports-gl-texture'
p875
(lp876
sS'winmobile-png45'
p877
NsS'wp81-extra-res'
p878
(lp879
sS'android-storepass'
p880
NsS'osx-signing-identity-inst'
p881
NsS'android-custom-activity'
p882
NsS'psp-discversion'
p883
NsS'wp81-ext-managed-dll'
p884
(lp885
sS'psp-copyright'
p886
NsS'embed-icf'
p887
NsS'tizen-manifest'
p888
NsS'osx-icon'
p889
NsS'webos-appinfo'
p890
NsS'psp-dlghealthwarning'
p891
NsS'webos-appid'
p892
NsS'roku-icon-side-hd'
p893
NsS'iphone-icon-ipad-search-high-res-ios7'
p894
NsS'iphone-extra-plist'
p895
(lp896
sS'ws81-ext-sdk-manifest-part'
p897
(lp898
sS'loader_name_prefix'
p899
NsS'iphone-launch-dir'
p900
NsS'nds-titlename'
p901
NsS'ws81-logo-image50x50'
p902
NsS'wp81-custom-manifest'
p903
NsS'osx-entitlements-plist'
p904
NsS'psp-dlgicon0'
p905
NsS'winmobile-nouninstall'
p906
NsS'psp-discid'
p907
NsS'tizen-dist2-password'
p908
NsS'ws8-ext-sdk-ref'
p909
(lp910
sS'iphone-extra-string'
p911
(lp912
sS'version-string'
p913
NsS'iphone-icon-high-res-ios7'
p914
NsS'blackberry-permissions-record-audio'
p915
NsS'ws8-certificate-end-date'
p916
NsS'tizen-so'
p917
(lp918
sS'wp8-tile-fliptemplate-small-image'
p919
NsS'playbook-authorid'
p920
NsS'iphone-signing-identity'
p921
NsS'roku-persist-quota'
p922
NsS'nds-bannertitle-fr'
p923
NsS'ws8-distribution-pfx'
p924
NsS'ws8-publisher-display-name'
p925
NsS'brew-icon-small'
p926
NsS'psp-dlgpic2'
p927
NsS'psp-dlgpic0'
p928
NsS'psp-pic0'
p929
NsS'psp-pic1'
p930
NsS'win32-pref-windowtitle'
p931
NsS'psp-icon0'
p932
NsS'psp-icon1'
p933
NsS'ws81-identity-name'
p934
NsS'winmobile-icon'
p935
NsS'iphone-no-splash'
p936
NsS'iphone-splash'
p937
NsS'iphone-app-fonts'
p938
NsS'wp8-ext-native-dll'
p939
(lp940
sS'wp81-splash-screen-image480x800'
p941
NsS'ws81-distribution-cer'
p942
NsS'iphone-backgroundmode-audio'
p943
NsS'uiq3-icon2'
p944
NsS'uiq3-icon3'
p945
NsS'uiq3-icon1'
p946
NsS'uiq3-icon1-format'
p947
NsS'ws8-logo-image50x50'
p948
NsS'iphone-icon-ipad-search'
p949
NsS'symbian-run-on-install'
p950
NsS'wp81-description'
p951
NsS'ws81-publisher-display-name'
p952
NsS'firefoxos-xulrunner'
p953
NsS'symbian-soundrecordsupport'
p954
NsS'nds-bannertitle-sp'
p955
NsS'psp-producer'
p956
NsS'iphone-apple-wwdr-cert'
p957
NsS'android-icon-nonstandard'
p958
NsS'win32-pref-processtitle'
p959
NsS'nds-bannertitle-hn'
p960
NsS'tizen-dist2-key'
p961
NsS'brew-depends'
p962
NsS'ws81-custom-manifest'
p963
NsS'iphone-allow-launch-rotation'
p964
NsS'iphone-icon-ipad-search-ios7'
p965
NsS'brew-icon-medium'
p966
NsS'iphone-bundle-url-name'
p967
NsS'wp8-tile-fliptemplate-large-front-image'
p968
NsS'tizen-dist2-CA-root-path'
p969
NsS'ws81-description'
p970
NsS'uiq3-icon3-format'
p971
NsS'ws81-logo-image30x30'
p972
NsS'win8-phone-extra-res'
p973
(lp974
sS'iphone-signing-host'
p975
NsS'tizen-icon'
p976
NsS'osx-info-plist'
p977
NsS'symbian-icon1-format'
p978
NsS'ws81-distribution-pfx'
p979
NsS'blackberry-authorid'
p980
NsS'ws81-publisher-id'
p981
NsS'win8-store-extra-res'
p982
(lp983
sS'wp8-description'
p984
NsS'iphone-link-opts'
p985
(lp986
sS'ws81-ext-sdk-ref'
p987
(lp988
sS'roku-splash-min-time'
p989
NsS'wp8-tile-fliptemplate-medium-front-image'
p990
NsS'iphone-disable-launch-images'
p991
NsS'provider'
p992
NsS'playbook-keystore'
p993
NsS'tizen-appid'
p994
NsS'wp8-extra-res'
p995
(lp996
sS'symbian-osexecsupport'
p997
NsS'android-install-location'
p998
NsS'nds-privatesavedatasize'
p999
NsS'iphone-disable-testflight'
p1000
NsS'playbook-storepass'
p1001
NsS'android-icon-ldpi'
p1002
NsS'manufacturer'
p1003
NsS'itunes-artwork'
p1004
NsS'iphone-extra-sections'
p1005
NsS'ws81-product-name'
p1006
NsS'ws81-ext-native-dll'
p1007
(lp1008
sS'ws8-extra-pri'
p1009
(lp1010
sS'wp8-product-id'
p1011
NsS'ws8-logo-image30x30'
p1012
NsS'wp8-ext-managed-dll'
p1013
(lp1014
sS'iphone-splashscreen-landscape'
p1015
NsS'symbian-maxheapsize'
p1016
NsS'android-extra-packages'
p1017
(lp1018
sS'priv-sign-key'
p1019
NsS'networking'
p1020
NsS'android-icon'
p1021
NsS'iphone-icon-settings'
p1022
NsS'wp81-phone-product-id'
p1023
NsS'firefoxos-icon-60X60'
p1024
NsS'iphone-distribution-cert'
p1025
NsS'android_extra_strings'
p1026
NsS'nds-bannertitle-en'
p1027
NsS'wp8-tile-fliptemplate-title'
p1028
NsS'android-so'
p1029
(lp1030
sS'wp8-higher-mem'
p1031
NsS'wp8-ext-sdk-ref'
p1032
(lp1033
sS'wp8-fast-resume-mode'
p1034
NsS'roku-splash-screen-hd'
p1035
NsS'iphone-bundle-url-schemes'
p1036
NsS'roku-screensaver-private'
p1037
NsS'osx-extra-res'
p1038
(lp1039
sS'ws81-extra-res'
p1040
(lp1041
sS'playbook-icon'
p1042
NsS'uid'
p1043
NsS'pkguid-as-uid'
p1044
NsS'wp81-ext-native-dll'
p1045
(lp1046
sS'tizen-dist1-password'
p1047
NsS'roku-screensaver-title'
p1048
NsS'osx-minimum-osx-version'
p1049
NsS'symbian-cert'
p1050
NsS'iphone-icon'
p1051
NsS'ws81-ext-capabilities'
p1052
(lp1053
sS'ws8-distribution-cer'
p1054
NsS'playbook-access-shared'
p1055
NsS'iphone-icon-ipad-high-res-ios7'
p1056
NsS'iphone-link-libs'
p1057
(lp1058
sS'wp8-exclude-wvga'
p1059
NsS'assets'
p1060
NsS'wp8-tile-fliptemplate-large-back-image'
p1061
NsS'wp8-custom-manifest-fill'
p1062
NsS'pub-sign-key'
p1063
NsS'android-extra-strings'
p1064
NsS'tizen-author-CA-path'
p1065
Nssg351
g589
sbssS'platform'
p1066
S'S3E'
p1067
sg70
S'1.0'
p1068
sS'arcade_platform'
p1069
g4
sS'extensions'
p1070
(dp1071
sS'source_groups_tree'
p1072
(dp1073
S'(libpng)'
p1074
(dp1075
S'h'
p1076
(dp1077
S'c:/marmalade/7.5/modules/third_party/libpng/h/png.h'
p1078
(lp1079
I1
a(dp1080
asS'c:/marmalade/7.5/modules/third_party/libpng/h/pngconf.h'
p1081
(lp1082
I1
ag1080
assS'c:/marmalade/7.5/modules/third_party/libpng/libpng.mkf'
p1083
(lp1084
I1
a(dp1085
assS'(libjpeg)'
p1086
(dp1087
S'c:/marmalade/7.5/modules/third_party/libjpeg/libjpeg.mkf'
p1088
(lp1089
I1
a(dp1090
asg1076
(dp1091
S'c:/marmalade/7.5/modules/third_party/libjpeg/h/jerror.h'
p1092
(lp1093
I1
a(dp1094
asS'c:/marmalade/7.5/modules/third_party/libjpeg/h/jdhuff.h'
p1095
(lp1096
I1
ag1094
asS'c:/marmalade/7.5/modules/third_party/libjpeg/h/cderror.h'
p1097
(lp1098
I1
ag1094
asS'c:/marmalade/7.5/modules/third_party/libjpeg/h/transupp.h'
p1099
(lp1100
I1
ag1094
asS'c:/marmalade/7.5/modules/third_party/libjpeg/h/jinclude.h'
p1101
(lp1102
I1
ag1094
asS'c:/marmalade/7.5/modules/third_party/libjpeg/h/jmorecfg.h'
p1103
(lp1104
I1
ag1094
asS'c:/marmalade/7.5/modules/third_party/libjpeg/h/jdct.h'
p1105
(lp1106
I1
ag1094
asS'c:/marmalade/7.5/modules/third_party/libjpeg/h/jmemsys.h'
p1107
(lp1108
I1
ag1094
asS'c:/marmalade/7.5/modules/third_party/libjpeg/h/jpegint.h'
p1109
(lp1110
I1
ag1094
asS'c:/marmalade/7.5/modules/third_party/libjpeg/h/jchuff.h'
p1111
(lp1112
I1
ag1094
asS'c:/marmalade/7.5/modules/third_party/libjpeg/h/cdjpeg.h'
p1113
(lp1114
I1
ag1094
asS'c:/marmalade/7.5/modules/third_party/libjpeg/h/jversion.h'
p1115
(lp1116
I1
ag1094
asS'c:/marmalade/7.5/modules/third_party/libjpeg/h/jconfig.h'
p1117
(lp1118
I1
ag1094
asS'c:/marmalade/7.5/modules/third_party/libjpeg/h/jpeglib.h'
p1119
(lp1120
I1
ag1094
asssS'(tiniconv)'
p1121
(dp1122
S'c:/marmalade/7.5/modules/third_party/tiniconv/tiniconv.mkf'
p1123
(lp1124
I1
a(dp1125
asS'c:/marmalade/7.5/modules/third_party/tiniconv/source/tiniconv_int.h'
p1126
(lp1127
I1
a(dp1128
asS'c:/marmalade/7.5/modules/third_party/tiniconv/source/tiniconv.h'
p1129
(lp1130
I1
ag1128
assS'(SoundEngine)'
p1131
(dp1132
S'c:/marmalade/7.5/examples/gametutorial/cpp/modules/soundengine/source/IwSoundGroup.cpp'
p1133
(lp1134
I1
a(dp1135
asS'c:/marmalade/7.5/examples/gametutorial/cpp/modules/soundengine/h/IwSoundADPCM.h'
p1136
(lp1137
I1
ag1135
asS'c:/marmalade/7.5/examples/gametutorial/cpp/modules/soundengine/source/IwResHandlerWAV.cpp'
p1138
(lp1139
I1
ag1135
asS'c:/marmalade/7.5/examples/gametutorial/cpp/modules/soundengine/h/IwResHandlerWAV.h'
p1140
(lp1141
I1
ag1135
asS'Docs'
p1142
(dp1143
S'c:/marmalade/7.5/examples/gametutorial/cpp/modules/soundengine/docs/iwsound.config.txt'
p1144
(lp1145
I1
ag1135
assS'c:/marmalade/7.5/examples/gametutorial/cpp/modules/soundengine/h/IwSoundInst.h'
p1146
(lp1147
I1
ag1135
asS'c:/marmalade/7.5/examples/gametutorial/cpp/modules/soundengine/source/IwSoundManager.cpp'
p1148
(lp1149
I1
ag1135
asS'c:/marmalade/7.5/examples/gametutorial/cpp/modules/soundengine/h/IwSoundSpec.h'
p1150
(lp1151
I1
ag1135
asS'c:/marmalade/7.5/examples/gametutorial/cpp/modules/soundengine/source/IwSoundParams.cpp'
p1152
(lp1153
I1
ag1135
asS'c:/marmalade/7.5/examples/gametutorial/cpp/modules/soundengine/h/IwSoundManager.h'
p1154
(lp1155
I1
ag1135
asS'c:/marmalade/7.5/examples/gametutorial/cpp/modules/soundengine/source/IwSoundPCM.cpp'
p1156
(lp1157
I1
ag1135
asS'c:/marmalade/7.5/examples/gametutorial/cpp/modules/soundengine/source/IwSoundWAV.cpp'
p1158
(lp1159
I1
ag1135
asS'c:/marmalade/7.5/examples/gametutorial/cpp/modules/soundengine/source/IwSoundInst.cpp'
p1160
(lp1161
I1
ag1135
asS'c:/marmalade/7.5/examples/gametutorial/cpp/modules/soundengine/h/IwSoundWAV.h'
p1162
(lp1163
I1
ag1135
asS'c:/marmalade/7.5/examples/gametutorial/cpp/modules/soundengine/source/IwSoundSpec.cpp'
p1164
(lp1165
I1
ag1135
asS'c:/marmalade/7.5/examples/gametutorial/cpp/modules/soundengine/h/IwSoundParams.h'
p1166
(lp1167
I1
ag1135
asS'c:/marmalade/7.5/examples/gametutorial/cpp/modules/soundengine/source/IwSoundADPCM.cpp'
p1168
(lp1169
I1
ag1135
asS'c:/marmalade/7.5/examples/gametutorial/cpp/modules/soundengine/h/IwSound.h'
p1170
(lp1171
I1
ag1135
asS'c:/marmalade/7.5/examples/gametutorial/cpp/modules/soundengine/source/IwSoundData.cpp'
p1172
(lp1173
I1
ag1135
asS'c:/marmalade/7.5/examples/gametutorial/cpp/modules/soundengine/h/IwSoundData.h'
p1174
(lp1175
I1
ag1135
asS'c:/marmalade/7.5/examples/gametutorial/cpp/modules/soundengine/h/IwSoundPCM.h'
p1176
(lp1177
I1
ag1135
asS'c:/marmalade/7.5/examples/gametutorial/cpp/modules/soundengine/soundengine.mkf'
p1178
(lp1179
I1
a(dp1180
asS'c:/marmalade/7.5/examples/gametutorial/cpp/modules/soundengine/h/IwSoundGroup.h'
p1181
(lp1182
I1
ag1135
assS'(MarmaladeExampleResources)'
p1183
(dp1184
S'c:/marmalade/7.5/examples/marmaladeexampleresources/marmaladeexampleresources.mkf'
p1185
(lp1186
I1
a(dp1187
assS'source'
p1188
(dp1189
S'c:/Marmalade/7.5/examples/GameTutorial/CPP/Stage4/source/main.cpp'
p1190
(lp1191
I1
a(dp1192
asS'c:/Marmalade/7.5/examples/GameTutorial/CPP/Stage4/source/pauseMenu.cpp'
p1193
(lp1194
I1
ag1192
asS'c:/Marmalade/7.5/examples/GameTutorial/CPP/Stage4/source/input.h'
p1195
(lp1196
I1
ag1192
asS'c:/Marmalade/7.5/examples/GameTutorial/CPP/Stage4/source/scene.h'
p1197
(lp1198
I1
ag1192
asS'c:/Marmalade/7.5/examples/GameTutorial/CPP/Stage4/source/scene.cpp'
p1199
(lp1200
I1
ag1192
asS'c:/Marmalade/7.5/examples/GameTutorial/CPP/Stage4/source/resources.h'
p1201
(lp1202
I1
ag1192
asS'c:/Marmalade/7.5/examples/GameTutorial/CPP/Stage4/source/main.h'
p1203
(lp1204
I1
ag1192
asS'c:/Marmalade/7.5/examples/GameTutorial/CPP/Stage4/source/pauseMenu.h'
p1205
(lp1206
I1
ag1192
asS'c:/Marmalade/7.5/examples/GameTutorial/CPP/Stage4/source/game.h'
p1207
(lp1208
I1
ag1192
asS'c:/Marmalade/7.5/examples/GameTutorial/CPP/Stage4/source/audio.h'
p1209
(lp1210
I1
ag1192
asS'c:/Marmalade/7.5/examples/GameTutorial/CPP/Stage4/source/audio.cpp'
p1211
(lp1212
I1
ag1192
asS'c:/Marmalade/7.5/examples/GameTutorial/CPP/Stage4/source/input.cpp'
p1213
(lp1214
I1
ag1192
asS'c:/Marmalade/7.5/examples/GameTutorial/CPP/Stage4/source/resources.cpp'
p1215
(lp1216
I1
ag1192
asS'c:/Marmalade/7.5/examples/GameTutorial/CPP/Stage4/source/mainMenu.cpp'
p1217
(lp1218
I1
ag1192
asS'c:/Marmalade/7.5/examples/GameTutorial/CPP/Stage4/source/game.cpp'
p1219
(lp1220
I1
ag1192
asS'c:/Marmalade/7.5/examples/GameTutorial/CPP/Stage4/source/mainMenu.h'
p1221
(lp1222
I1
ag1192
assS'Extensions'
p1223
(dp1224
S'PVRTexTool'
p1225
(dp1226
S'interface'
p1227
(dp1228
S'c:/marmalade/7.5/extensions/pvrtextool/interface/PVRTexTool.defines.txt'
p1229
(lp1230
I1
a(dp1231
asS'c:/marmalade/7.5/extensions/pvrtextool/interface/PVRTexTool_interface.cpp'
p1232
(lp1233
I1
ag1231
assS'c:/marmalade/7.5/extensions/pvrtextool/h/PVRTexTool.h'
p1234
(lp1235
I1
ag1231
asS'c:/marmalade/7.5/extensions/pvrtextool/pvrtextool.mkf'
p1236
(lp1237
I1
a(dp1238
asssS"'Marmalade Studio'"
p1239
(dp1240
S'iw2dscenegraph'
p1241
(dp1242
S'c:/marmalade/7.5/modules/iw2dscenegraph/source/Iw2DSceneGraph.cpp'
p1243
(lp1244
I1
a(dp1245
asS'c:/marmalade/7.5/modules/iw2dscenegraph/docs/iw2dscenegraph.defines.txt'
p1246
(lp1247
I1
ag1245
asS'c:/marmalade/7.5/modules/iw2dscenegraph/h/Iw2DSceneGraph.h'
p1248
(lp1249
I1
ag1245
asS'c:/marmalade/7.5/modules/iw2dscenegraph/iw2dscenegraph.mkf'
p1250
(lp1251
I1
a(dp1252
assS'iwgl'
p1253
(dp1254
S'c:/marmalade/7.5/modules/iwgl/iwgl.mkf'
p1255
(lp1256
I1
a(dp1257
asS'c:/marmalade/7.5/modules/iwgl/h/IwGL.h'
p1258
(lp1259
I1
a(dp1260
asS'c:/marmalade/7.5/modules/iwgl/docs/iwgl.config.txt'
p1261
(lp1262
I1
ag1260
asS'c:/marmalade/7.5/modules/iwgl/h/IwGLExt.h'
p1263
(lp1264
I1
ag1260
assS'iw2d'
p1265
(dp1266
S'c:/marmalade/7.5/modules/iw2d/docs/iw2d_public.defines.txt'
p1267
(lp1268
I1
a(dp1269
asS'c:/marmalade/7.5/modules/iw2d/docs/iw2d.config.txt'
p1270
(lp1271
I1
ag1269
asS'c:/marmalade/7.5/modules/iw2d/h/Iw2D.h'
p1272
(lp1273
I1
ag1269
asS'c:/marmalade/7.5/modules/iw2d/iw2d.mkf'
p1274
(lp1275
I1
a(dp1276
assS'iwgxfont'
p1277
(dp1278
S'c:/marmalade/7.5/modules/iwgxfont/h/IwGxFontGlyph.h'
p1279
(lp1280
I1
a(dp1281
asS'c:/marmalade/7.5/modules/iwgxfont/h/IwGxFontTypes.h'
p1282
(lp1283
I1
ag1281
asS'c:/marmalade/7.5/modules/iwgxfont/docs/iwgxfont.config.txt'
p1284
(lp1285
I1
ag1281
asS'c:/marmalade/7.5/modules/iwgxfont/h/IwGxFontState.h'
p1286
(lp1287
I1
ag1281
asS'c:/marmalade/7.5/modules/iwgxfont/h/IwGxFontContainer.h'
p1288
(lp1289
I1
ag1281
asS'c:/marmalade/7.5/modules/iwgxfont/iwgxfont.mkf'
p1290
(lp1291
I1
a(dp1292
asS'c:/marmalade/7.5/modules/iwgxfont/h/IwGxFontPreparedData.h'
p1293
(lp1294
I1
ag1281
asS'c:/marmalade/7.5/modules/iwgxfont/h/IwGxFont.h'
p1295
(lp1296
I1
ag1281
asS'c:/marmalade/7.5/modules/iwgxfont/docs/iwgxfont_public.defines.txt'
p1297
(lp1298
I1
ag1281
assS'iwgeom'
p1299
(dp1300
S'c:/marmalade/7.5/modules/iwgeom/h/IwGeomSVec2.h'
p1301
(lp1302
I1
a(dp1303
asS'c:/marmalade/7.5/modules/iwgeom/h/IwGeomSphere.h'
p1304
(lp1305
I1
ag1303
asS'c:/marmalade/7.5/modules/iwgeom/h/IwGeomSVec3.h'
p1306
(lp1307
I1
ag1303
asS'c:/marmalade/7.5/modules/iwgeom/iwgeom.mkf'
p1308
(lp1309
I1
a(dp1310
asS'c:/marmalade/7.5/modules/iwgeom/h/IwGeomSqrt.h'
p1311
(lp1312
I1
ag1303
asS'c:/marmalade/7.5/modules/iwgeom/h/IwGeomFQuat.h'
p1313
(lp1314
I1
ag1303
asS'c:/marmalade/7.5/modules/iwgeom/h/IwGeomQuat.h.tpl'
p1315
(lp1316
I1
ag1303
asS'c:/marmalade/7.5/modules/iwgeom/h/IwGeomVec2.h'
p1317
(lp1318
I1
ag1303
asS'c:/marmalade/7.5/modules/iwgeom/h/IwGeomMat.h'
p1319
(lp1320
I1
ag1303
asS'c:/marmalade/7.5/modules/iwgeom/h/IwGeomVec3.h'
p1321
(lp1322
I1
ag1303
asS'c:/marmalade/7.5/modules/iwgeom/h/IwGeomLegacy.h'
p1323
(lp1324
I1
ag1303
asS'c:/marmalade/7.5/modules/iwgeom/h/IwGeom.h'
p1325
(lp1326
I1
ag1303
asS'c:/marmalade/7.5/modules/iwgeom/h/IwGeomSQuat.h'
p1327
(lp1328
I1
ag1303
asS'c:/marmalade/7.5/modules/iwgeom/h/IwGeomFBBox.h'
p1329
(lp1330
I1
ag1303
asS'c:/marmalade/7.5/modules/iwgeom/h/IwGeomFMat.h'
p1331
(lp1332
I1
ag1303
asS'c:/marmalade/7.5/modules/iwgeom/h/IwGeomPlane.h'
p1333
(lp1334
I1
ag1303
asS'c:/marmalade/7.5/modules/iwgeom/h/IwGeomMat2D.h'
p1335
(lp1336
I1
ag1303
asS'c:/marmalade/7.5/modules/iwgeom/h/IwGeomFVec2.h'
p1337
(lp1338
I1
ag1303
asS'c:/marmalade/7.5/modules/iwgeom/h/IwGeomSVec4.h'
p1339
(lp1340
I1
ag1303
asS'c:/marmalade/7.5/modules/iwgeom/h/IwGeomVec4.h'
p1341
(lp1342
I1
ag1303
asS'c:/marmalade/7.5/modules/iwgeom/h/IwGeomCore.h'
p1343
(lp1344
I1
ag1303
asS'c:/marmalade/7.5/modules/iwgeom/h/IwGeomVec.h.tpl'
p1345
(lp1346
I1
ag1303
asS'c:/marmalade/7.5/modules/iwgeom/h/IwGeomVec.h'
p1347
(lp1348
I1
ag1303
asS'c:/marmalade/7.5/modules/iwgeom/h/IwGeomIntersect.h'
p1349
(lp1350
I1
ag1303
asS'c:/marmalade/7.5/modules/iwgeom/h/IwGeomFVec4.h'
p1351
(lp1352
I1
ag1303
asS'c:/marmalade/7.5/modules/iwgeom/h/IwGeomMat.h.tpl'
p1353
(lp1354
I1
ag1303
asS'c:/marmalade/7.5/modules/iwgeom/h/IwGeomMat2D.h.tpl'
p1355
(lp1356
I1
ag1303
asS'c:/marmalade/7.5/modules/iwgeom/h/IwGeomFMat2D.h'
p1357
(lp1358
I1
ag1303
asS'c:/marmalade/7.5/modules/iwgeom/h/IwGeomMenu.h'
p1359
(lp1360
I1
ag1303
asS'c:/marmalade/7.5/modules/iwgeom/h/IwGeomBBox.h'
p1361
(lp1362
I1
ag1303
asS'c:/marmalade/7.5/modules/iwgeom/h/IwGeomFSphere.h'
p1363
(lp1364
I1
ag1303
asS'c:/marmalade/7.5/modules/iwgeom/h/IwGeomFVec3.h'
p1365
(lp1366
I1
ag1303
asS'c:/marmalade/7.5/modules/iwgeom/h/IwGeomFPlane.h'
p1367
(lp1368
I1
ag1303
asS'c:/marmalade/7.5/modules/iwgeom/docs/iwgeom.config.txt'
p1369
(lp1370
I1
ag1303
asS'c:/marmalade/7.5/modules/iwgeom/h/IwGeomQuat.h'
p1371
(lp1372
I1
ag1303
asS'c:/marmalade/7.5/modules/iwgeom/h/IwGeomFIntersect.h'
p1373
(lp1374
I1
ag1303
assS'iwresmanager'
p1375
(dp1376
S'c:/marmalade/7.5/modules/iwresmanager/h/IwResHandlerITX.h'
p1377
(lp1378
I1
a(dp1379
asS'c:/marmalade/7.5/modules/iwresmanager/h/IwResSerialise.h'
p1380
(lp1381
I1
ag1379
asS'c:/marmalade/7.5/modules/iwresmanager/h/IwResManagerClass.h'
p1382
(lp1383
I1
ag1379
asS'c:/marmalade/7.5/modules/iwresmanager/h/IwResHandlerGROUP.h'
p1384
(lp1385
I1
ag1379
asS'c:/marmalade/7.5/modules/iwresmanager/h/IwResManager.h'
p1386
(lp1387
I1
ag1379
asS'c:/marmalade/7.5/modules/iwresmanager/iwresmanager.mkf'
p1388
(lp1389
I1
a(dp1390
asS'c:/marmalade/7.5/modules/iwresmanager/docs/iwresmanager.config.txt'
p1391
(lp1392
I1
ag1379
asS'c:/marmalade/7.5/modules/iwresmanager/h/IwResGroup.h'
p1393
(lp1394
I1
ag1379
asS'c:/marmalade/7.5/modules/iwresmanager/h/IwResHandler.h'
p1395
(lp1396
I1
ag1379
asS'c:/marmalade/7.5/modules/iwresmanager/h/IwResHandlerImage.h'
p1397
(lp1398
I1
ag1379
assS'iwgx'
p1399
(dp1400
S'c:/marmalade/7.5/modules/iwgx/h/IwDebugPrim.h'
p1401
(lp1402
I1
a(dp1403
asS'c:/marmalade/7.5/modules/iwgx/h/IwMatAnim.h'
p1404
(lp1405
I1
ag1403
asS'c:/marmalade/7.5/modules/iwgx/h/IwTexture.h'
p1406
(lp1407
I1
ag1403
asS'c:/marmalade/7.5/modules/iwgx/h/IwGxFuncTable.h'
p1408
(lp1409
I1
ag1403
asS'c:/marmalade/7.5/modules/iwgx/h/IwResHandlerMTL.h'
p1410
(lp1411
I1
ag1403
asS'c:/marmalade/7.5/modules/iwgx/h/IwGxPrint.h'
p1412
(lp1413
I1
ag1403
asS'c:/marmalade/7.5/modules/iwgx/h/IwGxStream.h'
p1414
(lp1415
I1
ag1403
asS'c:/marmalade/7.5/modules/iwgx/h/IwClip.h'
p1416
(lp1417
I1
ag1403
asS'c:/marmalade/7.5/modules/iwgx/h/IwGxSurface.h'
p1418
(lp1419
I1
ag1403
asS'c:/marmalade/7.5/modules/iwgx/h/IwGxError.h'
p1420
(lp1421
I1
ag1403
asS'c:/marmalade/7.5/modules/iwgx/h/IwGx.h'
p1422
(lp1423
I1
ag1403
asS'c:/marmalade/7.5/modules/iwgx/docs/iwgx_public.defines.txt'
p1424
(lp1425
I1
ag1403
asS'c:/marmalade/7.5/modules/iwgx/h/IwGxDebug.h'
p1426
(lp1427
I1
ag1403
asS'c:/marmalade/7.5/modules/iwgx/h/IwGxShaderTechnique.h'
p1428
(lp1429
I1
ag1403
asS'c:/marmalade/7.5/modules/iwgx/h/IwGxTransformSW.h'
p1430
(lp1431
I1
ag1403
asS'c:/marmalade/7.5/modules/iwgx/h/IwMaterial.h'
p1432
(lp1433
I1
ag1403
asS'c:/marmalade/7.5/modules/iwgx/h/IwGxMetrics.h'
p1434
(lp1435
I1
ag1403
asS'c:/marmalade/7.5/modules/iwgx/h/IwClip.inl'
p1436
(lp1437
I1
ag1403
asS'c:/marmalade/7.5/modules/iwgx/h/IwFColour.h'
p1438
(lp1439
I1
ag1403
asS'c:/marmalade/7.5/modules/iwgx/h/IwGxTypes.h'
p1440
(lp1441
I1
ag1403
asS'c:/marmalade/7.5/modules/iwgx/iwgx.mkf'
p1442
(lp1443
I1
a(dp1444
asS'c:/marmalade/7.5/modules/iwgx/docs/iwgx.config.txt'
p1445
(lp1446
I1
ag1403
asS'c:/marmalade/7.5/modules/iwgx/h/IwColour.h'
p1447
(lp1448
I1
ag1403
asS'c:/marmalade/7.5/modules/iwgx/h/IwGxState.h'
p1449
(lp1450
I1
ag1403
asS'c:/marmalade/7.5/modules/iwgx/h/IwTPage.h'
p1451
(lp1452
I1
ag1403
assS'iw2dscenegraphcore'
p1453
(dp1454
S'c:/marmalade/7.5/modules/iw2dscenegraphcore/iw2dscenegraphcore.mkf'
p1455
(lp1456
I1
a(dp1457
asS'c:/marmalade/7.5/modules/iw2dscenegraphcore/h/Iw2DSceneGraphCore.h'
p1458
(lp1459
I1
a(dp1460
asS'c:/marmalade/7.5/modules/iw2dscenegraphcore/source/Iw2DSceneGraphCore.cpp'
p1461
(lp1462
I1
ag1460
assS'iwutil'
p1463
(dp1464
S'c:/marmalade/7.5/modules/iwutil/h/IwSingleton.h'
p1465
(lp1466
I1
a(dp1467
asS'c:/marmalade/7.5/modules/iwutil/h/IwMath.h'
p1468
(lp1469
I1
ag1467
asS'c:/marmalade/7.5/modules/iwutil/h/IwBuffer.h'
p1470
(lp1471
I1
ag1467
asS'c:/marmalade/7.5/modules/iwutil/h/IwCore.h'
p1472
(lp1473
I1
ag1467
asS'c:/marmalade/7.5/modules/iwutil/h/IwDivide.h'
p1474
(lp1475
I1
ag1467
asS'c:/marmalade/7.5/modules/iwutil/h/IwMemory.h'
p1476
(lp1477
I1
ag1467
asS'c:/marmalade/7.5/modules/iwutil/h/IwImageHelper.h'
p1478
(lp1479
I1
ag1467
asS'c:/marmalade/7.5/modules/iwutil/h/IwManagedList.h'
p1480
(lp1481
I1
ag1467
asS'c:/marmalade/7.5/modules/iwutil/h/IwProfileMenu.h'
p1482
(lp1483
I1
ag1467
asS'c:/marmalade/7.5/modules/iwutil/h/IwClassFactory.h'
p1484
(lp1485
I1
ag1467
asS'c:/marmalade/7.5/modules/iwutil/h/IwDivTable.h'
p1486
(lp1487
I1
ag1467
asS'c:/marmalade/7.5/modules/iwutil/h/IwManaged.h'
p1488
(lp1489
I1
ag1467
asS'c:/marmalade/7.5/modules/iwutil/h/IwTextParseable.h'
p1490
(lp1491
I1
ag1467
asS'c:/marmalade/7.5/modules/iwutil/h/IwChar.h'
p1492
(lp1493
I1
ag1467
asS'c:/marmalade/7.5/modules/iwutil/h/IwRandom.h'
p1494
(lp1495
I1
ag1467
asS'c:/marmalade/7.5/modules/iwutil/h/IwDebug.h'
p1496
(lp1497
I1
ag1467
asS'c:/marmalade/7.5/modules/iwutil/h/IwUTF8.h'
p1498
(lp1499
I1
ag1467
asS'c:/marmalade/7.5/modules/iwutil/docs/iwutil.config.txt'
p1500
(lp1501
I1
ag1467
asS'c:/marmalade/7.5/modules/iwutil/h/IwAllocator.h'
p1502
(lp1503
I1
ag1467
asS'c:/marmalade/7.5/modules/iwutil/h/IwMemBucketHelpers.h'
p1504
(lp1505
I1
ag1467
asS'c:/marmalade/7.5/modules/iwutil/h/IwTextParserITX.h'
p1506
(lp1507
I1
ag1467
asS'c:/marmalade/7.5/modules/iwutil/h/IwKeymap.h'
p1508
(lp1509
I1
ag1467
asS'c:/marmalade/7.5/modules/iwutil/h/IwImage.h'
p1510
(lp1511
I1
ag1467
asS'c:/marmalade/7.5/modules/iwutil/h/IwOptimiseARM.h'
p1512
(lp1513
I1
ag1467
asS'c:/marmalade/7.5/modules/iwutil/h/IwMemBucket.h'
p1514
(lp1515
I1
ag1467
asS'c:/marmalade/7.5/modules/iwutil/h/IwOptimiseSize.h'
p1516
(lp1517
I1
ag1467
asS'c:/marmalade/7.5/modules/iwutil/h/IwRuntime.h'
p1518
(lp1519
I1
ag1467
asS'c:/marmalade/7.5/modules/iwutil/h/IwMemManagerDL.h'
p1520
(lp1521
I1
ag1467
asS'c:/marmalade/7.5/modules/iwutil/h/IwPath.h'
p1522
(lp1523
I1
ag1467
asS'c:/marmalade/7.5/modules/iwutil/h/IwOptimiseSpeed.h'
p1524
(lp1525
I1
ag1467
asS'c:/marmalade/7.5/modules/iwutil/h/IwList.h'
p1526
(lp1527
I1
ag1467
asS'c:/marmalade/7.5/modules/iwutil/h/IwAutoFile.h'
p1528
(lp1529
I1
ag1467
asS'c:/marmalade/7.5/modules/iwutil/h/IwVariableBitField.h'
p1530
(lp1531
I1
ag1467
asS'c:/marmalade/7.5/modules/iwutil/h/IwHashString.h'
p1532
(lp1533
I1
ag1467
asS'c:/marmalade/7.5/modules/iwutil/h/IwOptimiseThumb.h'
p1534
(lp1535
I1
ag1467
asS'c:/marmalade/7.5/modules/iwutil/iwutil.mkf'
p1536
(lp1537
I1
a(dp1538
asS'c:/marmalade/7.5/modules/iwutil/h/IwUtil.h'
p1539
(lp1540
I1
ag1467
asS'c:/marmalade/7.5/modules/iwutil/h/IwString.h'
p1541
(lp1542
I1
ag1467
asS'c:/marmalade/7.5/modules/iwutil/h/IwFile.h'
p1543
(lp1544
I1
ag1467
asS'c:/marmalade/7.5/modules/iwutil/h/IwUncopyable.h'
p1545
(lp1546
I1
ag1467
asS'c:/marmalade/7.5/modules/iwutil/h/IwTextParser.h'
p1547
(lp1548
I1
ag1467
asS'c:/marmalade/7.5/modules/iwutil/h/IwCopyingPtr.h'
p1549
(lp1550
I1
ag1467
asS'c:/marmalade/7.5/modules/iwutil/h/IwEvent.h'
p1551
(lp1552
I1
ag1467
asS'c:/marmalade/7.5/modules/iwutil/h/IwFibre.h'
p1553
(lp1554
I1
ag1467
asS'c:/marmalade/7.5/modules/iwutil/h/IwArray.h'
p1555
(lp1556
I1
ag1467
asS'c:/marmalade/7.5/modules/iwutil/h/IwMenu.h'
p1557
(lp1558
I1
ag1467
asS'c:/marmalade/7.5/modules/iwutil/h/IwTypes.h'
p1559
(lp1560
I1
ag1467
asS'c:/marmalade/7.5/modules/iwutil/h/IwUtilInitTerm.h'
p1561
(lp1562
I1
ag1467
asS'c:/marmalade/7.5/modules/iwutil/h/IwResource.h'
p1563
(lp1564
I1
ag1467
asS'c:/marmalade/7.5/modules/iwutil/h/IwSerialise.h'
p1565
(lp1566
I1
ag1467
asssS'(zlib)'
p1567
(dp1568
g1076
(dp1569
S'c:/marmalade/7.5/modules/third_party/zlib/h/zconf.h'
p1570
(lp1571
I1
a(dp1572
asS'c:/marmalade/7.5/modules/third_party/zlib/h/zlib.h'
p1573
(lp1574
I1
ag1572
assS'c:/marmalade/7.5/modules/third_party/zlib/zlib.mkf'
p1575
(lp1576
I1
a(dp1577
assS'(iwtween)'
p1578
(dp1579
S'c:/marmalade/7.5/modules/iwtween/h/IwTween.h'
p1580
(lp1581
I1
a(dp1582
asS'c:/marmalade/7.5/modules/iwtween/source/IwTween.cpp'
p1583
(lp1584
I1
ag1582
asS'c:/marmalade/7.5/modules/iwtween/iwtween.mkf'
p1585
(lp1586
I1
a(dp1587
assS'(s3e-default)'
p1588
(dp1589
S'c:/marmalade/7.5/s3e/s3e-default.mkf'
p1590
(lp1591
I1
a(dp1592
asssS'files'
p1593
(dp1594
S'IwGxFontPreparedData.h'
p1595
g325
(cmkb_main
File
p1596
g327
Ntp1597
Rp1598
(dp1599
S'flags'
p1600
g1281
sS'group'
p1601
(lp1602
S"'Marmalade Studio'"
p1603
ag1277
asg351
g1293
sbsS'iterator'
p1604
g325
(g1596
g327
Ntp1605
Rp1606
(dp1607
g1600
(dp1608
sg1601
(lp1609
S"'Marmalade System (S3E)'"
p1610
aS'stdc headers'
p1611
aS'c++'
p1612
asg351
S'c:/marmalade/7.5/s3e/h/std/c++/iterator'
p1613
sbsS'IwGL.h'
p1614
g325
(g1596
g327
Ntp1615
Rp1616
(dp1617
g1600
g1260
sg1601
(lp1618
S"'Marmalade Studio'"
p1619
ag1253
asg351
g1258
sbsS's3e.h'
p1620
g325
(g1596
g327
Ntp1621
Rp1622
(dp1623
g1600
g1608
sg1601
(lp1624
g1610
asg351
S'c:/marmalade/7.5/s3e/h/s3e.h'
p1625
sbsS'errno.h'
p1626
g325
(g1596
g327
Ntp1627
Rp1628
(dp1629
g1600
g1608
sg1601
(lp1630
g1610
aS'stdc headers'
p1631
asg351
S'c:/marmalade/7.5/s3e/h/std/errno.h'
p1632
sbsS'IwSingleton.h'
p1633
g325
(g1596
g327
Ntp1634
Rp1635
(dp1636
g1600
g1467
sg1601
(lp1637
S"'Marmalade Studio'"
p1638
ag1463
asg351
g1465
sbsS'dlfcn.h'
p1639
g325
(g1596
g327
Ntp1640
Rp1641
(dp1642
g1600
g1608
sg1601
g1630
sg351
S'c:/marmalade/7.5/s3e/h/std/dlfcn.h'
p1643
sbsS'IwSoundWAV.cpp'
p1644
g325
(g1596
g327
Ntp1645
Rp1646
(dp1647
g1600
g1135
sg1601
(lp1648
g1131
asg351
g1158
sbsS'sched.h'
p1649
g325
(g1596
g327
Ntp1650
Rp1651
(dp1652
g1600
g1608
sg1601
g1630
sg351
S'c:/marmalade/7.5/s3e/h/std/sched.h'
p1653
sbsS'IwSoundPCM.h'
p1654
g325
(g1596
g327
Ntp1655
Rp1656
(dp1657
g1600
g1135
sg1601
g1648
sg351
g1176
sbsS'IwGeomFMat2D.h'
p1658
g325
(g1596
g327
Ntp1659
Rp1660
(dp1661
g1600
g1303
sg1601
(lp1662
S"'Marmalade Studio'"
p1663
ag1299
asg351
g1357
sbsS'cassert'
p1664
g325
(g1596
g327
Ntp1665
Rp1666
(dp1667
g1600
g1608
sg1601
g1609
sg351
S'c:/marmalade/7.5/s3e/h/std/c++/cassert'
p1668
sbsS'grp.h'
p1669
g325
(g1596
g327
Ntp1670
Rp1671
(dp1672
g1600
g1608
sg1601
g1630
sg351
S'c:/marmalade/7.5/s3e/h/std/grp.h'
p1673
sbsS'list'
p1674
g325
(g1596
g327
Ntp1675
Rp1676
(dp1677
g1600
g1608
sg1601
g1609
sg351
S'c:/marmalade/7.5/s3e/h/std/c++/list'
p1678
sbsS'IwSoundSpec.cpp'
p1679
g325
(g1596
g327
Ntp1680
Rp1681
(dp1682
g1600
g1135
sg1601
g1648
sg351
g1164
sbsS'IwGeomMat.h.tpl'
p1683
g325
(g1596
g327
Ntp1684
Rp1685
(dp1686
g1600
g1303
sg1601
g1662
sg351
g1353
sbsS'istream'
p1687
g325
(g1596
g327
Ntp1688
Rp1689
(dp1690
g1600
g1608
sg1601
g1609
sg351
S'c:/marmalade/7.5/s3e/h/std/c++/istream'
p1691
sbsS'jpeglib.h'
p1692
g325
(g1596
g327
Ntp1693
Rp1694
(dp1695
g1600
g1094
sg1601
(lp1696
g1086
ag1076
asg351
g1119
sbsS'iw2d_public.defines.txt'
p1697
g325
(g1596
g327
Ntp1698
Rp1699
(dp1700
g1600
g1269
sg1601
(lp1701
S"'Marmalade Studio'"
p1702
ag1265
asg351
g1267
sbsS'iostream.h'
p1703
g325
(g1596
g327
Ntp1704
Rp1705
(dp1706
g1600
g1608
sg1601
g1609
sg351
S'c:/marmalade/7.5/s3e/h/std/c++/iostream.h'
p1707
sbsS'IwSoundADPCM.h'
p1708
g325
(g1596
g327
Ntp1709
Rp1710
(dp1711
g1600
g1135
sg1601
g1648
sg351
g1136
sbsS'string'
p1712
g325
(g1596
g327
Ntp1713
Rp1714
(dp1715
g1600
g1608
sg1601
g1609
sg351
S'c:/marmalade/7.5/s3e/h/std/c++/string'
p1716
sbsS'IwMemory.h'
p1717
g325
(g1596
g327
Ntp1718
Rp1719
(dp1720
g1600
g1467
sg1601
g1637
sg351
g1476
sbsS'IwGeomPlane.h'
p1721
g325
(g1596
g327
Ntp1722
Rp1723
(dp1724
g1600
g1303
sg1601
g1662
sg351
g1333
sbsS'iw2d.config.txt'
p1725
g325
(g1596
g327
Ntp1726
Rp1727
(dp1728
g1600
g1269
sg1601
g1701
sg351
g1270
sbsS'iomanip'
p1729
g325
(g1596
g327
Ntp1730
Rp1731
(dp1732
g1600
g1608
sg1601
g1609
sg351
S'c:/marmalade/7.5/s3e/h/std/c++/iomanip'
p1733
sbsS'iwgeom.mkf'
p1734
g325
(g1596
g327
Ntp1735
Rp1736
(dp1737
g1600
g1310
sg1601
g1662
sg351
g1308
sbsS'IwGxError.h'
p1738
g325
(g1596
g327
Ntp1739
Rp1740
(dp1741
g1600
g1403
sg1601
(lp1742
S"'Marmalade Studio'"
p1743
ag1399
asg351
g1420
sbsS'IwGeom.h'
p1744
g325
(g1596
g327
Ntp1745
Rp1746
(dp1747
g1600
g1303
sg1601
g1662
sg351
g1325
sbsS'scene.cpp'
p1748
g325
(g1596
g327
Ntp1749
Rp1750
(dp1751
g1600
g1192
sg1601
(lp1752
g1188
asg351
g1199
sbsS'IwGeomVec4.h'
p1753
g325
(g1596
g327
Ntp1754
Rp1755
(dp1756
g1600
g1303
sg1601
g1662
sg351
g1341
sbsS'dir.h'
p1757
g325
(g1596
g327
Ntp1758
Rp1759
(dp1760
g1600
g1608
sg1601
(lp1761
g1610
aS'stdc headers'
p1762
aS'sys'
p1763
asg351
S'c:/marmalade/7.5/s3e/h/std/sys/dir.h'
p1764
sbsS'locale.h'
p1765
g325
(g1596
g327
Ntp1766
Rp1767
(dp1768
g1600
g1608
sg1601
g1630
sg351
S'c:/marmalade/7.5/s3e/h/std/locale.h'
p1769
sbsS'vector'
p1770
g325
(g1596
g327
Ntp1771
Rp1772
(dp1773
g1600
g1608
sg1601
g1609
sg351
S'c:/marmalade/7.5/s3e/h/std/c++/vector'
p1774
sbsS'IwManaged.h'
p1775
g325
(g1596
g327
Ntp1776
Rp1777
(dp1778
g1600
g1467
sg1601
g1637
sg351
g1488
sbsS's3eCompass.h'
p1779
g325
(g1596
g327
Ntp1780
Rp1781
(dp1782
g1600
g1608
sg1601
g1624
sg351
S'c:/marmalade/7.5/s3e/h/s3eCompass.h'
p1783
sbsS'cderror.h'
p1784
g325
(g1596
g327
Ntp1785
Rp1786
(dp1787
g1600
g1094
sg1601
g1696
sg351
g1097
sbsS'climits'
p1788
g325
(g1596
g327
Ntp1789
Rp1790
(dp1791
g1600
g1608
sg1601
g1609
sg351
S'c:/marmalade/7.5/s3e/h/std/c++/climits'
p1792
sbsS'ipc.h'
p1793
g325
(g1596
g327
Ntp1794
Rp1795
(dp1796
g1600
g1608
sg1601
g1761
sg351
S'c:/marmalade/7.5/s3e/h/std/sys/ipc.h'
p1797
sbsS'jversion.h'
p1798
g325
(g1596
g327
Ntp1799
Rp1800
(dp1801
g1600
g1094
sg1601
g1696
sg351
g1115
sbsS'fnmatch.h'
p1802
g325
(g1596
g327
Ntp1803
Rp1804
(dp1805
g1600
g1608
sg1601
g1630
sg351
S'c:/marmalade/7.5/s3e/h/std/fnmatch.h'
p1806
sbsS'IwGxState.h'
p1807
g325
(g1596
g327
Ntp1808
Rp1809
(dp1810
g1600
g1403
sg1601
g1742
sg351
g1449
sbsS'rope'
p1811
g325
(g1596
g327
Ntp1812
Rp1813
(dp1814
g1600
g1608
sg1601
g1609
sg351
S'c:/marmalade/7.5/s3e/h/std/c++/rope'
p1815
sbsS's3eAudio.h'
p1816
g325
(g1596
g327
Ntp1817
Rp1818
(dp1819
g1600
g1608
sg1601
g1624
sg351
S'c:/marmalade/7.5/s3e/h/s3eAudio.h'
p1820
sbsS's3eSurface.h'
p1821
g325
(g1596
g327
Ntp1822
Rp1823
(dp1824
g1600
g1608
sg1601
g1624
sg351
S'c:/marmalade/7.5/s3e/h/s3eSurface.h'
p1825
sbsS'new'
p1826
g325
(g1596
g327
Ntp1827
Rp1828
(dp1829
g1600
g1608
sg1601
g1609
sg351
S'c:/marmalade/7.5/s3e/h/std/c++/new'
p1830
sbsS's3eWindow.h'
p1831
g325
(g1596
g327
Ntp1832
Rp1833
(dp1834
g1600
g1608
sg1601
(lp1835
g1610
aS'Extensions'
p1836
asg351
S'c:/marmalade/7.5/s3e/h/ext/s3eWindow.h'
p1837
sbsS'IwBuffer.h'
p1838
g325
(g1596
g327
Ntp1839
Rp1840
(dp1841
g1600
g1467
sg1601
g1637
sg351
g1470
sbsS'stdio_streambuf'
p1842
g325
(g1596
g327
Ntp1843
Rp1844
(dp1845
g1600
g1608
sg1601
g1609
sg351
S'c:/marmalade/7.5/s3e/h/std/c++/stdio_streambuf'
p1846
sbsS'IwGeomQuat.h.tpl'
p1847
g325
(g1596
g327
Ntp1848
Rp1849
(dp1850
g1600
g1303
sg1601
g1662
sg351
g1315
sbsS's3eOSExec.h'
p1851
g325
(g1596
g327
Ntp1852
Rp1853
(dp1854
g1600
g1608
sg1601
g1835
sg351
S'c:/marmalade/7.5/s3e/h/ext/s3eOSExec.h'
p1855
sbsS'IwGxTransformSW.h'
p1856
g325
(g1596
g327
Ntp1857
Rp1858
(dp1859
g1600
g1403
sg1601
g1742
sg351
g1430
sbsS'IwGxMetrics.h'
p1860
g325
(g1596
g327
Ntp1861
Rp1862
(dp1863
g1600
g1403
sg1601
g1742
sg351
g1434
sbsS'iwgxfont.config.txt'
p1864
g325
(g1596
g327
Ntp1865
Rp1866
(dp1867
g1600
g1281
sg1601
g1602
sg351
g1284
sbsS'gl2platform.h'
p1868
g325
(g1596
g327
Ntp1869
Rp1870
(dp1871
g1600
g1608
sg1601
(lp1872
g1610
aS'GL'
p1873
aS'GLES 2.0'
p1874
asg351
S'c:/marmalade/7.5/s3e/h/GLES2/gl2platform.h'
p1875
sbsS'IwResManagerClass.h'
p1876
g325
(g1596
g327
Ntp1877
Rp1878
(dp1879
g1600
g1379
sg1601
(lp1880
g1239
ag1375
asg351
g1382
sbsS'queue'
p1881
g325
(g1596
g327
Ntp1882
Rp1883
(dp1884
g1600
g1608
sg1601
g1609
sg351
S'c:/marmalade/7.5/s3e/h/std/c++/queue'
p1885
sbsS'time_1.h'
p1886
g325
(g1596
g327
Ntp1887
Rp1888
(dp1889
g1600
g1608
sg1601
g1761
sg351
S'c:/marmalade/7.5/s3e/h/std/sys/time.h'
p1890
sbsS'Iw2D.h'
p1891
g325
(g1596
g327
Ntp1892
Rp1893
(dp1894
g1600
g1269
sg1601
g1701
sg351
g1272
sbsS'IwGeomVec2.h'
p1895
g325
(g1596
g327
Ntp1896
Rp1897
(dp1898
g1600
g1303
sg1601
g1662
sg351
g1317
sbsS'sendfile.h'
p1899
g325
(g1596
g327
Ntp1900
Rp1901
(dp1902
g1600
g1608
sg1601
g1761
sg351
S'c:/marmalade/7.5/s3e/h/std/sys/sendfile.h'
p1903
sbsS'malloc.h'
p1904
g325
(g1596
g327
Ntp1905
Rp1906
(dp1907
g1600
g1608
sg1601
g1630
sg351
S'c:/marmalade/7.5/s3e/h/std/malloc.h'
p1908
sbsS'stdarg.h'
p1909
g325
(g1596
g327
Ntp1910
Rp1911
(dp1912
g1600
g1608
sg1601
g1630
sg351
S'c:/marmalade/7.5/s3e/h/std/stdarg.h'
p1913
sbsS'IwGeomCore.h'
p1914
g325
(g1596
g327
Ntp1915
Rp1916
(dp1917
g1600
g1303
sg1601
g1662
sg351
g1343
sbsS'Iw2DSceneGraph.h'
p1918
g325
(g1596
g327
Ntp1919
Rp1920
(dp1921
g1600
g1245
sg1601
(lp1922
S"'Marmalade Studio'"
p1923
ag1241
asg351
g1248
sbsS'endian.h'
p1924
g325
(g1596
g327
Ntp1925
Rp1926
(dp1927
g1600
g1608
sg1601
g1630
sg351
S'c:/marmalade/7.5/s3e/h/std/endian.h'
p1928
sbsS'gl3ext.h'
p1929
g325
(g1596
g327
Ntp1930
Rp1931
(dp1932
g1600
g1608
sg1601
(lp1933
g1610
aS'GL'
p1934
aS'GLES 3.0'
p1935
asg351
S'c:/marmalade/7.5/s3e/h/GLES3/gl3ext.h'
p1936
sbsS'glob.h'
p1937
g325
(g1596
g327
Ntp1938
Rp1939
(dp1940
g1600
g1608
sg1601
g1630
sg351
S'c:/marmalade/7.5/s3e/h/std/glob.h'
p1941
sbsS'fstream'
p1942
g325
(g1596
g327
Ntp1943
Rp1944
(dp1945
g1600
g1608
sg1601
g1609
sg351
S'c:/marmalade/7.5/s3e/h/std/c++/fstream'
p1946
sbsS's3eCamera.h'
p1947
g325
(g1596
g327
Ntp1948
Rp1949
(dp1950
g1600
g1608
sg1601
g1624
sg351
S'c:/marmalade/7.5/s3e/h/s3eCamera.h'
p1951
sbsS'jconfig.h'
p1952
g325
(g1596
g327
Ntp1953
Rp1954
(dp1955
g1600
g1094
sg1601
g1696
sg351
g1117
sbsS'memory'
p1956
g325
(g1596
g327
Ntp1957
Rp1958
(dp1959
g1600
g1608
sg1601
g1609
sg351
S'c:/marmalade/7.5/s3e/h/std/c++/memory'
p1960
sbsS'egl.h'
p1961
g325
(g1596
g327
Ntp1962
Rp1963
(dp1964
g1600
g1608
sg1601
(lp1965
g1610
aS'GL'
p1966
aS'EGL'
p1967
asg351
S'c:/marmalade/7.5/s3e/h/EGL/egl.h'
p1968
sbsS'egl_1.h'
p1969
g325
(g1596
g327
Ntp1970
Rp1971
(dp1972
g1600
g1608
sg1601
(lp1973
g1610
aS'GL'
p1974
aS'GLES 1.x'
p1975
asg351
S'c:/marmalade/7.5/s3e/h/GLES/egl.h'
p1976
sbsS'IwMemManagerDL.h'
p1977
g325
(g1596
g327
Ntp1978
Rp1979
(dp1980
g1600
g1467
sg1601
g1637
sg351
g1520
sbsS'deque'
p1981
g325
(g1596
g327
Ntp1982
Rp1983
(dp1984
g1600
g1608
sg1601
g1609
sg351
S'c:/marmalade/7.5/s3e/h/std/c++/deque'
p1985
sbsS'IwString.h'
p1986
g325
(g1596
g327
Ntp1987
Rp1988
(dp1989
g1600
g1467
sg1601
g1637
sg351
g1541
sbsS'cwchar'
p1990
g325
(g1596
g327
Ntp1991
Rp1992
(dp1993
g1600
g1608
sg1601
g1609
sg351
S'c:/marmalade/7.5/s3e/h/std/c++/cwchar'
p1994
sbsS'iwutil.mkf'
p1995
g325
(g1596
g327
Ntp1996
Rp1997
(dp1998
g1600
g1538
sg1601
g1637
sg351
g1536
sbsS'csignal'
p1999
g325
(g1596
g327
Ntp2000
Rp2001
(dp2002
g1600
g1608
sg1601
g1609
sg351
S'c:/marmalade/7.5/s3e/h/std/c++/csignal'
p2003
sbsS'float.h'
p2004
g325
(g1596
g327
Ntp2005
Rp2006
(dp2007
g1600
g1608
sg1601
g1630
sg351
S'c:/marmalade/7.5/s3e/h/std/float.h'
p2008
sbsS'pthread_alloc'
p2009
g325
(g1596
g327
Ntp2010
Rp2011
(dp2012
g1600
g1608
sg1601
g1609
sg351
S'c:/marmalade/7.5/s3e/h/std/c++/pthread_alloc'
p2013
sbsS'getopt.h'
p2014
g325
(g1596
g327
Ntp2015
Rp2016
(dp2017
g1600
g1608
sg1601
g1630
sg351
S'c:/marmalade/7.5/s3e/h/std/getopt.h'
p2018
sbsS'IwOptimiseARM.h'
p2019
g325
(g1596
g327
Ntp2020
Rp2021
(dp2022
g1600
g1467
sg1601
g1637
sg351
g1512
sbsS'times.h'
p2023
g325
(g1596
g327
Ntp2024
Rp2025
(dp2026
g1600
g1608
sg1601
g1761
sg351
S'c:/marmalade/7.5/s3e/h/std/sys/times.h'
p2027
sbsS'IwGeomFSphere.h'
p2028
g325
(g1596
g327
Ntp2029
Rp2030
(dp2031
g1600
g1303
sg1601
g1662
sg351
g1363
sbsS'game.h'
p2032
g325
(g1596
g327
Ntp2033
Rp2034
(dp2035
g1600
g1192
sg1601
g1752
sg351
g1207
sbsS'functional'
p2036
g325
(g1596
g327
Ntp2037
Rp2038
(dp2039
g1600
g1608
sg1601
g1609
sg351
S'c:/marmalade/7.5/s3e/h/std/c++/functional'
p2040
sbsS'IwTypes.h'
p2041
g325
(g1596
g327
Ntp2042
Rp2043
(dp2044
g1600
g1467
sg1601
g1637
sg351
g1559
sbsS'unistd.h'
p2045
g325
(g1596
g327
Ntp2046
Rp2047
(dp2048
g1600
g1608
sg1601
g1630
sg351
S'c:/marmalade/7.5/s3e/h/std/unistd.h'
p2049
sbsS'audio.cpp'
p2050
g325
(g1596
g327
Ntp2051
Rp2052
(dp2053
g1600
g1192
sg1601
g1752
sg351
g1211
sbsS's3eCompression.h'
p2054
g325
(g1596
g327
Ntp2055
Rp2056
(dp2057
g1600
g1608
sg1601
g1624
sg351
S'c:/marmalade/7.5/s3e/h/s3eCompression.h'
p2058
sbsS'langinfo.h'
p2059
g325
(g1596
g327
Ntp2060
Rp2061
(dp2062
g1600
g1608
sg1601
g1630
sg351
S'c:/marmalade/7.5/s3e/h/std/langinfo.h'
p2063
sbsS's3edebugHeap.h'
p2064
g325
(g1596
g327
Ntp2065
Rp2066
(dp2067
g1600
g1608
sg1601
g1835
sg351
S'c:/marmalade/7.5/s3e/h/ext/s3edebugHeap.h'
p2068
sbsS'AirplayVersion.h'
p2069
g325
(g1596
g327
Ntp2070
Rp2071
(dp2072
g1600
g1608
sg1601
g1624
sg351
S'c:/marmalade/7.5/s3e/h/AirplayVersion.h'
p2073
sbsS'gl2extimg.h'
p2074
g325
(g1596
g327
Ntp2075
Rp2076
(dp2077
g1600
g1608
sg1601
g1872
sg351
S'c:/marmalade/7.5/s3e/h/GLES2/gl2extimg.h'
p2078
sbsS'IwGeomSqrt.h'
p2079
g325
(g1596
g327
Ntp2080
Rp2081
(dp2082
g1600
g1303
sg1601
g1662
sg351
g1311
sbsS'tiniconv_int.h'
p2083
g325
(g1596
g327
Ntp2084
Rp2085
(dp2086
g1600
g1128
sg1601
(lp2087
g1121
asg351
g1126
sbsS'syslog.h'
p2088
g325
(g1596
g327
Ntp2089
Rp2090
(dp2091
g1600
g1608
sg1601
g1630
sg351
S'c:/marmalade/7.5/s3e/h/std/syslog.h'
p2092
sbsS'IwGxFontTypes.h'
p2093
g325
(g1596
g327
Ntp2094
Rp2095
(dp2096
g1600
g1281
sg1601
g1602
sg351
g1282
sbsS'IwGeomFIntersect.h'
p2097
g325
(g1596
g327
Ntp2098
Rp2099
(dp2100
g1600
g1303
sg1601
g1662
sg351
g1373
sbsS'hash_map'
p2101
g325
(g1596
g327
Ntp2102
Rp2103
(dp2104
g1600
g1608
sg1601
g1609
sg351
S'c:/marmalade/7.5/s3e/h/std/c++/hash_map'
p2105
sbsS's3e.mkf'
p2106
g325
(g1596
g327
Ntp2107
Rp2108
(dp2109
g1600
(dp2110
sg1601
g1624
sg351
S'c:/marmalade/7.5/s3e/s3e.mkf'
p2111
sbsS'IwGeomMat2D.h.tpl'
p2112
g325
(g1596
g327
Ntp2113
Rp2114
(dp2115
g1600
g1303
sg1601
g1662
sg351
g1355
sbsS's3eOSReadString.h'
p2116
g325
(g1596
g327
Ntp2117
Rp2118
(dp2119
g1600
g1608
sg1601
g1835
sg351
S'c:/marmalade/7.5/s3e/h/ext/s3eOSReadString.h'
p2120
sbsS'IwSound.h'
p2121
g325
(g1596
g327
Ntp2122
Rp2123
(dp2124
g1600
g1135
sg1601
g1648
sg351
g1170
sbsS'map'
p2125
g325
(g1596
g327
Ntp2126
Rp2127
(dp2128
g1600
g1608
sg1601
g1609
sg351
S'c:/marmalade/7.5/s3e/h/std/c++/map'
p2129
sbsS'iwtween.mkf'
p2130
g325
(g1596
g327
Ntp2131
Rp2132
(dp2133
g1600
g1587
sg1601
(lp2134
g1578
asg351
g1585
sbsS'IwOptimiseSpeed.h'
p2135
g325
(g1596
g327
Ntp2136
Rp2137
(dp2138
g1600
g1467
sg1601
g1637
sg351
g1524
sbsS'ostream'
p2139
g325
(g1596
g327
Ntp2140
Rp2141
(dp2142
g1600
g1608
sg1601
g1609
sg351
S'c:/marmalade/7.5/s3e/h/std/c++/ostream'
p2143
sbsS'msl_string.h'
p2144
g325
(g1596
g327
Ntp2145
Rp2146
(dp2147
g1600
g1608
sg1601
g1609
sg351
S'c:/marmalade/7.5/s3e/h/std/c++/msl_string.h'
p2148
sbsS'select.h'
p2149
g325
(g1596
g327
Ntp2150
Rp2151
(dp2152
g1600
g1608
sg1601
g1761
sg351
S'c:/marmalade/7.5/s3e/h/std/sys/select.h'
p2153
sbsS'zlib.mkf'
p2154
g325
(g1596
g327
Ntp2155
Rp2156
(dp2157
g1600
g1577
sg1601
(lp2158
g1567
asg351
g1575
sbsS'signal.h'
p2159
g325
(g1596
g327
Ntp2160
Rp2161
(dp2162
g1600
g1608
sg1601
g1630
sg351
S'c:/marmalade/7.5/s3e/h/std/signal.h'
p2163
sbsS'sigcontext.h'
p2164
g325
(g1596
g327
Ntp2165
Rp2166
(dp2167
g1600
g1608
sg1601
g1630
sg351
S'c:/marmalade/7.5/s3e/h/std/sigcontext.h'
p2168
sbsS'libpng.mkf'
p2169
g325
(g1596
g327
Ntp2170
Rp2171
(dp2172
g1600
g1085
sg1601
(lp2173
g1074
asg351
g1083
sbsS's3eClipboard.h'
p2174
g325
(g1596
g327
Ntp2175
Rp2176
(dp2177
g1600
g1608
sg1601
g1624
sg351
S'c:/marmalade/7.5/s3e/h/s3eClipboard.h'
p2178
sbsS'IwGxFuncTable.h'
p2179
g325
(g1596
g327
Ntp2180
Rp2181
(dp2182
g1600
g1403
sg1601
g1742
sg351
g1408
sbsS'IwResHandlerGROUP.h'
p2183
g325
(g1596
g327
Ntp2184
Rp2185
(dp2186
g1600
g1379
sg1601
g1880
sg351
g1384
sbsS's3eDebug.h'
p2187
g325
(g1596
g327
Ntp2188
Rp2189
(dp2190
g1600
g1608
sg1601
g1624
sg351
S'c:/marmalade/7.5/s3e/h/s3eDebug.h'
p2191
sbsS'socket.h'
p2192
g325
(g1596
g327
Ntp2193
Rp2194
(dp2195
g1600
g1608
sg1601
g1761
sg351
S'c:/marmalade/7.5/s3e/h/std/sys/socket.h'
p2196
sbsS'glext.h'
p2197
g325
(g1596
g327
Ntp2198
Rp2199
(dp2200
g1600
g1608
sg1601
g1973
sg351
S'c:/marmalade/7.5/s3e/h/GLES/glext.h'
p2201
sbsS'typeinfo.h'
p2202
g325
(g1596
g327
Ntp2203
Rp2204
(dp2205
g1600
g1608
sg1601
g1609
sg351
S'c:/marmalade/7.5/s3e/h/std/c++/typeinfo.h'
p2206
sbsS'typeinfo'
p2207
g325
(g1596
g327
Ntp2208
Rp2209
(dp2210
g1600
g1608
sg1601
g1609
sg351
S'c:/marmalade/7.5/s3e/h/std/c++/typeinfo'
p2211
sbsS'iwsound.config.txt'
p2212
g325
(g1596
g327
Ntp2213
Rp2214
(dp2215
g1600
g1135
sg1601
(lp2216
g1131
ag1142
asg351
g1144
sbsS'fstream.h'
p2217
g325
(g1596
g327
Ntp2218
Rp2219
(dp2220
g1600
g1608
sg1601
g1609
sg351
S'c:/marmalade/7.5/s3e/h/std/c++/fstream.h'
p2221
sbsS'IwGeomMat.h'
p2222
g325
(g1596
g327
Ntp2223
Rp2224
(dp2225
g1600
g1303
sg1601
g1662
sg351
g1319
sbsS's3ePointer.h'
p2226
g325
(g1596
g327
Ntp2227
Rp2228
(dp2229
g1600
g1608
sg1601
g1624
sg351
S'c:/marmalade/7.5/s3e/h/s3ePointer.h'
p2230
sbsS'IwMemBucket.h'
p2231
g325
(g1596
g327
Ntp2232
Rp2233
(dp2234
g1600
g1467
sg1601
g1637
sg351
g1514
sbsS'PVRTexTool.h'
p2235
g325
(g1596
g327
Ntp2236
Rp2237
(dp2238
g1600
g1231
sg1601
(lp2239
g1223
ag1225
asg351
g1234
sbsS's3eGL.h'
p2240
g325
(g1596
g327
Ntp2241
Rp2242
(dp2243
g1600
g1608
sg1601
g1624
sg351
S'c:/marmalade/7.5/s3e/h/s3eGL.h'
p2244
sbsS'IwGeomFVec2.h'
p2245
g325
(g1596
g327
Ntp2246
Rp2247
(dp2248
g1600
g1303
sg1601
g1662
sg351
g1337
sbsS'IwGeomSVec4.h'
p2249
g325
(g1596
g327
Ntp2250
Rp2251
(dp2252
g1600
g1303
sg1601
g1662
sg351
g1339
sbsS'poll.h'
p2253
g325
(g1596
g327
Ntp2254
Rp2255
(dp2256
g1600
g1608
sg1601
g1630
sg351
S'c:/marmalade/7.5/s3e/h/std/poll.h'
p2257
sbsS'IwMatAnim.h'
p2258
g325
(g1596
g327
Ntp2259
Rp2260
(dp2261
g1600
g1403
sg1601
g1742
sg351
g1404
sbsS'IwGeomFVec4.h'
p2262
g325
(g1596
g327
Ntp2263
Rp2264
(dp2265
g1600
g1303
sg1601
g1662
sg351
g1351
sbsS'IwGx.h'
p2266
g325
(g1596
g327
Ntp2267
Rp2268
(dp2269
g1600
g1403
sg1601
g1742
sg351
g1422
sbsS'valarray'
p2270
g325
(g1596
g327
Ntp2271
Rp2272
(dp2273
g1600
g1608
sg1601
g1609
sg351
S'c:/marmalade/7.5/s3e/h/std/c++/valarray'
p2274
sbsS'iosfwd'
p2275
g325
(g1596
g327
Ntp2276
Rp2277
(dp2278
g1600
g1608
sg1601
g1609
sg351
S'c:/marmalade/7.5/s3e/h/std/c++/iosfwd'
p2279
sbsS'gl2.h'
p2280
g325
(g1596
g327
Ntp2281
Rp2282
(dp2283
g1600
g1608
sg1601
g1872
sg351
S'c:/marmalade/7.5/s3e/h/GLES2/gl2.h'
p2284
sbsS'jpegint.h'
p2285
g325
(g1596
g327
Ntp2286
Rp2287
(dp2288
g1600
g1094
sg1601
g1696
sg351
g1109
sbsS'stdiostream.h'
p2289
g325
(g1596
g327
Ntp2290
Rp2291
(dp2292
g1600
g1608
sg1601
g1609
sg351
S'c:/marmalade/7.5/s3e/h/std/c++/stdiostream.h'
p2293
sbsS'mem.h'
p2294
g325
(g1596
g327
Ntp2295
Rp2296
(dp2297
g1600
g1608
sg1601
g1609
sg351
S'c:/marmalade/7.5/s3e/h/std/c++/mem.h'
p2298
sbsS'jerror.h'
p2299
g325
(g1596
g327
Ntp2300
Rp2301
(dp2302
g1600
g1094
sg1601
g1696
sg351
g1092
sbsS'zconf.h'
p2303
g325
(g1596
g327
Ntp2304
Rp2305
(dp2306
g1600
g1572
sg1601
(lp2307
g1567
ag1076
asg351
g1570
sbsS's3e.config.txt'
p2308
g325
(g1596
g327
Ntp2309
Rp2310
(dp2311
g1600
g1608
sg1601
g1624
sg351
S'c:/marmalade/7.5/s3e/s3e.config.txt'
p2312
sbsS'numeric'
p2313
g325
(g1596
g327
Ntp2314
Rp2315
(dp2316
g1600
g1608
sg1601
g1609
sg351
S'c:/marmalade/7.5/s3e/h/std/c++/numeric'
p2317
sbsS'utime.h'
p2318
g325
(g1596
g327
Ntp2319
Rp2320
(dp2321
g1600
g1608
sg1601
g1630
sg351
S'c:/marmalade/7.5/s3e/h/std/utime.h'
p2322
sbsS'jdhuff.h'
p2323
g325
(g1596
g327
Ntp2324
Rp2325
(dp2326
g1600
g1094
sg1601
g1696
sg351
g1095
sbsS'IwResHandlerWAV.cpp'
p2327
g325
(g1596
g327
Ntp2328
Rp2329
(dp2330
g1600
g1135
sg1601
g1648
sg351
g1138
sbsS'un.h'
p2331
g325
(g1596
g327
Ntp2332
Rp2333
(dp2334
g1600
g1608
sg1601
g1761
sg351
S'c:/marmalade/7.5/s3e/h/std/sys/un.h'
p2335
sbsS'IwImage.h'
p2336
g325
(g1596
g327
Ntp2337
Rp2338
(dp2339
g1600
g1467
sg1601
g1637
sg351
g1510
sbsS's3eImagePicker.h'
p2340
g325
(g1596
g327
Ntp2341
Rp2342
(dp2343
g1600
g1608
sg1601
g1835
sg351
S'c:/marmalade/7.5/s3e/h/ext/s3eImagePicker.h'
p2344
sbsS'stdlib.h'
p2345
g325
(g1596
g327
Ntp2346
Rp2347
(dp2348
g1600
g1608
sg1601
g1630
sg351
S'c:/marmalade/7.5/s3e/h/std/stdlib.h'
p2349
sbsS'IwCopyingPtr.h'
p2350
g325
(g1596
g327
Ntp2351
Rp2352
(dp2353
g1600
g1467
sg1601
g1637
sg351
g1549
sbsS'iostream'
p2354
g325
(g1596
g327
Ntp2355
Rp2356
(dp2357
g1600
g1608
sg1601
g1609
sg351
S'c:/marmalade/7.5/s3e/h/std/c++/iostream'
p2358
sbsS'png.h'
p2359
g325
(g1596
g327
Ntp2360
Rp2361
(dp2362
g1600
g1080
sg1601
(lp2363
g1074
ag1076
asg351
g1078
sbsS'stddef.h'
p2364
g325
(g1596
g327
Ntp2365
Rp2366
(dp2367
g1600
g1608
sg1601
g1630
sg351
S'c:/marmalade/7.5/s3e/h/std/stddef.h'
p2368
sbsS'setjmp_win32.h'
p2369
g325
(g1596
g327
Ntp2370
Rp2371
(dp2372
g1600
g1608
sg1601
g1630
sg351
S'c:/marmalade/7.5/s3e/h/std/setjmp_win32.h'
p2373
sbsS'pauseMenu.h'
p2374
g325
(g1596
g327
Ntp2375
Rp2376
(dp2377
g1600
g1192
sg1601
g1752
sg351
g1205
sbsS'IwGxPrint.h'
p2378
g325
(g1596
g327
Ntp2379
Rp2380
(dp2381
g1600
g1403
sg1601
g1742
sg351
g1412
sbsS'iwgx_public.defines.txt'
p2382
g325
(g1596
g327
Ntp2383
Rp2384
(dp2385
g1600
g1403
sg1601
g1742
sg351
g1424
sbsS'streambuf.h'
p2386
g325
(g1596
g327
Ntp2387
Rp2388
(dp2389
g1600
g1608
sg1601
g1609
sg351
S'c:/marmalade/7.5/s3e/h/std/c++/streambuf.h'
p2390
sbsS'resources.cpp'
p2391
g325
(g1596
g327
Ntp2392
Rp2393
(dp2394
g1600
g1192
sg1601
g1752
sg351
g1215
sbsS'IwGeomFPlane.h'
p2395
g325
(g1596
g327
Ntp2396
Rp2397
(dp2398
g1600
g1303
sg1601
g1662
sg351
g1367
sbsS'wchar.h'
p2399
g325
(g1596
g327
Ntp2400
Rp2401
(dp2402
g1600
g1608
sg1601
g1630
sg351
S'c:/marmalade/7.5/s3e/h/std/wchar.h'
p2403
sbsS's3eCameraCapture.h'
p2404
g325
(g1596
g327
Ntp2405
Rp2406
(dp2407
g1600
g1608
sg1601
g1835
sg351
S'c:/marmalade/7.5/s3e/h/ext/s3eCameraCapture.h'
p2408
sbsS'eglext.h'
p2409
g325
(g1596
g327
Ntp2410
Rp2411
(dp2412
g1600
g1608
sg1601
g1965
sg351
S'c:/marmalade/7.5/s3e/h/EGL/eglext.h'
p2413
sbsS'IwResHandlerImage.h'
p2414
g325
(g1596
g327
Ntp2415
Rp2416
(dp2417
g1600
g1379
sg1601
g1880
sg351
g1397
sbsS'strstream.h'
p2418
g325
(g1596
g327
Ntp2419
Rp2420
(dp2421
g1600
g1608
sg1601
g1609
sg351
S'c:/marmalade/7.5/s3e/h/std/c++/strstream.h'
p2422
sbsS'tiniconv.h'
p2423
g325
(g1596
g327
Ntp2424
Rp2425
(dp2426
g1600
g1128
sg1601
g2087
sg351
g1129
sbsS'IwGLExt.h'
p2427
g325
(g1596
g327
Ntp2428
Rp2429
(dp2430
g1600
g1260
sg1601
g1618
sg351
g1263
sbsS'app.icf'
p2431
g325
(g1596
g327
Ntp2432
Rp2433
(dp2434
g1600
(dp2435
sg1601
g4
sg351
S'c:/Marmalade/7.5/examples/GameTutorial/CPP/Stage4/data/app.icf'
p2436
sbsS'IwClassFactory.h'
p2437
g325
(g1596
g327
Ntp2438
Rp2439
(dp2440
g1600
g1467
sg1601
g1637
sg351
g1484
sbsS'file.h'
p2441
g325
(g1596
g327
Ntp2442
Rp2443
(dp2444
g1600
g1608
sg1601
g1761
sg351
S'c:/marmalade/7.5/s3e/h/std/sys/file.h'
p2445
sbsS'cstring'
p2446
g325
(g1596
g327
Ntp2447
Rp2448
(dp2449
g1600
g1608
sg1601
g1609
sg351
S'c:/marmalade/7.5/s3e/h/std/c++/cstring'
p2450
sbsS'IwSoundInst.cpp'
p2451
g325
(g1596
g327
Ntp2452
Rp2453
(dp2454
g1600
g1135
sg1601
g1648
sg351
g1160
sbsS'iwutil.config.txt'
p2455
g325
(g1596
g327
Ntp2456
Rp2457
(dp2458
g1600
g1467
sg1601
g1637
sg351
g1500
sbsS's3eSMS.h'
p2459
g325
(g1596
g327
Ntp2460
Rp2461
(dp2462
g1600
g1608
sg1601
g1835
sg351
S'c:/marmalade/7.5/s3e/h/ext/s3eSMS.h'
p2463
sbsS'limits.h'
p2464
g325
(g1596
g327
Ntp2465
Rp2466
(dp2467
g1600
g1608
sg1601
g1630
sg351
S'c:/marmalade/7.5/s3e/h/std/limits.h'
p2468
sbsS'scene.h'
p2469
g325
(g1596
g327
Ntp2470
Rp2471
(dp2472
g1600
g1192
sg1601
g1752
sg351
g1197
sbsS'IwMaterial.h'
p2473
g325
(g1596
g327
Ntp2474
Rp2475
(dp2476
g1600
g1403
sg1601
g1742
sg351
g1432
sbsS'PVRTexTool_interface.cpp'
p2477
g325
(g1596
g327
Ntp2478
Rp2479
(dp2480
g1600
g1231
sg1601
(lp2481
g1223
ag1225
ag1227
asg351
g1232
sbsS'IwGxSurface.h'
p2482
g325
(g1596
g327
Ntp2483
Rp2484
(dp2485
g1600
g1403
sg1601
g1742
sg351
g1418
sbsS's3eSocket.h'
p2486
g325
(g1596
g327
Ntp2487
Rp2488
(dp2489
g1600
g1608
sg1601
g1624
sg351
S'c:/marmalade/7.5/s3e/h/s3eSocket.h'
p2490
sbsS'IwAutoFile.h'
p2491
g325
(g1596
g327
Ntp2492
Rp2493
(dp2494
g1600
g1467
sg1601
g1637
sg351
g1528
sbsS's3eVibra.h'
p2495
g325
(g1596
g327
Ntp2496
Rp2497
(dp2498
g1600
g1608
sg1601
g1624
sg351
S'c:/marmalade/7.5/s3e/h/s3eVibra.h'
p2499
sbsS'poll_1.h'
p2500
g325
(g1596
g327
Ntp2501
Rp2502
(dp2503
g1600
g1608
sg1601
g1761
sg351
S'c:/marmalade/7.5/s3e/h/std/sys/poll.h'
p2504
sbsS's3eThread.h'
p2505
g325
(g1596
g327
Ntp2506
Rp2507
(dp2508
g1600
g1608
sg1601
g1624
sg351
S'c:/marmalade/7.5/s3e/h/s3eThread.h'
p2509
sbsS'ucontext.h'
p2510
g325
(g1596
g327
Ntp2511
Rp2512
(dp2513
g1600
g1608
sg1601
g1630
sg351
S'c:/marmalade/7.5/s3e/h/std/ucontext.h'
p2514
sbsS'time.h'
p2515
g325
(g1596
g327
Ntp2516
Rp2517
(dp2518
g1600
g1608
sg1601
g1630
sg351
S'c:/marmalade/7.5/s3e/h/std/time.h'
p2519
sbsS'jchuff.h'
p2520
g325
(g1596
g327
Ntp2521
Rp2522
(dp2523
g1600
g1094
sg1601
g1696
sg351
g1111
sbsS'IwSoundPCM.cpp'
p2524
g325
(g1596
g327
Ntp2525
Rp2526
(dp2527
g1600
g1135
sg1601
g1648
sg351
g1156
sbsS's3eSoundRecord.h'
p2528
g325
(g1596
g327
Ntp2529
Rp2530
(dp2531
g1600
g1608
sg1601
g1624
sg351
S'c:/marmalade/7.5/s3e/h/s3eSoundRecord.h'
p2532
sbsS'IwFibre.h'
p2533
g325
(g1596
g327
Ntp2534
Rp2535
(dp2536
g1600
g1467
sg1601
g1637
sg351
g1553
sbsS's3eVersion.h'
p2537
g325
(g1596
g327
Ntp2538
Rp2539
(dp2540
g1600
g1608
sg1601
g1624
sg351
S'c:/marmalade/7.5/s3e/h/s3eVersion.h'
p2541
sbsS'input.cpp'
p2542
g325
(g1596
g327
Ntp2543
Rp2544
(dp2545
g1600
g1192
sg1601
g1752
sg351
g1213
sbsS'IwSoundGroup.h'
p2546
g325
(g1596
g327
Ntp2547
Rp2548
(dp2549
g1600
g1135
sg1601
g1648
sg351
g1181
sbsS'IwSoundWAV.h'
p2550
g325
(g1596
g327
Ntp2551
Rp2552
(dp2553
g1600
g1135
sg1601
g1648
sg351
g1162
sbsS'IwGxFontGlyph.h'
p2554
g325
(g1596
g327
Ntp2555
Rp2556
(dp2557
g1600
g1281
sg1601
g1602
sg351
g1279
sbsS's3eTypes.h'
p2558
g325
(g1596
g327
Ntp2559
Rp2560
(dp2561
g1600
g1608
sg1601
g1624
sg351
S'c:/marmalade/7.5/s3e/h/s3eTypes.h'
p2562
sbsS'IwSoundSpec.h'
p2563
g325
(g1596
g327
Ntp2564
Rp2565
(dp2566
g1600
g1135
sg1601
g1648
sg351
g1150
sbsS'signal_2.h'
p2567
g325
(g1596
g327
Ntp2568
Rp2569
(dp2570
g1600
g1608
sg1601
g1609
sg351
S'c:/marmalade/7.5/s3e/h/std/c++/signal.h'
p2571
sbsS'termios.h'
p2572
g325
(g1596
g327
Ntp2573
Rp2574
(dp2575
g1600
g1608
sg1601
g1630
sg351
S'c:/marmalade/7.5/s3e/h/std/termios.h'
p2576
sbsS'iw2dscenegraph.mkf'
p2577
g325
(g1596
g327
Ntp2578
Rp2579
(dp2580
g1600
g1252
sg1601
g1922
sg351
g1250
sbsS'slist'
p2581
g325
(g1596
g327
Ntp2582
Rp2583
(dp2584
g1600
g1608
sg1601
g1609
sg351
S'c:/marmalade/7.5/s3e/h/std/c++/slist'
p2585
sbsS'cstdlib'
p2586
g325
(g1596
g327
Ntp2587
Rp2588
(dp2589
g1600
g1608
sg1601
g1609
sg351
S'c:/marmalade/7.5/s3e/h/std/c++/cstdlib'
p2590
sbsS's3eLocation.h'
p2591
g325
(g1596
g327
Ntp2592
Rp2593
(dp2594
g1600
g1608
sg1601
g1624
sg351
S'c:/marmalade/7.5/s3e/h/s3eLocation.h'
p2595
sbsS'IwMemBucketHelpers.h'
p2596
g325
(g1596
g327
Ntp2597
Rp2598
(dp2599
g1600
g1467
sg1601
g1637
sg351
g1504
sbsS's3eHash.h'
p2600
g325
(g1596
g327
Ntp2601
Rp2602
(dp2603
g1600
g1608
sg1601
g1624
sg351
S'c:/marmalade/7.5/s3e/h/s3eHash.h'
p2604
sbsS'IwSoundGroup.cpp'
p2605
g325
(g1596
g327
Ntp2606
Rp2607
(dp2608
g1600
g1135
sg1601
g1648
sg351
g1133
sbsS'IwGeomFMat.h'
p2609
g325
(g1596
g327
Ntp2610
Rp2611
(dp2612
g1600
g1303
sg1601
g1662
sg351
g1331
sbsS'type_traits.h'
p2613
g325
(g1596
g327
Ntp2614
Rp2615
(dp2616
g1600
g1608
sg1601
g1609
sg351
S'c:/marmalade/7.5/s3e/h/std/c++/type_traits.h'
p2617
sbsS's3eAtomic.h'
p2618
g325
(g1596
g327
Ntp2619
Rp2620
(dp2621
g1600
g1608
sg1601
g1624
sg351
S'c:/marmalade/7.5/s3e/h/s3eAtomic.h'
p2622
sbsS'IwMenu.h'
p2623
g325
(g1596
g327
Ntp2624
Rp2625
(dp2626
g1600
g1467
sg1601
g1637
sg351
g1557
sbsS'IwResHandlerITX.h'
p2627
g325
(g1596
g327
Ntp2628
Rp2629
(dp2630
g1600
g1379
sg1601
g1880
sg351
g1377
sbsS'IwSoundData.h'
p2631
g325
(g1596
g327
Ntp2632
Rp2633
(dp2634
g1600
g1135
sg1601
g1648
sg351
g1174
sbsS'IwArray.h'
p2635
g325
(g1596
g327
Ntp2636
Rp2637
(dp2638
g1600
g1467
sg1601
g1637
sg351
g1555
sbsS'IwUTF8.h'
p2639
g325
(g1596
g327
Ntp2640
Rp2641
(dp2642
g1600
g1467
sg1601
g1637
sg351
g1498
sbsS'math_rvct.h'
p2643
g325
(g1596
g327
Ntp2644
Rp2645
(dp2646
g1600
g1608
sg1601
g1630
sg351
S'c:/marmalade/7.5/s3e/h/std/math_rvct.h'
p2647
sbsS'IwUtil.h'
p2648
g325
(g1596
g327
Ntp2649
Rp2650
(dp2651
g1600
g1467
sg1601
g1637
sg351
g1539
sbsS'IwFColour.h'
p2652
g325
(g1596
g327
Ntp2653
Rp2654
(dp2655
g1600
g1403
sg1601
g1742
sg351
g1438
sbsS'wctype.h'
p2656
g325
(g1596
g327
Ntp2657
Rp2658
(dp2659
g1600
g1608
sg1601
g1630
sg351
S'c:/marmalade/7.5/s3e/h/std/wctype.h'
p2660
sbsS'mainMenu.h'
p2661
g325
(g1596
g327
Ntp2662
Rp2663
(dp2664
g1600
g1192
sg1601
g1752
sg351
g1221
sbsS'cstddef'
p2665
g325
(g1596
g327
Ntp2666
Rp2667
(dp2668
g1600
g1608
sg1601
g1609
sg351
S'c:/marmalade/7.5/s3e/h/std/c++/cstddef'
p2669
sbsS'assert.h'
p2670
g325
(g1596
g327
Ntp2671
Rp2672
(dp2673
g1600
g1608
sg1601
g1630
sg351
S'c:/marmalade/7.5/s3e/h/std/assert.h'
p2674
sbsS'mman.h'
p2675
g325
(g1596
g327
Ntp2676
Rp2677
(dp2678
g1600
g1608
sg1601
g1761
sg351
S'c:/marmalade/7.5/s3e/h/std/sys/mman.h'
p2679
sbsS'IwRandom.h'
p2680
g325
(g1596
g327
Ntp2681
Rp2682
(dp2683
g1600
g1467
sg1601
g1637
sg351
g1494
sbsS'libgen.h'
p2684
g325
(g1596
g327
Ntp2685
Rp2686
(dp2687
g1600
g1608
sg1601
g1630
sg351
S'c:/marmalade/7.5/s3e/h/std/libgen.h'
p2688
sbsS'utsname.h'
p2689
g325
(g1596
g327
Ntp2690
Rp2691
(dp2692
g1600
g1608
sg1601
g1761
sg351
S'c:/marmalade/7.5/s3e/h/std/sys/utsname.h'
p2693
sbsS'wait.h'
p2694
g325
(g1596
g327
Ntp2695
Rp2696
(dp2697
g1600
g1608
sg1601
g1761
sg351
S'c:/marmalade/7.5/s3e/h/std/sys/wait.h'
p2698
sbsS'param.h'
p2699
g325
(g1596
g327
Ntp2700
Rp2701
(dp2702
g1600
g1608
sg1601
g1761
sg351
S'c:/marmalade/7.5/s3e/h/std/sys/param.h'
p2703
sbsS'IwDivide.h'
p2704
g325
(g1596
g327
Ntp2705
Rp2706
(dp2707
g1600
g1467
sg1601
g1637
sg351
g1474
sbsS'Iw2DSceneGraphCore.cpp'
p2708
g325
(g1596
g327
Ntp2709
Rp2710
(dp2711
g1600
g1460
sg1601
(lp2712
S"'Marmalade Studio'"
p2713
ag1453
asg351
g1461
sbsS'IwResManager.h'
p2714
g325
(g1596
g327
Ntp2715
Rp2716
(dp2717
g1600
g1379
sg1601
g1880
sg351
g1386
sbsS'IwSoundManager.h'
p2718
g325
(g1596
g327
Ntp2719
Rp2720
(dp2721
g1600
g1135
sg1601
g1648
sg351
g1154
sbsS'cwctype'
p2722
g325
(g1596
g327
Ntp2723
Rp2724
(dp2725
g1600
g1608
sg1601
g1609
sg351
S'c:/marmalade/7.5/s3e/h/std/c++/cwctype'
p2726
sbsS'set'
p2727
g325
(g1596
g327
Ntp2728
Rp2729
(dp2730
g1600
g1608
sg1601
g1609
sg351
S'c:/marmalade/7.5/s3e/h/std/c++/set'
p2731
sbsS'IwGeomSQuat.h'
p2732
g325
(g1596
g327
Ntp2733
Rp2734
(dp2735
g1600
g1303
sg1601
g1662
sg351
g1327
sbsS'locale'
p2736
g325
(g1596
g327
Ntp2737
Rp2738
(dp2739
g1600
g1608
sg1601
g1609
sg351
S'c:/marmalade/7.5/s3e/h/std/c++/locale'
p2740
sbsS'cstdio'
p2741
g325
(g1596
g327
Ntp2742
Rp2743
(dp2744
g1600
g1608
sg1601
g1609
sg351
S'c:/marmalade/7.5/s3e/h/std/c++/cstdio'
p2745
sbsS'cdjpeg.h'
p2746
g325
(g1596
g327
Ntp2747
Rp2748
(dp2749
g1600
g1094
sg1601
g1696
sg351
g1113
sbsS'audio.h'
p2750
g325
(g1596
g327
Ntp2751
Rp2752
(dp2753
g1600
g1192
sg1601
g1752
sg351
g1209
sbsS'IwList.h'
p2754
g325
(g1596
g327
Ntp2755
Rp2756
(dp2757
g1600
g1467
sg1601
g1637
sg351
g1526
sbsS'pauseMenu.cpp'
p2758
g325
(g1596
g327
Ntp2759
Rp2760
(dp2761
g1600
g1192
sg1601
g1752
sg351
g1193
sbsS'inttypes.h'
p2762
g325
(g1596
g327
Ntp2763
Rp2764
(dp2765
g1600
g1608
sg1601
g1630
sg351
S'c:/marmalade/7.5/s3e/h/std/inttypes.h'
p2766
sbsS'dirent.h'
p2767
g325
(g1596
g327
Ntp2768
Rp2769
(dp2770
g1600
g1608
sg1601
g1630
sg351
S'c:/marmalade/7.5/s3e/h/std/dirent.h'
p2771
sbsS'IwGeomVec3.h'
p2772
g325
(g1596
g327
Ntp2773
Rp2774
(dp2775
g1600
g1303
sg1601
g1662
sg351
g1321
sbsS'transupp.h'
p2776
g325
(g1596
g327
Ntp2777
Rp2778
(dp2779
g1600
g1094
sg1601
g1696
sg351
g1099
sbsS'IwMath.h'
p2780
g325
(g1596
g327
Ntp2781
Rp2782
(dp2783
g1600
g1467
sg1601
g1637
sg351
g1468
sbsS'IwGeomQuat.h'
p2784
g325
(g1596
g327
Ntp2785
Rp2786
(dp2787
g1600
g1303
sg1601
g1662
sg351
g1371
sbsS'glplatform.h'
p2788
g325
(g1596
g327
Ntp2789
Rp2790
(dp2791
g1600
g1608
sg1601
g1973
sg351
S'c:/marmalade/7.5/s3e/h/GLES/glplatform.h'
p2792
sbsS's3e-default.mkf'
p2793
g325
(g1596
g327
Ntp2794
Rp2795
(dp2796
g1600
g1592
sg1601
(lp2797
g1588
asg351
g1590
sbsS'iwgl.config.txt'
p2798
g325
(g1596
g327
Ntp2799
Rp2800
(dp2801
g1600
g1260
sg1601
g1618
sg351
g1261
sbsS'bitset'
p2802
g325
(g1596
g327
Ntp2803
Rp2804
(dp2805
g1600
g1608
sg1601
g1609
sg351
S'c:/marmalade/7.5/s3e/h/std/c++/bitset'
p2806
sbsS'alloca.h'
p2807
g325
(g1596
g327
Ntp2808
Rp2809
(dp2810
g1600
g1608
sg1601
g1630
sg351
S'c:/marmalade/7.5/s3e/h/std/alloca.h'
p2811
sbsS'IwResHandler.h'
p2812
g325
(g1596
g327
Ntp2813
Rp2814
(dp2815
g1600
g1379
sg1601
g1880
sg351
g1395
sbsS'IwResHandlerMTL.h'
p2816
g325
(g1596
g327
Ntp2817
Rp2818
(dp2819
g1600
g1403
sg1601
g1742
sg351
g1410
sbsS'IwRuntime.h'
p2820
g325
(g1596
g327
Ntp2821
Rp2822
(dp2823
g1600
g1467
sg1601
g1637
sg351
g1518
sbsS'limits'
p2824
g325
(g1596
g327
Ntp2825
Rp2826
(dp2827
g1600
g1608
sg1601
g1609
sg351
S'c:/marmalade/7.5/s3e/h/std/c++/limits'
p2828
sbsS'IwGeomBBox.h'
p2829
g325
(g1596
g327
Ntp2830
Rp2831
(dp2832
g1600
g1303
sg1601
g1662
sg351
g1361
sbsS's3eContacts.h'
p2833
g325
(g1596
g327
Ntp2834
Rp2835
(dp2836
g1600
g1608
sg1601
g1624
sg351
S'c:/marmalade/7.5/s3e/h/s3eContacts.h'
p2837
sbsS's3eLicense.h'
p2838
g325
(g1596
g327
Ntp2839
Rp2840
(dp2841
g1600
g1608
sg1601
g1624
sg351
S'c:/marmalade/7.5/s3e/h/s3eLicense.h'
p2842
sbsS'iwgx.config.txt'
p2843
g325
(g1596
g327
Ntp2844
Rp2845
(dp2846
g1600
g1403
sg1601
g1742
sg351
g1445
sbsS'IwTextParser.h'
p2847
g325
(g1596
g327
Ntp2848
Rp2849
(dp2850
g1600
g1467
sg1601
g1637
sg351
g1547
sbsS's3eTimer.h'
p2851
g325
(g1596
g327
Ntp2852
Rp2853
(dp2854
g1600
g1608
sg1601
g1624
sg351
S'c:/marmalade/7.5/s3e/h/s3eTimer.h'
p2855
sbsS'IwGeomVec.h'
p2856
g325
(g1596
g327
Ntp2857
Rp2858
(dp2859
g1600
g1303
sg1601
g1662
sg351
g1347
sbsS'IwSerialise.h'
p2860
g325
(g1596
g327
Ntp2861
Rp2862
(dp2863
g1600
g1467
sg1601
g1637
sg351
g1565
sbsS'cstdarg'
p2864
g325
(g1596
g327
Ntp2865
Rp2866
(dp2867
g1600
g1608
sg1601
g1609
sg351
S'c:/marmalade/7.5/s3e/h/std/c++/cstdarg'
p2868
sbsS'gl2ext.h'
p2869
g325
(g1596
g327
Ntp2870
Rp2871
(dp2872
g1600
g1608
sg1601
g1872
sg351
S'c:/marmalade/7.5/s3e/h/GLES2/gl2ext.h'
p2873
sbsS'IwChar.h'
p2874
g325
(g1596
g327
Ntp2875
Rp2876
(dp2877
g1600
g1467
sg1601
g1637
sg351
g1492
sbsS's3eSound.h'
p2878
g325
(g1596
g327
Ntp2879
Rp2880
(dp2881
g1600
g1608
sg1601
g1624
sg351
S'c:/marmalade/7.5/s3e/h/s3eSound.h'
p2882
sbsS'IwVariableBitField.h'
p2883
g325
(g1596
g327
Ntp2884
Rp2885
(dp2886
g1600
g1467
sg1601
g1637
sg351
g1530
sbsS'exception.h'
p2887
g325
(g1596
g327
Ntp2888
Rp2889
(dp2890
g1600
g1608
sg1601
g1609
sg351
S'c:/marmalade/7.5/s3e/h/std/c++/exception.h'
p2891
sbsS'iwgeom.config.txt'
p2892
g325
(g1596
g327
Ntp2893
Rp2894
(dp2895
g1600
g1303
sg1601
g1662
sg351
g1369
sbsS'iwgx.mkf'
p2896
g325
(g1596
g327
Ntp2897
Rp2898
(dp2899
g1600
g1444
sg1601
g1742
sg351
g1442
sbsS'gl.h'
p2900
g325
(g1596
g327
Ntp2901
Rp2902
(dp2903
g1600
g1608
sg1601
g1973
sg351
S'c:/marmalade/7.5/s3e/h/GLES/gl.h'
p2904
sbsS'zlib.h'
p2905
g325
(g1596
g327
Ntp2906
Rp2907
(dp2908
g1600
g1572
sg1601
g2307
sg351
g1573
sbsS'temp_defines_release.h'
p2909
g325
(g1596
g327
Ntp2910
Rp2911
(dp2912
g1600
(lp2913
sg1601
(lp2914
S"'generated files'"
p2915
asg351
S'c:/Marmalade/7.5/examples/GameTutorial/CPP/Stage4/build_stage4_vc12/temp_defines_release.h'
p2916
sbsS'iwgl.mkf'
p2917
g325
(g1596
g327
Ntp2918
Rp2919
(dp2920
g1600
g1257
sg1601
g1618
sg351
g1255
sbsS'IwColour.h'
p2921
g325
(g1596
g327
Ntp2922
Rp2923
(dp2924
g1600
g1403
sg1601
g1742
sg351
g1447
sbsS's3eLibrary.h'
p2925
g325
(g1596
g327
Ntp2926
Rp2927
(dp2928
g1600
g1608
sg1601
g1835
sg351
S'c:/marmalade/7.5/s3e/h/ext/s3eLibrary.h'
p2929
sbsS'types.h'
p2930
g325
(g1596
g327
Ntp2931
Rp2932
(dp2933
g1600
g1608
sg1601
g1761
sg351
S'c:/marmalade/7.5/s3e/h/std/sys/types.h'
p2934
sbsS'ifaddrs.h'
p2935
g325
(g1596
g327
Ntp2936
Rp2937
(dp2938
g1600
g1608
sg1601
g1630
sg351
S'c:/marmalade/7.5/s3e/h/std/ifaddrs.h'
p2939
sbsS'strstream'
p2940
g325
(g1596
g327
Ntp2941
Rp2942
(dp2943
g1600
g1608
sg1601
g1609
sg351
S'c:/marmalade/7.5/s3e/h/std/c++/strstream'
p2944
sbsS'IwTween.cpp'
p2945
g325
(g1596
g327
Ntp2946
Rp2947
(dp2948
g1600
g1582
sg1601
g2134
sg351
g1583
sbsS'exception'
p2949
g325
(g1596
g327
Ntp2950
Rp2951
(dp2952
g1600
g1608
sg1601
g1609
sg351
S'c:/marmalade/7.5/s3e/h/std/c++/exception'
p2953
sbsS'rlocks.h'
p2954
g325
(g1596
g327
Ntp2955
Rp2956
(dp2957
g1600
g1608
sg1601
g1609
sg351
S'c:/marmalade/7.5/s3e/h/std/c++/rlocks.h'
p2958
sbsS'ioctl.h'
p2959
g325
(g1596
g327
Ntp2960
Rp2961
(dp2962
g1600
g1608
sg1601
g1761
sg351
S'c:/marmalade/7.5/s3e/h/std/sys/ioctl.h'
p2963
sbsS'sem.h'
p2964
g325
(g1596
g327
Ntp2965
Rp2966
(dp2967
g1600
g1608
sg1601
g1761
sg351
S'c:/marmalade/7.5/s3e/h/std/sys/sem.h'
p2968
sbsS'jinclude.h'
p2969
g325
(g1596
g327
Ntp2970
Rp2971
(dp2972
g1600
g1094
sg1601
g1696
sg351
g1101
sbsS'IwEvent.h'
p2973
g325
(g1596
g327
Ntp2974
Rp2975
(dp2976
g1600
g1467
sg1601
g1637
sg351
g1551
sbsS'IwOptimiseSize.h'
p2977
g325
(g1596
g327
Ntp2978
Rp2979
(dp2980
g1600
g1467
sg1601
g1637
sg351
g1516
sbsS'iwgxfont_public.defines.txt'
p2981
g325
(g1596
g327
Ntp2982
Rp2983
(dp2984
g1600
g1281
sg1601
g1602
sg351
g1297
sbsS'iconv.h'
p2985
g325
(g1596
g327
Ntp2986
Rp2987
(dp2988
g1600
g1608
sg1601
g1630
sg351
S'c:/marmalade/7.5/s3e/h/std/iconv.h'
p2989
sbsS's3eDevice.h'
p2990
g325
(g1596
g327
Ntp2991
Rp2992
(dp2993
g1600
g1608
sg1601
g1624
sg351
S'c:/marmalade/7.5/s3e/h/s3eDevice.h'
p2994
sbsS'IwGeomSphere.h'
p2995
g325
(g1596
g327
Ntp2996
Rp2997
(dp2998
g1600
g1303
sg1601
g1662
sg351
g1304
sbsS'tiniconv.mkf'
p2999
g325
(g1596
g327
Ntp3000
Rp3001
(dp3002
g1600
g1125
sg1601
g2087
sg351
g1123
sbsS'iw2dscenegraph.defines.txt'
p3003
g325
(g1596
g327
Ntp3004
Rp3005
(dp3006
g1600
g1245
sg1601
g1922
sg351
g1246
sbsS'jdct.h'
p3007
g325
(g1596
g327
Ntp3008
Rp3009
(dp3010
g1600
g1094
sg1601
g1696
sg351
g1105
sbsS'cctype'
p3011
g325
(g1596
g327
Ntp3012
Rp3013
(dp3014
g1600
g1608
sg1601
g1609
sg351
S'c:/marmalade/7.5/s3e/h/std/c++/cctype'
p3015
sbsS'IwSoundADPCM.cpp'
p3016
g325
(g1596
g327
Ntp3017
Rp3018
(dp3019
g1600
g1135
sg1601
g1648
sg351
g1168
sbsS's3eConfig.h'
p3020
g325
(g1596
g327
Ntp3021
Rp3022
(dp3023
g1600
g1608
sg1601
g1624
sg351
S'c:/marmalade/7.5/s3e/h/s3eConfig.h'
p3024
sbsS'IwHashString.h'
p3025
g325
(g1596
g327
Ntp3026
Rp3027
(dp3028
g1600
g1467
sg1601
g1637
sg351
g1532
sbsS'stat.h'
p3029
g325
(g1596
g327
Ntp3030
Rp3031
(dp3032
g1600
g1608
sg1601
g1761
sg351
S'c:/marmalade/7.5/s3e/h/std/sys/stat.h'
p3033
sbsS'byteswap.h'
p3034
g325
(g1596
g327
Ntp3035
Rp3036
(dp3037
g1600
g1608
sg1601
g1630
sg351
S'c:/marmalade/7.5/s3e/h/std/byteswap.h'
p3038
sbsS'iwresmanager.mkf'
p3039
g325
(g1596
g327
Ntp3040
Rp3041
(dp3042
g1600
g1390
sg1601
g1880
sg351
g1388
sbsS'IwUtilInitTerm.h'
p3043
g325
(g1596
g327
Ntp3044
Rp3045
(dp3046
g1600
g1467
sg1601
g1637
sg351
g1561
sbsS'pthread_1.h'
p3047
g325
(g1596
g327
Ntp3048
Rp3049
(dp3050
g1600
g1608
sg1601
g1609
sg351
S'c:/marmalade/7.5/s3e/h/std/c++/pthread.h'
p3051
sbsS'iw2d.mkf'
p3052
g325
(g1596
g327
Ntp3053
Rp3054
(dp3055
g1600
g1276
sg1601
g1701
sg351
g1274
sbsS'complex'
p3056
g325
(g1596
g327
Ntp3057
Rp3058
(dp3059
g1600
g1608
sg1601
g1609
sg351
S'c:/marmalade/7.5/s3e/h/std/c++/complex'
p3060
sbsS'game.cpp'
p3061
g325
(g1596
g327
Ntp3062
Rp3063
(dp3064
g1600
g1192
sg1601
g1752
sg351
g1219
sbsS'algorithm'
p3065
g325
(g1596
g327
Ntp3066
Rp3067
(dp3068
g1600
g1608
sg1601
g1609
sg351
S'c:/marmalade/7.5/s3e/h/std/c++/algorithm'
p3069
sbsS's3e.icf'
p3070
g325
(g1596
g327
Ntp3071
Rp3072
(dp3073
g1600
g1608
sg1601
g1624
sg351
S'c:/marmalade/7.5/s3e/s3e.icf'
p3074
sbsS'resources.h'
p3075
g325
(g1596
g327
Ntp3076
Rp3077
(dp3078
g1600
g1192
sg1601
g1752
sg351
g1201
sbsS'IwGxFontState.h'
p3079
g325
(g1596
g327
Ntp3080
Rp3081
(dp3082
g1600
g1281
sg1601
g1602
sg351
g1286
sbsS'marmaladeexampleresources.mkf'
p3083
g325
(g1596
g327
Ntp3084
Rp3085
(dp3086
g1600
g1187
sg1601
(lp3087
g1183
asg351
g1185
sbsS'stdio.h'
p3088
g325
(g1596
g327
Ntp3089
Rp3090
(dp3091
g1600
g1608
sg1601
g1630
sg351
S'c:/marmalade/7.5/s3e/h/std/stdio.h'
p3092
sbsS'jmemsys.h'
p3093
g325
(g1596
g327
Ntp3094
Rp3095
(dp3096
g1600
g1094
sg1601
g1696
sg351
g1107
sbsS'ios'
p3097
g325
(g1596
g327
Ntp3098
Rp3099
(dp3100
g1600
g1608
sg1601
g1609
sg351
S'c:/marmalade/7.5/s3e/h/std/c++/ios'
p3101
sbsS'IwTween.h'
p3102
g325
(g1596
g327
Ntp3103
Rp3104
(dp3105
g1600
g1582
sg1601
g2134
sg351
g1580
sbsS'PVRTexTool.defines.txt'
p3106
g325
(g1596
g327
Ntp3107
Rp3108
(dp3109
g1600
g1231
sg1601
g2481
sg351
g1229
sbsS'stack'
p3110
g325
(g1596
g327
Ntp3111
Rp3112
(dp3113
g1600
g1608
sg1601
g1609
sg351
S'c:/marmalade/7.5/s3e/h/std/c++/stack'
p3114
sbsS'IwSoundParams.h'
p3115
g325
(g1596
g327
Ntp3116
Rp3117
(dp3118
g1600
g1135
sg1601
g1648
sg351
g1166
sbsS'new.h'
p3119
g325
(g1596
g327
Ntp3120
Rp3121
(dp3122
g1600
g1608
sg1601
g1609
sg351
S'c:/marmalade/7.5/s3e/h/std/c++/new.h'
p3123
sbsS's3eEMail.h'
p3124
g325
(g1596
g327
Ntp3125
Rp3126
(dp3127
g1600
g1608
sg1601
g1835
sg351
S'c:/marmalade/7.5/s3e/h/ext/s3eEMail.h'
p3128
sbsS's3eVideo.h'
p3129
g325
(g1596
g327
Ntp3130
Rp3131
(dp3132
g1600
g1608
sg1601
g1624
sg351
S'c:/marmalade/7.5/s3e/h/s3eVideo.h'
p3133
sbsS'pngconf.h'
p3134
g325
(g1596
g327
Ntp3135
Rp3136
(dp3137
g1600
g1080
sg1601
g2363
sg351
g1081
sbsS'pwd.h'
p3138
g325
(g1596
g327
Ntp3139
Rp3140
(dp3141
g1600
g1608
sg1601
g1630
sg351
S'c:/marmalade/7.5/s3e/h/std/pwd.h'
p3142
sbsS'IwOptimiseThumb.h'
p3143
g325
(g1596
g327
Ntp3144
Rp3145
(dp3146
g1600
g1467
sg1601
g1637
sg351
g1534
sbsS'gl3.h'
p3147
g325
(g1596
g327
Ntp3148
Rp3149
(dp3150
g1600
g1608
sg1601
g1933
sg351
S'c:/marmalade/7.5/s3e/h/GLES3/gl3.h'
p3151
sbsS'IwClip.h'
p3152
g325
(g1596
g327
Ntp3153
Rp3154
(dp3155
g1600
g1403
sg1601
g1742
sg351
g1416
sbsS'IwSoundInst.h'
p3156
g325
(g1596
g327
Ntp3157
Rp3158
(dp3159
g1600
g1135
sg1601
g1648
sg351
g1146
sbsS'iwresmanager.config.txt'
p3160
g325
(g1596
g327
Ntp3161
Rp3162
(dp3163
g1600
g1379
sg1601
g1880
sg351
g1391
sbsS'IwGxShaderTechnique.h'
p3164
g325
(g1596
g327
Ntp3165
Rp3166
(dp3167
g1600
g1403
sg1601
g1742
sg351
g1428
sbsS'IwCore.h'
p3168
g325
(g1596
g327
Ntp3169
Rp3170
(dp3171
g1600
g1467
sg1601
g1637
sg351
g1472
sbsS'cfloat'
p3172
g325
(g1596
g327
Ntp3173
Rp3174
(dp3175
g1600
g1608
sg1601
g1609
sg351
S'c:/marmalade/7.5/s3e/h/std/c++/cfloat'
p3176
sbsS'IwGeomMat2D.h'
p3177
g325
(g1596
g327
Ntp3178
Rp3179
(dp3180
g1600
g1303
sg1601
g1662
sg351
g1335
sbsS'IwAllocator.h'
p3181
g325
(g1596
g327
Ntp3182
Rp3183
(dp3184
g1600
g1467
sg1601
g1637
sg351
g1502
sbsS'IwPath.h'
p3185
g325
(g1596
g327
Ntp3186
Rp3187
(dp3188
g1600
g1467
sg1601
g1637
sg351
g1522
sbsS'iwgxfont.mkf'
p3189
g325
(g1596
g327
Ntp3190
Rp3191
(dp3192
g1600
g1292
sg1601
g1602
sg351
g1290
sbsS'IwTexture.h'
p3193
g325
(g1596
g327
Ntp3194
Rp3195
(dp3196
g1600
g1403
sg1601
g1742
sg351
g1406
sbsS'IwGeomVec.h.tpl'
p3197
g325
(g1596
g327
Ntp3198
Rp3199
(dp3200
g1600
g1303
sg1601
g1662
sg351
g1345
sbsS's3eAccelerometer.h'
p3201
g325
(g1596
g327
Ntp3202
Rp3203
(dp3204
g1600
g1608
sg1601
g1624
sg351
S'c:/marmalade/7.5/s3e/h/s3eAccelerometer.h'
p3205
sbsS'setjmp.h'
p3206
g325
(g1596
g327
Ntp3207
Rp3208
(dp3209
g1600
g1608
sg1601
g1630
sg351
S'c:/marmalade/7.5/s3e/h/std/setjmp.h'
p3210
sbsS'IwSoundParams.cpp'
p3211
g325
(g1596
g327
Ntp3212
Rp3213
(dp3214
g1600
g1135
sg1601
g1648
sg351
g1152
sbsS'IwFile.h'
p3215
g325
(g1596
g327
Ntp3216
Rp3217
(dp3218
g1600
g1467
sg1601
g1637
sg351
g1543
sbsS'IwTextParseable.h'
p3219
g325
(g1596
g327
Ntp3220
Rp3221
(dp3222
g1600
g1467
sg1601
g1637
sg351
g1490
sbsS'istream.h'
p3223
g325
(g1596
g327
Ntp3224
Rp3225
(dp3226
g1600
g1608
sg1601
g1609
sg351
S'c:/marmalade/7.5/s3e/h/std/c++/istream.h'
p3227
sbsS'stdint.h'
p3228
g325
(g1596
g327
Ntp3229
Rp3230
(dp3231
g1600
g1608
sg1601
g1630
sg351
S'c:/marmalade/7.5/s3e/h/std/stdint.h'
p3232
sbsS'semaphore.h'
p3233
g325
(g1596
g327
Ntp3234
Rp3235
(dp3236
g1600
g1608
sg1601
g1630
sg351
S'c:/marmalade/7.5/s3e/h/std/semaphore.h'
p3237
sbsS'ctime'
p3238
g325
(g1596
g327
Ntp3239
Rp3240
(dp3241
g1600
g1608
sg1601
g1609
sg351
S'c:/marmalade/7.5/s3e/h/std/c++/ctime'
p3242
sbsS'sstream'
p3243
g325
(g1596
g327
Ntp3244
Rp3245
(dp3246
g1600
g1608
sg1601
g1609
sg351
S'c:/marmalade/7.5/s3e/h/std/c++/sstream'
p3247
sbsS'IwGeomFBBox.h'
p3248
g325
(g1596
g327
Ntp3249
Rp3250
(dp3251
g1600
g1303
sg1601
g1662
sg351
g1329
sbsS'IwDebugPrim.h'
p3252
g325
(g1596
g327
Ntp3253
Rp3254
(dp3255
g1600
g1403
sg1601
g1742
sg351
g1401
sbsS'IwGxFontContainer.h'
p3256
g325
(g1596
g327
Ntp3257
Rp3258
(dp3259
g1600
g1281
sg1601
g1602
sg351
g1288
sbsS'IwGeomSVec3.h'
p3260
g325
(g1596
g327
Ntp3261
Rp3262
(dp3263
g1600
g1303
sg1601
g1662
sg351
g1306
sbsS'iw2dscenegraphcore.mkf'
p3264
g325
(g1596
g327
Ntp3265
Rp3266
(dp3267
g1600
g1457
sg1601
g2712
sg351
g1455
sbsS's3eExt.h'
p3268
g325
(g1596
g327
Ntp3269
Rp3270
(dp3271
g1600
g1608
sg1601
g1624
sg351
S'c:/marmalade/7.5/s3e/h/s3eExt.h'
p3272
sbsS'IwGeomFVec3.h'
p3273
g325
(g1596
g327
Ntp3274
Rp3275
(dp3276
g1600
g1303
sg1601
g1662
sg351
g1365
sbsS'streambuf'
p3277
g325
(g1596
g327
Ntp3278
Rp3279
(dp3280
g1600
g1608
sg1601
g1609
sg351
S'c:/marmalade/7.5/s3e/h/std/c++/streambuf'
p3281
sbsS's3eMetrics.h'
p3282
g325
(g1596
g327
Ntp3283
Rp3284
(dp3285
g1600
g1608
sg1601
g1835
sg351
S'c:/marmalade/7.5/s3e/h/ext/s3eMetrics.h'
p3286
sbsS'IwGxFont.h'
p3287
g325
(g1596
g327
Ntp3288
Rp3289
(dp3290
g1600
g1281
sg1601
g1602
sg351
g1295
sbsS's3eSecureStorage.h'
p3291
g325
(g1596
g327
Ntp3292
Rp3293
(dp3294
g1600
g1608
sg1601
g1624
sg351
S'c:/marmalade/7.5/s3e/h/s3eSecureStorage.h'
p3295
sbsS'string.h'
p3296
g325
(g1596
g327
Ntp3297
Rp3298
(dp3299
g1600
g1608
sg1601
g1630
sg351
S'c:/marmalade/7.5/s3e/h/std/string.h'
p3300
sbsS'IwResource.h'
p3301
g325
(g1596
g327
Ntp3302
Rp3303
(dp3304
g1600
g1467
sg1601
g1637
sg351
g1563
sbsS'IwGeomSVec2.h'
p3305
g325
(g1596
g327
Ntp3306
Rp3307
(dp3308
g1600
g1303
sg1601
g1662
sg351
g1301
sbsS'libjpeg.mkf'
p3309
g325
(g1596
g327
Ntp3310
Rp3311
(dp3312
g1600
g1090
sg1601
(lp3313
g1086
asg351
g1088
sbsS'IwGxDebug.h'
p3314
g325
(g1596
g327
Ntp3315
Rp3316
(dp3317
g1600
g1403
sg1601
g1742
sg351
g1426
sbsS'pthread_types.h'
p3318
g325
(g1596
g327
Ntp3319
Rp3320
(dp3321
g1600
g1608
sg1601
g1630
sg351
S'c:/marmalade/7.5/s3e/h/std/pthread_types.h'
p3322
sbsS'iomanip.h'
p3323
g325
(g1596
g327
Ntp3324
Rp3325
(dp3326
g1600
g1608
sg1601
g1609
sg351
S'c:/marmalade/7.5/s3e/h/std/c++/iomanip.h'
p3327
sbsS'IwKeymap.h'
p3328
g325
(g1596
g327
Ntp3329
Rp3330
(dp3331
g1600
g1467
sg1601
g1637
sg351
g1508
sbsS'IwDebug.h'
p3332
g325
(g1596
g327
Ntp3333
Rp3334
(dp3335
g1600
g1467
sg1601
g1637
sg351
g1496
sbsS's3eIOSBackgroundAudio.h'
p3336
g325
(g1596
g327
Ntp3337
Rp3338
(dp3339
g1600
g1608
sg1601
g1835
sg351
S'c:/marmalade/7.5/s3e/h/ext/s3eIOSBackgroundAudio.h'
p3340
sbsS'IwGeomMenu.h'
p3341
g325
(g1596
g327
Ntp3342
Rp3343
(dp3344
g1600
g1303
sg1601
g1662
sg351
g1359
sbsS'IwDivTable.h'
p3345
g325
(g1596
g327
Ntp3346
Rp3347
(dp3348
g1600
g1467
sg1601
g1637
sg351
g1486
sbsS'ctype.h'
p3349
g325
(g1596
g327
Ntp3350
Rp3351
(dp3352
g1600
g1608
sg1601
g1630
sg351
S'c:/marmalade/7.5/s3e/h/std/ctype.h'
p3353
sbsS'mainMenu.cpp'
p3354
g325
(g1596
g327
Ntp3355
Rp3356
(dp3357
g1600
g1192
sg1601
g1752
sg351
g1217
sbsS'IwResGroup.h'
p3358
g325
(g1596
g327
Ntp3359
Rp3360
(dp3361
g1600
g1379
sg1601
g1880
sg351
g1393
sbsS'signal_1.h'
p3362
g325
(g1596
g327
Ntp3363
Rp3364
(dp3365
g1600
g1608
sg1601
g1761
sg351
S'c:/marmalade/7.5/s3e/h/std/sys/signal.h'
p3366
sbsS'IwSoundData.cpp'
p3367
g325
(g1596
g327
Ntp3368
Rp3369
(dp3370
g1600
g1135
sg1601
g1648
sg351
g1172
sbsS'main.cpp'
p3371
g325
(g1596
g327
Ntp3372
Rp3373
(dp3374
g1600
g1192
sg1601
g1752
sg351
g1190
sbsS'shm.h'
p3375
g325
(g1596
g327
Ntp3376
Rp3377
(dp3378
g1600
g1608
sg1601
g1761
sg351
S'c:/marmalade/7.5/s3e/h/std/sys/shm.h'
p3379
sbsS'IwManagedList.h'
p3380
g325
(g1596
g327
Ntp3381
Rp3382
(dp3383
g1600
g1467
sg1601
g1637
sg351
g1480
sbsS'prctl.h'
p3384
g325
(g1596
g327
Ntp3385
Rp3386
(dp3387
g1600
g1608
sg1601
g1761
sg351
S'c:/marmalade/7.5/s3e/h/std/sys/prctl.h'
p3388
sbsS'IwGxStream.h'
p3389
g325
(g1596
g327
Ntp3390
Rp3391
(dp3392
g1600
g1403
sg1601
g1742
sg351
g1414
sbsS'temp_defines_debug.h'
p3393
g325
(g1596
g327
Ntp3394
Rp3395
(dp3396
g1600
(lp3397
sg1601
(lp3398
g2915
asg351
S'c:/Marmalade/7.5/examples/GameTutorial/CPP/Stage4/build_stage4_vc12/temp_defines_debug.h'
p3399
sbsS'utility'
p3400
g325
(g1596
g327
Ntp3401
Rp3402
(dp3403
g1600
g1608
sg1601
g1609
sg351
S'c:/marmalade/7.5/s3e/h/std/c++/utility'
p3404
sbsS'input.h'
p3405
g325
(g1596
g327
Ntp3406
Rp3407
(dp3408
g1600
g1192
sg1601
g1752
sg351
g1195
sbsS'IwGeomLegacy.h'
p3409
g325
(g1596
g327
Ntp3410
Rp3411
(dp3412
g1600
g1303
sg1601
g1662
sg351
g1323
sbsS'IwTPage.h'
p3413
g325
(g1596
g327
Ntp3414
Rp3415
(dp3416
g1600
g1403
sg1601
g1742
sg351
g1451
sbsS'IwResSerialise.h'
p3417
g325
(g1596
g327
Ntp3418
Rp3419
(dp3420
g1600
g1379
sg1601
g1880
sg351
g1380
sbsS's3eCrypto.h'
p3421
g325
(g1596
g327
Ntp3422
Rp3423
(dp3424
g1600
g1608
sg1601
g1624
sg351
S'c:/marmalade/7.5/s3e/h/s3eCrypto.h'
p3425
sbsS's3eKeyboard.h'
p3426
g325
(g1596
g327
Ntp3427
Rp3428
(dp3429
g1600
g1608
sg1601
g1624
sg351
S'c:/marmalade/7.5/s3e/h/s3eKeyboard.h'
p3430
sbsS'fcntl.h'
p3431
g325
(g1596
g327
Ntp3432
Rp3433
(dp3434
g1600
g1608
sg1601
g1630
sg351
S'c:/marmalade/7.5/s3e/h/std/fcntl.h'
p3435
sbsS'Iw2DSceneGraphCore.h'
p3436
g325
(g1596
g327
Ntp3437
Rp3438
(dp3439
g1600
g1460
sg1601
g2712
sg351
g1458
sbsS'memory.h'
p3440
g325
(g1596
g327
Ntp3441
Rp3442
(dp3443
g1600
g1608
sg1601
g1630
sg351
S'c:/marmalade/7.5/s3e/h/std/memory.h'
p3444
sbsS'pthread.h'
p3445
g325
(g1596
g327
Ntp3446
Rp3447
(dp3448
g1600
g1608
sg1601
g1630
sg351
S'c:/marmalade/7.5/s3e/h/std/pthread.h'
p3449
sbsS'IwGeomIntersect.h'
p3450
g325
(g1596
g327
Ntp3451
Rp3452
(dp3453
g1600
g1303
sg1601
g1662
sg351
g1349
sbsS'IwTextParserITX.h'
p3454
g325
(g1596
g327
Ntp3455
Rp3456
(dp3457
g1600
g1467
sg1601
g1637
sg351
g1506
sbsS'IwClip.inl'
p3458
g325
(g1596
g327
Ntp3459
Rp3460
(dp3461
g1600
g1403
sg1601
g1742
sg351
g1436
sbsS'Iw2DSceneGraph.cpp'
p3462
g325
(g1596
g327
Ntp3463
Rp3464
(dp3465
g1600
g1245
sg1601
g1922
sg351
g1243
sbsS'ostream.h'
p3466
g325
(g1596
g327
Ntp3467
Rp3468
(dp3469
g1600
g1608
sg1601
g1609
sg351
S'c:/marmalade/7.5/s3e/h/std/c++/ostream.h'
p3470
sbsS'stl_user_config.h'
p3471
g325
(g1596
g327
Ntp3472
Rp3473
(dp3474
g1600
g1608
sg1601
g1609
sg351
S'c:/marmalade/7.5/s3e/h/std/c++/stl_user_config.h'
p3475
sbsS'IwProfileMenu.h'
p3476
g325
(g1596
g327
Ntp3477
Rp3478
(dp3479
g1600
g1467
sg1601
g1637
sg351
g1482
sbsS'MarmaladeVersion.h'
p3480
g325
(g1596
g327
Ntp3481
Rp3482
(dp3483
g1600
g1608
sg1601
g1624
sg351
S'c:/marmalade/7.5/s3e/h/MarmaladeVersion.h'
p3484
sbsS'IwResHandlerWAV.h'
p3485
g325
(g1596
g327
Ntp3486
Rp3487
(dp3488
g1600
g1135
sg1601
g1648
sg351
g1140
sbsS'gl3platform.h'
p3489
g325
(g1596
g327
Ntp3490
Rp3491
(dp3492
g1600
g1608
sg1601
g1933
sg351
S'c:/marmalade/7.5/s3e/h/GLES3/gl3platform.h'
p3493
sbsS'ios.h'
p3494
g325
(g1596
g327
Ntp3495
Rp3496
(dp3497
g1600
g1608
sg1601
g1609
sg351
S'c:/marmalade/7.5/s3e/h/std/c++/ios.h'
p3498
sbsS'IwImageHelper.h'
p3499
g325
(g1596
g327
Ntp3500
Rp3501
(dp3502
g1600
g1467
sg1601
g1637
sg351
g1478
sbsS'hash_set'
p3503
g325
(g1596
g327
Ntp3504
Rp3505
(dp3506
g1600
g1608
sg1601
g1609
sg351
S'c:/marmalade/7.5/s3e/h/std/c++/hash_set'
p3507
sbsS'IwGeomFQuat.h'
p3508
g325
(g1596
g327
Ntp3509
Rp3510
(dp3511
g1600
g1303
sg1601
g1662
sg351
g1313
sbsS'jmorecfg.h'
p3512
g325
(g1596
g327
Ntp3513
Rp3514
(dp3515
g1600
g1094
sg1601
g1696
sg351
g1103
sbsS'eglplatform.h'
p3516
g325
(g1596
g327
Ntp3517
Rp3518
(dp3519
g1600
g1608
sg1601
g1965
sg351
S'c:/marmalade/7.5/s3e/h/EGL/eglplatform.h'
p3520
sbsS'cmath'
p3521
g325
(g1596
g327
Ntp3522
Rp3523
(dp3524
g1600
g1608
sg1601
g1609
sg351
S'c:/marmalade/7.5/s3e/h/std/c++/cmath'
p3525
sbsS'math_gcc.h'
p3526
g325
(g1596
g327
Ntp3527
Rp3528
(dp3529
g1600
g1608
sg1601
g1630
sg351
S'c:/marmalade/7.5/s3e/h/std/math_gcc.h'
p3530
sbsS's3eMemory.h'
p3531
g325
(g1596
g327
Ntp3532
Rp3533
(dp3534
g1600
g1608
sg1601
g1624
sg351
S'c:/marmalade/7.5/s3e/h/s3eMemory.h'
p3535
sbsS'strings.h'
p3536
g325
(g1596
g327
Ntp3537
Rp3538
(dp3539
g1600
g1608
sg1601
g1630
sg351
S'c:/marmalade/7.5/s3e/h/std/strings.h'
p3540
sbsS's3eFile.h'
p3541
g325
(g1596
g327
Ntp3542
Rp3543
(dp3544
g1600
g1608
sg1601
g1624
sg351
S'c:/marmalade/7.5/s3e/h/s3eFile.h'
p3545
sbsS'IwGxTypes.h'
p3546
g325
(g1596
g327
Ntp3547
Rp3548
(dp3549
g1600
g1403
sg1601
g1742
sg351
g1440
sbsS'cerrno'
p3550
g325
(g1596
g327
Ntp3551
Rp3552
(dp3553
g1600
g1608
sg1601
g1609
sg351
S'c:/marmalade/7.5/s3e/h/std/c++/cerrno'
p3554
sbsS'IwSoundManager.cpp'
p3555
g325
(g1596
g327
Ntp3556
Rp3557
(dp3558
g1600
g1135
sg1601
g1648
sg351
g1148
sbsS'main.h'
p3559
g325
(g1596
g327
Ntp3560
Rp3561
(dp3562
g1600
g1192
sg1601
g1752
sg351
g1203
sbsS'soundengine.mkf'
p3563
g325
(g1596
g327
Ntp3564
Rp3565
(dp3566
g1600
g1180
sg1601
g1648
sg351
g1178
sbsS'resource.h'
p3567
g325
(g1596
g327
Ntp3568
Rp3569
(dp3570
g1600
g1608
sg1601
g1761
sg351
S'c:/marmalade/7.5/s3e/h/std/sys/resource.h'
p3571
sbsS'clocale'
p3572
g325
(g1596
g327
Ntp3573
Rp3574
(dp3575
g1600
g1608
sg1601
g1609
sg351
S'c:/marmalade/7.5/s3e/h/std/c++/clocale'
p3576
sbsS'pvrtextool.mkf'
p3577
g325
(g1596
g327
Ntp3578
Rp3579
(dp3580
g1600
g1238
sg1601
g2239
sg351
g1236
sbsS'csetjmp'
p3581
g325
(g1596
g327
Ntp3582
Rp3583
(dp3584
g1600
g1608
sg1601
g1609
sg351
S'c:/marmalade/7.5/s3e/h/std/c++/csetjmp'
p3585
sbsS'netdb.h'
p3586
g325
(g1596
g327
Ntp3587
Rp3588
(dp3589
g1600
g1608
sg1601
g1630
sg351
S'c:/marmalade/7.5/s3e/h/std/netdb.h'
p3590
sbsS's3eAndroidJNI.h'
p3591
g325
(g1596
g327
Ntp3592
Rp3593
(dp3594
g1600
g1608
sg1601
g1835
sg351
S'c:/marmalade/7.5/s3e/h/ext/s3eAndroidJNI.h'
p3595
sbsS'stdexcept'
p3596
g325
(g1596
g327
Ntp3597
Rp3598
(dp3599
g1600
g1608
sg1601
g1609
sg351
S'c:/marmalade/7.5/s3e/h/std/c++/stdexcept'
p3600
sbsS'math.h'
p3601
g325
(g1596
g327
Ntp3602
Rp3603
(dp3604
g1600
g1608
sg1601
g1630
sg351
S'c:/marmalade/7.5/s3e/h/std/math.h'
p3605
sbsS'stdbool.h'
p3606
g325
(g1596
g327
Ntp3607
Rp3608
(dp3609
g1600
g1608
sg1601
g1630
sg351
S'c:/marmalade/7.5/s3e/h/std/stdbool.h'
p3610
sbsS'uio.h'
p3611
g325
(g1596
g327
Ntp3612
Rp3613
(dp3614
g1600
g1608
sg1601
g1761
sg351
S'c:/marmalade/7.5/s3e/h/std/sys/uio.h'
p3615
sbsS'IwUncopyable.h'
p3616
g325
(g1596
g327
Ntp3617
Rp3618
(dp3619
g1600
g1467
sg1601
g1637
sg351
g1545
sbssS'juice_build_type'
p3620
g4
sS'tests'
p3621
(lp3622
sS'project_name'
p3623
g333
sS'root_file'
p3624
g133
sS'current_root'
p3625
S'c:/Marmalade/7.5/examples/GameTutorial/CPP/Stage4'
p3626
sS'dependencies'
p3627
(lp3628
sS'include_paths'
p3629
(lp3630
S'c:/marmalade/7.5/modules/iw2d/h'
p3631
aS'c:/marmalade/7.5/modules/iwgx/h'
p3632
aS'c:/marmalade/7.5/modules/iwgl/h'
p3633
aS'c:/marmalade/7.5/modules/iwutil/h'
p3634
aS'c:/marmalade/7.5/modules/third_party/libjpeg/h'
p3635
aS'c:/marmalade/7.5/modules/third_party/zlib/h'
p3636
aS'c:/marmalade/7.5/modules/third_party/libpng/h'
p3637
aS'c:/marmalade/7.5/modules/iwgeom/h'
p3638
aS'c:/marmalade/7.5/modules/iwresmanager/h'
p3639
aS'c:/marmalade/7.5/extensions/pvrtextool/h'
p3640
aS'c:/marmalade/7.5/modules/iwgxfont/h'
p3641
aS'c:/marmalade/7.5/modules/third_party/tiniconv/source'
p3642
aS'c:/marmalade/7.5/modules/iw2dscenegraph/h'
p3643
aS'c:/marmalade/7.5/modules/iw2dscenegraphcore/h'
p3644
aS'c:/marmalade/7.5/modules/iwtween/h'
p3645
aS'c:/marmalade/7.5/examples/gametutorial/cpp/modules/soundengine/h'
p3646
aS'c:/marmalade/7.5/examples/gametutorial/cpp/modules/soundengine/source'
p3647
aS'c:/marmalade/7.5/s3e/h'
p3648
aS'c:/marmalade/7.5/s3e/h/ext'
p3649
aS'c:/marmalade/7.5/s3e/h/std'
p3650
aS'c:/marmalade/7.5/s3e/h/std/c++'
p3651
aS'c:/marmalade/7.5/s3e/h/ext_legacy'
p3652
aS'c:/marmalade/7.5/s3e/h/legacy'
p3653
asS'weak_frameworks'
p3654
(lp3655
sS'extprojects'
p3656
(dp3657
sg595
(dp3658
g589
(lp3659
(S'c:/Marmalade/7.5/examples/GameTutorial/CPP/Stage4/data/audio'
p3660
S'audio'
p3661
I0
tp3662
a(S'c:/Marmalade/7.5/examples/GameTutorial/CPP/Stage4/data/textures'
p3663
S'textures'
p3664
I0
tp3665
a(S'c:/Marmalade/7.5/examples/GameTutorial/CPP/Stage4/data-ram/data-gles1,c:/Marmalade/7.5/examples/GameTutorial/CPP/Stage4/data'
p3666
S'.'
p3667
I0
tp3668
assS'macro_types'
p3669
(dp3670
g524
I1
sg525
I0
sg526
I0
sg527
I0
sg529
I0
sg530
I0
sg531
I0
sg532
I0
sg533
I0
sg535
I0
sg536
I0
sg537
I0
sg538
I0
sg539
I0
sg541
I0
sg543
I0
sg544
I0
sg545
I0
sg546
I0
sg547
I0
sg548
I0
sg549
I0
sg550
I0
sg551
I1
sg552
I0
sg553
I0
sg554
I0
sg555
I0
sg556
I01
sg557
I1
sg558
I0
sg559
I0
sg560
I0
sg561
I0
sg562
I0
sg563
I0
sg564
I0
ssS'commands'
p3671
(lp3672
sg597
(g1067
S'VC12'
p3673
S'X86ARMAARCH64'
p3674
tp3675
sS'build_libs'
p3676
(dp3677
sg599
g0
sS'frameworks'
p3678
(lp3679
sS'environ'
p3680
(dp3681
sS'target_name_debug'
p3682
g333
sS'builders'
p3683
(dp3684
g589
(dp3685
S'.S'
p3686
(dp3687
S'gcc_aarch64'
p3688
(lp3689
S'.obj'
p3690
aS'echo AARCH64 Assembling(GCC) ${SOURCE}...'
p3691
aS'c:/marmalade/7.5/s3e\\gcc\\win32\\aarch64\\bin\\aarch64-none-elf-gcc -c -o ${TARGET} ${SOURCE}'
p3692
asS'rvct'
p3693
(lp3694
g3690
aS'echo ARM Assembling(RVCT) ${SOURCE}...'
p3695
aS'c:/marmalade/7.5/s3e\\rvct\\bin\\armasm -o ${TARGET} ${SOURCE}'
p3696
asg447
(lp3697
g3690
aS'echo ARM Assembling(GCC) ${SOURCE}...'
p3698
aS'c:/marmalade/7.5/s3e\\gcc\\win32\\arm\\bin\\arm-none-eabi-gcc -c -o ${TARGET} ${SOURCE}'
p3699
asS'ppu'
p3700
(lp3701
S'.a'
p3702
aS'echo PPU Assembling(SNC) ${SOURCE}...'
p3703
aS'c:/marmalade/7.5/s3e\\rvct\\bin\\armasm -o ${TARGET} ${SOURCE}'
p3704
assS'.s'
p3705
g3687
sS'.vp'
p3706
(lp3707
NaS'"C:/Marmalade/7.5/s3e/python/python.exe" "c:/marmalade/7.5/modules/iwgx/tools/compile_shaders.py" ${SOURCE}'
p3708
asssS'extproject_names'
p3709
(lp3710
sbtp3711
.