	.arch armv6
	.fpu softvfp
	.eabi_attribute 20, 1
	.eabi_attribute 21, 1
	.eabi_attribute 23, 3
	.eabi_attribute 24, 1
	.eabi_attribute 25, 1
	.eabi_attribute 26, 2
	.eabi_attribute 30, 6
	.eabi_attribute 34, 1
	.eabi_attribute 18, 2
	.file	"timer.cpp"
	.text
.Ltext0:
	.cfi_sections	.debug_frame
	.section	.text._ZnwjPv,"axG",%progbits,_ZnwjPv,comdat
	.align	2
	.weak	_ZnwjPv
	.hidden	_ZnwjPv
	.type	_ZnwjPv, %function
_ZnwjPv:
.LFB164:
	.file 1 "c:/marmalade/7.5/s3e/h/std/c++/new.h"
	.loc 1 52 0
	.cfi_startproc
	@ args = 0, pretend = 0, frame = 8
	@ frame_needed = 0, uses_anonymous_args = 0
	@ link register save eliminated.
	sub	sp, sp, #8
.LCFI0:
	.cfi_def_cfa_offset 8
	str	r0, [sp, #4]
	str	r1, [sp]
	.loc 1 52 0
	ldr	r3, [sp]
	mov	r0, r3
	add	sp, sp, #8
	@ sp needed
	bx	lr
	.cfi_endproc
.LFE164:
	.size	_ZnwjPv, .-_ZnwjPv
	.section	.text._ZN4_STL19_List_iterator_baseC2EPNS_15_List_node_baseE,"axG",%progbits,_ZN4_STL19_List_iterator_baseC5EPNS_15_List_node_baseE,comdat
	.align	2
	.weak	_ZN4_STL19_List_iterator_baseC2EPNS_15_List_node_baseE
	.hidden	_ZN4_STL19_List_iterator_baseC2EPNS_15_List_node_baseE
	.type	_ZN4_STL19_List_iterator_baseC2EPNS_15_List_node_baseE, %function
_ZN4_STL19_List_iterator_baseC2EPNS_15_List_node_baseE:
.LFB269:
	.file 2 "c:/marmalade/7.5/s3e/h/std/c++/stl/_list.h"
	.loc 2 95 0
	.cfi_startproc
	@ args = 0, pretend = 0, frame = 8
	@ frame_needed = 0, uses_anonymous_args = 0
	@ link register save eliminated.
	sub	sp, sp, #8
.LCFI1:
	.cfi_def_cfa_offset 8
	str	r0, [sp, #4]
	str	r1, [sp]
.LBB2:
	.loc 2 95 0
	ldr	r3, [sp, #4]
	ldr	r2, [sp]
	str	r2, [r3]
.LBE2:
	ldr	r3, [sp, #4]
	mov	r0, r3
	add	sp, sp, #8
	@ sp needed
	bx	lr
	.cfi_endproc
.LFE269:
	.size	_ZN4_STL19_List_iterator_baseC2EPNS_15_List_node_baseE, .-_ZN4_STL19_List_iterator_baseC2EPNS_15_List_node_baseE
	.weak	_ZN4_STL19_List_iterator_baseC1EPNS_15_List_node_baseE
	.hidden	_ZN4_STL19_List_iterator_baseC1EPNS_15_List_node_baseE
	.set	_ZN4_STL19_List_iterator_baseC1EPNS_15_List_node_baseE,_ZN4_STL19_List_iterator_baseC2EPNS_15_List_node_baseE
	.section	.text._ZN4_STL19_List_iterator_base7_M_incrEv,"axG",%progbits,_ZN4_STL19_List_iterator_base7_M_incrEv,comdat
	.align	2
	.weak	_ZN4_STL19_List_iterator_base7_M_incrEv
	.hidden	_ZN4_STL19_List_iterator_base7_M_incrEv
	.type	_ZN4_STL19_List_iterator_base7_M_incrEv, %function
_ZN4_STL19_List_iterator_base7_M_incrEv:
.LFB274:
	.loc 2 98 0
	.cfi_startproc
	@ args = 0, pretend = 0, frame = 8
	@ frame_needed = 0, uses_anonymous_args = 0
	@ link register save eliminated.
	sub	sp, sp, #8
.LCFI2:
	.cfi_def_cfa_offset 8
	str	r0, [sp, #4]
	.loc 2 98 0
	ldr	r3, [sp, #4]
	ldr	r3, [r3]
	ldr	r2, [r3]
	ldr	r3, [sp, #4]
	str	r2, [r3]
	add	sp, sp, #8
	@ sp needed
	bx	lr
	.cfi_endproc
.LFE274:
	.size	_ZN4_STL19_List_iterator_base7_M_incrEv, .-_ZN4_STL19_List_iterator_base7_M_incrEv
	.section	.text._ZNK4_STL19_List_iterator_baseneERKS0_,"axG",%progbits,_ZNK4_STL19_List_iterator_baseneERKS0_,comdat
	.align	2
	.weak	_ZNK4_STL19_List_iterator_baseneERKS0_
	.hidden	_ZNK4_STL19_List_iterator_baseneERKS0_
	.type	_ZNK4_STL19_List_iterator_baseneERKS0_, %function
_ZNK4_STL19_List_iterator_baseneERKS0_:
.LFB277:
	.loc 2 103 0
	.cfi_startproc
	@ args = 0, pretend = 0, frame = 8
	@ frame_needed = 0, uses_anonymous_args = 0
	@ link register save eliminated.
	sub	sp, sp, #8
.LCFI3:
	.cfi_def_cfa_offset 8
	str	r0, [sp, #4]
	str	r1, [sp]
	.loc 2 104 0
	ldr	r3, [sp, #4]
	ldr	r2, [r3]
	ldr	r3, [sp]
	ldr	r3, [r3]
	cmp	r2, r3
	moveq	r3, #0
	movne	r3, #1
	uxtb	r3, r3
	.loc 2 105 0
	mov	r0, r3
	add	sp, sp, #8
	@ sp needed
	bx	lr
	.cfi_endproc
.LFE277:
	.size	_ZNK4_STL19_List_iterator_baseneERKS0_, .-_ZNK4_STL19_List_iterator_baseneERKS0_
	.section	.text._ZN5Timer10setManagerEP12TimerManager,"axG",%progbits,_ZN5Timer10setManagerEP12TimerManager,comdat
	.align	2
	.weak	_ZN5Timer10setManagerEP12TimerManager
	.hidden	_ZN5Timer10setManagerEP12TimerManager
	.type	_ZN5Timer10setManagerEP12TimerManager, %function
_ZN5Timer10setManagerEP12TimerManager:
.LFB361:
	.file 3 "c:/Stage4/source/timer.h"
	.loc 3 56 0
	.cfi_startproc
	@ args = 0, pretend = 0, frame = 8
	@ frame_needed = 0, uses_anonymous_args = 0
	@ link register save eliminated.
	sub	sp, sp, #8
.LCFI4:
	.cfi_def_cfa_offset 8
	str	r0, [sp, #4]
	str	r1, [sp]
	.loc 3 56 0
	ldr	r3, [sp, #4]
	ldr	r2, [sp]
	str	r2, [r3, #4]
	add	sp, sp, #8
	@ sp needed
	bx	lr
	.cfi_endproc
.LFE361:
	.size	_ZN5Timer10setManagerEP12TimerManager, .-_ZN5Timer10setManagerEP12TimerManager
	.section	.text._ZNK5Timer11getNameHashEv,"axG",%progbits,_ZNK5Timer11getNameHashEv,comdat
	.align	2
	.weak	_ZNK5Timer11getNameHashEv
	.hidden	_ZNK5Timer11getNameHashEv
	.type	_ZNK5Timer11getNameHashEv, %function
_ZNK5Timer11getNameHashEv:
.LFB362:
	.loc 3 57 0
	.cfi_startproc
	@ args = 0, pretend = 0, frame = 8
	@ frame_needed = 0, uses_anonymous_args = 0
	@ link register save eliminated.
	sub	sp, sp, #8
.LCFI5:
	.cfi_def_cfa_offset 8
	str	r0, [sp, #4]
	.loc 3 57 0
	ldr	r3, [sp, #4]
	ldr	r3, [r3]
	mov	r0, r3
	add	sp, sp, #8
	@ sp needed
	bx	lr
	.cfi_endproc
.LFE362:
	.size	_ZNK5Timer11getNameHashEv, .-_ZNK5Timer11getNameHashEv
	.section	.text._ZN5TimerC2EfiPFvPS_PvES1_,"ax",%progbits
	.align	2
	.global	_ZN5TimerC2EfiPFvPS_PvES1_
	.hidden	_ZN5TimerC2EfiPFvPS_PvES1_
	.type	_ZN5TimerC2EfiPFvPS_PvES1_, %function
_ZN5TimerC2EfiPFvPS_PvES1_:
.LFB463:
	.file 4 "c:/Stage4/source/timer.cpp"
	.loc 4 16 0
	.cfi_startproc
	@ args = 4, pretend = 0, frame = 16
	@ frame_needed = 0, uses_anonymous_args = 0
	@ link register save eliminated.
	sub	sp, sp, #16
.LCFI6:
	.cfi_def_cfa_offset 16
	str	r0, [sp, #12]
	str	r1, [sp, #8]	@ float
	str	r2, [sp, #4]
	str	r3, [sp]
.LBB3:
	.loc 4 16 0
	ldr	r3, [sp, #12]
	mov	r2, #0
	str	r2, [r3, #4]
	.loc 4 18 0
	ldr	r3, [sp, #12]
	ldr	r2, [sp, #8]	@ float
	str	r2, [r3, #8]	@ float
	.loc 4 19 0
	ldr	r3, [sp, #12]
	ldr	r2, [sp, #8]	@ float
	str	r2, [r3, #12]	@ float
	.loc 4 20 0
	ldr	r3, [sp, #12]
	ldr	r2, [sp]
	str	r2, [r3, #16]
	.loc 4 21 0
	ldr	r3, [sp, #12]
	ldr	r2, [sp, #16]
	str	r2, [r3, #20]
	.loc 4 22 0
	ldr	r3, [sp, #12]
	ldr	r2, [sp, #4]
	str	r2, [r3, #24]
	.loc 4 23 0
	ldr	r3, [sp, #12]
	mov	r2, #0
	strb	r2, [r3, #28]
.LBE3:
	.loc 4 24 0
	ldr	r3, [sp, #12]
	mov	r0, r3
	add	sp, sp, #16
	@ sp needed
	bx	lr
	.cfi_endproc
.LFE463:
	.size	_ZN5TimerC2EfiPFvPS_PvES1_, .-_ZN5TimerC2EfiPFvPS_PvES1_
	.global	_ZN5TimerC1EfiPFvPS_PvES1_
	.hidden	_ZN5TimerC1EfiPFvPS_PvES1_
	.set	_ZN5TimerC1EfiPFvPS_PvES1_,_ZN5TimerC2EfiPFvPS_PvES1_
	.global	__aeabi_fsub
	.global	__aeabi_fcmple
	.global	__aeabi_fadd
	.section	.text._ZN5Timer6UpdateEf,"ax",%progbits
	.align	2
	.global	_ZN5Timer6UpdateEf
	.hidden	_ZN5Timer6UpdateEf
	.type	_ZN5Timer6UpdateEf, %function
_ZN5Timer6UpdateEf:
.LFB465:
	.loc 4 27 0
	.cfi_startproc
	@ args = 0, pretend = 0, frame = 8
	@ frame_needed = 0, uses_anonymous_args = 0
	str	lr, [sp, #-4]!
.LCFI7:
	.cfi_def_cfa_offset 4
	.cfi_offset 14, -4
	sub	sp, sp, #12
.LCFI8:
	.cfi_def_cfa_offset 16
	str	r0, [sp, #4]
	str	r1, [sp]	@ float
	.loc 4 28 0
	ldr	r3, [sp, #4]
	ldrb	r3, [r3, #28]	@ zero_extendqisi2
	cmp	r3, #0
	beq	.L16
	.loc 4 29 0
	mov	r3, #0
	b	.L17
.L16:
	.loc 4 31 0
	ldr	r3, [sp, #4]
	ldr	r3, [r3, #12]	@ float
	mov	r0, r3
	ldr	r1, [sp]	@ float
	bl	__aeabi_fsub(PLT)
	mov	r3, r0
	mov	r2, r3
	ldr	r3, [sp, #4]
	str	r2, [r3, #12]	@ float
	.loc 4 32 0
	ldr	r3, [sp, #4]
	ldr	r3, [r3, #12]	@ float
	mov	r0, r3
	mov	r1, #0
	bl	__aeabi_fcmple(PLT)
	mov	r3, r0
	cmp	r3, #0
	beq	.L18
	.loc 4 34 0
	ldr	r3, [sp, #4]
	ldr	r3, [r3, #16]
	cmp	r3, #0
	beq	.L20
	.loc 4 35 0
	ldr	r3, [sp, #4]
	ldr	r3, [r3, #16]
	ldr	r2, [sp, #4]
	ldr	r2, [r2, #20]
	ldr	r0, [sp, #4]
	mov	r1, r2
	blx	r3
.L20:
	.loc 4 36 0
	ldr	r3, [sp, #4]
	ldr	r3, [r3, #24]
	cmp	r3, #0
	ble	.L21
	.loc 4 38 0
	ldr	r3, [sp, #4]
	ldr	r3, [r3, #24]
	sub	r2, r3, #1
	ldr	r3, [sp, #4]
	str	r2, [r3, #24]
	.loc 4 39 0
	ldr	r3, [sp, #4]
	ldr	r3, [r3, #24]
	cmp	r3, #0
	bne	.L21
	.loc 4 40 0
	mov	r3, #1
	b	.L17
.L21:
	.loc 4 42 0 discriminator 1
	ldr	r3, [sp, #4]
	ldr	r2, [r3, #12]	@ float
	ldr	r3, [sp, #4]
	ldr	r3, [r3, #8]	@ float
	mov	r0, r2
	mov	r1, r3
	bl	__aeabi_fadd(PLT)
	mov	r3, r0
	mov	r2, r3
	ldr	r3, [sp, #4]
	str	r2, [r3, #12]	@ float
.L18:
	.loc 4 45 0
	mov	r3, #0
.L17:
	.loc 4 46 0
	mov	r0, r3
	add	sp, sp, #12
	@ sp needed
	ldr	pc, [sp], #4
	.cfi_endproc
.LFE465:
	.size	_ZN5Timer6UpdateEf, .-_ZN5Timer6UpdateEf
	.section	.text._ZN5Timer5PauseEv,"ax",%progbits
	.align	2
	.global	_ZN5Timer5PauseEv
	.hidden	_ZN5Timer5PauseEv
	.type	_ZN5Timer5PauseEv, %function
_ZN5Timer5PauseEv:
.LFB466:
	.loc 4 49 0
	.cfi_startproc
	@ args = 0, pretend = 0, frame = 8
	@ frame_needed = 0, uses_anonymous_args = 0
	@ link register save eliminated.
	sub	sp, sp, #8
.LCFI9:
	.cfi_def_cfa_offset 8
	str	r0, [sp, #4]
	.loc 4 50 0
	ldr	r3, [sp, #4]
	mov	r2, #1
	strb	r2, [r3, #28]
	.loc 4 51 0
	add	sp, sp, #8
	@ sp needed
	bx	lr
	.cfi_endproc
.LFE466:
	.size	_ZN5Timer5PauseEv, .-_ZN5Timer5PauseEv
	.section	.text._ZN5Timer6ResumeEv,"ax",%progbits
	.align	2
	.global	_ZN5Timer6ResumeEv
	.hidden	_ZN5Timer6ResumeEv
	.type	_ZN5Timer6ResumeEv, %function
_ZN5Timer6ResumeEv:
.LFB467:
	.loc 4 54 0
	.cfi_startproc
	@ args = 0, pretend = 0, frame = 8
	@ frame_needed = 0, uses_anonymous_args = 0
	@ link register save eliminated.
	sub	sp, sp, #8
.LCFI10:
	.cfi_def_cfa_offset 8
	str	r0, [sp, #4]
	.loc 4 55 0
	ldr	r3, [sp, #4]
	mov	r2, #0
	strb	r2, [r3, #28]
	.loc 4 56 0
	add	sp, sp, #8
	@ sp needed
	bx	lr
	.cfi_endproc
.LFE467:
	.size	_ZN5Timer6ResumeEv, .-_ZN5Timer6ResumeEv
	.section	.text._ZN12TimerManagerC2Ev,"ax",%progbits
	.align	2
	.global	_ZN12TimerManagerC2Ev
	.hidden	_ZN12TimerManagerC2Ev
	.type	_ZN12TimerManagerC2Ev, %function
_ZN12TimerManagerC2Ev:
.LFB469:
	.loc 4 59 0
	.cfi_startproc
	@ args = 0, pretend = 0, frame = 16
	@ frame_needed = 0, uses_anonymous_args = 0
	stmfd	sp!, {r4, lr}
.LCFI11:
	.cfi_def_cfa_offset 8
	.cfi_offset 4, -8
	.cfi_offset 14, -4
	sub	sp, sp, #16
.LCFI12:
	.cfi_def_cfa_offset 24
	str	r0, [sp, #4]
.LBB4:
	.loc 4 59 0
	ldr	r4, [sp, #4]
	add	r3, sp, #12
	mov	r0, r3
	bl	_ZN4_STL9allocatorIP5TimerEC1Ev(PLT)
	add	r3, sp, #12
	mov	r0, r4
	mov	r1, r3
	bl	_ZN4_STL4listIP5TimerNS_9allocatorIS2_EEEC1ERKS4_(PLT)
	add	r3, sp, #12
	mov	r0, r3
	bl	_ZN4_STL9allocatorIP5TimerED1Ev(PLT)
.LBE4:
	.loc 4 61 0
	ldr	r3, [sp, #4]
	mov	r0, r3
	add	sp, sp, #16
	@ sp needed
	ldmfd	sp!, {r4, pc}
	.cfi_endproc
.LFE469:
	.size	_ZN12TimerManagerC2Ev, .-_ZN12TimerManagerC2Ev
	.global	_ZN12TimerManagerC1Ev
	.hidden	_ZN12TimerManagerC1Ev
	.set	_ZN12TimerManagerC1Ev,_ZN12TimerManagerC2Ev
	.section	.text._ZN12TimerManagerD2Ev,"ax",%progbits
	.align	2
	.global	_ZN12TimerManagerD2Ev
	.hidden	_ZN12TimerManagerD2Ev
	.type	_ZN12TimerManagerD2Ev, %function
_ZN12TimerManagerD2Ev:
.LFB472:
	.loc 4 63 0
	.cfi_startproc
	@ args = 0, pretend = 0, frame = 16
	@ frame_needed = 0, uses_anonymous_args = 0
	str	lr, [sp, #-4]!
.LCFI13:
	.cfi_def_cfa_offset 4
	.cfi_offset 14, -4
	sub	sp, sp, #20
.LCFI14:
	.cfi_def_cfa_offset 24
	str	r0, [sp, #4]
.LBB5:
.LBB6:
.LBB7:
	.loc 4 65 0
	ldr	r3, [sp, #4]
	add	r2, sp, #8
	mov	r0, r2
	mov	r1, r3
	bl	_ZN4_STL4listIP5TimerNS_9allocatorIS2_EEE5beginEv(PLT)
	b	.L29
.L30:
	.loc 4 66 0 discriminator 2
	add	r3, sp, #8
	mov	r0, r3
	bl	_ZNK4_STL14_List_iteratorIP5TimerNS_16_Nonconst_traitsIS2_EEEdeEv(PLT)
	mov	r3, r0
	ldr	r3, [r3]
	mov	r0, r3
	bl	_ZdlPv(PLT)
	.loc 4 65 0 discriminator 2
	add	r3, sp, #8
	mov	r0, r3
	bl	_ZN4_STL14_List_iteratorIP5TimerNS_16_Nonconst_traitsIS2_EEEppEv(PLT)
.L29:
	.loc 4 65 0 is_stmt 0 discriminator 1
	ldr	r3, [sp, #4]
	add	r2, sp, #12
	mov	r0, r2
	mov	r1, r3
	bl	_ZN4_STL4listIP5TimerNS_9allocatorIS2_EEE3endEv(PLT)
	add	r2, sp, #8
	add	r3, sp, #12
	mov	r0, r2
	mov	r1, r3
	bl	_ZNK4_STL19_List_iterator_baseneERKS0_(PLT)
	mov	r3, r0
	cmp	r3, #0
	bne	.L30
.LBE7:
.LBE6:
	.loc 4 63 0 is_stmt 1
	ldr	r3, [sp, #4]
	.loc 4 67 0
	mov	r0, r3
	bl	_ZN4_STL4listIP5TimerNS_9allocatorIS2_EEED1Ev(PLT)
.LBE5:
	ldr	r3, [sp, #4]
	mov	r0, r3
	add	sp, sp, #20
	@ sp needed
	ldr	pc, [sp], #4
	.cfi_endproc
.LFE472:
	.size	_ZN12TimerManagerD2Ev, .-_ZN12TimerManagerD2Ev
	.global	_ZN12TimerManagerD1Ev
	.hidden	_ZN12TimerManagerD1Ev
	.set	_ZN12TimerManagerD1Ev,_ZN12TimerManagerD2Ev
	.section	.text._ZN12TimerManager6UpdateEf,"ax",%progbits
	.align	2
	.global	_ZN12TimerManager6UpdateEf
	.hidden	_ZN12TimerManager6UpdateEf
	.type	_ZN12TimerManager6UpdateEf, %function
_ZN12TimerManager6UpdateEf:
.LFB474:
	.loc 4 70 0
	.cfi_startproc
	@ args = 0, pretend = 0, frame = 24
	@ frame_needed = 0, uses_anonymous_args = 0
	stmfd	sp!, {r4, lr}
.LCFI15:
	.cfi_def_cfa_offset 8
	.cfi_offset 4, -8
	.cfi_offset 14, -4
	sub	sp, sp, #24
.LCFI16:
	.cfi_def_cfa_offset 32
	str	r0, [sp, #4]
	str	r1, [sp]	@ float
.LBB8:
.LBB9:
	.loc 4 71 0
	ldr	r3, [sp, #4]
	add	r2, sp, #8
	mov	r0, r2
	mov	r1, r3
	bl	_ZN4_STL4listIP5TimerNS_9allocatorIS2_EEE5beginEv(PLT)
	b	.L34
.L36:
	.loc 4 73 0
	add	r3, sp, #8
	mov	r0, r3
	bl	_ZNK4_STL14_List_iteratorIP5TimerNS_16_Nonconst_traitsIS2_EEEdeEv(PLT)
	mov	r3, r0
	ldr	r3, [r3]
	mov	r0, r3
	ldr	r1, [sp]	@ float
	bl	_ZN5Timer6UpdateEf(PLT)
	mov	r3, r0
	cmp	r3, #0
	beq	.L35
	.loc 4 75 0
	add	r3, sp, #8
	mov	r0, r3
	bl	_ZNK4_STL14_List_iteratorIP5TimerNS_16_Nonconst_traitsIS2_EEEdeEv(PLT)
	mov	r3, r0
	ldr	r3, [r3]
	mov	r0, r3
	bl	_ZdlPv(PLT)
	.loc 4 76 0
	ldr	r4, [sp, #4]
	add	r2, sp, #16
	add	r3, sp, #8
	mov	r0, r2
	mov	r1, r3
	bl	_ZN4_STL14_List_iteratorIP5TimerNS_16_Nonconst_traitsIS2_EEEC1ERKS5_(PLT)
	add	r2, sp, #12
	add	r3, sp, #16
	mov	r0, r2
	mov	r1, r4
	mov	r2, r3
	bl	_ZN4_STL4listIP5TimerNS_9allocatorIS2_EEE5eraseENS_14_List_iteratorIS2_NS_16_Nonconst_traitsIS2_EEEE(PLT)
	ldr	r3, [sp, #12]
	str	r3, [sp, #8]
.L35:
	.loc 4 71 0
	add	r3, sp, #8
	mov	r0, r3
	bl	_ZN4_STL14_List_iteratorIP5TimerNS_16_Nonconst_traitsIS2_EEEppEv(PLT)
.L34:
	.loc 4 71 0 is_stmt 0 discriminator 1
	ldr	r3, [sp, #4]
	add	r2, sp, #20
	mov	r0, r2
	mov	r1, r3
	bl	_ZN4_STL4listIP5TimerNS_9allocatorIS2_EEE3endEv(PLT)
	add	r2, sp, #8
	add	r3, sp, #20
	mov	r0, r2
	mov	r1, r3
	bl	_ZNK4_STL19_List_iterator_baseneERKS0_(PLT)
	mov	r3, r0
	cmp	r3, #0
	bne	.L36
.LBE9:
.LBE8:
	.loc 4 79 0 is_stmt 1
	add	sp, sp, #24
	@ sp needed
	ldmfd	sp!, {r4, pc}
	.cfi_endproc
.LFE474:
	.size	_ZN12TimerManager6UpdateEf, .-_ZN12TimerManager6UpdateEf
	.section	.text._ZN12TimerManager3AddEP5Timer,"ax",%progbits
	.align	2
	.global	_ZN12TimerManager3AddEP5Timer
	.hidden	_ZN12TimerManager3AddEP5Timer
	.type	_ZN12TimerManager3AddEP5Timer, %function
_ZN12TimerManager3AddEP5Timer:
.LFB475:
	.loc 4 82 0
	.cfi_startproc
	@ args = 0, pretend = 0, frame = 8
	@ frame_needed = 0, uses_anonymous_args = 0
	str	lr, [sp, #-4]!
.LCFI17:
	.cfi_def_cfa_offset 4
	.cfi_offset 14, -4
	sub	sp, sp, #12
.LCFI18:
	.cfi_def_cfa_offset 16
	str	r0, [sp, #4]
	str	r1, [sp]
	.loc 4 83 0
	ldr	r2, [sp, #4]
	mov	r3, sp
	mov	r0, r2
	mov	r1, r3
	bl	_ZN4_STL4listIP5TimerNS_9allocatorIS2_EEE9push_backERKS2_(PLT)
	.loc 4 84 0
	ldr	r3, [sp]
	mov	r0, r3
	ldr	r1, [sp, #4]
	bl	_ZN5Timer10setManagerEP12TimerManager(PLT)
	.loc 4 85 0
	add	sp, sp, #12
	@ sp needed
	ldr	pc, [sp], #4
	.cfi_endproc
.LFE475:
	.size	_ZN12TimerManager3AddEP5Timer, .-_ZN12TimerManager3AddEP5Timer
	.section	.text._ZN12TimerManager6CancelEP5Timer,"ax",%progbits
	.align	2
	.global	_ZN12TimerManager6CancelEP5Timer
	.hidden	_ZN12TimerManager6CancelEP5Timer
	.type	_ZN12TimerManager6CancelEP5Timer, %function
_ZN12TimerManager6CancelEP5Timer:
.LFB476:
	.loc 4 88 0
	.cfi_startproc
	@ args = 0, pretend = 0, frame = 8
	@ frame_needed = 0, uses_anonymous_args = 0
	str	lr, [sp, #-4]!
.LCFI19:
	.cfi_def_cfa_offset 4
	.cfi_offset 14, -4
	sub	sp, sp, #12
.LCFI20:
	.cfi_def_cfa_offset 16
	str	r0, [sp, #4]
	str	r1, [sp]
	.loc 4 89 0
	ldr	r2, [sp, #4]
	mov	r3, sp
	mov	r0, r2
	mov	r1, r3
	bl	_ZN4_STL4listIP5TimerNS_9allocatorIS2_EEE6removeERKS2_(PLT)
	.loc 4 90 0
	add	sp, sp, #12
	@ sp needed
	ldr	pc, [sp], #4
	.cfi_endproc
.LFE476:
	.size	_ZN12TimerManager6CancelEP5Timer, .-_ZN12TimerManager6CancelEP5Timer
	.section	.text._ZN12TimerManager5ClearEv,"ax",%progbits
	.align	2
	.global	_ZN12TimerManager5ClearEv
	.hidden	_ZN12TimerManager5ClearEv
	.type	_ZN12TimerManager5ClearEv, %function
_ZN12TimerManager5ClearEv:
.LFB477:
	.loc 4 93 0
	.cfi_startproc
	@ args = 0, pretend = 0, frame = 16
	@ frame_needed = 0, uses_anonymous_args = 0
	str	lr, [sp, #-4]!
.LCFI21:
	.cfi_def_cfa_offset 4
	.cfi_offset 14, -4
	sub	sp, sp, #20
.LCFI22:
	.cfi_def_cfa_offset 24
	str	r0, [sp, #4]
.LBB10:
.LBB11:
	.loc 4 94 0
	ldr	r3, [sp, #4]
	add	r2, sp, #8
	mov	r0, r2
	mov	r1, r3
	bl	_ZN4_STL4listIP5TimerNS_9allocatorIS2_EEE5beginEv(PLT)
	b	.L40
.L41:
	.loc 4 95 0 discriminator 2
	add	r3, sp, #8
	mov	r0, r3
	bl	_ZNK4_STL14_List_iteratorIP5TimerNS_16_Nonconst_traitsIS2_EEEdeEv(PLT)
	mov	r3, r0
	ldr	r3, [r3]
	mov	r0, r3
	bl	_ZdlPv(PLT)
	.loc 4 94 0 discriminator 2
	add	r3, sp, #8
	mov	r0, r3
	bl	_ZN4_STL14_List_iteratorIP5TimerNS_16_Nonconst_traitsIS2_EEEppEv(PLT)
.L40:
	.loc 4 94 0 is_stmt 0 discriminator 1
	ldr	r3, [sp, #4]
	add	r2, sp, #12
	mov	r0, r2
	mov	r1, r3
	bl	_ZN4_STL4listIP5TimerNS_9allocatorIS2_EEE3endEv(PLT)
	add	r2, sp, #8
	add	r3, sp, #12
	mov	r0, r2
	mov	r1, r3
	bl	_ZNK4_STL19_List_iterator_baseneERKS0_(PLT)
	mov	r3, r0
	cmp	r3, #0
	bne	.L41
.LBE11:
	.loc 4 96 0 is_stmt 1
	ldr	r3, [sp, #4]
	mov	r0, r3
	bl	_ZN4_STL10_List_baseIP5TimerNS_9allocatorIS2_EEE5clearEv(PLT)
.LBE10:
	.loc 4 97 0
	add	sp, sp, #20
	@ sp needed
	ldr	pc, [sp], #4
	.cfi_endproc
.LFE477:
	.size	_ZN12TimerManager5ClearEv, .-_ZN12TimerManager5ClearEv
	.section	.text._ZN12TimerManager4FindEPKc,"ax",%progbits
	.align	2
	.global	_ZN12TimerManager4FindEPKc
	.hidden	_ZN12TimerManager4FindEPKc
	.type	_ZN12TimerManager4FindEPKc, %function
_ZN12TimerManager4FindEPKc:
.LFB478:
	.loc 4 100 0
	.cfi_startproc
	@ args = 0, pretend = 0, frame = 24
	@ frame_needed = 0, uses_anonymous_args = 0
	str	lr, [sp, #-4]!
.LCFI23:
	.cfi_def_cfa_offset 4
	.cfi_offset 14, -4
	sub	sp, sp, #28
.LCFI24:
	.cfi_def_cfa_offset 32
	str	r0, [sp, #4]
	str	r1, [sp]
.LBB12:
	.loc 4 101 0
	ldr	r0, [sp]
	bl	_Z12IwHashStringPKc(PLT)
	str	r0, [sp, #20]
.LBB13:
	.loc 4 102 0
	ldr	r3, [sp, #4]
	add	r2, sp, #12
	mov	r0, r2
	mov	r1, r3
	bl	_ZN4_STL4listIP5TimerNS_9allocatorIS2_EEE5beginEv(PLT)
	b	.L43
.L46:
	.loc 4 104 0
	add	r3, sp, #12
	mov	r0, r3
	bl	_ZNK4_STL14_List_iteratorIP5TimerNS_16_Nonconst_traitsIS2_EEEdeEv(PLT)
	mov	r3, r0
	ldr	r3, [r3]
	mov	r0, r3
	bl	_ZNK5Timer11getNameHashEv(PLT)
	mov	r2, r0
	ldr	r3, [sp, #20]
	cmp	r2, r3
	movne	r3, #0
	moveq	r3, #1
	uxtb	r3, r3
	cmp	r3, #0
	beq	.L44
	.loc 4 105 0
	add	r3, sp, #12
	mov	r0, r3
	bl	_ZNK4_STL14_List_iteratorIP5TimerNS_16_Nonconst_traitsIS2_EEEdeEv(PLT)
	mov	r3, r0
	ldr	r3, [r3]
	b	.L45
.L44:
	.loc 4 102 0
	add	r3, sp, #12
	mov	r0, r3
	bl	_ZN4_STL14_List_iteratorIP5TimerNS_16_Nonconst_traitsIS2_EEEppEv(PLT)
.L43:
	.loc 4 102 0 is_stmt 0 discriminator 1
	ldr	r3, [sp, #4]
	add	r2, sp, #16
	mov	r0, r2
	mov	r1, r3
	bl	_ZN4_STL4listIP5TimerNS_9allocatorIS2_EEE3endEv(PLT)
	add	r2, sp, #12
	add	r3, sp, #16
	mov	r0, r2
	mov	r1, r3
	bl	_ZNK4_STL19_List_iterator_baseneERKS0_(PLT)
	mov	r3, r0
	cmp	r3, #0
	bne	.L46
.LBE13:
	.loc 4 108 0 is_stmt 1
	mov	r3, #0
.L45:
.LBE12:
	.loc 4 109 0
	mov	r0, r3
	add	sp, sp, #28
	@ sp needed
	ldr	pc, [sp], #4
	.cfi_endproc
.LFE478:
	.size	_ZN12TimerManager4FindEPKc, .-_ZN12TimerManager4FindEPKc
	.section	.text._ZN12TimerManager5PauseEv,"ax",%progbits
	.align	2
	.global	_ZN12TimerManager5PauseEv
	.hidden	_ZN12TimerManager5PauseEv
	.type	_ZN12TimerManager5PauseEv, %function
_ZN12TimerManager5PauseEv:
.LFB479:
	.loc 4 112 0
	.cfi_startproc
	@ args = 0, pretend = 0, frame = 16
	@ frame_needed = 0, uses_anonymous_args = 0
	str	lr, [sp, #-4]!
.LCFI25:
	.cfi_def_cfa_offset 4
	.cfi_offset 14, -4
	sub	sp, sp, #20
.LCFI26:
	.cfi_def_cfa_offset 24
	str	r0, [sp, #4]
.LBB14:
.LBB15:
	.loc 4 113 0
	ldr	r3, [sp, #4]
	add	r2, sp, #8
	mov	r0, r2
	mov	r1, r3
	bl	_ZN4_STL4listIP5TimerNS_9allocatorIS2_EEE5beginEv(PLT)
	b	.L48
.L49:
	.loc 4 114 0 discriminator 2
	add	r3, sp, #8
	mov	r0, r3
	bl	_ZNK4_STL14_List_iteratorIP5TimerNS_16_Nonconst_traitsIS2_EEEdeEv(PLT)
	mov	r3, r0
	ldr	r3, [r3]
	mov	r0, r3
	bl	_ZN5Timer5PauseEv(PLT)
	.loc 4 113 0 discriminator 2
	add	r3, sp, #8
	mov	r0, r3
	bl	_ZN4_STL14_List_iteratorIP5TimerNS_16_Nonconst_traitsIS2_EEEppEv(PLT)
.L48:
	.loc 4 113 0 is_stmt 0 discriminator 1
	ldr	r3, [sp, #4]
	add	r2, sp, #12
	mov	r0, r2
	mov	r1, r3
	bl	_ZN4_STL4listIP5TimerNS_9allocatorIS2_EEE3endEv(PLT)
	add	r2, sp, #8
	add	r3, sp, #12
	mov	r0, r2
	mov	r1, r3
	bl	_ZNK4_STL19_List_iterator_baseneERKS0_(PLT)
	mov	r3, r0
	cmp	r3, #0
	bne	.L49
.LBE15:
.LBE14:
	.loc 4 115 0 is_stmt 1
	add	sp, sp, #20
	@ sp needed
	ldr	pc, [sp], #4
	.cfi_endproc
.LFE479:
	.size	_ZN12TimerManager5PauseEv, .-_ZN12TimerManager5PauseEv
	.section	.text._ZN12TimerManager6ResumeEv,"ax",%progbits
	.align	2
	.global	_ZN12TimerManager6ResumeEv
	.hidden	_ZN12TimerManager6ResumeEv
	.type	_ZN12TimerManager6ResumeEv, %function
_ZN12TimerManager6ResumeEv:
.LFB480:
	.loc 4 118 0
	.cfi_startproc
	@ args = 0, pretend = 0, frame = 16
	@ frame_needed = 0, uses_anonymous_args = 0
	str	lr, [sp, #-4]!
.LCFI27:
	.cfi_def_cfa_offset 4
	.cfi_offset 14, -4
	sub	sp, sp, #20
.LCFI28:
	.cfi_def_cfa_offset 24
	str	r0, [sp, #4]
.LBB16:
.LBB17:
	.loc 4 119 0
	ldr	r3, [sp, #4]
	add	r2, sp, #8
	mov	r0, r2
	mov	r1, r3
	bl	_ZN4_STL4listIP5TimerNS_9allocatorIS2_EEE5beginEv(PLT)
	b	.L51
.L52:
	.loc 4 120 0 discriminator 2
	add	r3, sp, #8
	mov	r0, r3
	bl	_ZNK4_STL14_List_iteratorIP5TimerNS_16_Nonconst_traitsIS2_EEEdeEv(PLT)
	mov	r3, r0
	ldr	r3, [r3]
	mov	r0, r3
	bl	_ZN5Timer6ResumeEv(PLT)
	.loc 4 119 0 discriminator 2
	add	r3, sp, #8
	mov	r0, r3
	bl	_ZN4_STL14_List_iteratorIP5TimerNS_16_Nonconst_traitsIS2_EEEppEv(PLT)
.L51:
	.loc 4 119 0 is_stmt 0 discriminator 1
	ldr	r3, [sp, #4]
	add	r2, sp, #12
	mov	r0, r2
	mov	r1, r3
	bl	_ZN4_STL4listIP5TimerNS_9allocatorIS2_EEE3endEv(PLT)
	add	r2, sp, #8
	add	r3, sp, #12
	mov	r0, r2
	mov	r1, r3
	bl	_ZNK4_STL19_List_iterator_baseneERKS0_(PLT)
	mov	r3, r0
	cmp	r3, #0
	bne	.L52
.LBE17:
.LBE16:
	.loc 4 121 0 is_stmt 1
	add	sp, sp, #20
	@ sp needed
	ldr	pc, [sp], #4
	.cfi_endproc
.LFE480:
	.size	_ZN12TimerManager6ResumeEv, .-_ZN12TimerManager6ResumeEv
	.section	.text._ZN4_STL9allocatorIP5TimerEC2Ev,"axG",%progbits,_ZN4_STL9allocatorIP5TimerEC5Ev,comdat
	.align	2
	.weak	_ZN4_STL9allocatorIP5TimerEC2Ev
	.hidden	_ZN4_STL9allocatorIP5TimerEC2Ev
	.type	_ZN4_STL9allocatorIP5TimerEC2Ev, %function
_ZN4_STL9allocatorIP5TimerEC2Ev:
.LFB491:
	.file 5 "c:/marmalade/7.5/s3e/h/std/c++/stl/_alloc.h"
	.loc 5 345 0
	.cfi_startproc
	@ args = 0, pretend = 0, frame = 8
	@ frame_needed = 0, uses_anonymous_args = 0
	@ link register save eliminated.
	sub	sp, sp, #8
.LCFI29:
	.cfi_def_cfa_offset 8
	str	r0, [sp, #4]
	.loc 5 345 0
	ldr	r3, [sp, #4]
	mov	r0, r3
	add	sp, sp, #8
	@ sp needed
	bx	lr
	.cfi_endproc
.LFE491:
	.size	_ZN4_STL9allocatorIP5TimerEC2Ev, .-_ZN4_STL9allocatorIP5TimerEC2Ev
	.weak	_ZN4_STL9allocatorIP5TimerEC1Ev
	.hidden	_ZN4_STL9allocatorIP5TimerEC1Ev
	.set	_ZN4_STL9allocatorIP5TimerEC1Ev,_ZN4_STL9allocatorIP5TimerEC2Ev
	.section	.text._ZN4_STL9allocatorIP5TimerED2Ev,"axG",%progbits,_ZN4_STL9allocatorIP5TimerED5Ev,comdat
	.align	2
	.weak	_ZN4_STL9allocatorIP5TimerED2Ev
	.hidden	_ZN4_STL9allocatorIP5TimerED2Ev
	.type	_ZN4_STL9allocatorIP5TimerED2Ev, %function
_ZN4_STL9allocatorIP5TimerED2Ev:
.LFB494:
	.loc 5 350 0
	.cfi_startproc
	@ args = 0, pretend = 0, frame = 8
	@ frame_needed = 0, uses_anonymous_args = 0
	@ link register save eliminated.
	sub	sp, sp, #8
.LCFI30:
	.cfi_def_cfa_offset 8
	str	r0, [sp, #4]
	.loc 5 350 0
	ldr	r3, [sp, #4]
	mov	r0, r3
	add	sp, sp, #8
	@ sp needed
	bx	lr
	.cfi_endproc
.LFE494:
	.size	_ZN4_STL9allocatorIP5TimerED2Ev, .-_ZN4_STL9allocatorIP5TimerED2Ev
	.weak	_ZN4_STL9allocatorIP5TimerED1Ev
	.hidden	_ZN4_STL9allocatorIP5TimerED1Ev
	.set	_ZN4_STL9allocatorIP5TimerED1Ev,_ZN4_STL9allocatorIP5TimerED2Ev
	.section	.text._ZN4_STL4listIP5TimerNS_9allocatorIS2_EEEC2ERKS4_,"axG",%progbits,_ZN4_STL4listIP5TimerNS_9allocatorIS2_EEEC5ERKS4_,comdat
	.align	2
	.weak	_ZN4_STL4listIP5TimerNS_9allocatorIS2_EEEC2ERKS4_
	.hidden	_ZN4_STL4listIP5TimerNS_9allocatorIS2_EEEC2ERKS4_
	.type	_ZN4_STL4listIP5TimerNS_9allocatorIS2_EEEC2ERKS4_, %function
_ZN4_STL4listIP5TimerNS_9allocatorIS2_EEEC2ERKS4_:
.LFB497:
	.loc 2 263 0
	.cfi_startproc
	@ args = 0, pretend = 0, frame = 8
	@ frame_needed = 0, uses_anonymous_args = 0
	str	lr, [sp, #-4]!
.LCFI31:
	.cfi_def_cfa_offset 4
	.cfi_offset 14, -4
	sub	sp, sp, #12
.LCFI32:
	.cfi_def_cfa_offset 16
	str	r0, [sp, #4]
	str	r1, [sp]
.LBB18:
	.loc 2 264 0
	ldr	r3, [sp, #4]
	mov	r0, r3
	ldr	r1, [sp]
	bl	_ZN4_STL10_List_baseIP5TimerNS_9allocatorIS2_EEEC2ERKS4_(PLT)
.LBE18:
	ldr	r3, [sp, #4]
	mov	r0, r3
	add	sp, sp, #12
	@ sp needed
	ldr	pc, [sp], #4
	.cfi_endproc
.LFE497:
	.size	_ZN4_STL4listIP5TimerNS_9allocatorIS2_EEEC2ERKS4_, .-_ZN4_STL4listIP5TimerNS_9allocatorIS2_EEEC2ERKS4_
	.weak	_ZN4_STL4listIP5TimerNS_9allocatorIS2_EEEC1ERKS4_
	.hidden	_ZN4_STL4listIP5TimerNS_9allocatorIS2_EEEC1ERKS4_
	.set	_ZN4_STL4listIP5TimerNS_9allocatorIS2_EEEC1ERKS4_,_ZN4_STL4listIP5TimerNS_9allocatorIS2_EEEC2ERKS4_
	.section	.text._ZN4_STL4listIP5TimerNS_9allocatorIS2_EEED2Ev,"axG",%progbits,_ZN4_STL4listIP5TimerNS_9allocatorIS2_EEED5Ev,comdat
	.align	2
	.weak	_ZN4_STL4listIP5TimerNS_9allocatorIS2_EEED2Ev
	.hidden	_ZN4_STL4listIP5TimerNS_9allocatorIS2_EEED2Ev
	.type	_ZN4_STL4listIP5TimerNS_9allocatorIS2_EEED2Ev, %function
_ZN4_STL4listIP5TimerNS_9allocatorIS2_EEED2Ev:
.LFB500:
	.loc 2 416 0
	.cfi_startproc
	@ args = 0, pretend = 0, frame = 8
	@ frame_needed = 0, uses_anonymous_args = 0
	str	lr, [sp, #-4]!
.LCFI33:
	.cfi_def_cfa_offset 4
	.cfi_offset 14, -4
	sub	sp, sp, #12
.LCFI34:
	.cfi_def_cfa_offset 16
	str	r0, [sp, #4]
.LBB19:
	.loc 2 416 0
	ldr	r3, [sp, #4]
	mov	r0, r3
	bl	_ZN4_STL10_List_baseIP5TimerNS_9allocatorIS2_EEED2Ev(PLT)
.LBE19:
	ldr	r3, [sp, #4]
	mov	r0, r3
	add	sp, sp, #12
	@ sp needed
	ldr	pc, [sp], #4
	.cfi_endproc
.LFE500:
	.size	_ZN4_STL4listIP5TimerNS_9allocatorIS2_EEED2Ev, .-_ZN4_STL4listIP5TimerNS_9allocatorIS2_EEED2Ev
	.weak	_ZN4_STL4listIP5TimerNS_9allocatorIS2_EEED1Ev
	.hidden	_ZN4_STL4listIP5TimerNS_9allocatorIS2_EEED1Ev
	.set	_ZN4_STL4listIP5TimerNS_9allocatorIS2_EEED1Ev,_ZN4_STL4listIP5TimerNS_9allocatorIS2_EEED2Ev
	.section	.text._ZN4_STL4listIP5TimerNS_9allocatorIS2_EEE5beginEv,"axG",%progbits,_ZN4_STL4listIP5TimerNS_9allocatorIS2_EEE5beginEv,comdat
	.align	2
	.weak	_ZN4_STL4listIP5TimerNS_9allocatorIS2_EEE5beginEv
	.hidden	_ZN4_STL4listIP5TimerNS_9allocatorIS2_EEE5beginEv
	.type	_ZN4_STL4listIP5TimerNS_9allocatorIS2_EEE5beginEv, %function
_ZN4_STL4listIP5TimerNS_9allocatorIS2_EEE5beginEv:
.LFB502:
	.loc 2 266 0
	.cfi_startproc
	@ args = 0, pretend = 0, frame = 8
	@ frame_needed = 0, uses_anonymous_args = 0
	str	lr, [sp, #-4]!
.LCFI35:
	.cfi_def_cfa_offset 4
	.cfi_offset 14, -4
	sub	sp, sp, #12
.LCFI36:
	.cfi_def_cfa_offset 16
	str	r0, [sp, #4]
	str	r1, [sp]
	.loc 2 266 0
	ldr	r3, [sp]
	ldr	r3, [r3]
	ldr	r3, [r3]
	ldr	r0, [sp, #4]
	mov	r1, r3
	bl	_ZN4_STL14_List_iteratorIP5TimerNS_16_Nonconst_traitsIS2_EEEC1EPNS_10_List_nodeIS2_EE(PLT)
	ldr	r0, [sp, #4]
	add	sp, sp, #12
	@ sp needed
	ldr	pc, [sp], #4
	.cfi_endproc
.LFE502:
	.size	_ZN4_STL4listIP5TimerNS_9allocatorIS2_EEE5beginEv, .-_ZN4_STL4listIP5TimerNS_9allocatorIS2_EEE5beginEv
	.section	.text._ZN4_STL14_List_iteratorIP5TimerNS_16_Nonconst_traitsIS2_EEEC2ERKS5_,"axG",%progbits,_ZN4_STL14_List_iteratorIP5TimerNS_16_Nonconst_traitsIS2_EEEC5ERKS5_,comdat
	.align	2
	.weak	_ZN4_STL14_List_iteratorIP5TimerNS_16_Nonconst_traitsIS2_EEEC2ERKS5_
	.hidden	_ZN4_STL14_List_iteratorIP5TimerNS_16_Nonconst_traitsIS2_EEEC2ERKS5_
	.type	_ZN4_STL14_List_iteratorIP5TimerNS_16_Nonconst_traitsIS2_EEEC2ERKS5_, %function
_ZN4_STL14_List_iteratorIP5TimerNS_16_Nonconst_traitsIS2_EEEC2ERKS5_:
.LFB504:
	.loc 2 128 0
	.cfi_startproc
	@ args = 0, pretend = 0, frame = 8
	@ frame_needed = 0, uses_anonymous_args = 0
	str	lr, [sp, #-4]!
.LCFI37:
	.cfi_def_cfa_offset 4
	.cfi_offset 14, -4
	sub	sp, sp, #12
.LCFI38:
	.cfi_def_cfa_offset 16
	str	r0, [sp, #4]
	str	r1, [sp]
.LBB20:
	.loc 2 128 0
	ldr	r2, [sp, #4]
	ldr	r3, [sp]
	ldr	r3, [r3]
	mov	r0, r2
	mov	r1, r3
	bl	_ZN4_STL19_List_iterator_baseC2EPNS_15_List_node_baseE(PLT)
.LBE20:
	ldr	r3, [sp, #4]
	mov	r0, r3
	add	sp, sp, #12
	@ sp needed
	ldr	pc, [sp], #4
	.cfi_endproc
.LFE504:
	.size	_ZN4_STL14_List_iteratorIP5TimerNS_16_Nonconst_traitsIS2_EEEC2ERKS5_, .-_ZN4_STL14_List_iteratorIP5TimerNS_16_Nonconst_traitsIS2_EEEC2ERKS5_
	.weak	_ZN4_STL14_List_iteratorIP5TimerNS_16_Nonconst_traitsIS2_EEEC1ERKS5_
	.hidden	_ZN4_STL14_List_iteratorIP5TimerNS_16_Nonconst_traitsIS2_EEEC1ERKS5_
	.set	_ZN4_STL14_List_iteratorIP5TimerNS_16_Nonconst_traitsIS2_EEEC1ERKS5_,_ZN4_STL14_List_iteratorIP5TimerNS_16_Nonconst_traitsIS2_EEEC2ERKS5_
	.section	.text._ZN4_STL4listIP5TimerNS_9allocatorIS2_EEE3endEv,"axG",%progbits,_ZN4_STL4listIP5TimerNS_9allocatorIS2_EEE3endEv,comdat
	.align	2
	.weak	_ZN4_STL4listIP5TimerNS_9allocatorIS2_EEE3endEv
	.hidden	_ZN4_STL4listIP5TimerNS_9allocatorIS2_EEE3endEv
	.type	_ZN4_STL4listIP5TimerNS_9allocatorIS2_EEE3endEv, %function
_ZN4_STL4listIP5TimerNS_9allocatorIS2_EEE3endEv:
.LFB506:
	.loc 2 269 0
	.cfi_startproc
	@ args = 0, pretend = 0, frame = 8
	@ frame_needed = 0, uses_anonymous_args = 0
	str	lr, [sp, #-4]!
.LCFI39:
	.cfi_def_cfa_offset 4
	.cfi_offset 14, -4
	sub	sp, sp, #12
.LCFI40:
	.cfi_def_cfa_offset 16
	str	r0, [sp, #4]
	str	r1, [sp]
	.loc 2 269 0
	ldr	r3, [sp]
	ldr	r3, [r3]
	ldr	r0, [sp, #4]
	mov	r1, r3
	bl	_ZN4_STL14_List_iteratorIP5TimerNS_16_Nonconst_traitsIS2_EEEC1EPNS_10_List_nodeIS2_EE(PLT)
	ldr	r0, [sp, #4]
	add	sp, sp, #12
	@ sp needed
	ldr	pc, [sp], #4
	.cfi_endproc
.LFE506:
	.size	_ZN4_STL4listIP5TimerNS_9allocatorIS2_EEE3endEv, .-_ZN4_STL4listIP5TimerNS_9allocatorIS2_EEE3endEv
	.section	.text._ZN4_STL14_List_iteratorIP5TimerNS_16_Nonconst_traitsIS2_EEEppEv,"axG",%progbits,_ZN4_STL14_List_iteratorIP5TimerNS_16_Nonconst_traitsIS2_EEEppEv,comdat
	.align	2
	.weak	_ZN4_STL14_List_iteratorIP5TimerNS_16_Nonconst_traitsIS2_EEEppEv
	.hidden	_ZN4_STL14_List_iteratorIP5TimerNS_16_Nonconst_traitsIS2_EEEppEv
	.type	_ZN4_STL14_List_iteratorIP5TimerNS_16_Nonconst_traitsIS2_EEEppEv, %function
_ZN4_STL14_List_iteratorIP5TimerNS_16_Nonconst_traitsIS2_EEEppEv:
.LFB507:
	.loc 2 134 0
	.cfi_startproc
	@ args = 0, pretend = 0, frame = 8
	@ frame_needed = 0, uses_anonymous_args = 0
	str	lr, [sp, #-4]!
.LCFI41:
	.cfi_def_cfa_offset 4
	.cfi_offset 14, -4
	sub	sp, sp, #12
.LCFI42:
	.cfi_def_cfa_offset 16
	str	r0, [sp, #4]
	.loc 2 135 0
	ldr	r3, [sp, #4]
	mov	r0, r3
	bl	_ZN4_STL19_List_iterator_base7_M_incrEv(PLT)
	.loc 2 136 0
	ldr	r3, [sp, #4]
	.loc 2 137 0
	mov	r0, r3
	add	sp, sp, #12
	@ sp needed
	ldr	pc, [sp], #4
	.cfi_endproc
.LFE507:
	.size	_ZN4_STL14_List_iteratorIP5TimerNS_16_Nonconst_traitsIS2_EEEppEv, .-_ZN4_STL14_List_iteratorIP5TimerNS_16_Nonconst_traitsIS2_EEEppEv
	.section	.text._ZNK4_STL14_List_iteratorIP5TimerNS_16_Nonconst_traitsIS2_EEEdeEv,"axG",%progbits,_ZNK4_STL14_List_iteratorIP5TimerNS_16_Nonconst_traitsIS2_EEEdeEv,comdat
	.align	2
	.weak	_ZNK4_STL14_List_iteratorIP5TimerNS_16_Nonconst_traitsIS2_EEEdeEv
	.hidden	_ZNK4_STL14_List_iteratorIP5TimerNS_16_Nonconst_traitsIS2_EEEdeEv
	.type	_ZNK4_STL14_List_iteratorIP5TimerNS_16_Nonconst_traitsIS2_EEEdeEv, %function
_ZNK4_STL14_List_iteratorIP5TimerNS_16_Nonconst_traitsIS2_EEEdeEv:
.LFB508:
	.loc 2 130 0
	.cfi_startproc
	@ args = 0, pretend = 0, frame = 8
	@ frame_needed = 0, uses_anonymous_args = 0
	@ link register save eliminated.
	sub	sp, sp, #8
.LCFI43:
	.cfi_def_cfa_offset 8
	str	r0, [sp, #4]
	.loc 2 130 0
	ldr	r3, [sp, #4]
	ldr	r3, [r3]
	add	r3, r3, #8
	mov	r0, r3
	add	sp, sp, #8
	@ sp needed
	bx	lr
	.cfi_endproc
.LFE508:
	.size	_ZNK4_STL14_List_iteratorIP5TimerNS_16_Nonconst_traitsIS2_EEEdeEv, .-_ZNK4_STL14_List_iteratorIP5TimerNS_16_Nonconst_traitsIS2_EEEdeEv
	.section	.text._ZN4_STL4listIP5TimerNS_9allocatorIS2_EEE5eraseENS_14_List_iteratorIS2_NS_16_Nonconst_traitsIS2_EEEE,"axG",%progbits,_ZN4_STL4listIP5TimerNS_9allocatorIS2_EEE5eraseENS_14_List_iteratorIS2_NS_16_Nonconst_traitsIS2_EEEE,comdat
	.align	2
	.weak	_ZN4_STL4listIP5TimerNS_9allocatorIS2_EEE5eraseENS_14_List_iteratorIS2_NS_16_Nonconst_traitsIS2_EEEE
	.hidden	_ZN4_STL4listIP5TimerNS_9allocatorIS2_EEE5eraseENS_14_List_iteratorIS2_NS_16_Nonconst_traitsIS2_EEEE
	.type	_ZN4_STL4listIP5TimerNS_9allocatorIS2_EEE5eraseENS_14_List_iteratorIS2_NS_16_Nonconst_traitsIS2_EEEE, %function
_ZN4_STL4listIP5TimerNS_9allocatorIS2_EEE5eraseENS_14_List_iteratorIS2_NS_16_Nonconst_traitsIS2_EEEE:
.LFB509:
	.loc 2 353 0
	.cfi_startproc
	@ args = 0, pretend = 0, frame = 32
	@ frame_needed = 0, uses_anonymous_args = 0
	str	lr, [sp, #-4]!
.LCFI44:
	.cfi_def_cfa_offset 4
	.cfi_offset 14, -4
	sub	sp, sp, #36
.LCFI45:
	.cfi_def_cfa_offset 40
	str	r0, [sp, #12]
	str	r1, [sp, #8]
	str	r2, [sp, #4]
.LBB21:
	.loc 2 354 0
	ldr	r3, [sp, #4]
	ldr	r3, [r3]
	ldr	r3, [r3]
	str	r3, [sp, #28]
	.loc 2 355 0
	ldr	r3, [sp, #4]
	ldr	r3, [r3]
	ldr	r3, [r3, #4]
	str	r3, [sp, #24]
	.loc 2 356 0
	ldr	r3, [sp, #4]
	ldr	r3, [r3]
	str	r3, [sp, #20]
	.loc 2 357 0
	ldr	r3, [sp, #24]
	ldr	r2, [sp, #28]
	str	r2, [r3]
	.loc 2 358 0
	ldr	r3, [sp, #28]
	ldr	r2, [sp, #24]
	str	r2, [r3, #4]
	.loc 2 359 0
	ldr	r3, [sp, #20]
	add	r3, r3, #8
	mov	r0, r3
	bl	_ZN4_STL8_DestroyIP5TimerEEvPT_(PLT)
	.loc 2 360 0
	ldr	r3, [sp, #8]
	mov	r0, r3
	ldr	r1, [sp, #20]
	mov	r2, #1
	bl	_ZN4_STL9allocatorINS_10_List_nodeIP5TimerEEE10deallocateEPS4_j(PLT)
	.loc 2 361 0
	ldr	r0, [sp, #12]
	ldr	r1, [sp, #28]
	bl	_ZN4_STL14_List_iteratorIP5TimerNS_16_Nonconst_traitsIS2_EEEC1EPNS_10_List_nodeIS2_EE(PLT)
.LBE21:
	.loc 2 362 0
	ldr	r0, [sp, #12]
	add	sp, sp, #36
	@ sp needed
	ldr	pc, [sp], #4
	.cfi_endproc
.LFE509:
	.size	_ZN4_STL4listIP5TimerNS_9allocatorIS2_EEE5eraseENS_14_List_iteratorIS2_NS_16_Nonconst_traitsIS2_EEEE, .-_ZN4_STL4listIP5TimerNS_9allocatorIS2_EEE5eraseENS_14_List_iteratorIS2_NS_16_Nonconst_traitsIS2_EEEE
	.section	.text._ZN4_STL4listIP5TimerNS_9allocatorIS2_EEE9push_backERKS2_,"axG",%progbits,_ZN4_STL4listIP5TimerNS_9allocatorIS2_EEE9push_backERKS2_,comdat
	.align	2
	.weak	_ZN4_STL4listIP5TimerNS_9allocatorIS2_EEE9push_backERKS2_
	.hidden	_ZN4_STL4listIP5TimerNS_9allocatorIS2_EEE9push_backERKS2_
	.type	_ZN4_STL4listIP5TimerNS_9allocatorIS2_EEE9push_backERKS2_, %function
_ZN4_STL4listIP5TimerNS_9allocatorIS2_EEE9push_backERKS2_:
.LFB510:
	.loc 2 345 0
	.cfi_startproc
	@ args = 0, pretend = 0, frame = 24
	@ frame_needed = 0, uses_anonymous_args = 0
	str	lr, [sp, #-4]!
.LCFI46:
	.cfi_def_cfa_offset 4
	.cfi_offset 14, -4
	sub	sp, sp, #28
.LCFI47:
	.cfi_def_cfa_offset 32
	str	r0, [sp, #12]
	str	r1, [sp, #8]
	.loc 2 345 0
	add	r3, sp, #20
	mov	r0, r3
	ldr	r1, [sp, #12]
	bl	_ZN4_STL4listIP5TimerNS_9allocatorIS2_EEE3endEv(PLT)
	mov	r2, sp
	add	r3, sp, #20
	mov	r0, r2
	ldr	r1, [sp, #12]
	mov	r2, r3
	ldr	r3, [sp, #8]
	bl	_ZN4_STL4listIP5TimerNS_9allocatorIS2_EEE6insertENS_14_List_iteratorIS2_NS_16_Nonconst_traitsIS2_EEEERKS2_(PLT)
	add	sp, sp, #28
	@ sp needed
	ldr	pc, [sp], #4
	.cfi_endproc
.LFE510:
	.size	_ZN4_STL4listIP5TimerNS_9allocatorIS2_EEE9push_backERKS2_, .-_ZN4_STL4listIP5TimerNS_9allocatorIS2_EEE9push_backERKS2_
	.section	.text._ZN4_STL4listIP5TimerNS_9allocatorIS2_EEE6removeERKS2_,"axG",%progbits,_ZN4_STL4listIP5TimerNS_9allocatorIS2_EEE6removeERKS2_,comdat
	.align	2
	.weak	_ZN4_STL4listIP5TimerNS_9allocatorIS2_EEE6removeERKS2_
	.hidden	_ZN4_STL4listIP5TimerNS_9allocatorIS2_EEE6removeERKS2_
	.type	_ZN4_STL4listIP5TimerNS_9allocatorIS2_EEE6removeERKS2_, %function
_ZN4_STL4listIP5TimerNS_9allocatorIS2_EEE6removeERKS2_:
.LFB511:
	.loc 2 473 0
	.cfi_startproc
	@ args = 0, pretend = 0, frame = 32
	@ frame_needed = 0, uses_anonymous_args = 0
	stmfd	sp!, {r4, lr}
.LCFI48:
	.cfi_def_cfa_offset 8
	.cfi_offset 4, -8
	.cfi_offset 14, -4
	sub	sp, sp, #32
.LCFI49:
	.cfi_def_cfa_offset 40
	str	r0, [sp, #12]
	str	r1, [sp, #8]
.LBB22:
	.loc 2 474 0
	add	r3, sp, #24
	mov	r0, r3
	ldr	r1, [sp, #12]
	bl	_ZN4_STL4listIP5TimerNS_9allocatorIS2_EEE5beginEv(PLT)
	.loc 2 475 0
	add	r3, sp, #20
	mov	r0, r3
	ldr	r1, [sp, #12]
	bl	_ZN4_STL4listIP5TimerNS_9allocatorIS2_EEE3endEv(PLT)
	.loc 2 476 0
	b	.L80
.L82:
.LBB23:
	.loc 2 477 0
	add	r2, sp, #16
	add	r3, sp, #24
	mov	r0, r2
	mov	r1, r3
	bl	_ZN4_STL14_List_iteratorIP5TimerNS_16_Nonconst_traitsIS2_EEEC1ERKS5_(PLT)
	.loc 2 478 0
	add	r3, sp, #16
	mov	r0, r3
	bl	_ZN4_STL14_List_iteratorIP5TimerNS_16_Nonconst_traitsIS2_EEEppEv(PLT)
	.loc 2 479 0
	ldr	r3, [sp, #8]
	ldr	r4, [r3]
	add	r3, sp, #24
	mov	r0, r3
	bl	_ZNK4_STL14_List_iteratorIP5TimerNS_16_Nonconst_traitsIS2_EEEdeEv(PLT)
	mov	r3, r0
	ldr	r3, [r3]
	cmp	r4, r3
	movne	r3, #0
	moveq	r3, #1
	uxtb	r3, r3
	cmp	r3, #0
	beq	.L81
	.loc 2 479 0 is_stmt 0 discriminator 1
	add	r2, sp, #28
	add	r3, sp, #24
	mov	r0, r2
	mov	r1, r3
	bl	_ZN4_STL14_List_iteratorIP5TimerNS_16_Nonconst_traitsIS2_EEEC1ERKS5_(PLT)
	mov	r2, sp
	add	r3, sp, #28
	mov	r0, r2
	ldr	r1, [sp, #12]
	mov	r2, r3
	bl	_ZN4_STL4listIP5TimerNS_9allocatorIS2_EEE5eraseENS_14_List_iteratorIS2_NS_16_Nonconst_traitsIS2_EEEE(PLT)
.L81:
	.loc 2 480 0 is_stmt 1 discriminator 1
	ldr	r3, [sp, #16]
	str	r3, [sp, #24]
.L80:
.LBE23:
	.loc 2 476 0 discriminator 1
	add	r2, sp, #24
	add	r3, sp, #20
	mov	r0, r2
	mov	r1, r3
	bl	_ZNK4_STL19_List_iterator_baseneERKS0_(PLT)
	mov	r3, r0
	cmp	r3, #0
	bne	.L82
.LBE22:
	.loc 2 482 0
	add	sp, sp, #32
	@ sp needed
	ldmfd	sp!, {r4, pc}
	.cfi_endproc
.LFE511:
	.size	_ZN4_STL4listIP5TimerNS_9allocatorIS2_EEE6removeERKS2_, .-_ZN4_STL4listIP5TimerNS_9allocatorIS2_EEE6removeERKS2_
	.section	.text._ZN4_STL10_List_baseIP5TimerNS_9allocatorIS2_EEE5clearEv,"axG",%progbits,_ZN4_STL10_List_baseIP5TimerNS_9allocatorIS2_EEE5clearEv,comdat
	.align	2
	.weak	_ZN4_STL10_List_baseIP5TimerNS_9allocatorIS2_EEE5clearEv
	.hidden	_ZN4_STL10_List_baseIP5TimerNS_9allocatorIS2_EEE5clearEv
	.type	_ZN4_STL10_List_baseIP5TimerNS_9allocatorIS2_EEE5clearEv, %function
_ZN4_STL10_List_baseIP5TimerNS_9allocatorIS2_EEE5clearEv:
.LFB512:
	.file 6 "c:/marmalade/7.5/s3e/h/std/c++/stl/_list.c"
	.loc 6 67 0
	.cfi_startproc
	@ args = 0, pretend = 0, frame = 16
	@ frame_needed = 0, uses_anonymous_args = 0
	str	lr, [sp, #-4]!
.LCFI50:
	.cfi_def_cfa_offset 4
	.cfi_offset 14, -4
	sub	sp, sp, #20
.LCFI51:
	.cfi_def_cfa_offset 24
	str	r0, [sp, #4]
.LBB24:
	.loc 6 69 0
	ldr	r3, [sp, #4]
	ldr	r3, [r3]
	ldr	r3, [r3]
	str	r3, [sp, #12]
	.loc 6 70 0
	b	.L84
.L85:
.LBB25:
	.loc 6 71 0
	ldr	r3, [sp, #12]
	str	r3, [sp, #8]
	.loc 6 72 0
	ldr	r3, [sp, #12]
	ldr	r3, [r3]
	str	r3, [sp, #12]
	.loc 6 73 0
	ldr	r3, [sp, #8]
	add	r3, r3, #8
	mov	r0, r3
	bl	_ZN4_STL8_DestroyIP5TimerEEvPT_(PLT)
	.loc 6 74 0
	ldr	r3, [sp, #4]
	mov	r0, r3
	ldr	r1, [sp, #8]
	mov	r2, #1
	bl	_ZN4_STL9allocatorINS_10_List_nodeIP5TimerEEE10deallocateEPS4_j(PLT)
.L84:
.LBE25:
	.loc 6 70 0 discriminator 1
	ldr	r3, [sp, #4]
	ldr	r2, [r3]
	ldr	r3, [sp, #12]
	cmp	r2, r3
	bne	.L85
	.loc 6 76 0
	ldr	r3, [sp, #4]
	ldr	r3, [r3]
	ldr	r2, [sp, #4]
	ldr	r2, [r2]
	str	r2, [r3]
	.loc 6 77 0
	ldr	r3, [sp, #4]
	ldr	r3, [r3]
	ldr	r2, [sp, #4]
	ldr	r2, [r2]
	str	r2, [r3, #4]
.LBE24:
	.loc 6 78 0
	add	sp, sp, #20
	@ sp needed
	ldr	pc, [sp], #4
	.cfi_endproc
.LFE512:
	.size	_ZN4_STL10_List_baseIP5TimerNS_9allocatorIS2_EEE5clearEv, .-_ZN4_STL10_List_baseIP5TimerNS_9allocatorIS2_EEE5clearEv
	.section	.text._ZN4_STL17_STLP_alloc_proxyIPNS_10_List_nodeIP5TimerEES4_NS_9allocatorIS4_EEED2Ev,"axG",%progbits,_ZN4_STL17_STLP_alloc_proxyIPNS_10_List_nodeIP5TimerEES4_NS_9allocatorIS4_EEED5Ev,comdat
	.align	2
	.weak	_ZN4_STL17_STLP_alloc_proxyIPNS_10_List_nodeIP5TimerEES4_NS_9allocatorIS4_EEED2Ev
	.hidden	_ZN4_STL17_STLP_alloc_proxyIPNS_10_List_nodeIP5TimerEES4_NS_9allocatorIS4_EEED2Ev
	.type	_ZN4_STL17_STLP_alloc_proxyIPNS_10_List_nodeIP5TimerEES4_NS_9allocatorIS4_EEED2Ev, %function
_ZN4_STL17_STLP_alloc_proxyIPNS_10_List_nodeIP5TimerEES4_NS_9allocatorIS4_EEED2Ev:
.LFB515:
	.loc 5 481 0
	.cfi_startproc
	@ args = 0, pretend = 0, frame = 8
	@ frame_needed = 0, uses_anonymous_args = 0
	str	lr, [sp, #-4]!
.LCFI52:
	.cfi_def_cfa_offset 4
	.cfi_offset 14, -4
	sub	sp, sp, #12
.LCFI53:
	.cfi_def_cfa_offset 16
	str	r0, [sp, #4]
.LBB26:
	.loc 5 481 0
	ldr	r0, [sp, #4]
	bl	_ZN4_STL9allocatorINS_10_List_nodeIP5TimerEEED2Ev(PLT)
.LBE26:
	ldr	r3, [sp, #4]
	mov	r0, r3
	add	sp, sp, #12
	@ sp needed
	ldr	pc, [sp], #4
	.cfi_endproc
.LFE515:
	.size	_ZN4_STL17_STLP_alloc_proxyIPNS_10_List_nodeIP5TimerEES4_NS_9allocatorIS4_EEED2Ev, .-_ZN4_STL17_STLP_alloc_proxyIPNS_10_List_nodeIP5TimerEES4_NS_9allocatorIS4_EEED2Ev
	.weak	_ZN4_STL17_STLP_alloc_proxyIPNS_10_List_nodeIP5TimerEES4_NS_9allocatorIS4_EEED1Ev
	.hidden	_ZN4_STL17_STLP_alloc_proxyIPNS_10_List_nodeIP5TimerEES4_NS_9allocatorIS4_EEED1Ev
	.set	_ZN4_STL17_STLP_alloc_proxyIPNS_10_List_nodeIP5TimerEES4_NS_9allocatorIS4_EEED1Ev,_ZN4_STL17_STLP_alloc_proxyIPNS_10_List_nodeIP5TimerEES4_NS_9allocatorIS4_EEED2Ev
	.section	.text._ZN4_STL10_List_baseIP5TimerNS_9allocatorIS2_EEEC2ERKS4_,"axG",%progbits,_ZN4_STL10_List_baseIP5TimerNS_9allocatorIS2_EEEC5ERKS4_,comdat
	.align	2
	.weak	_ZN4_STL10_List_baseIP5TimerNS_9allocatorIS2_EEEC2ERKS4_
	.hidden	_ZN4_STL10_List_baseIP5TimerNS_9allocatorIS2_EEEC2ERKS4_
	.type	_ZN4_STL10_List_baseIP5TimerNS_9allocatorIS2_EEEC2ERKS4_, %function
_ZN4_STL10_List_baseIP5TimerNS_9allocatorIS2_EEEC2ERKS4_:
.LFB517:
	.loc 2 182 0
	.cfi_startproc
	@ args = 0, pretend = 0, frame = 16
	@ frame_needed = 0, uses_anonymous_args = 0
	stmfd	sp!, {r4, lr}
.LCFI54:
	.cfi_def_cfa_offset 8
	.cfi_offset 4, -8
	.cfi_offset 14, -4
	sub	sp, sp, #16
.LCFI55:
	.cfi_def_cfa_offset 24
	str	r0, [sp, #4]
	str	r1, [sp]
.LBB27:
	.loc 2 182 0
	ldr	r4, [sp, #4]
	add	r3, sp, #8
	mov	r0, r3
	ldr	r1, [sp]
	bl	_ZN4_STL9allocatorINS_10_List_nodeIP5TimerEEEC1IS3_EERKNS0_IT_EE(PLT)
	add	r3, sp, #8
	mov	r0, r4
	mov	r1, r3
	mov	r2, #0
	bl	_ZN4_STL17_STLP_alloc_proxyIPNS_10_List_nodeIP5TimerEES4_NS_9allocatorIS4_EEEC1ERKS7_S5_(PLT)
	add	r3, sp, #8
	mov	r0, r3
	bl	_ZN4_STL9allocatorINS_10_List_nodeIP5TimerEEED1Ev(PLT)
.LBB28:
	.loc 2 183 0
	ldr	r3, [sp, #4]
	mov	r0, r3
	mov	r1, #1
	mov	r2, #0
	bl	_ZN4_STL9allocatorINS_10_List_nodeIP5TimerEEE8allocateEjPKv(PLT)
	str	r0, [sp, #12]
	.loc 2 184 0
	ldr	r3, [sp, #12]
	ldr	r2, [sp, #12]
	str	r2, [r3]
	.loc 2 185 0
	ldr	r3, [sp, #12]
	ldr	r2, [sp, #12]
	str	r2, [r3, #4]
	.loc 2 186 0
	ldr	r3, [sp, #4]
	ldr	r2, [sp, #12]
	str	r2, [r3]
.LBE28:
.LBE27:
	.loc 2 187 0
	ldr	r3, [sp, #4]
	mov	r0, r3
	add	sp, sp, #16
	@ sp needed
	ldmfd	sp!, {r4, pc}
	.cfi_endproc
.LFE517:
	.size	_ZN4_STL10_List_baseIP5TimerNS_9allocatorIS2_EEEC2ERKS4_, .-_ZN4_STL10_List_baseIP5TimerNS_9allocatorIS2_EEEC2ERKS4_
	.weak	_ZN4_STL10_List_baseIP5TimerNS_9allocatorIS2_EEEC1ERKS4_
	.hidden	_ZN4_STL10_List_baseIP5TimerNS_9allocatorIS2_EEEC1ERKS4_
	.set	_ZN4_STL10_List_baseIP5TimerNS_9allocatorIS2_EEEC1ERKS4_,_ZN4_STL10_List_baseIP5TimerNS_9allocatorIS2_EEEC2ERKS4_
	.section	.text._ZN4_STL10_List_baseIP5TimerNS_9allocatorIS2_EEED2Ev,"axG",%progbits,_ZN4_STL10_List_baseIP5TimerNS_9allocatorIS2_EEED5Ev,comdat
	.align	2
	.weak	_ZN4_STL10_List_baseIP5TimerNS_9allocatorIS2_EEED2Ev
	.hidden	_ZN4_STL10_List_baseIP5TimerNS_9allocatorIS2_EEED2Ev
	.type	_ZN4_STL10_List_baseIP5TimerNS_9allocatorIS2_EEED2Ev, %function
_ZN4_STL10_List_baseIP5TimerNS_9allocatorIS2_EEED2Ev:
.LFB520:
	.loc 2 188 0
	.cfi_startproc
	@ args = 0, pretend = 0, frame = 8
	@ frame_needed = 0, uses_anonymous_args = 0
	str	lr, [sp, #-4]!
.LCFI56:
	.cfi_def_cfa_offset 4
	.cfi_offset 14, -4
	sub	sp, sp, #12
.LCFI57:
	.cfi_def_cfa_offset 16
	str	r0, [sp, #4]
.LBB29:
	.loc 2 189 0
	ldr	r0, [sp, #4]
	bl	_ZN4_STL10_List_baseIP5TimerNS_9allocatorIS2_EEE5clearEv(PLT)
	.loc 2 190 0
	ldr	r2, [sp, #4]
	ldr	r3, [sp, #4]
	ldr	r3, [r3]
	mov	r0, r2
	mov	r1, r3
	mov	r2, #1
	bl	_ZN4_STL9allocatorINS_10_List_nodeIP5TimerEEE10deallocateEPS4_j(PLT)
	.loc 2 191 0
	ldr	r3, [sp, #4]
	mov	r0, r3
	bl	_ZN4_STL17_STLP_alloc_proxyIPNS_10_List_nodeIP5TimerEES4_NS_9allocatorIS4_EEED1Ev(PLT)
.LBE29:
	ldr	r3, [sp, #4]
	mov	r0, r3
	add	sp, sp, #12
	@ sp needed
	ldr	pc, [sp], #4
	.cfi_endproc
.LFE520:
	.size	_ZN4_STL10_List_baseIP5TimerNS_9allocatorIS2_EEED2Ev, .-_ZN4_STL10_List_baseIP5TimerNS_9allocatorIS2_EEED2Ev
	.weak	_ZN4_STL10_List_baseIP5TimerNS_9allocatorIS2_EEED1Ev
	.hidden	_ZN4_STL10_List_baseIP5TimerNS_9allocatorIS2_EEED1Ev
	.set	_ZN4_STL10_List_baseIP5TimerNS_9allocatorIS2_EEED1Ev,_ZN4_STL10_List_baseIP5TimerNS_9allocatorIS2_EEED2Ev
	.section	.text._ZN4_STL14_List_iteratorIP5TimerNS_16_Nonconst_traitsIS2_EEEC2EPNS_10_List_nodeIS2_EE,"axG",%progbits,_ZN4_STL14_List_iteratorIP5TimerNS_16_Nonconst_traitsIS2_EEEC5EPNS_10_List_nodeIS2_EE,comdat
	.align	2
	.weak	_ZN4_STL14_List_iteratorIP5TimerNS_16_Nonconst_traitsIS2_EEEC2EPNS_10_List_nodeIS2_EE
	.hidden	_ZN4_STL14_List_iteratorIP5TimerNS_16_Nonconst_traitsIS2_EEEC2EPNS_10_List_nodeIS2_EE
	.type	_ZN4_STL14_List_iteratorIP5TimerNS_16_Nonconst_traitsIS2_EEEC2EPNS_10_List_nodeIS2_EE, %function
_ZN4_STL14_List_iteratorIP5TimerNS_16_Nonconst_traitsIS2_EEEC2EPNS_10_List_nodeIS2_EE:
.LFB523:
	.loc 2 126 0
	.cfi_startproc
	@ args = 0, pretend = 0, frame = 8
	@ frame_needed = 0, uses_anonymous_args = 0
	str	lr, [sp, #-4]!
.LCFI58:
	.cfi_def_cfa_offset 4
	.cfi_offset 14, -4
	sub	sp, sp, #12
.LCFI59:
	.cfi_def_cfa_offset 16
	str	r0, [sp, #4]
	str	r1, [sp]
.LBB30:
	.loc 2 126 0
	ldr	r3, [sp, #4]
	mov	r0, r3
	ldr	r1, [sp]
	bl	_ZN4_STL19_List_iterator_baseC2EPNS_15_List_node_baseE(PLT)
.LBE30:
	ldr	r3, [sp, #4]
	mov	r0, r3
	add	sp, sp, #12
	@ sp needed
	ldr	pc, [sp], #4
	.cfi_endproc
.LFE523:
	.size	_ZN4_STL14_List_iteratorIP5TimerNS_16_Nonconst_traitsIS2_EEEC2EPNS_10_List_nodeIS2_EE, .-_ZN4_STL14_List_iteratorIP5TimerNS_16_Nonconst_traitsIS2_EEEC2EPNS_10_List_nodeIS2_EE
	.weak	_ZN4_STL14_List_iteratorIP5TimerNS_16_Nonconst_traitsIS2_EEEC1EPNS_10_List_nodeIS2_EE
	.hidden	_ZN4_STL14_List_iteratorIP5TimerNS_16_Nonconst_traitsIS2_EEEC1EPNS_10_List_nodeIS2_EE
	.set	_ZN4_STL14_List_iteratorIP5TimerNS_16_Nonconst_traitsIS2_EEEC1EPNS_10_List_nodeIS2_EE,_ZN4_STL14_List_iteratorIP5TimerNS_16_Nonconst_traitsIS2_EEEC2EPNS_10_List_nodeIS2_EE
	.section	.text._ZN4_STL8_DestroyIP5TimerEEvPT_,"axG",%progbits,_ZN4_STL8_DestroyIP5TimerEEvPT_,comdat
	.align	2
	.weak	_ZN4_STL8_DestroyIP5TimerEEvPT_
	.hidden	_ZN4_STL8_DestroyIP5TimerEEvPT_
	.type	_ZN4_STL8_DestroyIP5TimerEEvPT_, %function
_ZN4_STL8_DestroyIP5TimerEEvPT_:
.LFB525:
	.file 7 "c:/marmalade/7.5/s3e/h/std/c++/stl/_construct.h"
	.loc 7 56 0
	.cfi_startproc
	@ args = 0, pretend = 0, frame = 8
	@ frame_needed = 0, uses_anonymous_args = 0
	@ link register save eliminated.
	sub	sp, sp, #8
.LCFI60:
	.cfi_def_cfa_offset 8
	str	r0, [sp, #4]
	.loc 7 73 0
	add	sp, sp, #8
	@ sp needed
	bx	lr
	.cfi_endproc
.LFE525:
	.size	_ZN4_STL8_DestroyIP5TimerEEvPT_, .-_ZN4_STL8_DestroyIP5TimerEEvPT_
	.section	.text._ZN4_STL9allocatorINS_10_List_nodeIP5TimerEEE10deallocateEPS4_j,"axG",%progbits,_ZN4_STL9allocatorINS_10_List_nodeIP5TimerEEE10deallocateEPS4_j,comdat
	.align	2
	.weak	_ZN4_STL9allocatorINS_10_List_nodeIP5TimerEEE10deallocateEPS4_j
	.hidden	_ZN4_STL9allocatorINS_10_List_nodeIP5TimerEEE10deallocateEPS4_j
	.type	_ZN4_STL9allocatorINS_10_List_nodeIP5TimerEEE10deallocateEPS4_j, %function
_ZN4_STL9allocatorINS_10_List_nodeIP5TimerEEE10deallocateEPS4_j:
.LFB526:
	.loc 5 358 0
	.cfi_startproc
	@ args = 0, pretend = 0, frame = 16
	@ frame_needed = 0, uses_anonymous_args = 0
	str	lr, [sp, #-4]!
.LCFI61:
	.cfi_def_cfa_offset 4
	.cfi_offset 14, -4
	sub	sp, sp, #20
.LCFI62:
	.cfi_def_cfa_offset 24
	str	r0, [sp, #12]
	str	r1, [sp, #8]
	str	r2, [sp, #4]
	.loc 5 360 0
	ldr	r3, [sp, #8]
	cmp	r3, #0
	beq	.L99
	.loc 5 360 0 is_stmt 0 discriminator 1
	ldr	r2, [sp, #4]
	mov	r3, r2
	mov	r3, r3, asl #1
	add	r3, r3, r2
	mov	r3, r3, asl #2
	ldr	r0, [sp, #8]
	mov	r1, r3
	bl	_ZN4_STL14__malloc_allocILi0EE10deallocateEPvj(PLT)
.L99:
	.loc 5 361 0 is_stmt 1
	add	sp, sp, #20
	@ sp needed
	ldr	pc, [sp], #4
	.cfi_endproc
.LFE526:
	.size	_ZN4_STL9allocatorINS_10_List_nodeIP5TimerEEE10deallocateEPS4_j, .-_ZN4_STL9allocatorINS_10_List_nodeIP5TimerEEE10deallocateEPS4_j
	.section	.text._ZN4_STL4listIP5TimerNS_9allocatorIS2_EEE6insertENS_14_List_iteratorIS2_NS_16_Nonconst_traitsIS2_EEEERKS2_,"axG",%progbits,_ZN4_STL4listIP5TimerNS_9allocatorIS2_EEE6insertENS_14_List_iteratorIS2_NS_16_Nonconst_traitsIS2_EEEERKS2_,comdat
	.align	2
	.weak	_ZN4_STL4listIP5TimerNS_9allocatorIS2_EEE6insertENS_14_List_iteratorIS2_NS_16_Nonconst_traitsIS2_EEEERKS2_
	.hidden	_ZN4_STL4listIP5TimerNS_9allocatorIS2_EEE6insertENS_14_List_iteratorIS2_NS_16_Nonconst_traitsIS2_EEEERKS2_
	.type	_ZN4_STL4listIP5TimerNS_9allocatorIS2_EEE6insertENS_14_List_iteratorIS2_NS_16_Nonconst_traitsIS2_EEEERKS2_, %function
_ZN4_STL4listIP5TimerNS_9allocatorIS2_EEE6insertENS_14_List_iteratorIS2_NS_16_Nonconst_traitsIS2_EEEERKS2_:
.LFB527:
	.loc 2 298 0
	.cfi_startproc
	@ args = 0, pretend = 0, frame = 32
	@ frame_needed = 0, uses_anonymous_args = 0
	str	lr, [sp, #-4]!
.LCFI63:
	.cfi_def_cfa_offset 4
	.cfi_offset 14, -4
	sub	sp, sp, #36
.LCFI64:
	.cfi_def_cfa_offset 40
	str	r0, [sp, #12]
	str	r1, [sp, #8]
	str	r2, [sp, #4]
	str	r3, [sp]
.LBB31:
	.loc 2 300 0
	ldr	r0, [sp, #8]
	ldr	r1, [sp]
	bl	_ZN4_STL4listIP5TimerNS_9allocatorIS2_EEE14_M_create_nodeERKS2_(PLT)
	str	r0, [sp, #28]
	.loc 2 301 0
	ldr	r3, [sp, #4]
	ldr	r3, [r3]
	str	r3, [sp, #24]
	.loc 2 302 0
	ldr	r3, [sp, #24]
	ldr	r3, [r3, #4]
	str	r3, [sp, #20]
	.loc 2 303 0
	ldr	r3, [sp, #28]
	ldr	r2, [sp, #24]
	str	r2, [r3]
	.loc 2 304 0
	ldr	r3, [sp, #28]
	ldr	r2, [sp, #20]
	str	r2, [r3, #4]
	.loc 2 305 0
	ldr	r3, [sp, #20]
	ldr	r2, [sp, #28]
	str	r2, [r3]
	.loc 2 306 0
	ldr	r3, [sp, #24]
	ldr	r2, [sp, #28]
	str	r2, [r3, #4]
	.loc 2 307 0
	ldr	r0, [sp, #12]
	ldr	r1, [sp, #28]
	bl	_ZN4_STL14_List_iteratorIP5TimerNS_16_Nonconst_traitsIS2_EEEC1EPNS_10_List_nodeIS2_EE(PLT)
.LBE31:
	.loc 2 308 0
	ldr	r0, [sp, #12]
	add	sp, sp, #36
	@ sp needed
	ldr	pc, [sp], #4
	.cfi_endproc
.LFE527:
	.size	_ZN4_STL4listIP5TimerNS_9allocatorIS2_EEE6insertENS_14_List_iteratorIS2_NS_16_Nonconst_traitsIS2_EEEERKS2_, .-_ZN4_STL4listIP5TimerNS_9allocatorIS2_EEE6insertENS_14_List_iteratorIS2_NS_16_Nonconst_traitsIS2_EEEERKS2_
	.section	.text._ZN4_STL9allocatorINS_10_List_nodeIP5TimerEEEC2IS3_EERKNS0_IT_EE,"axG",%progbits,_ZN4_STL9allocatorINS_10_List_nodeIP5TimerEEEC5IS3_EERKNS0_IT_EE,comdat
	.align	2
	.weak	_ZN4_STL9allocatorINS_10_List_nodeIP5TimerEEEC2IS3_EERKNS0_IT_EE
	.hidden	_ZN4_STL9allocatorINS_10_List_nodeIP5TimerEEEC2IS3_EERKNS0_IT_EE
	.type	_ZN4_STL9allocatorINS_10_List_nodeIP5TimerEEEC2IS3_EERKNS0_IT_EE, %function
_ZN4_STL9allocatorINS_10_List_nodeIP5TimerEEEC2IS3_EERKNS0_IT_EE:
.LFB529:
	.loc 5 347 0
	.cfi_startproc
	@ args = 0, pretend = 0, frame = 8
	@ frame_needed = 0, uses_anonymous_args = 0
	@ link register save eliminated.
	sub	sp, sp, #8
.LCFI65:
	.cfi_def_cfa_offset 8
	str	r0, [sp, #4]
	str	r1, [sp]
	.loc 5 347 0
	ldr	r3, [sp, #4]
	mov	r0, r3
	add	sp, sp, #8
	@ sp needed
	bx	lr
	.cfi_endproc
.LFE529:
	.size	_ZN4_STL9allocatorINS_10_List_nodeIP5TimerEEEC2IS3_EERKNS0_IT_EE, .-_ZN4_STL9allocatorINS_10_List_nodeIP5TimerEEEC2IS3_EERKNS0_IT_EE
	.weak	_ZN4_STL9allocatorINS_10_List_nodeIP5TimerEEEC1IS3_EERKNS0_IT_EE
	.hidden	_ZN4_STL9allocatorINS_10_List_nodeIP5TimerEEEC1IS3_EERKNS0_IT_EE
	.set	_ZN4_STL9allocatorINS_10_List_nodeIP5TimerEEEC1IS3_EERKNS0_IT_EE,_ZN4_STL9allocatorINS_10_List_nodeIP5TimerEEEC2IS3_EERKNS0_IT_EE
	.section	.text._ZN4_STL9allocatorINS_10_List_nodeIP5TimerEEED2Ev,"axG",%progbits,_ZN4_STL9allocatorINS_10_List_nodeIP5TimerEEED5Ev,comdat
	.align	2
	.weak	_ZN4_STL9allocatorINS_10_List_nodeIP5TimerEEED2Ev
	.hidden	_ZN4_STL9allocatorINS_10_List_nodeIP5TimerEEED2Ev
	.type	_ZN4_STL9allocatorINS_10_List_nodeIP5TimerEEED2Ev, %function
_ZN4_STL9allocatorINS_10_List_nodeIP5TimerEEED2Ev:
.LFB532:
	.loc 5 350 0
	.cfi_startproc
	@ args = 0, pretend = 0, frame = 8
	@ frame_needed = 0, uses_anonymous_args = 0
	@ link register save eliminated.
	sub	sp, sp, #8
.LCFI66:
	.cfi_def_cfa_offset 8
	str	r0, [sp, #4]
	.loc 5 350 0
	ldr	r3, [sp, #4]
	mov	r0, r3
	add	sp, sp, #8
	@ sp needed
	bx	lr
	.cfi_endproc
.LFE532:
	.size	_ZN4_STL9allocatorINS_10_List_nodeIP5TimerEEED2Ev, .-_ZN4_STL9allocatorINS_10_List_nodeIP5TimerEEED2Ev
	.weak	_ZN4_STL9allocatorINS_10_List_nodeIP5TimerEEED1Ev
	.hidden	_ZN4_STL9allocatorINS_10_List_nodeIP5TimerEEED1Ev
	.set	_ZN4_STL9allocatorINS_10_List_nodeIP5TimerEEED1Ev,_ZN4_STL9allocatorINS_10_List_nodeIP5TimerEEED2Ev
	.section	.text._ZN4_STL17_STLP_alloc_proxyIPNS_10_List_nodeIP5TimerEES4_NS_9allocatorIS4_EEEC2ERKS7_S5_,"axG",%progbits,_ZN4_STL17_STLP_alloc_proxyIPNS_10_List_nodeIP5TimerEES4_NS_9allocatorIS4_EEEC5ERKS7_S5_,comdat
	.align	2
	.weak	_ZN4_STL17_STLP_alloc_proxyIPNS_10_List_nodeIP5TimerEES4_NS_9allocatorIS4_EEEC2ERKS7_S5_
	.hidden	_ZN4_STL17_STLP_alloc_proxyIPNS_10_List_nodeIP5TimerEES4_NS_9allocatorIS4_EEEC2ERKS7_S5_
	.type	_ZN4_STL17_STLP_alloc_proxyIPNS_10_List_nodeIP5TimerEES4_NS_9allocatorIS4_EEEC2ERKS7_S5_, %function
_ZN4_STL17_STLP_alloc_proxyIPNS_10_List_nodeIP5TimerEES4_NS_9allocatorIS4_EEEC2ERKS7_S5_:
.LFB535:
	.loc 5 487 0
	.cfi_startproc
	@ args = 0, pretend = 0, frame = 16
	@ frame_needed = 0, uses_anonymous_args = 0
	str	lr, [sp, #-4]!
.LCFI67:
	.cfi_def_cfa_offset 4
	.cfi_offset 14, -4
	sub	sp, sp, #20
.LCFI68:
	.cfi_def_cfa_offset 24
	str	r0, [sp, #12]
	str	r1, [sp, #8]
	str	r2, [sp, #4]
.LBB32:
	.loc 5 487 0
	ldr	r0, [sp, #12]
	ldr	r1, [sp, #8]
	bl	_ZN4_STL9allocatorINS_10_List_nodeIP5TimerEEEC2ERKS5_(PLT)
	ldr	r3, [sp, #12]
	ldr	r2, [sp, #4]
	str	r2, [r3]
.LBE32:
	ldr	r3, [sp, #12]
	mov	r0, r3
	add	sp, sp, #20
	@ sp needed
	ldr	pc, [sp], #4
	.cfi_endproc
.LFE535:
	.size	_ZN4_STL17_STLP_alloc_proxyIPNS_10_List_nodeIP5TimerEES4_NS_9allocatorIS4_EEEC2ERKS7_S5_, .-_ZN4_STL17_STLP_alloc_proxyIPNS_10_List_nodeIP5TimerEES4_NS_9allocatorIS4_EEEC2ERKS7_S5_
	.weak	_ZN4_STL17_STLP_alloc_proxyIPNS_10_List_nodeIP5TimerEES4_NS_9allocatorIS4_EEEC1ERKS7_S5_
	.hidden	_ZN4_STL17_STLP_alloc_proxyIPNS_10_List_nodeIP5TimerEES4_NS_9allocatorIS4_EEEC1ERKS7_S5_
	.set	_ZN4_STL17_STLP_alloc_proxyIPNS_10_List_nodeIP5TimerEES4_NS_9allocatorIS4_EEEC1ERKS7_S5_,_ZN4_STL17_STLP_alloc_proxyIPNS_10_List_nodeIP5TimerEES4_NS_9allocatorIS4_EEEC2ERKS7_S5_
	.section	.text._ZN4_STL9allocatorINS_10_List_nodeIP5TimerEEE8allocateEjPKv,"axG",%progbits,_ZN4_STL9allocatorINS_10_List_nodeIP5TimerEEE8allocateEjPKv,comdat
	.align	2
	.weak	_ZN4_STL9allocatorINS_10_List_nodeIP5TimerEEE8allocateEjPKv
	.hidden	_ZN4_STL9allocatorINS_10_List_nodeIP5TimerEEE8allocateEjPKv
	.type	_ZN4_STL9allocatorINS_10_List_nodeIP5TimerEEE8allocateEjPKv, %function
_ZN4_STL9allocatorINS_10_List_nodeIP5TimerEEE8allocateEjPKv:
.LFB537:
	.loc 5 354 0
	.cfi_startproc
	@ args = 0, pretend = 0, frame = 16
	@ frame_needed = 0, uses_anonymous_args = 0
	str	lr, [sp, #-4]!
.LCFI69:
	.cfi_def_cfa_offset 4
	.cfi_offset 14, -4
	sub	sp, sp, #20
.LCFI70:
	.cfi_def_cfa_offset 24
	str	r0, [sp, #12]
	str	r1, [sp, #8]
	str	r2, [sp, #4]
	.loc 5 355 0
	ldr	r3, [sp, #8]
	cmp	r3, #0
	beq	.L113
	.loc 5 355 0 is_stmt 0 discriminator 1
	ldr	r2, [sp, #8]
	mov	r3, r2
	mov	r3, r3, asl #1
	add	r3, r3, r2
	mov	r3, r3, asl #2
	mov	r0, r3
	bl	_ZN4_STL14__malloc_allocILi0EE8allocateEj(PLT)
	mov	r3, r0
	b	.L114
.L113:
	.loc 5 355 0 discriminator 2
	mov	r3, #0
.L114:
	.loc 5 356 0 is_stmt 1 discriminator 3
	mov	r0, r3
	add	sp, sp, #20
	@ sp needed
	ldr	pc, [sp], #4
	.cfi_endproc
.LFE537:
	.size	_ZN4_STL9allocatorINS_10_List_nodeIP5TimerEEE8allocateEjPKv, .-_ZN4_STL9allocatorINS_10_List_nodeIP5TimerEEE8allocateEjPKv
	.section	.text._ZN4_STL14__malloc_allocILi0EE10deallocateEPvj,"axG",%progbits,_ZN4_STL14__malloc_allocILi0EE10deallocateEPvj,comdat
	.align	2
	.weak	_ZN4_STL14__malloc_allocILi0EE10deallocateEPvj
	.hidden	_ZN4_STL14__malloc_allocILi0EE10deallocateEPvj
	.type	_ZN4_STL14__malloc_allocILi0EE10deallocateEPvj, %function
_ZN4_STL14__malloc_allocILi0EE10deallocateEPvj:
.LFB538:
	.loc 5 114 0
	.cfi_startproc
	@ args = 0, pretend = 0, frame = 8
	@ frame_needed = 0, uses_anonymous_args = 0
	str	lr, [sp, #-4]!
.LCFI71:
	.cfi_def_cfa_offset 4
	.cfi_offset 14, -4
	sub	sp, sp, #12
.LCFI72:
	.cfi_def_cfa_offset 16
	str	r0, [sp, #4]
	str	r1, [sp]
	.loc 5 114 0
	ldr	r0, [sp, #4]
	bl	free(PLT)
	add	sp, sp, #12
	@ sp needed
	ldr	pc, [sp], #4
	.cfi_endproc
.LFE538:
	.size	_ZN4_STL14__malloc_allocILi0EE10deallocateEPvj, .-_ZN4_STL14__malloc_allocILi0EE10deallocateEPvj
	.section	.text._ZN4_STL4listIP5TimerNS_9allocatorIS2_EEE14_M_create_nodeERKS2_,"axG",%progbits,_ZN4_STL4listIP5TimerNS_9allocatorIS2_EEE14_M_create_nodeERKS2_,comdat
	.align	2
	.weak	_ZN4_STL4listIP5TimerNS_9allocatorIS2_EEE14_M_create_nodeERKS2_
	.hidden	_ZN4_STL4listIP5TimerNS_9allocatorIS2_EEE14_M_create_nodeERKS2_
	.type	_ZN4_STL4listIP5TimerNS_9allocatorIS2_EEE14_M_create_nodeERKS2_, %function
_ZN4_STL4listIP5TimerNS_9allocatorIS2_EEE14_M_create_nodeERKS2_:
.LFB539:
	.loc 2 239 0
	.cfi_startproc
	@ args = 0, pretend = 0, frame = 16
	@ frame_needed = 0, uses_anonymous_args = 0
	str	lr, [sp, #-4]!
.LCFI73:
	.cfi_def_cfa_offset 4
	.cfi_offset 14, -4
	sub	sp, sp, #20
.LCFI74:
	.cfi_def_cfa_offset 24
	str	r0, [sp, #4]
	str	r1, [sp]
.LBB33:
	.loc 2 241 0
	ldr	r3, [sp, #4]
	mov	r0, r3
	mov	r1, #1
	mov	r2, #0
	bl	_ZN4_STL9allocatorINS_10_List_nodeIP5TimerEEE8allocateEjPKv(PLT)
	str	r0, [sp, #12]
	.loc 2 243 0
	ldr	r3, [sp, #12]
	add	r3, r3, #8
	mov	r0, r3
	ldr	r1, [sp]
	bl	_ZN4_STL10_ConstructIP5TimerS2_EEvPT_RKT0_(PLT)
	.loc 2 246 0
	ldr	r3, [sp, #12]
.LBE33:
	.loc 2 247 0
	mov	r0, r3
	add	sp, sp, #20
	@ sp needed
	ldr	pc, [sp], #4
	.cfi_endproc
.LFE539:
	.size	_ZN4_STL4listIP5TimerNS_9allocatorIS2_EEE14_M_create_nodeERKS2_, .-_ZN4_STL4listIP5TimerNS_9allocatorIS2_EEE14_M_create_nodeERKS2_
	.section	.text._ZN4_STL9allocatorINS_10_List_nodeIP5TimerEEEC2ERKS5_,"axG",%progbits,_ZN4_STL9allocatorINS_10_List_nodeIP5TimerEEEC5ERKS5_,comdat
	.align	2
	.weak	_ZN4_STL9allocatorINS_10_List_nodeIP5TimerEEEC2ERKS5_
	.hidden	_ZN4_STL9allocatorINS_10_List_nodeIP5TimerEEEC2ERKS5_
	.type	_ZN4_STL9allocatorINS_10_List_nodeIP5TimerEEEC2ERKS5_, %function
_ZN4_STL9allocatorINS_10_List_nodeIP5TimerEEEC2ERKS5_:
.LFB541:
	.loc 5 349 0
	.cfi_startproc
	@ args = 0, pretend = 0, frame = 8
	@ frame_needed = 0, uses_anonymous_args = 0
	@ link register save eliminated.
	sub	sp, sp, #8
.LCFI75:
	.cfi_def_cfa_offset 8
	str	r0, [sp, #4]
	str	r1, [sp]
	.loc 5 349 0
	ldr	r3, [sp, #4]
	mov	r0, r3
	add	sp, sp, #8
	@ sp needed
	bx	lr
	.cfi_endproc
.LFE541:
	.size	_ZN4_STL9allocatorINS_10_List_nodeIP5TimerEEEC2ERKS5_, .-_ZN4_STL9allocatorINS_10_List_nodeIP5TimerEEEC2ERKS5_
	.weak	_ZN4_STL9allocatorINS_10_List_nodeIP5TimerEEEC1ERKS5_
	.hidden	_ZN4_STL9allocatorINS_10_List_nodeIP5TimerEEEC1ERKS5_
	.set	_ZN4_STL9allocatorINS_10_List_nodeIP5TimerEEEC1ERKS5_,_ZN4_STL9allocatorINS_10_List_nodeIP5TimerEEEC2ERKS5_
	.section	.text._ZN4_STL14__malloc_allocILi0EE8allocateEj,"axG",%progbits,_ZN4_STL14__malloc_allocILi0EE8allocateEj,comdat
	.align	2
	.weak	_ZN4_STL14__malloc_allocILi0EE8allocateEj
	.hidden	_ZN4_STL14__malloc_allocILi0EE8allocateEj
	.type	_ZN4_STL14__malloc_allocILi0EE8allocateEj, %function
_ZN4_STL14__malloc_allocILi0EE8allocateEj:
.LFB543:
	.loc 5 109 0
	.cfi_startproc
	@ args = 0, pretend = 0, frame = 16
	@ frame_needed = 0, uses_anonymous_args = 0
	str	lr, [sp, #-4]!
.LCFI76:
	.cfi_def_cfa_offset 4
	.cfi_offset 14, -4
	sub	sp, sp, #20
.LCFI77:
	.cfi_def_cfa_offset 24
	str	r0, [sp, #4]
.LBB34:
	.loc 5 110 0
	ldr	r0, [sp, #4]
	bl	malloc(PLT)
	mov	r3, r0
	str	r3, [sp, #12]
	.loc 5 111 0
	ldr	r3, [sp, #12]
	cmp	r3, #0
	bne	.L123
	.loc 5 111 0 is_stmt 0 discriminator 1
	ldr	r0, [sp, #4]
	bl	_ZN4_STL14__malloc_allocILi0EE13_S_oom_mallocEj(PLT)
	str	r0, [sp, #12]
.L123:
	.loc 5 112 0 is_stmt 1
	ldr	r3, [sp, #12]
.LBE34:
	.loc 5 113 0
	mov	r0, r3
	add	sp, sp, #20
	@ sp needed
	ldr	pc, [sp], #4
	.cfi_endproc
.LFE543:
	.size	_ZN4_STL14__malloc_allocILi0EE8allocateEj, .-_ZN4_STL14__malloc_allocILi0EE8allocateEj
	.section	.text._ZN4_STL10_ConstructIP5TimerS2_EEvPT_RKT0_,"axG",%progbits,_ZN4_STL10_ConstructIP5TimerS2_EEvPT_RKT0_,comdat
	.align	2
	.weak	_ZN4_STL10_ConstructIP5TimerS2_EEvPT_RKT0_
	.hidden	_ZN4_STL10_ConstructIP5TimerS2_EEvPT_RKT0_
	.type	_ZN4_STL10_ConstructIP5TimerS2_EEvPT_RKT0_, %function
_ZN4_STL10_ConstructIP5TimerS2_EEvPT_RKT0_:
.LFB544:
	.loc 7 93 0
	.cfi_startproc
	@ args = 0, pretend = 0, frame = 8
	@ frame_needed = 0, uses_anonymous_args = 0
	str	lr, [sp, #-4]!
.LCFI78:
	.cfi_def_cfa_offset 4
	.cfi_offset 14, -4
	sub	sp, sp, #12
.LCFI79:
	.cfi_def_cfa_offset 16
	str	r0, [sp, #4]
	str	r1, [sp]
	.loc 7 97 0
	ldr	r3, [sp, #4]
	mov	r0, #4
	mov	r1, r3
	bl	_ZnwjPv(PLT)
	mov	r3, r0
	ldr	r2, [sp]
	ldr	r2, [r2]
	str	r2, [r3]
	.loc 7 98 0
	add	sp, sp, #12
	@ sp needed
	ldr	pc, [sp], #4
	.cfi_endproc
.LFE544:
	.size	_ZN4_STL10_ConstructIP5TimerS2_EEvPT_RKT0_, .-_ZN4_STL10_ConstructIP5TimerS2_EEvPT_RKT0_
	.text
.Letext0:
	.file 8 "c:/marmalade/7.5/s3e/h/std/c++/typeinfo.h"
	.file 9 "c:/marmalade/7.5/s3e/h/std/c++/cstddef"
	.file 10 "c:/marmalade/7.5/s3e/h/std/c++/using/cstring"
	.file 11 "c:/marmalade/7.5/s3e/h/std/c++/cstdlib"
	.file 12 "c:/marmalade/7.5/s3e/h/std/c++/cstdio"
	.file 13 "c:/marmalade/7.5/s3e/h/std/c++/exception"
	.file 14 "c:/marmalade/7.5/s3e/h/std/c++/typeinfo"
	.file 15 "c:/marmalade/7.5/s3e/h/std/c++/stl/_iterator_base.h"
	.file 16 "c:/marmalade/7.5/s3e/h/std/c++/stl/_config.h"
	.file 17 "c:/marmalade/7.5/s3e/h/ext/../std/stddef.h"
	.file 18 "c:/marmalade/7.5/s3e/h/s3eTypes.h"
	.file 19 "c:/marmalade/7.5/s3e/h/ext/../std/string.h"
	.file 20 "c:/marmalade/7.5/s3e/h/ext/../std/stdlib.h"
	.file 21 "c:/marmalade/7.5/s3e/h/ext/../std/stdio.h"
	.file 22 "c:/marmalade/7.5/s3e/h/s3eFile.h"
	.file 23 "c:/marmalade/7.5/modules/iwutil/h/IwSerialise.h"
	.file 24 "<built-in>"